
B91_ble_sample.elf:     file format elf32-littleriscv
B91_ble_sample.elf
architecture: riscv:rv32, flags 0x00000112:
EXEC_P, HAS_SYMS, D_PAGED
start address 0x20000000

Program Header:
    LOAD off    0x00001000 vaddr 0x20000000 paddr 0x20000000 align 2**12
         filesz 0x0000018a memsz 0x0000018a flags r-x
    LOAD off    0x00002000 vaddr 0x00000000 paddr 0x20000190 align 2**12
         filesz 0x00000158 memsz 0x00000178 flags rwx
    LOAD off    0x00002178 vaddr 0x00000178 paddr 0x200002e8 align 2**12
         filesz 0x00001024 memsz 0x00001024 flags rw-
    LOAD off    0x00003200 vaddr 0x00001200 paddr 0x20001310 align 2**12
         filesz 0x00005602 memsz 0x00005602 flags r-x
    LOAD off    0x00008918 vaddr 0x20006918 paddr 0x20006918 align 2**12
         filesz 0x0000704c memsz 0x0000704c flags r-x
    LOAD off    0x00010000 vaddr 0x00080000 paddr 0x2000d980 align 2**12
         filesz 0x0000001e memsz 0x00000078 flags rw-
0x70000000 off    0x0004be2f vaddr 0x00000000 paddr 0x00000000 align 2**0
         filesz 0x0000003b memsz 0x00000000 flags r--

Sections:
Idx Name          Size      VMA       LMA       File off  Algn
  0 .vectors      0000018a  20000000  20000000  00001000  2**2
                  CONTENTS, ALLOC, LOAD, READONLY, CODE
  1 .retention_reset 00000158  00000000  20000190  00002000  2**2
                  CONTENTS, ALLOC, LOAD, READONLY, CODE
  2 .aes_data     00000020  00000158  200002e8  00002158  2**2
                  ALLOC
  3 .retention_data 00001024  00000178  200002e8  00002178  2**2
                  CONTENTS, ALLOC, LOAD, DATA
  4 .ram_code     00005602  00001200  20001310  00003200  2**8
                  CONTENTS, ALLOC, LOAD, READONLY, CODE
  5 .text         00006728  20006918  20006918  00008918  2**2
                  CONTENTS, ALLOC, LOAD, READONLY, CODE
  6 .rodata       00000924  2000d040  2000d040  0000f040  2**2
                  CONTENTS, ALLOC, LOAD, READONLY, DATA
  7 .data         0000001e  00080000  2000d980  00010000  2**2
                  CONTENTS, ALLOC, LOAD, DATA
  8 .sbss         00000038  00080020  2000d9a0  0001001e  2**2
                  ALLOC
  9 .bss          00000020  00080058  2000d9d8  0001001e  2**2
                  ALLOC
 10 .debug_info   00015912  00000000  00000000  0001001e  2**0
                  CONTENTS, READONLY, DEBUGGING
 11 .debug_abbrev 000009cc  00000000  00000000  00025930  2**0
                  CONTENTS, READONLY, DEBUGGING
 12 .debug_loc    0000c942  00000000  00000000  000262fc  2**0
                  CONTENTS, READONLY, DEBUGGING
 13 .debug_aranges 00000758  00000000  00000000  00032c40  2**3
                  CONTENTS, READONLY, DEBUGGING
 14 .debug_ranges 00003380  00000000  00000000  00033398  2**3
                  CONTENTS, READONLY, DEBUGGING
 15 .debug_line   0000c493  00000000  00000000  00036718  2**0
                  CONTENTS, READONLY, DEBUGGING
 16 .debug_str    0000924d  00000000  00000000  00042bab  2**0
                  CONTENTS, READONLY, DEBUGGING
 17 .comment      00000037  00000000  00000000  0004bdf8  2**0
                  CONTENTS, READONLY
 18 .riscv.attributes 0000003b  00000000  00000000  0004be2f  2**0
                  CONTENTS, READONLY
 19 .debug_frame  0000202c  00000000  00000000  0004be6c  2**2
                  CONTENTS, READONLY, DEBUGGING
SYMBOL TABLE:
20000000 l    d  .vectors	00000000 .vectors
00000000 l    d  .retention_reset	00000000 .retention_reset
00000158 l    d  .aes_data	00000000 .aes_data
00000178 l    d  .retention_data	00000000 .retention_data
00001200 l    d  .ram_code	00000000 .ram_code
20006918 l    d  .text	00000000 .text
2000d040 l    d  .rodata	00000000 .rodata
00080000 l    d  .data	00000000 .data
00080020 l    d  .sbss	00000000 .sbss
00080058 l    d  .bss	00000000 .bss
00000000 l    d  .debug_info	00000000 .debug_info
00000000 l    d  .debug_abbrev	00000000 .debug_abbrev
00000000 l    d  .debug_loc	00000000 .debug_loc
00000000 l    d  .debug_aranges	00000000 .debug_aranges
00000000 l    d  .debug_ranges	00000000 .debug_ranges
00000000 l    d  .debug_line	00000000 .debug_line
00000000 l    d  .debug_str	00000000 .debug_str
00000000 l    d  .comment	00000000 .comment
00000000 l    d  .riscv.attributes	00000000 .riscv.attributes
00000000 l    d  .debug_frame	00000000 .debug_frame
00000000 l    df *ABS*	00000000 ./boot/B91/cstartup_B91.o
20000028 l       .vectors	00000000 _START
20000030 l       .vectors	00000000 _SWS_USB_DIS
2000008e l       .vectors	00000000 _RETENTION_RESET_INIT
200000a6 l       .vectors	00000000 _RETENTION_RESET_BEGIN
200000b8 l       .vectors	00000000 _RETENTION_DATA_INIT
200000cc l       .vectors	00000000 _RETENTION_DATA_INIT_BEGIN
200000de l       .vectors	00000000 _RAMCODE_INIT
200000f6 l       .vectors	00000000 _RAMCODE_INIT_BEGIN
20000108 l       .vectors	00000000 _DATA_INIT
20000120 l       .vectors	00000000 _DATA_INIT_BEGIN
20000132 l       .vectors	00000000 _ZERO_BSS
20000146 l       .vectors	00000000 _ZERO_BSS_BEGIN
20000152 l       .vectors	00000000 _ZERO_AES
20000166 l       .vectors	00000000 _ZERO_AES_BEGIN
20000172 l       .vectors	00000000 _FILL_STK
20000172 l       .vectors	00000000 _MAIN_FUNC
20000188 l       .vectors	00000000 _END
00000022 l       .retention_reset	00000000 _ISTART
0000002a l       .retention_reset	00000000 _ISWS_USB_DIS
00000088 l       .retention_reset	00000000 _WAKEUP_FLASH
000000a2 l       .retention_reset	00000000 _MSPI_WAIT
000000bc l       .retention_reset	00000000 _WAIT_EFUSE_LOAD_FINISH
000000c2 l       .retention_reset	00000000 _MULTI_ADDRESS_BEGIN
000000d6 l       .retention_reset	00000000 _IDATA_INIT
000000ee l       .retention_reset	00000000 _IDATA_INIT_BEGIN
00000100 l       .retention_reset	00000000 _IZERO_BSS
00000114 l       .retention_reset	00000000 _IZERO_BSS_BEGIN
00000120 l       .retention_reset	00000000 _IZERO_AES
00000134 l       .retention_reset	00000000 _IZERO_AES_BEGIN
00000140 l       .retention_reset	00000000 _IFILL_STK
00000140 l       .retention_reset	00000000 _IMAIN_FUNC
00000156 l       .retention_reset	00000000 _IEND
00000040 l       *ABS*	00000000 irqno
00000000 l    df *ABS*	00000000 
00001200 l     F .ram_code	00000034 rf_set_power_level_index.constprop.58
00001234 l     F .ram_code	00000010 smemset.constprop.55
200069e8 l     F .text	00000014 blc_ota_setOtaDataPacketTimeout.constprop.49
20006a00 l     F .text	0000001a blc_ota_setOtaProcessTimeout.constprop.48
00001244 l     F .ram_code	00000024 blt_reset_conn_phy_param.constprop.15
20006a1c l     F .text	00000030 blt_ll_unknown_rsp.constprop.14
20006a50 l     F .text	0000006c blc_gatt_requestServiceAccess.constprop.9
20006ac0 l     F .text	0000002a crc32_half_cal.constprop.0
00001268 l     F .ram_code	00000018 smemcpy
20006aec l     F .text	000001b6 bls_ll_setAdvParam.part.2.constprop.60
00001280 l     F .ram_code	000001b4 aes_ccmBaseTran.isra.0.constprop.56
00001434 l     F .ram_code	000001bc aes_ccmAuthTran.constprop.54
000015f0 l     F .ram_code	000000d4 aes_ll_ccm_decryption.constprop.52
20006ca4 l     F .text	00000076 aes_ll_encryption
20006d1c l     F .text	000000e6 blt_smp_alg_c1.constprop.6
20006e04 l     F .text	00000046 blt_ota_setResult
20006e4c l     F .text	0000003e blt_ota_server_terminate
20006e8c l     F .text	00000088 blt_ota_procTimeout
20006f18 l     F .text	0000004c blt_ota_reset
20006f68 l     F .text	00000038 crc16
20006fa0 l     F .text	0000004e bls_smp_param_getIndexByFLashAddr
20006ff0 l     F .text	00000024 blc_smp_pushParingFailed
20007018 l     F .text	00000014 blc_gap_send_event
20007030 l     F .text	0000005a blc_smp_procParingEnd
2000708c l     F .text	00000056 blc_gap_peripheral_conn_terminate_handler
200070e4 l     F .text	0000003a blc_gap_peripheral_conn_complete_handler
20007120 l     F .text	0000008a att_Find_end_group
200071ac l     F .text	0000009e l2cap_att_search
2000724c l     F .text	00000014 blc_hci_send_event
000016c4 l     F .ram_code	00000084 blt_ll_searchAddr_in_WhiteList
20007264 l     F .text	00000066 bls_ll_send_read_remote_feature_event.part.5
200072cc l     F .text	00000028 blc_hci_ltkRequestNegativeReply
200072f8 l     F .text	00000048 blc_hci_ltkRequestReply
00001748 l     F .ram_code	00000090 blt_terminate_proc
000017d8 l     F .ram_code	00000084 blt_terminate_pending_proc
0000185c l     F .ram_code	000000ac bls_ll_setNewConnection_timing
00001908 l     F .ram_code	00000138 blt_brx_timing_update
00001a40 l     F .ram_code	00000044 blt_brx_timing_update_init
00001a84 l     F .ram_code	00000078 blt_set_fsmTimeout_intLevel
00001afc l     F .ram_code	00000194 blt_ll_channel_conn_update
00001c90 l     F .ram_code	00000050 bls_ll_procUpdateReq
00001ce0 l     F .ram_code	000001b4 irq_blc_slave_rx_data
00001e94 l     F .ram_code	00000060 irq_blc_slave_tx
00001ef4 l     F .ram_code	000000e4 blt_push_fifo_hw
00001fd8 l     F .ram_code	00000048 blc_calc_remapping_table
00002020 l     F .ram_code	000000a4 blt_ll_channelTable_calc
000020c4 l     F .ram_code	00000130 connUpdate_mapUpdate_proc
000021f4 l     F .ram_code	00000150 blt_brx_post
00002344 l     F .ram_code	000000f8 blt_ll_connect_common
20007340 l     F .text	00000226 blt_connect
0000243c l     F .ram_code	000000d0 bls_ll_setAdvEnable
0000250c l     F .ram_code	000001c8 blc_ll_recoverDeepRetention
000026d4 l     F .ram_code	00000024 irq_ll_system_timer
20007568 l     F .text	000000a4 blt_ll_exchangeDataLength
20007610 l     F .text	0000019e blt_slave_main_loop_post
000026f8 l     F .ram_code	00000040 blt_event_callback_func
00002738 l     F .ram_code	0000004c trng_rand
00002784 l     F .ram_code	00000048 pm_tim_recover_32k_rc
000027cc l     F .ram_code	00000048 pm_get_32k_rc_calib
00002814 l     F .ram_code	0000005c pm_update_32k_rc_sleep_tick
00002870 l     F .ram_code	00000054 pm_cal_32k_rc_offset
000028c4 l     F .ram_code	00000138 rf_set_ble_channel
000029fc l     F .ram_code	000000b0 blt_ll_start_common
00002aac l     F .ram_code	00000060 rf_start_fsm
00002b0c l     F .ram_code	0000001c ble_rx_dma_config
00002b28 l     F .ram_code	0000001c ble_tx_dma_config
00002b44 l     F .ram_code	00000050 blc_ll_initBasicMCU
00002b94 l     F .ram_code	00000048 ble_rf_set_tx_dma
00002bdc l     F .ram_code	00000048 ble_rf_set_rx_dma
00002c24 l     F .ram_code	00000114 blt_brx_start
00002d38 l     F .ram_code	0000015c irq_slave_system_timer
00002e94 l     F .ram_code	000001e8 irq_blc_ll_rx
0000307c l     F .ram_code	000001b0 irq_blt_sdk_handler
200077b0 l     F .text	00000048 generateRandomNum
0000322c l     F .ram_code	00000004 stimer_irq_handler
00003230 l     F .ram_code	00000004 rf_irq_handler
200077f8 l     F .text	0000001c app_enter_ota_mode
20007818 l     F .text	00000036 task_terminate
00003234 l     F .ram_code	00000004 task_suspend_exit
20007850 l     F .text	00000048 task_connect
2000789c l     F .text	00000042 app_switch_to_indirect_adv
00003238 l     F .ram_code	00000038 ble_remote_set_sleep_wakeup
00003270 l     F .ram_code	00000024 delay_ms
200078e0 l     F .text	00000068 pwm_kick_32k_pad.constprop.20
20007948 l     F .text	0000007e app_ota_end_result
00003294 l     F .ram_code	0000001c delay_us
000032b0 l     F .ram_code	00000044 flash_send_addr
000032f4 l     F .ram_code	0000004c flash_send_cmd
00003340 l     F .ram_code	00000168 flash_mspi_read_ram
200079c8 l     F .text	000000c2 blc_readFlashSize_autoConfigCustomFlashSector
000034a8 l     F .ram_code	00000048 flash_wait_done
000034f0 l     F .ram_code	000000cc flash_mspi_write_ram.constprop.63
20006918 l     F .text	00000058 flash_page_program
20006970 l     F .text	0000002c flash_dread
2000699c l     F .text	00000030 flash_erase_sector
20007a8c l     F .text	000000ee blc_ota_initOtaServer_module
00004984 l     F .ram_code	00000024 blt_ota_server_main_loop
20007b7c l     F .text	00000088 smp_erase_flash_sector
000035bc l     F .ram_code	00000060 clock_set_32k_tick
20007c04 l     F .text	00000042 analog_read_reg32.constprop.65
0000361c l     F .ram_code	00000030 clock_get_32k_tick
0000364c l     F .ram_code	00000098 smp_quickResolvPrivateAddr
000036e4 l     F .ram_code	00000070 blt_ll_searchAddr_in_ResolvingList
00003754 l     F .ram_code	0000002c ll_searchAddr_in_WhiteList_and_ResolvingList
20007c48 l     F .text	000001be bls_ll_pushTxFifo
20007e08 l     F .text	00000096 bls_ll_pushEncPkt
20007ea0 l     F .text	00000068 bls_ll_terminateConnection
00003780 l     F .ram_code	00000060 blt_ll_getRealTxFifoNumber
000037e0 l     F .ram_code	00000078 blc_ll_getTxFifoNumber
20007f08 l     F .text	00000210 blc_l2cap_pushData_2_controller
2000811c l     F .text	0000008a blc_gatt_pushHandleValueNotify
200081a8 l     F .text	00000044 blt_ota_pushSchedulerIndication
200081ec l     F .text	00000094 blt_ota_procOtaResultFeedback
20008284 l     F .text	0000004c blt_ota_pushVersionRsp
00003858 l     F .ram_code	00000094 cpu_stall_WakeUp_By_RF_SystemTick
000038ec l     F .ram_code	0000003c analog_write_reg8
200082d0 l     F .text	00000080 pwm_kick_32k_pad_times.constprop.19
00003928 l     F .ram_code	00000104 rf_drv_ble_init
00003a2c l     F .ram_code	00000650 blt_brx_sleep
0000407c l     F .ram_code	00000044 analog_read_reg8
000040c0 l     F .ram_code	00000144 clock_init.constprop.64
20008354 l     F .text	00000068 pm_set_gpio_wakeup.constprop.47
00004204 l     F .ram_code	0000003c user_init_deepRetn
00004240 l     F .ram_code	000000c0 pm_wait_bbpll_done
00004300 l     F .ram_code	000001b0 pm_sleep_start
000044b0 l     F .ram_code	00000478 cpu_sleep_wakeup_32k_rc_ram
200069cc l     F .text	0000001a cpu_sleep_wakeup_32k_rc
200083c0 l     F .text	000001c2 cpu_wakeup_no_deepretn_back_init
00004928 l     F .ram_code	0000005c start_reboot
20008584 l     F .text	00000094 blt_ota_procOtaFinish
20008618 l     F .text	0000006e blt_proc_ota_server
000049a8 l     F .ram_code	000000ec blt_pm_proc
00004a94 l     F .ram_code	0000008c clock_cal_24m_rc
00004b20 l     F .ram_code	000003cc blt_sdk_main_loop
20008688 l     F .text	000000e2 kb_scan_row
2000876c l     F .text	00000426 proc_keyboard
20008b94 l     F .text	00000020 main_loop
00004eec l     F .ram_code	00000254 sys_init.constprop.18
00005140 l     F .ram_code	000002b8 bls_ll_procRxPacket.constprop.16
20008bb4 l     F .text	000004d4 blt_send_adv
20009088 l     F .text	000000a6 ota_save_data
20009130 l     F .text	000003d2 otaWrite
20009504 l     F .text	0000006e smp_write_flash_page
20009574 l     F .text	000000fa bls_smp_multi_device_param_Cleanflash
20009670 l     F .text	000000ee bls_smp_param_deleteByIndex
20009760 l     F .text	00000186 bls_smp_param_saveBondingInfo.part.2
200098e8 l     F .text	00000106 bls_smp_param_Cleanflash
200099f0 l     F .text	00000056 bls_smp_param_loadByIndex
20009a48 l     F .text	00000116 bls_smp_encryption_done
20009b60 l     F .text	00000150 bls_smp_pairing_success.part.3
20009cb0 l     F .text	00000370 bls_smp_pushPkt
2000a024 l     F .text	0000001a blc_smp_sendSecurityRequest
2000a040 l     F .text	000000e0 bls_smp_sendInfo
2000a124 l     F .text	000002ce blc_gap_peripheral_mainloop
2000a3f4 l     F .text	0000039c bls_smp_getLtkReq
2000a790 l     F .text	000007de blt_slave_main_loop_data
2000af70 l     F .text	000008d6 user_init_normal
2000ba78 l     F .text	000013d0 blc_l2cap_packet_receive
2000b848 l     F .text	0000022c bls_smp_setAddress
00000158 l     O .aes_data	00000020 aes_data_buff
00080058 l     O .bss	00000020 matrix_buff
00000178 l     O .retention_data	00000058 blotaSvr
000001d0 l     O .retention_data	0000000c blt_conn_phy
000001dc l     O .retention_data	00000010 bltPHYs
000001ec l     O .retention_data	00000004 ll_push_tx_fifo_handler
000001f0 l     O .retention_data	00000070 tbl_bondDevice
00000260 l     O .retention_data	00000028 blc_cyrpt_para
00000288 l     O .retention_data	00000040 crc32_half_tbl
000002c8 l     O .retention_data	0000002c bltParam
000002f4 l     O .retention_data	00000018 blta
0000030c l     O .retention_data	0000002b pkt_adv
00000338 l     O .retention_data	00000008 advData_backup
00000340 l     O .retention_data	0000000c bltMac
0000034c l     O .retention_data	0000002b pkt_scan_rsp
00000378 l     O .retention_data	00000048 smp_param_own
000003c0 l     O .retention_data	00000050 smp_param_peer
00000410 l     O .retention_data	00000004 ota_firmware_max_size
00000414 l     O .retention_data	00000004 crc16_poly
00000418 l     O .retention_data	00000024 mlDevMng
0000043c l     O .retention_data	0000001c smpResSignalPkt
00000458 l     O .retention_data	00000004 blc_gap_event_handler
0000045c l     O .retention_data	00000004 smp_timeout_start_tick
00000460 l     O .retention_data	00000018 blc_smpMng
00000478 l     O .retention_data	00000001 smpDistirbuteKeyOrder
0000047c l     O .retention_data	00000001 smp_DistributeKeyInit
00000480 l     O .retention_data	00000001 smp_DistributeKeyResp
00000484 l     O .retention_data	00000004 smp_phase_record
00000488 l     O .retention_data	00000004 gap_eventMask
0000048c l     O .retention_data	0000000a bltAtt
00000498 l     O .retention_data	00000004 blc_SecReq_ctrl
0000049c l     O .retention_data	00000004 host_ota_terminate_cb
000004a0 l     O .retention_data	0000000c para_upReq
000004ac l     O .retention_data	00000004 func_smp_init
000004b0 l     O .retention_data	00000004 gAttributes
000004b4 l     O .retention_data	00000004 blc_hci_event_handler
000004b8 l     O .retention_data	00000022 ll_whiteList_tbl
000004dc l     O .retention_data	00000068 bltc
00000544 l     O .retention_data	00000010 enc_ltk
00000554 l     O .retention_data	00000004 blc_tlkEvent_pending
00000558 l     O .retention_data	00000014 bltData
0000056c l     O .retention_data	00000058 blttcon
000005c4 l     O .retention_data	00000004 pFunc_ll_SetAdv_Enable
000005c8 l     O .retention_data	00000030 bltPm
000005f8 l     O .retention_data	00000010 blt_txfifo
00000608 l     O .retention_data	00000004 pkt_slave_terminate
0000060c l     O .retention_data	00000010 bls_timing
0000061c l     O .retention_data	00000004 CONN_SHORT_TOLERANCE_TIME
00000620 l     O .retention_data	00000004 blt_miscParam
00000624 l     O .retention_data	00000010 blc_tlkEvent_data
00000634 l     O .retention_data	00000018 blt_buff_conn
0000064c l     O .retention_data	00000004 blt_bb
00000650 l     O .retention_data	00000001 blt_smp_empty_pkt_entry
00000651 l     O .retention_data	00000001 g_num_used_chans
00000652 l     O .retention_data	00000001 conn_new_interval_flag
00000654 l     O .retention_data	00000004 ll_conn_phy_update_cb
00000658 l     O .retention_data	00000004 blc_rf_pa_cb
0000065c l     O .retention_data	00000004 lmp_tick
00000660 l     O .retention_data	00000004 lmp_timeout
00000664 l     O .retention_data	00000001 bls_peer_start_enc_flag
00000668 l     O .retention_data	00000001 blt_ll_version_ind_rsp_flag
0000066c l     O .retention_data	00000004 blc_rcvd_connReq_tick
00000670 l     O .retention_data	00000004 blt_pconn
00000674 l     O .retention_data	00000004 ll_connComplete_handler
00000678 l     O .retention_data	00000004 ble_first_rx_tick_last
0000067c l     O .retention_data	00000004 ble_first_rx_tick_pre
00000680 l     O .retention_data	00000004 ble_actual_conn_interval_tick
00000684 l     O .retention_data	00000004 hci_le_eventMask
00000688 l     O .retention_data	00000004 blt_advExpectTime
0000068c l     O .retention_data	00000004 blt_p_event_callback
00000690 l     O .retention_data	00000004 blt_next_event_tick
00000694 l     O .retention_data	00000004 ll_irq_systemTick_conn_cb
00000698 l     O .retention_data	00000004 blt_dleSendTime_tick
0000069c l     O .retention_data	00000004 ll_connTerminate_handler
000006a0 l     O .retention_data	00000004 hci_eventMask
000006a4 l     O .retention_data	00000004 hci_tlk_module_eventMask
000006a8 l     O .retention_data	00000050 blt_event_func
000006f8 l     O .retention_data	00000004 g_rnd_m_w
000006fc l     O .retention_data	00000004 g_rnd_m_z
00000700 l     O .retention_data	00000029 pmcd
0000072c l     O .retention_data	00000004 g_pm_tick_32k_calib
00000730 l     O .retention_data	00000001 g_pm_long_suspend
00000734 l     O .retention_data	00000004 ll_chn_index_calc_cb
00000738 l     O .retention_data	00000004 ll_conn_phy_swicth_cb
0000073c l     O .retention_data	00000004 tx_stl_auto_mode_high_freq
00000740 l     O .retention_data	00000004 tx_stl_auto_mode
00000744 l     O .retention_data	00000004 ll_module_advSlave_cb
00000748 l     O .retention_data	00000018 blts
00000760 l     O .retention_data	00000004 ll_enter_pri_chn_scan_cb
00000764 l     O .retention_data	00000001 x_freertos_on
00000768 l     O .retention_data	00000010 blt_rxfifo
00000778 l     O .retention_data	00000004 ll_irq_rx_data_cb
0000077c l     O .retention_data	00000004 ll_irq_scan_rx_pri_chn_cb
00000780 l     O .retention_data	00000004 ll_irq_tx_cb
00000784 l     O .retention_data	00000001 ota_is_working
00000788 l     O .retention_data	00000004 latest_user_event_tick
0000078c l     O .retention_data	00000004 device_in_connection_state
00000790 l     O .retention_data	00000001 sendTerminate_before_enterDeep
00000794 l     O .retention_data	00000004 advertise_begin_tick
00000798 l     O .retention_data	00000004 app_own_address_type
0000079c l     O .retention_data	00000004 flash_sector_mac_address
000007a0 l     O .retention_data	00000004 flash_sector_calibration
000007a4 l     O .retention_data	00000004 flash_capacity
000007a8 l     O .retention_data	00000004 host_ota_main_loop_cb
000007ac l     O .retention_data	00000004 ota_program_offset
000007b0 l     O .retention_data	00000004 flash_read_page
000007b4 l     O .retention_data	00000032 ll_resolvingList_tbl
000007e8 l     O .retention_data	00000008 enc_skds
000007f0 l     O .retention_data	00000004 enc_ivs
000007f4 l     O .retention_data	00000004 att_service_discover_tick
000007f8 l     O .retention_data	00000004 pm_get_32k_tick
000007fc l     O .retention_data	00000004 conn_rx_offset_limit
00000800 l     O .retention_data	00000004 cpu_sleep_wakeup
00000804 l     O .retention_data	00000004 pm_appWakeupLowPowerCb
00000808 l     O .retention_data	00000001 g_pm_suspend_power_cfg
0000080c l     O .retention_data	00000004 func_before_suspend
00000810 l     O .retention_data	00000004 g_pm_tick_32k_cur
00000814 l     O .retention_data	00000004 g_pm_tick_cur
0000081c l     O .retention_data	00000006 adc_vref_cfg
00000824 l     O .retention_data	00000004 ota_program_bootAddr
00000828 l     O .retention_data	00000004 otaResIndicateCb
0000082c l     O .retention_data	00000004 flash_write_page
00000830 l     O .retention_data	00000004 scan_pin_need
00000834 l     O .retention_data	00000004 key_not_released
00000838 l     O .retention_data	00000004 blc_main_loop_phyTest_cb
0000083c l     O .retention_data	00000004 blc_main_loop_data_cb
00000840 l     O .retention_data	00000008 scan_priRxFifo
00000848 l     O .retention_data	00000004 ll_leg_scan_mlp_task_cb
0000084c l     O .retention_data	00000004 blc_main_loop_post_cb
00000850 l     O .retention_data	00000004 ll_host_main_loop_cb
00000854 l     O .retention_data	00000004 blc_hci_rx_handler
00000858 l     O .retention_data	00000004 blc_hci_tx_handler
0000085c l     O .retention_data	00000004 pm_check_32k_clk_stable
00000860 l     O .retention_data	00000004 ll_module_pm_cb
00000864 l     O .retention_data	00000004 ll_module_adv_cb
00000868 l     O .retention_data	00000004 tick_rc24mCal
0000086c l     O .retention_data	00000004 keyScanTick
00000870 l     O .retention_data	00000008 kb_event
00000878 l     O .retention_data	00000001 key_type
0000087c l     O .retention_data	00000004 pm_tim_recover
00000880 l     O .retention_data	00000040 adv_rx_buff
000008c0 l     O .retention_data	00000001 adv_peak_current_opt
000008c4 l     O .retention_data	00000004 ll_adv2conn_cb
000008c8 l     O .retention_data	00000004 advertise_prepare_handler
000008cc l     O .retention_data	00000004 ll_phy_switch_cb
000008d0 l     O .retention_data	00000003 blc_adv_channel
000008d3 l     O .retention_data	00000001 adv_decrease_time_opt
000008d4 l     O .retention_data	00000004 otaVersionCb
000008d8 l     O .retention_data	00000004 otaStartCb
000008dc l     O .retention_data	00000004 ota_write_fw_cb
000008e0 l     O .retention_data	00000004 bond_device_flash_cfg_idx
000008e4 l     O .retention_data	00000004 smp_param_next_start_addr
000008e8 l     O .retention_data	00000004 smp_param_current_start_addr
000008ec l     O .retention_data	00000004 func_smp_sc_pushPkt_proc
000008f0 l     O .retention_data	00000010 smpOwnRand_const
00000900 l     O .retention_data	00000010 smpOwnParingConfirm
00000910 l     O .retention_data	00000010 smpParingOwnIRK
00000920 l     O .retention_data	00000010 smpParingOwnCSRK
00000930 l     O .retention_data	00000004 blc_connUpdateSendTime_us
00000934 l     O .retention_data	00000004 blt_mtuReqSendTime_tick
00000938 l     O .retention_data	00000004 func_smp_info
0000093c l     O .retention_data	00000001 smp_bound_mask
0000093d l     O .retention_data	00000001 restart_encryption
00000940 l     O .retention_data	00000008 enc_skdm
00000948 l     O .retention_data	00000004 enc_ivm
0000094c l     O .retention_data	00000004 blt_ltk_request
00000950 l     O .retention_data	00000004 ll_encryption_done_cb
00000954 l     O .retention_data	00000004 LL_FEATURE_MASK_0
00000958 l     O .retention_data	00000004 LL_FEATURE_MASK_1
0000095c l     O .retention_data	00000004 blc_l2cap_handler
00000960 l     O .retention_data	00000330 app_acl_txfifo
00000c90 l     O .retention_data	00000180 app_acl_rxfifo
00000e10 l     O .retention_data	00000004 SMP_PARAM_NV_ADDR_START
00000e14 l     O .retention_data	00000001 smpPkShftCnt
00000e18 l     O .retention_data	0000000b pkt_errRsp
00000e24 l     O .retention_data	00000100 blt_buff_prepare_write
00000f24 l     O .retention_data	00000009 pkt_mtu_rsp
00000f30 l     O .retention_data	0000000c l2cap_buff
0000109c l     O .retention_data	00000100 blt_buff_ll_rx
00000f9c l     O .retention_data	00000100 blt_buff_att_tx
00000f3c l     O .retention_data	00000004 func_smp_sc_proc
00000f40 l     O .retention_data	00000004 pAppPrepareWriteBuff
00000f44 l     O .retention_data	00000002 prepare_pkt_current_len
00000f46 l     O .retention_data	00000002 pAppPrepareWrite_max_len
00000f48 l     O .retention_data	00000004 hid_reportmap_psrc
00000f4c l     O .retention_data	00000004 hid_reportmap_len
00000f50 l     O .retention_data	00000004 att_client_handler
00000f54 l     O .retention_data	00000004 att_sig_hander
00000f58 l     O .retention_data	00000004 l2cap_connUpdateRsp_cb
00000f5c l     O .retention_data	00000001 g_plic_preempt_en
00000f60 l     O .retention_data	00000002 otaDataCCC
00000f62 l     O .retention_data	00000001 my_OtaData
00000f64 l     O .retention_data	00000002 batteryValueInCCC
00000f68 l     O .retention_data	00000001 my_batVal
00000f69 l     O .retention_data	00000001 controlPoint
00000f6a l     O .retention_data	00000002 extServiceUUID
00000f6c l     O .retention_data	00000002 reportRefKeyOut
00000f70 l     O .retention_data	00000001 reportKeyOut
00000f74 l     O .retention_data	00000002 reportRefKeyIn
00000f78 l     O .retention_data	00000002 reportKeyInCCC
00000f7c l     O .retention_data	00000008 reportKeyIn
00000f84 l     O .retention_data	00000002 reportRefConsumerControlIn
00000f88 l     O .retention_data	00000002 reportConsumerControlInCCC
00000f8c l     O .retention_data	00000002 reportConsumerControlIn
00000f8e l     O .retention_data	00000001 bootKeyOutReport
00000f90 l     O .retention_data	00000002 bootKeyInReportCCC
00000f92 l     O .retention_data	00000001 bootKeyInReport
00000f93 l     O .retention_data	00000001 protocolMode
00000f94 l     O .retention_data	00000002 serviceChangeCCC
00000f98 l     O .retention_data	00000004 serviceChangeVal
2000d204 l     O .rodata	00000010 att_access_err_enc
2000d214 l     O .rodata	00000010 att_access_err_no_enc
2000d224 l     O .rodata	0000001a cmd_length_array
2000d240 l     O .rodata	00000064 gen_method_legacy
2000d2a4 l     O .rodata	00000064 gen_method_sc
2000d308 l     O .rodata	000004c8 my_Attributes
2000d94c l     O .rodata	00000002 my_primaryServiceUUID
2000d8ee l     O .rodata	00000002 my_gapServiceUUID
2000d8d8 l     O .rodata	00000002 my_characterUUID
2000d8e4 l     O .rodata	00000005 my_devNameCharVal
2000d8ea l     O .rodata	00000002 my_devNameUUID
2000d8dc l     O .rodata	00000007 my_devName
2000d8c4 l     O .rodata	00000005 my_appearanceCharVal
2000d8ca l     O .rodata	00000002 my_appearanceUIID
2000d8c0 l     O .rodata	00000002 my_appearance
2000d93c l     O .rodata	00000005 my_periConnParamCharVal
2000d942 l     O .rodata	00000002 my_periConnParamUUID
2000d944 l     O .rodata	00000008 my_periConnParameters
2000d8f0 l     O .rodata	00000002 my_gattServiceUUID
2000d950 l     O .rodata	00000005 my_serviceChangeCharVal
2000d960 l     O .rodata	00000002 serviceChangeUUID
2000d87e l     O .rodata	00000002 clientCharacterCfgUUID
2000d8ec l     O .rodata	00000002 my_devServiceUUID
2000d8b0 l     O .rodata	00000005 my_PnCharVal
2000d8b6 l     O .rodata	00000002 my_PnPUUID
2000d8b8 l     O .rodata	00000007 my_PnPtrs
2000d922 l     O .rodata	00000002 my_hidServiceUUID
2000d88c l     O .rodata	00000002 hidIncludeUUID
2000d8a0 l     O .rodata	00000006 include
2000d8fc l     O .rodata	00000005 my_hidProtocolModeCharVal
2000d894 l     O .rodata	00000002 hidProtocolModeUUID
2000d924 l     O .rodata	00000005 my_hidbootKeyInReporCharVal
2000d89a l     O .rodata	00000002 hidbootKeyInReportUUID
2000d92c l     O .rodata	00000005 my_hidbootKeyOutReporCharVal
2000d89c l     O .rodata	00000002 hidbootKeyOutReportUUID
2000d904 l     O .rodata	00000005 my_hidReportCCinCharVal
2000d898 l     O .rodata	00000002 hidReportUUID
2000d956 l     O .rodata	00000002 reportRefUUID
2000d90c l     O .rodata	00000005 my_hidReportKEYinCharVal
2000d914 l     O .rodata	00000005 my_hidReportKEYoutCharVal
2000d91c l     O .rodata	00000005 my_hidReportMapCharVal
2000d896 l     O .rodata	00000002 hidReportMapUUID
2000d804 l     O .rodata	0000005a reportMap
2000d888 l     O .rodata	00000002 extReportRefUUID
2000d934 l     O .rodata	00000005 my_hidinformationCharVal
2000d89e l     O .rodata	00000002 hidinformationUUID
2000d890 l     O .rodata	00000004 hidInformation
2000d8f4 l     O .rodata	00000005 my_hidCtrlPointCharVal
2000d88a l     O .rodata	00000002 hidCtrlPointUUID
2000d8d6 l     O .rodata	00000002 my_batServiceUUID
2000d8d0 l     O .rodata	00000005 my_batCharVal
2000d8cc l     O .rodata	00000002 my_batCharUUID
2000d7e4 l     O .rodata	00000010 my_OtaServiceUUID
2000d7d0 l     O .rodata	00000013 my_OtaCharVal
2000d7f4 l     O .rodata	00000010 my_OtaUUID
2000d962 l     O .rodata	00000002 userdesc_UUID
2000d8ac l     O .rodata	00000003 my_OtaName
2000d860 l     O .rodata	00000013 tbl_advData
2000d874 l     O .rodata	00000009 tbl_scanRsp
00080020 l     O .sbss	00000004 g_chip_version
00080024 l     O .sbss	00000004 g_pm_status_info
00080028 l     O .sbss	00000001 g_single_tong_freqoffset
0008002c l     O .sbss	00000004 kb_k_mp
00080030 l     O .sbss	00000004 matrix_rptr
00080034 l     O .sbss	00000004 matrix_wptr
00080038 l     O .sbss	00000004 mcause
0008003c l     O .sbss	00000004 mepc
00080040 l     O .sbss	00000008 mtrx_last.9497
00080048 l     O .sbss	00000008 mtrx_pre.9496
00080050 l     O .sbss	00000001 release_cnt.9549
00080054 l     O .sbss	00000004 ret_last.9550
00080000 l     O .data	00000004 TXADDR
00080004 l     O .data	00000006 blt_tx_empty_packet
0008000c l     O .data	00000008 g_pm_early_wakeup_time_us
00080014 l     O .data	00000004 g_pm_r_delay_cycle
00080018 l     O .data	00000006 sys_clk
2000d880 l     O .rodata	00000008 drive_pins
2000d8a8 l     O .rodata	00000004 kb_map_normal
2000d958 l     O .rodata	00000004 rf_rx_dma_config
2000d95c l     O .rodata	00000004 rf_tx_dma_config
00000000 l    df *ABS*	00000000 memcpy.c
00005888 g     F .ram_code	00000048 entry_irq55
00006280 g     F .ram_code	00000044 entry_irq13
00006168 g     F .ram_code	000000d4 entry_irq15
00005e38 g     F .ram_code	00000044 entry_irq27
00005720 g     F .ram_code	00000048 entry_irq60
000065b0 g     F .ram_code	000000d4 entry_irq1
00005960 g     F .ram_code	00000048 entry_irq52
000059f0 g     F .ram_code	00000048 entry_irq50
00005690 g     F .ram_code	00000048 entry_irq62
00080800 g       .data	00000000 __global_pointer$
000057b0 g     F .ram_code	00000048 entry_irq58
0000119c g       .retention_data	00000000 _RETENTION_DATA_VMA_END
00000000 g       .retention_reset	00000000 _RETENTION_RESET_VMA_START
0000634c g     F .ram_code	00000044 entry_irq10
00005fd0 g     F .ram_code	00000044 entry_irq21
00000158 g       .aes_data	00000000 _AES_VMA_START
00005a3c g     F .ram_code	00000004 entry_irq48
000063d4 g     F .ram_code	00000044 entry_irq8
00005c98 g     F .ram_code	00000048 entry_irq33
00080078 g       .bss	00000000 _BSS_VMA_END
2000ce9c g     F .text	000000fa memcpy
20000190 g       *ABS*	00000000 _RETENTION_RESET_LMA_START
000062c4 g     F .ram_code	00000044 entry_irq12
0000623c g     F .ram_code	00000044 entry_irq14
0000656c g     F .ram_code	00000044 entry_irq2
000059a8 g     F .ram_code	00000048 entry_irq51
00005df4 g     F .ram_code	00000044 entry_irq28
00005ad8 g     F .ram_code	00000048 entry_irq43
00006014 g     F .ram_code	00000044 entry_irq20
00080020 g       .sbss	00000000 _BSS_VMA_START
00005648 g     F .ram_code	00000048 entry_irq63
0008001e g       .data	00000000 _DATA_VMA_END
00005a44 g     F .ram_code	00000048 entry_irq46
00005d28 g     F .ram_code	00000044 entry_irq31
00006124 g     F .ram_code	00000044 entry_irq16
00100000 g       *ABS*	00000000 FLASH_SIZE
00080000 g       .data	00000000 _DATA_VMA_START
00005918 g     F .ram_code	00000048 entry_irq53
00006308 g     F .ram_code	00000044 entry_irq11
00000158 g       .retention_reset	00000000 _RETENTION_RESET_VMA_END
000064a0 g     F .ram_code	00000044 entry_irq5
00005f48 g     F .ram_code	00000044 entry_irq23
00005c50 g     F .ram_code	00000048 entry_irq34
00005bc0 g     F .ram_code	00000048 entry_irq36
00005a90 g     F .ram_code	00000048 entry_irq44
00005a8c g     F .ram_code	00000004 entry_irq45
00005e7c g     F .ram_code	00000044 entry_irq26
00005b68 g     F .ram_code	00000004 entry_irq41
000056d8 g     F .ram_code	00000048 entry_irq61
20000000 g       .vectors	00000000 BIN_BEGIN
00005b74 g     F .ram_code	00000004 entry_irq38
00006700 g       .ram_code	00000000 __vectors
0000d99e g       *ABS*	00000000 BIN_SIZE
20001310 g       *ABS*	00000000 _RAMCODE_LMA_START
00005768 g     F .ram_code	00000048 entry_irq59
2000ce4c g     F .text	0000004e memcmp
0000645c g     F .ram_code	00000044 entry_irq6
2000d980 g       *ABS*	00000000 _DATA_LMA_START
20000000 g       *ABS*	00000000 NDS_SAG_LMA_FLASH
20000000  w      .vectors	00000000 _RELAX_END_
2000cf96 g     F .text	000000aa memset
000053f8 g     F .ram_code	00000250 main
00006528 g     F .ram_code	00000044 entry_irq3
00006684 g     F .ram_code	00000034 trap_entry
00000178 g       .aes_data	00000000 _AES_VMA_END
00005b70 g     F .ram_code	00000004 entry_irq39
00005a38 g     F .ram_code	00000004 entry_irq49
00000818 g     O .retention_data	00000004 g_pm_multi_addr
000057f8 g     F .ram_code	00000048 entry_irq57
00005a40 g     F .ram_code	00000004 entry_irq47
200002e8 g       *ABS*	00000000 _RETENTION_DATA_LMA_START
20000000 g     F .vectors	00000000 _RESET_ENTRY
00000178 g       .retention_data	00000000 _RETENTION_DATA_VMA_START
000064e4 g     F .ram_code	00000044 entry_irq4
000a0000 g       *ABS*	00000000 _STACK_TOP
00005f8c g     F .ram_code	00000044 entry_irq22
00005d6c g     F .ram_code	00000044 entry_irq30
00005b20 g     F .ram_code	00000048 entry_irq42
00005f04 g     F .ram_code	00000044 entry_irq24
00006802 g       .ram_code	00000000 _RAMCODE_VMA_END
00000000  w      *ABS*	00000000 _ITB_BASE_
00006058 g     F .ram_code	00000044 entry_irq19
00080078 g       .bss	00000000 _end
000060e0 g     F .ram_code	00000044 entry_irq17
00006390 g     F .ram_code	00000044 entry_irq9
00005840 g     F .ram_code	00000048 entry_irq56
00005c08 g     F .ram_code	00000048 entry_irq35
00005b78 g     F .ram_code	00000048 entry_irq37
000058d0 g     F .ram_code	00000048 entry_irq54
00005b6c g     F .ram_code	00000004 entry_irq40
00001200 g       .ram_code	00000000 _RAMCODE_VMA_START
00005db0 g     F .ram_code	00000044 entry_irq29
00006418 g     F .ram_code	00000044 entry_irq7
00005ce0 g     F .ram_code	00000048 entry_irq32
00000000 g     F .retention_reset	00000000 _IRESET_ENTRY
0000609c g     F .ram_code	00000044 entry_irq18
00005ec0 g     F .ram_code	00000044 entry_irq25



Disassembly of section .vectors:

20000000 <_RESET_ENTRY>:
20000000:	a025                	c.j	20000028 <_START>
	...
20000016:	0000                	unimp
20000018:	d99e                	c.swsp	t2,240(sp)
2000001a:	0000                	unimp
2000001c:	0000                	unimp
2000001e:	0000                	unimp
20000020:	544c4e4b          	fnmsub.h	ft8,fs8,ft4,fa0,rmm
20000024:	0000                	unimp
20000026:	          	sllw	a4,zero,zero

20000028 <_START>:
20000028:	e0080197          	auipc	gp,0xe0080
2000002c:	7d818193          	addi	gp,gp,2008 # 80800 <__global_pointer$>

20000030 <_SWS_USB_DIS>:
20000030:	801002b7          	lui	t0,0x80100
20000034:	70028293          	addi	t0,t0,1792 # 80100700 <_DATA_LMA_START+0x600f2d80>
20000038:	04000313          	li	t1,64
2000003c:	506280a3          	sb	t1,1281(t0)
20000040:	e00a0297          	auipc	t0,0xe00a0
20000044:	fc028293          	addi	t0,t0,-64 # a0000 <_STACK_TOP>
20000048:	8116                	c.mv	sp,t0
2000004a:	e0000297          	auipc	t0,0xe0000
2000004e:	fb628293          	addi	t0,t0,-74 # 0 <_ITB_BASE_>
20000052:	80029073          	csrw	uitb,t0
20000056:	6299                	c.lui	t0,0x6
20000058:	3002a2f3          	csrrs	t0,mstatus,t0
2000005c:	00301073          	fssr	zero
20000060:	e0006297          	auipc	t0,0xe0006
20000064:	6a028293          	addi	t0,t0,1696 # 6700 <__vectors>
20000068:	30529073          	csrw	mtvec,t0
2000006c:	7d016073          	csrsi	mmisc_ctl,2
20000070:	e40002b7          	lui	t0,0xe4000
20000074:	430d                	c.li	t1,3
20000076:	0062a023          	sw	t1,0(t0) # e4000000 <_DATA_LMA_START+0xc3ff2680>
2000007a:	7ca022f3          	csrr	t0,mcache_ctl
2000007e:	0012e293          	ori	t0,t0,1
20000082:	0022e293          	ori	t0,t0,2
20000086:	7ca29073          	csrw	mcache_ctl,t0
2000008a:	0000100f          	fence.i

2000008e <_RETENTION_RESET_INIT>:
2000008e:	00000317          	auipc	t1,0x0
20000092:	10230313          	addi	t1,t1,258 # 20000190 <_RETENTION_RESET_LMA_START>
20000096:	e0000397          	auipc	t2,0xe0000
2000009a:	f6a38393          	addi	t2,t2,-150 # 0 <_ITB_BASE_>
2000009e:	e0000e17          	auipc	t3,0xe0000
200000a2:	0bae0e13          	addi	t3,t3,186 # 158 <_RETENTION_RESET_VMA_END>

200000a6 <_RETENTION_RESET_BEGIN>:
200000a6:	01c3f963          	bgeu	t2,t3,200000b8 <_RETENTION_DATA_INIT>
200000aa:	00032283          	lw	t0,0(t1)
200000ae:	0053a023          	sw	t0,0(t2)
200000b2:	0311                	c.addi	t1,4
200000b4:	0391                	c.addi	t2,4
200000b6:	bfc5                	c.j	200000a6 <_RETENTION_RESET_BEGIN>

200000b8 <_RETENTION_DATA_INIT>:
200000b8:	00000317          	auipc	t1,0x0
200000bc:	23030313          	addi	t1,t1,560 # 200002e8 <_RETENTION_DATA_LMA_START>
200000c0:	17800393          	li	t2,376
200000c4:	e0001e17          	auipc	t3,0xe0001
200000c8:	0d8e0e13          	addi	t3,t3,216 # 119c <_RETENTION_DATA_VMA_END>

200000cc <_RETENTION_DATA_INIT_BEGIN>:
200000cc:	01c3f963          	bgeu	t2,t3,200000de <_RAMCODE_INIT>
200000d0:	00032283          	lw	t0,0(t1)
200000d4:	0053a023          	sw	t0,0(t2)
200000d8:	0311                	c.addi	t1,4
200000da:	0391                	c.addi	t2,4
200000dc:	bfc5                	c.j	200000cc <_RETENTION_DATA_INIT_BEGIN>

200000de <_RAMCODE_INIT>:
200000de:	00001317          	auipc	t1,0x1
200000e2:	23230313          	addi	t1,t1,562 # 20001310 <_RAMCODE_LMA_START>
200000e6:	e0001397          	auipc	t2,0xe0001
200000ea:	11a38393          	addi	t2,t2,282 # 1200 <rf_set_power_level_index.constprop.58>
200000ee:	e0006e17          	auipc	t3,0xe0006
200000f2:	714e0e13          	addi	t3,t3,1812 # 6802 <_RAMCODE_VMA_END>

200000f6 <_RAMCODE_INIT_BEGIN>:
200000f6:	01c3f963          	bgeu	t2,t3,20000108 <_DATA_INIT>
200000fa:	00032283          	lw	t0,0(t1)
200000fe:	0053a023          	sw	t0,0(t2)
20000102:	0311                	c.addi	t1,4
20000104:	0391                	c.addi	t2,4
20000106:	bfc5                	c.j	200000f6 <_RAMCODE_INIT_BEGIN>

20000108 <_DATA_INIT>:
20000108:	0000e317          	auipc	t1,0xe
2000010c:	87830313          	addi	t1,t1,-1928 # 2000d980 <_DATA_LMA_START>
20000110:	e0080397          	auipc	t2,0xe0080
20000114:	ef038393          	addi	t2,t2,-272 # 80000 <_DATA_VMA_START>
20000118:	e0080e17          	auipc	t3,0xe0080
2000011c:	f06e0e13          	addi	t3,t3,-250 # 8001e <_DATA_VMA_END>

20000120 <_DATA_INIT_BEGIN>:
20000120:	01c3f963          	bgeu	t2,t3,20000132 <_ZERO_BSS>
20000124:	00032283          	lw	t0,0(t1)
20000128:	0053a023          	sw	t0,0(t2)
2000012c:	0311                	c.addi	t1,4
2000012e:	0391                	c.addi	t2,4
20000130:	bfc5                	c.j	20000120 <_DATA_INIT_BEGIN>

20000132 <_ZERO_BSS>:
20000132:	000002b7          	lui	t0,0x0
20000136:	e0080397          	auipc	t2,0xe0080
2000013a:	eea38393          	addi	t2,t2,-278 # 80020 <_BSS_VMA_START>
2000013e:	e0080e17          	auipc	t3,0xe0080
20000142:	f3ae0e13          	addi	t3,t3,-198 # 80078 <_BSS_VMA_END>

20000146 <_ZERO_BSS_BEGIN>:
20000146:	01c3f663          	bgeu	t2,t3,20000152 <_ZERO_AES>
2000014a:	0053a023          	sw	t0,0(t2)
2000014e:	0391                	c.addi	t2,4
20000150:	bfdd                	c.j	20000146 <_ZERO_BSS_BEGIN>

20000152 <_ZERO_AES>:
20000152:	000002b7          	lui	t0,0x0
20000156:	e0000397          	auipc	t2,0xe0000
2000015a:	00238393          	addi	t2,t2,2 # 158 <_RETENTION_RESET_VMA_END>
2000015e:	e0000e17          	auipc	t3,0xe0000
20000162:	01ae0e13          	addi	t3,t3,26 # 178 <_AES_VMA_END>

20000166 <_ZERO_AES_BEGIN>:
20000166:	01c3f663          	bgeu	t2,t3,20000172 <_FILL_STK>
2000016a:	0053a023          	sw	t0,0(t2)
2000016e:	0391                	c.addi	t2,4
20000170:	bfdd                	c.j	20000166 <_ZERO_AES_BEGIN>

20000172 <_FILL_STK>:
20000172:	0001                	c.nop
20000174:	e0005297          	auipc	t0,0xe0005
20000178:	28428293          	addi	t0,t0,644 # 53f8 <main>
2000017c:	9282                	c.jalr	t0
2000017e:	0001                	c.nop
20000180:	0001                	c.nop
20000182:	0001                	c.nop
20000184:	0001                	c.nop
20000186:	0001                	c.nop

20000188 <_END>:
20000188:	a001                	c.j	20000188 <_END>

Disassembly of section .retention_reset:

00000000 <_IRESET_ENTRY>:
   0:	a00d                	c.j	22 <_ISTART>
	...

00000022 <_ISTART>:
  22:	00080197          	auipc	gp,0x80
  26:	7de18193          	addi	gp,gp,2014 # 80800 <__global_pointer$>

0000002a <_ISWS_USB_DIS>:
  2a:	801002b7          	lui	t0,0x80100
  2e:	70028293          	addi	t0,t0,1792 # 80100700 <_DATA_LMA_START+0x600f2d80>
  32:	04000313          	li	t1,64
  36:	506280a3          	sb	t1,1281(t0)
  3a:	000a0297          	auipc	t0,0xa0
  3e:	fc628293          	addi	t0,t0,-58 # a0000 <_STACK_TOP>
  42:	8116                	c.mv	sp,t0
  44:	00000297          	auipc	t0,0x0
  48:	fbc28293          	addi	t0,t0,-68 # 0 <_IRESET_ENTRY>
  4c:	80029073          	csrw	uitb,t0
  50:	6299                	c.lui	t0,0x6
  52:	3002a2f3          	csrrs	t0,mstatus,t0
  56:	00301073          	fssr	zero
  5a:	00006297          	auipc	t0,0x6
  5e:	6a628293          	addi	t0,t0,1702 # 6700 <__vectors>
  62:	30529073          	csrw	mtvec,t0
  66:	7d016073          	csrsi	mmisc_ctl,2
  6a:	e40002b7          	lui	t0,0xe4000
  6e:	430d                	c.li	t1,3
  70:	0062a023          	sw	t1,0(t0) # e4000000 <_DATA_LMA_START+0xc3ff2680>
  74:	7ca022f3          	csrr	t0,mcache_ctl
  78:	0012e293          	ori	t0,t0,1
  7c:	0022e293          	ori	t0,t0,2
  80:	7ca29073          	csrw	mcache_ctl,t0
  84:	0000100f          	fence.i

00000088 <_WAKEUP_FLASH>:
  88:	801402b7          	lui	t0,0x80140
  8c:	0ff00313          	li	t1,255
  90:	4381                	c.li	t2,0
  92:	0ab00e13          	li	t3,171
  96:	326284a3          	sb	t1,809(t0) # 80140329 <_DATA_LMA_START+0x601329a9>
  9a:	107280a3          	sb	t2,257(t0)
  9e:	11c28023          	sb	t3,256(t0)

000000a2 <_MSPI_WAIT>:
  a2:	801402b7          	lui	t0,0x80140
  a6:	10228383          	lb	t2,258(t0) # 80140102 <_DATA_LMA_START+0x60132782>
  aa:	4e05                	c.li	t3,1
  ac:	4ec1                	c.li	t4,16
  ae:	fe7e0ae3          	beq	t3,t2,a2 <_MSPI_WAIT>
  b2:	11d280a3          	sb	t4,257(t0)
  b6:	4281                	c.li	t0,0
  b8:	0e200313          	li	t1,226

000000bc <_WAIT_EFUSE_LOAD_FINISH>:
  bc:	0285                	c.addi	t0,1
  be:	fe537fe3          	bgeu	t1,t0,bc <_WAIT_EFUSE_LOAD_FINISH>

000000c2 <_MULTI_ADDRESS_BEGIN>:
  c2:	801402b7          	lui	t0,0x80140
  c6:	00000317          	auipc	t1,0x0
  ca:	75230313          	addi	t1,t1,1874 # 818 <g_pm_multi_addr>
  ce:	00032383          	lw	t2,0(t1)
  d2:	1072a223          	sw	t2,260(t0) # 80140104 <_DATA_LMA_START+0x60132784>

000000d6 <_IDATA_INIT>:
  d6:	2000e317          	auipc	t1,0x2000e
  da:	8aa30313          	addi	t1,t1,-1878 # 2000d980 <_DATA_LMA_START>
  de:	00080397          	auipc	t2,0x80
  e2:	f2238393          	addi	t2,t2,-222 # 80000 <_DATA_VMA_START>
  e6:	00080e17          	auipc	t3,0x80
  ea:	f38e0e13          	addi	t3,t3,-200 # 8001e <_DATA_VMA_END>

000000ee <_IDATA_INIT_BEGIN>:
  ee:	01c3f963          	bgeu	t2,t3,100 <_IZERO_BSS>
  f2:	00032283          	lw	t0,0(t1)
  f6:	0053a023          	sw	t0,0(t2)
  fa:	0311                	c.addi	t1,4
  fc:	0391                	c.addi	t2,4
  fe:	bfc5                	c.j	ee <_IDATA_INIT_BEGIN>

00000100 <_IZERO_BSS>:
 100:	000002b7          	lui	t0,0x0
 104:	00080397          	auipc	t2,0x80
 108:	f1c38393          	addi	t2,t2,-228 # 80020 <_BSS_VMA_START>
 10c:	00080e17          	auipc	t3,0x80
 110:	f6ce0e13          	addi	t3,t3,-148 # 80078 <_BSS_VMA_END>

00000114 <_IZERO_BSS_BEGIN>:
 114:	01c3f663          	bgeu	t2,t3,120 <_IZERO_AES>
 118:	0053a023          	sw	t0,0(t2)
 11c:	0391                	c.addi	t2,4
 11e:	bfdd                	c.j	114 <_IZERO_BSS_BEGIN>

00000120 <_IZERO_AES>:
 120:	000002b7          	lui	t0,0x0
 124:	00000397          	auipc	t2,0x0
 128:	03438393          	addi	t2,t2,52 # 158 <_RETENTION_RESET_VMA_END>
 12c:	00000e17          	auipc	t3,0x0
 130:	04ce0e13          	addi	t3,t3,76 # 178 <_AES_VMA_END>

00000134 <_IZERO_AES_BEGIN>:
 134:	01c3f663          	bgeu	t2,t3,140 <_IFILL_STK>
 138:	0053a023          	sw	t0,0(t2)
 13c:	0391                	c.addi	t2,4
 13e:	bfdd                	c.j	134 <_IZERO_AES_BEGIN>

00000140 <_IFILL_STK>:
 140:	0001                	c.nop
 142:	00005297          	auipc	t0,0x5
 146:	2b628293          	addi	t0,t0,694 # 53f8 <main>
 14a:	9282                	c.jalr	t0
 14c:	0001                	c.nop
 14e:	0001                	c.nop
 150:	0001                	c.nop
 152:	0001                	c.nop
 154:	0001                	c.nop

00000156 <_IEND>:
 156:	a001                	c.j	156 <_IEND>

Disassembly of section .ram_code:

00001200 <rf_set_power_level_index.constprop.58>:
    1200:	801417b7          	lui	a5,0x80141
    1204:	e3c78703          	lb	a4,-452(a5) # 80140e3c <_DATA_LMA_START+0x601334bc>
    1208:	0ff77713          	andi	a4,a4,255
    120c:	04076713          	ori	a4,a4,64
    1210:	e2e78e23          	sb	a4,-452(a5)
    1214:	e2678703          	lb	a4,-474(a5)
    1218:	07f77713          	andi	a4,a4,127
    121c:	e2e78323          	sb	a4,-474(a5)
    1220:	e2778703          	lb	a4,-473(a5)
    1224:	0e077713          	andi	a4,a4,224
    1228:	01276713          	ori	a4,a4,18
    122c:	e2e783a3          	sb	a4,-473(a5)
    1230:	00008067          	ret

00001234 <smemset.constprop.55>:
    1234:	00a585b3          	add	a1,a1,a0
    1238:	0505                	c.addi	a0,1
    123a:	fe050fa3          	sb	zero,-1(a0)
    123e:	fea59de3          	bne	a1,a0,1238 <smemset.constprop.55+0x4>
    1242:	8082                	c.jr	ra

00001244 <blt_reset_conn_phy_param.constprop.15>:
    1244:	000007b7          	lui	a5,0x0
    1248:	17878793          	addi	a5,a5,376 # 178 <_AES_VMA_END>
    124c:	4685                	c.li	a3,1
    124e:	0677c703          	lbu	a4,103(a5)
    1252:	04d78ca3          	sb	a3,89(a5)
    1256:	e319                	c.bnez	a4,125c <blt_reset_conn_phy_param.constprop.15+0x18>
    1258:	00800713          	li	a4,8
    125c:	04e78da3          	sb	a4,91(a5)
    1260:	0407ae23          	sw	zero,92(a5)
    1264:	4501                	c.li	a0,0
    1266:	8082                	c.jr	ra

00001268 <smemcpy>:
    1268:	ca11                	c.beqz	a2,127c <smemcpy+0x14>
    126a:	962e                	c.add	a2,a1
    126c:	0585                	c.addi	a1,1
    126e:	fff5c783          	lbu	a5,-1(a1)
    1272:	0505                	c.addi	a0,1
    1274:	fef50fa3          	sb	a5,-1(a0)
    1278:	feb61ae3          	bne	a2,a1,126c <smemcpy+0x4>
    127c:	00008067          	ret

00001280 <aes_ccmBaseTran.isra.0.constprop.56>:
    1280:	7139                	c.addi16sp	sp,-64
    1282:	da26                	c.swsp	s1,52(sp)
    1284:	84ae                	c.mv	s1,a1
    1286:	000005b7          	lui	a1,0x0
    128a:	dc22                	c.swsp	s0,56(sp)
    128c:	d84a                	c.swsp	s2,48(sp)
    128e:	4785                	c.li	a5,1
    1290:	842a                	c.mv	s0,a0
    1292:	8932                	c.mv	s2,a2
    1294:	00110513          	addi	a0,sp,1
    1298:	4635                	c.li	a2,13
    129a:	27858593          	addi	a1,a1,632 # 278 <blc_cyrpt_para+0x18>
    129e:	de06                	c.swsp	ra,60(sp)
    12a0:	00f10023          	sb	a5,0(sp)
    12a4:	fc5ff0ef          	jal	ra,1268 <smemcpy>
    12a8:	00000637          	lui	a2,0x0
    12ac:	15860e93          	addi	t4,a2,344 # 158 <_RETENTION_RESET_VMA_END>
    12b0:	15860f13          	addi	t5,a2,344
    12b4:	4681                	c.li	a3,0
    12b6:	15860613          	addi	a2,a2,344
    12ba:	4801                	c.li	a6,0
    12bc:	0078                	c.addi4spn	a4,sp,12
    12be:	850a                	c.mv	a0,sp
    12c0:	00011723          	sh	zero,14(sp)
    12c4:	00174783          	lbu	a5,1(a4)
    12c8:	00074583          	lbu	a1,0(a4)
    12cc:	06a2                	c.slli	a3,0x8
    12ce:	0106e6b3          	or	a3,a3,a6
    12d2:	07c2                	c.slli	a5,0x10
    12d4:	8fd5                	c.or	a5,a3
    12d6:	01859693          	slli	a3,a1,0x18
    12da:	8fd5                	c.or	a5,a3
    12dc:	c21c                	c.sw	a5,0(a2)
    12de:	0611                	c.addi	a2,4
    12e0:	00a70863          	beq	a4,a0,12f0 <aes_ccmBaseTran.isra.0.constprop.56+0x70>
    12e4:	1771                	c.addi	a4,-4
    12e6:	00374803          	lbu	a6,3(a4)
    12ea:	00274683          	lbu	a3,2(a4)
    12ee:	bfd9                	c.j	12c4 <aes_ccmBaseTran.isra.0.constprop.56+0x44>
    12f0:	801607b7          	lui	a5,0x80160
    12f4:	0dd7a223          	sw	t4,196(a5) # 801600c4 <_DATA_LMA_START+0x60152744>
    12f8:	00100693          	li	a3,1
    12fc:	80160737          	lui	a4,0x80160
    1300:	0ad7a823          	sw	a3,176(a5)
    1304:	0b072783          	lw	a5,176(a4) # 801600b0 <_DATA_LMA_START+0x60152730>
    1308:	fe07fe5b          	bbs	a5,0,1304 <aes_ccmBaseTran.isra.0.constprop.56+0x84>
    130c:	0f7d                	c.addi	t5,31
    130e:	00fe8693          	addi	a3,t4,15
    1312:	081c                	c.addi4spn	a5,sp,16
    1314:	01e005b3          	add	a1,zero,t5
    1318:	00058703          	lb	a4,0(a1)
    131c:	0785                	c.addi	a5,1
    131e:	15fd                	c.addi	a1,-1
    1320:	fee78fa3          	sb	a4,-1(a5)
    1324:	feb69ae3          	bne	a3,a1,1318 <aes_ccmBaseTran.isra.0.constprop.56+0x98>
    1328:	864a                	c.mv	a2,s2
    132a:	00490813          	addi	a6,s2,4
    132e:	872a                	c.mv	a4,a0
    1330:	00060783          	lb	a5,0(a2)
    1334:	01070683          	lb	a3,16(a4)
    1338:	0605                	c.addi	a2,1
    133a:	8fb5                	c.xor	a5,a3
    133c:	fef60fa3          	sb	a5,-1(a2)
    1340:	0705                	c.addi	a4,1
    1342:	fec817e3          	bne	a6,a2,1330 <aes_ccmBaseTran.isra.0.constprop.56+0xb0>
    1346:	10000793          	li	a5,256
    134a:	00f11723          	sh	a5,14(sp)
    134e:	00f4f793          	andi	a5,s1,15
    1352:	8826                	c.mv	a6,s1
    1354:	cbe1                	c.beqz	a5,1424 <aes_ccmBaseTran.isra.0.constprop.56+0x1a4>
    1356:	98c1                	c.andi	s1,-16
    1358:	01048493          	addi	s1,s1,16
    135c:	3c04a4db          	bfoz	s1,s1,15,0
    1360:	4681                	c.li	a3,0
    1362:	4885                	c.li	a7,1
    1364:	4301                	c.li	t1,0
    1366:	ffc10e13          	addi	t3,sp,-4
    136a:	02050513          	addi	a0,a0,32
    136e:	80160637          	lui	a2,0x80160
    1372:	4f85                	c.li	t6,1
    1374:	0ff8f913          	andi	s2,a7,255
    1378:	83f6                	c.mv	t2,t4
    137a:	0078                	c.addi4spn	a4,sp,12
    137c:	00174783          	lbu	a5,1(a4)
    1380:	00074283          	lbu	t0,0(a4)
    1384:	06a2                	c.slli	a3,0x8
    1386:	0126e6b3          	or	a3,a3,s2
    138a:	07c2                	c.slli	a5,0x10
    138c:	8fd5                	c.or	a5,a3
    138e:	01829693          	slli	a3,t0,0x18
    1392:	8fd5                	c.or	a5,a3
    1394:	00f3a023          	sw	a5,0(t2)
    1398:	1771                	c.addi	a4,-4
    139a:	0391                	c.addi	t2,4
    139c:	01c70863          	beq	a4,t3,13ac <aes_ccmBaseTran.isra.0.constprop.56+0x12c>
    13a0:	00374903          	lbu	s2,3(a4)
    13a4:	00274683          	lbu	a3,2(a4)
    13a8:	fd5ff06f          	j	137c <aes_ccmBaseTran.isra.0.constprop.56+0xfc>
    13ac:	0dd62223          	sw	t4,196(a2) # 801600c4 <_DATA_LMA_START+0x60152744>
    13b0:	0bf62823          	sw	t6,176(a2)
    13b4:	0b062783          	lw	a5,176(a2)
    13b8:	fe07fe5b          	bbs	a5,0,13b4 <aes_ccmBaseTran.isra.0.constprop.56+0x134>
    13bc:	0818                	c.addi4spn	a4,sp,16
    13be:	87fa                	c.mv	a5,t5
    13c0:	00078683          	lb	a3,0(a5)
    13c4:	0705                	c.addi	a4,1
    13c6:	17fd                	c.addi	a5,-1
    13c8:	fed70fa3          	sb	a3,-1(a4)
    13cc:	fef59ae3          	bne	a1,a5,13c0 <aes_ccmBaseTran.isra.0.constprop.56+0x140>
    13d0:	006407b3          	add	a5,s0,t1
    13d4:	0818                	c.addi4spn	a4,sp,16
    13d6:	a829                	c.j	13f0 <aes_ccmBaseTran.isra.0.constprop.56+0x170>
    13d8:	00078683          	lb	a3,0(a5)
    13dc:	00070283          	lb	t0,0(a4)
    13e0:	0785                	c.addi	a5,1
    13e2:	0056c6b3          	xor	a3,a3,t0
    13e6:	0705                	c.addi	a4,1
    13e8:	fed78fa3          	sb	a3,-1(a5)
    13ec:	00e50663          	beq	a0,a4,13f8 <aes_ccmBaseTran.isra.0.constprop.56+0x178>
    13f0:	408786b3          	sub	a3,a5,s0
    13f4:	ff06c2e3          	blt	a3,a6,13d8 <aes_ccmBaseTran.isra.0.constprop.56+0x158>
    13f8:	0885                	c.addi	a7,1
    13fa:	3c08a8db          	bfoz	a7,a7,15,0
    13fe:	0088d693          	srli	a3,a7,0x8
    1402:	0341                	c.addi	t1,16
    1404:	00d10723          	sb	a3,14(sp)
    1408:	011107a3          	sb	a7,15(sp)
    140c:	3c03235b          	bfoz	t1,t1,15,0
    1410:	f69362e3          	bltu	t1,s1,1374 <aes_ccmBaseTran.isra.0.constprop.56+0xf4>
    1414:	50f2                	c.lwsp	ra,60(sp)
    1416:	5462                	c.lwsp	s0,56(sp)
    1418:	54d2                	c.lwsp	s1,52(sp)
    141a:	5942                	c.lwsp	s2,48(sp)
    141c:	4501                	c.li	a0,0
    141e:	6121                	c.addi16sp	sp,64
    1420:	00008067          	ret
    1424:	fc95                	c.bnez	s1,1360 <aes_ccmBaseTran.isra.0.constprop.56+0xe0>
    1426:	50f2                	c.lwsp	ra,60(sp)
    1428:	5462                	c.lwsp	s0,56(sp)
    142a:	54d2                	c.lwsp	s1,52(sp)
    142c:	5942                	c.lwsp	s2,48(sp)
    142e:	4501                	c.li	a0,0
    1430:	6121                	c.addi16sp	sp,64
    1432:	8082                	c.jr	ra

00001434 <aes_ccmAuthTran.constprop.54>:
    1434:	7119                	c.addi16sp	sp,-128
    1436:	dca2                	c.swsp	s0,120(sp)
    1438:	c22a                	c.swsp	a0,4(sp)
    143a:	842e                	c.mv	s0,a1
    143c:	0808                	c.addi4spn	a0,sp,16
    143e:	03000593          	li	a1,48
    1442:	de86                	c.swsp	ra,124(sp)
    1444:	c636                	c.swsp	a3,12(sp)
    1446:	daa6                	c.swsp	s1,116(sp)
    1448:	d8ca                	c.swsp	s2,112(sp)
    144a:	84b2                	c.mv	s1,a2
    144c:	d6ce                	c.swsp	s3,108(sp)
    144e:	d4d2                	c.swsp	s4,104(sp)
    1450:	d2d6                	c.swsp	s5,100(sp)
    1452:	d0da                	c.swsp	s6,96(sp)
    1454:	cede                	c.swsp	s7,92(sp)
    1456:	cce2                	c.swsp	s8,88(sp)
    1458:	cae6                	c.swsp	s9,84(sp)
    145a:	c8ea                	c.swsp	s10,80(sp)
    145c:	c6ee                	c.swsp	s11,76(sp)
    145e:	3bd9                	c.jal	1234 <smemset.constprop.55>
    1460:	000005b7          	lui	a1,0x0
    1464:	04900793          	li	a5,73
    1468:	4635                	c.li	a2,13
    146a:	27858593          	addi	a1,a1,632 # 278 <blc_cyrpt_para+0x18>
    146e:	01110513          	addi	a0,sp,17
    1472:	00f10823          	sb	a5,16(sp)
    1476:	3bcd                	c.jal	1268 <smemcpy>
    1478:	10000793          	li	a5,256
    147c:	85a6                	c.mv	a1,s1
    147e:	4605                	c.li	a2,1
    1480:	03210513          	addi	a0,sp,50
    1484:	02f11823          	sh	a5,48(sp)
    1488:	00010f23          	sb	zero,30(sp)
    148c:	00810fa3          	sb	s0,31(sp)
    1490:	dd9ff0ef          	jal	ra,1268 <smemcpy>
    1494:	45c1                	c.li	a1,16
    1496:	1008                	c.addi4spn	a0,sp,32
    1498:	d9dff0ef          	jal	ra,1234 <smemset.constprop.55>
    149c:	01040493          	addi	s1,s0,16
    14a0:	00f47793          	andi	a5,s0,15
    14a4:	3c04a4db          	bfoz	s1,s1,15,0
    14a8:	c791                	c.beqz	a5,14b4 <aes_ccmAuthTran.constprop.54+0x80>
    14aa:	98c1                	c.andi	s1,-16
    14ac:	01048493          	addi	s1,s1,16
    14b0:	3c04a4db          	bfoz	s1,s1,15,0
    14b4:	00000e37          	lui	t3,0x0
    14b8:	00000937          	lui	s2,0x0
    14bc:	00000cb7          	lui	s9,0x0
    14c0:	04bd                	c.addi	s1,15
    14c2:	158e0b93          	addi	s7,t3,344 # 158 <_RETENTION_RESET_VMA_END>
    14c6:	4b01                	c.li	s6,0
    14c8:	4a81                	c.li	s5,0
    14ca:	430d                	c.li	t1,3
    14cc:	03010d13          	addi	s10,sp,48
    14d0:	01c10c13          	addi	s8,sp,28
    14d4:	17790913          	addi	s2,s2,375 # 177 <_RETENTION_RESET_VMA_END+0x1f>
    14d8:	167c8c93          	addi	s9,s9,359 # 167 <_RETENTION_RESET_VMA_END+0xf>
    14dc:	80160db7          	lui	s11,0x80160
    14e0:	4985                	c.li	s3,1
    14e2:	4a39                	c.li	s4,14
    14e4:	1014                	c.addi4spn	a3,sp,32
    14e6:	87b6                	c.mv	a5,a3
    14e8:	00078703          	lb	a4,0(a5)
    14ec:	ff078603          	lb	a2,-16(a5)
    14f0:	0785                	c.addi	a5,1
    14f2:	8f31                	c.xor	a4,a2
    14f4:	fee78fa3          	sb	a4,-1(a5)
    14f8:	fefd18e3          	bne	s10,a5,14e8 <aes_ccmAuthTran.constprop.54+0xb4>
    14fc:	855e                	c.mv	a0,s7
    14fe:	1078                	c.addi4spn	a4,sp,44
    1500:	00274783          	lbu	a5,2(a4)
    1504:	00174583          	lbu	a1,1(a4)
    1508:	00374f03          	lbu	t5,3(a4)
    150c:	00074603          	lbu	a2,0(a4)
    1510:	07a2                	c.slli	a5,0x8
    1512:	05c2                	c.slli	a1,0x10
    1514:	8fcd                	c.or	a5,a1
    1516:	01e7e7b3          	or	a5,a5,t5
    151a:	0662                	c.slli	a2,0x18
    151c:	8fd1                	c.or	a5,a2
    151e:	c11c                	c.sw	a5,0(a0)
    1520:	1771                	c.addi	a4,-4
    1522:	0511                	c.addi	a0,4
    1524:	fd871ee3          	bne	a4,s8,1500 <aes_ccmAuthTran.constprop.54+0xcc>
    1528:	0d7da223          	sw	s7,196(s11) # 801600c4 <_DATA_LMA_START+0x60152744>
    152c:	0b3da823          	sw	s3,176(s11)
    1530:	0b0da783          	lw	a5,176(s11)
    1534:	fe07fe5b          	bbs	a5,0,1530 <aes_ccmAuthTran.constprop.54+0xfc>
    1538:	012007b3          	add	a5,zero,s2
    153c:	00078703          	lb	a4,0(a5)
    1540:	0685                	c.addi	a3,1
    1542:	17fd                	c.addi	a5,-1
    1544:	fee68fa3          	sb	a4,-1(a3)
    1548:	fefc9ae3          	bne	s9,a5,153c <aes_ccmAuthTran.constprop.54+0x108>
    154c:	fff30793          	addi	a5,t1,-1
    1550:	3c07a7db          	bfoz	a5,a5,15,0
    1554:	06fa7c63          	bgeu	s4,a5,15cc <aes_ccmAuthTran.constprop.54+0x198>
    1558:	4512                	c.lwsp	a0,4(sp)
    155a:	004b1593          	slli	a1,s6,0x4
    155e:	95aa                	c.add	a1,a0
    1560:	453d                	c.li	a0,15
    1562:	04857963          	bgeu	a0,s0,15b4 <aes_ccmAuthTran.constprop.54+0x180>
    1566:	4641                	c.li	a2,16
    1568:	0808                	c.addi4spn	a0,sp,16
    156a:	39fd                	c.jal	1268 <smemcpy>
    156c:	001b0e93          	addi	t4,s6,1
    1570:	ff040413          	addi	s0,s0,-16
    1574:	0ffefb13          	andi	s6,t4,255
    1578:	3c04245b          	bfoz	s0,s0,15,0
    157c:	010a8813          	addi	a6,s5,16
    1580:	3c082adb          	bfoz	s5,a6,15,0
    1584:	4301                	c.li	t1,0
    1586:	f554dfe3          	bge	s1,s5,14e4 <aes_ccmAuthTran.constprop.54+0xb0>
    158a:	4532                	c.lwsp	a0,12(sp)
    158c:	100c                	c.addi4spn	a1,sp,32
    158e:	4611                	c.li	a2,4
    1590:	cd9ff0ef          	jal	ra,1268 <smemcpy>
    1594:	50f6                	c.lwsp	ra,124(sp)
    1596:	5466                	c.lwsp	s0,120(sp)
    1598:	54d6                	c.lwsp	s1,116(sp)
    159a:	5946                	c.lwsp	s2,112(sp)
    159c:	59b6                	c.lwsp	s3,108(sp)
    159e:	5a26                	c.lwsp	s4,104(sp)
    15a0:	5a96                	c.lwsp	s5,100(sp)
    15a2:	5b06                	c.lwsp	s6,96(sp)
    15a4:	4bf6                	c.lwsp	s7,92(sp)
    15a6:	4c66                	c.lwsp	s8,88(sp)
    15a8:	4cd6                	c.lwsp	s9,84(sp)
    15aa:	4d46                	c.lwsp	s10,80(sp)
    15ac:	4db6                	c.lwsp	s11,76(sp)
    15ae:	4501                	c.li	a0,0
    15b0:	6109                	c.addi16sp	sp,128
    15b2:	8082                	c.jr	ra
    15b4:	0808                	c.addi4spn	a0,sp,16
    15b6:	8622                	c.mv	a2,s0
    15b8:	cb1ff0ef          	jal	ra,1268 <smemcpy>
    15bc:	0808                	c.addi4spn	a0,sp,16
    15be:	45c1                	c.li	a1,16
    15c0:	8d81                	c.sub	a1,s0
    15c2:	9522                	c.add	a0,s0
    15c4:	c71ff0ef          	jal	ra,1234 <smemset.constprop.55>
    15c8:	fb5ff06f          	j	157c <aes_ccmAuthTran.constprop.54+0x148>
    15cc:	861a                	c.mv	a2,t1
    15ce:	015d05b3          	add	a1,s10,s5
    15d2:	0808                	c.addi4spn	a0,sp,16
    15d4:	c41a                	c.swsp	t1,8(sp)
    15d6:	3949                	c.jal	1268 <smemcpy>
    15d8:	4322                	c.lwsp	t1,8(sp)
    15da:	4541                	c.li	a0,16
    15dc:	406505b3          	sub	a1,a0,t1
    15e0:	0808                	c.addi4spn	a0,sp,16
    15e2:	951a                	c.add	a0,t1
    15e4:	c51ff0ef          	jal	ra,1234 <smemset.constprop.55>
    15e8:	00000b13          	li	s6,0
    15ec:	f91ff06f          	j	157c <aes_ccmAuthTran.constprop.54+0x148>

000015f0 <aes_ll_ccm_decryption.constprop.52>:
    15f0:	00154783          	lbu	a5,1(a0)
    15f4:	4711                	c.li	a4,4
    15f6:	0cf77563          	bgeu	a4,a5,16c0 <aes_ll_ccm_decryption.constprop.52+0xd0>
    15fa:	1101                	c.addi	sp,-32
    15fc:	17f1                	c.addi	a5,-4
    15fe:	00000637          	lui	a2,0x0
    1602:	ca26                	c.swsp	s1,20(sp)
    1604:	ce06                	c.swsp	ra,28(sp)
    1606:	cc22                	c.swsp	s0,24(sp)
    1608:	01212823          	sw	s2,16(sp)
    160c:	17860613          	addi	a2,a2,376 # 178 <_AES_VMA_END>
    1610:	00050703          	lb	a4,0(a0)
    1614:	0ff7f593          	andi	a1,a5,255
    1618:	00b500a3          	sb	a1,1(a0)
    161c:	0ec62803          	lw	a6,236(a2)
    1620:	00377793          	andi	a5,a4,3
    1624:	00160337          	lui	t1,0x160
    1628:	00180893          	addi	a7,a6,1
    162c:	00250493          	addi	s1,a0,2
    1630:	0b430693          	addi	a3,t1,180 # 1600b4 <FLASH_SIZE+0x600b4>
    1634:	00f103a3          	sb	a5,7(sp)
    1638:	0fc60713          	addi	a4,a2,252
    163c:	f8000793          	li	a5,-128
    1640:	80000537          	lui	a0,0x80000
    1644:	0c430313          	addi	t1,t1,196
    1648:	0f162623          	sw	a7,236(a2)
    164c:	11062023          	sw	a6,256(a2)
    1650:	10f60223          	sb	a5,260(a2)
    1654:	00274783          	lbu	a5,2(a4)
    1658:	00174883          	lbu	a7,1(a4)
    165c:	00374603          	lbu	a2,3(a4)
    1660:	00074803          	lbu	a6,0(a4)
    1664:	07a2                	c.slli	a5,0x8
    1666:	08c2                	c.slli	a7,0x10
    1668:	0117e7b3          	or	a5,a5,a7
    166c:	8fd1                	c.or	a5,a2
    166e:	0862                	c.slli	a6,0x18
    1670:	00a6e633          	or	a2,a3,a0
    1674:	0107e7b3          	or	a5,a5,a6
    1678:	c21c                	c.sw	a5,0(a2)
    167a:	0691                	c.addi	a3,4
    167c:	1771                	c.addi	a4,-4
    167e:	fc669be3          	bne	a3,t1,1654 <aes_ll_ccm_decryption.constprop.52+0x64>
    1682:	00b48433          	add	s0,s1,a1
    1686:	3c05a95b          	bfoz	s2,a1,15,0
    168a:	8622                	c.mv	a2,s0
    168c:	85ca                	c.mv	a1,s2
    168e:	8526                	c.mv	a0,s1
    1690:	bf1ff0ef          	jal	ra,1280 <aes_ccmBaseTran.isra.0.constprop.56>
    1694:	0034                	c.addi4spn	a3,sp,8
    1696:	00710613          	addi	a2,sp,7
    169a:	85ca                	c.mv	a1,s2
    169c:	8526                	c.mv	a0,s1
    169e:	3b59                	c.jal	1434 <aes_ccmAuthTran.constprop.54>
    16a0:	0068                	c.addi4spn	a0,sp,12
    16a2:	85a2                	c.mv	a1,s0
    16a4:	4611                	c.li	a2,4
    16a6:	36c9                	c.jal	1268 <smemcpy>
    16a8:	4532                	c.lwsp	a0,12(sp)
    16aa:	47a2                	c.lwsp	a5,8(sp)
    16ac:	40f2                	c.lwsp	ra,28(sp)
    16ae:	4462                	c.lwsp	s0,24(sp)
    16b0:	8d1d                	c.sub	a0,a5
    16b2:	44d2                	c.lwsp	s1,20(sp)
    16b4:	4942                	c.lwsp	s2,16(sp)
    16b6:	00a03533          	snez	a0,a0
    16ba:	6105                	c.addi16sp	sp,32
    16bc:	00008067          	ret
    16c0:	4505                	c.li	a0,1
    16c2:	8082                	c.jr	ra

000016c4 <blt_ll_searchAddr_in_WhiteList>:
    16c4:	000007b7          	lui	a5,0x0
    16c8:	17878793          	addi	a5,a5,376 # 178 <_AES_VMA_END>
    16cc:	3607c683          	lbu	a3,864(a5)
    16d0:	00000713          	li	a4,0
    16d4:	34078793          	addi	a5,a5,832
    16d8:	06d75663          	bge	a4,a3,1744 <blt_ll_searchAddr_in_WhiteList+0x80>
    16dc:	0007c603          	lbu	a2,0(a5)
    16e0:	04a61e63          	bne	a2,a0,173c <blt_ll_searchAddr_in_WhiteList+0x78>
    16e4:	0017c803          	lbu	a6,1(a5)
    16e8:	0005c603          	lbu	a2,0(a1)
    16ec:	04c81863          	bne	a6,a2,173c <blt_ll_searchAddr_in_WhiteList+0x78>
    16f0:	0027c803          	lbu	a6,2(a5)
    16f4:	0015c603          	lbu	a2,1(a1)
    16f8:	04c81263          	bne	a6,a2,173c <blt_ll_searchAddr_in_WhiteList+0x78>
    16fc:	0037c803          	lbu	a6,3(a5)
    1700:	0025c603          	lbu	a2,2(a1)
    1704:	02c81c63          	bne	a6,a2,173c <blt_ll_searchAddr_in_WhiteList+0x78>
    1708:	0047c803          	lbu	a6,4(a5)
    170c:	0035c603          	lbu	a2,3(a1)
    1710:	02c81663          	bne	a6,a2,173c <blt_ll_searchAddr_in_WhiteList+0x78>
    1714:	0057c803          	lbu	a6,5(a5)
    1718:	0045c603          	lbu	a2,4(a1)
    171c:	02c81063          	bne	a6,a2,173c <blt_ll_searchAddr_in_WhiteList+0x78>
    1720:	0067c803          	lbu	a6,6(a5)
    1724:	0055c603          	lbu	a2,5(a1)
    1728:	00c81a63          	bne	a6,a2,173c <blt_ll_searchAddr_in_WhiteList+0x78>
    172c:	00000537          	lui	a0,0x0
    1730:	4b850513          	addi	a0,a0,1208 # 4b8 <ll_whiteList_tbl>
    1734:	0ee5055b          	lea.d	a0,a0,a4
    1738:	00008067          	ret
    173c:	0705                	c.addi	a4,1
    173e:	07a1                	c.addi	a5,8
    1740:	f99ff06f          	j	16d8 <blt_ll_searchAddr_in_WhiteList+0x14>
    1744:	4501                	c.li	a0,0
    1746:	8082                	c.jr	ra

00001748 <blt_terminate_proc>:
    1748:	1141                	c.addi	sp,-16
    174a:	c422                	c.swsp	s0,8(sp)
    174c:	00000437          	lui	s0,0x0
    1750:	c606                	c.swsp	ra,12(sp)
    1752:	17840413          	addi	s0,s0,376 # 178 <_AES_VMA_END>
    1756:	37344783          	lbu	a5,883(s0)
    175a:	0647d95b          	beqc	a5,4,17cc <blt_terminate_proc+0x84>
    175e:	0027d55b          	beqc	a5,2,1768 <blt_terminate_proc+0x20>
    1762:	47a1                	c.li	a5,8
    1764:	36f408a3          	sb	a5,881(s0)
    1768:	3dc42783          	lw	a5,988(s0)
    176c:	44c42703          	lw	a4,1100(s0)
    1770:	0107e793          	ori	a5,a5,16
    1774:	3cf42e23          	sw	a5,988(s0)
    1778:	001b07b7          	lui	a5,0x1b0
    177c:	07ed                	c.addi	a5,27
    177e:	3ef42023          	sw	a5,992(s0)
    1782:	57fd                	c.li	a5,-1
    1784:	3e0418a3          	sh	zero,1009(s0)
    1788:	3e0409a3          	sb	zero,1011(s0)
    178c:	36040823          	sb	zero,880(s0)
    1790:	36041923          	sh	zero,882(s0)
    1794:	3e040f23          	sb	zero,1022(s0)
    1798:	3a042223          	sw	zero,932(s0)
    179c:	36f41b23          	sh	a5,886(s0)
    17a0:	3e040aa3          	sb	zero,1013(s0)
    17a4:	3a042423          	sw	zero,936(s0)
    17a8:	cb11                	c.beqz	a4,17bc <blt_terminate_proc+0x74>
    17aa:	15040783          	lb	a5,336(s0)
    17ae:	01000537          	lui	a0,0x1000
    17b2:	0ff7f793          	andi	a5,a5,255
    17b6:	8d5d                	c.or	a0,a5
    17b8:	000700e7          	jalr	a4
    17bc:	360403a3          	sb	zero,871(s0)
    17c0:	44040923          	sb	zero,1106(s0)
    17c4:	40b2                	c.lwsp	ra,12(sp)
    17c6:	4422                	c.lwsp	s0,8(sp)
    17c8:	0141                	c.addi	sp,16
    17ca:	8082                	c.jr	ra
    17cc:	02200793          	li	a5,34
    17d0:	36f408a3          	sb	a5,881(s0)
    17d4:	f95ff06f          	j	1768 <blt_terminate_proc+0x20>

000017d8 <blt_terminate_pending_proc>:
    17d8:	000007b7          	lui	a5,0x0
    17dc:	17878793          	addi	a5,a5,376 # 178 <_AES_VMA_END>
    17e0:	3707c703          	lbu	a4,880(a5)
    17e4:	cb11                	c.beqz	a4,17f8 <blt_terminate_pending_proc+0x20>
    17e6:	0705                	c.addi	a4,1
    17e8:	0ff77713          	andi	a4,a4,255
    17ec:	36e78823          	sb	a4,880(a5)
    17f0:	00200693          	li	a3,2
    17f4:	06e6e063          	bltu	a3,a4,1854 <blt_terminate_pending_proc+0x7c>
    17f8:	3727c703          	lbu	a4,882(a5)
    17fc:	0017545b          	beqc	a4,1,1804 <blt_terminate_pending_proc+0x2c>
    1800:	00008067          	ret
    1804:	801006b7          	lui	a3,0x80100
    1808:	50068703          	lb	a4,1280(a3) # 80100500 <_DATA_LMA_START+0x600f2b80>
    180c:	50168683          	lb	a3,1281(a3)
    1810:	8f15                	c.sub	a4,a3
    1812:	8b7d                	c.andi	a4,31
    1814:	00071863          	bnez	a4,1824 <blt_terminate_pending_proc+0x4c>
    1818:	4877c683          	lbu	a3,1159(a5)
    181c:	4867c703          	lbu	a4,1158(a5)
    1820:	02e68063          	beq	a3,a4,1840 <blt_terminate_pending_proc+0x68>
    1824:	80140737          	lui	a4,0x80140
    1828:	20072683          	lw	a3,512(a4) # 80140200 <_DATA_LMA_START+0x60132880>
    182c:	3b07a703          	lw	a4,944(a5)
    1830:	40e686b3          	sub	a3,a3,a4
    1834:	007a1737          	lui	a4,0x7a1
    1838:	20070713          	addi	a4,a4,512 # 7a1200 <FLASH_SIZE+0x6a1200>
    183c:	fcd772e3          	bgeu	a4,a3,1800 <blt_terminate_pending_proc+0x28>
    1840:	49378703          	lb	a4,1171(a5)
    1844:	20000693          	li	a3,512
    1848:	36d79923          	sh	a3,882(a5)
    184c:	36e788a3          	sb	a4,881(a5)
    1850:	00008067          	ret
    1854:	36d789a3          	sb	a3,883(a5)
    1858:	00008067          	ret

0000185c <bls_ll_setNewConnection_timing>:
    185c:	000007b7          	lui	a5,0x0
    1860:	8d0d                	c.sub	a0,a1
    1862:	17878793          	addi	a5,a5,376 # 178 <_AES_VMA_END>
    1866:	4685                	c.li	a3,1
    1868:	6715                	c.lui	a4,0x5
    186a:	e2070713          	addi	a4,a4,-480 # 4e20 <blt_sdk_main_loop+0x300>
    186e:	36d786a3          	sb	a3,877(a5)
    1872:	3c05255b          	bfoz	a0,a0,15,0
    1876:	480d                	c.li	a6,3
    1878:	02e585b3          	mul	a1,a1,a4
    187c:	04a86a63          	bltu	a6,a0,18d0 <bls_ll_setNewConnection_timing+0x74>
    1880:	6705                	c.lui	a4,0x1
    1882:	00150813          	addi	a6,a0,1 # 1000001 <FLASH_SIZE+0xf00001>
    1886:	fa070713          	addi	a4,a4,-96 # fa0 <blt_buff_att_tx+0x4>
    188a:	6889                	c.lui	a7,0x2
    188c:	02e80733          	mul	a4,a6,a4
    1890:	f4088893          	addi	a7,a7,-192 # 1f40 <blt_push_fifo_hw+0x4c>
    1894:	00b00333          	add	t1,zero,a1
    1898:	c518137f          	maddr32	t1,a6,a7
    189c:	44d78923          	sb	a3,1106(a5)
    18a0:	3867ac23          	sw	t1,920(a5)
    18a4:	3ae7a223          	sw	a4,932(a5)
    18a8:	e215                	c.bnez	a2,18cc <bls_ll_setNewConnection_timing+0x70>
    18aa:	4709                	c.li	a4,2
    18ac:	02a76e63          	bltu	a4,a0,18e8 <bls_ll_setNewConnection_timing+0x8c>
    18b0:	00156e5b          	bnec	a0,1,18cc <bls_ll_setNewConnection_timing+0x70>
    18b4:	6709                	c.lui	a4,0x2
    18b6:	f4070713          	addi	a4,a4,-192 # 1f40 <blt_push_fifo_hw+0x4c>
    18ba:	95ba                	c.add	a1,a4
    18bc:	6705                	c.lui	a4,0x1
    18be:	fa070713          	addi	a4,a4,-96 # fa0 <blt_buff_att_tx+0x4>
    18c2:	3ae7a223          	sw	a4,932(a5)
    18c6:	38b7ac23          	sw	a1,920(a5)
    18ca:	8082                	c.jr	ra
    18cc:	00008067          	ret
    18d0:	6741                	c.lui	a4,0x10
    18d2:	a0070713          	addi	a4,a4,-1536 # fa00 <BIN_SIZE+0x2062>
    18d6:	66a1                	c.lui	a3,0x8
    18d8:	972e                	c.add	a4,a1
    18da:	d0068693          	addi	a3,a3,-768 # 7d00 <_RAMCODE_VMA_END+0x14fe>
    18de:	3ad7a223          	sw	a3,932(a5)
    18e2:	38e7ac23          	sw	a4,920(a5)
    18e6:	b7c9                	c.j	18a8 <bls_ll_setNewConnection_timing+0x4c>
    18e8:	6719                	c.lui	a4,0x6
    18ea:	dc070713          	addi	a4,a4,-576 # 5dc0 <entry_irq29+0x10>
    18ee:	95ba                	c.add	a1,a4
    18f0:	670d                	c.lui	a4,0x3
    18f2:	ee070713          	addi	a4,a4,-288 # 2ee0 <irq_blc_ll_rx+0x4c>
    18f6:	3ae7a223          	sw	a4,932(a5)
    18fa:	4705                	c.li	a4,1
    18fc:	38b7ac23          	sw	a1,920(a5)
    1900:	44e78923          	sb	a4,1106(a5)
    1904:	00008067          	ret

00001908 <blt_brx_timing_update>:
    1908:	000007b7          	lui	a5,0x0
    190c:	17878793          	addi	a5,a5,376 # 178 <_AES_VMA_END>
    1910:	49478703          	lb	a4,1172(a5)
    1914:	0625dc5b          	beqc	a1,2,198c <blt_brx_timing_update+0x84>
    1918:	49578683          	lb	a3,1173(a5)
    191c:	3687c603          	lbu	a2,872(a5)
    1920:	48078b23          	sb	zero,1174(a5)
    1924:	00c6d863          	bge	a3,a2,1934 <blt_brx_timing_update+0x2c>
    1928:	0685                	c.addi	a3,1
    192a:	1c06b65b          	bfos	a2,a3,7,0
    192e:	86b2                	c.mv	a3,a2
    1930:	48c78aa3          	sb	a2,1173(a5)
    1934:	4605                	c.li	a2,1
    1936:	04e65363          	bge	a2,a4,197c <blt_brx_timing_update+0x74>
    193a:	4a07a603          	lw	a2,1184(a5)
    193e:	1779                	c.addi	a4,-2
    1940:	48e78a23          	sb	a4,1172(a5)
    1944:	4a47a703          	lw	a4,1188(a5)
    1948:	3847a503          	lw	a0,900(a5)
    194c:	3907a583          	lw	a1,912(a5)
    1950:	c4c6977f          	maddr32	a4,a3,a2
    1954:	3ac7a603          	lw	a2,940(a5)
    1958:	6689                	c.lui	a3,0x2
    195a:	f4068693          	addi	a3,a3,-192 # 1f40 <blt_push_fifo_hw+0x4c>
    195e:	3ae7a223          	sw	a4,932(a5)
    1962:	9736                	c.add	a4,a3
    1964:	952e                	c.add	a0,a1
    1966:	0706                	c.slli	a4,0x1
    1968:	38a7a223          	sw	a0,900(a5)
    196c:	38e7ac23          	sw	a4,920(a5)
    1970:	48c7ac23          	sw	a2,1176(a5)
    1974:	440789a3          	sb	zero,1107(a5)
    1978:	00008067          	ret
    197c:	6719                	c.lui	a4,0x6
    197e:	dc070713          	addi	a4,a4,-576 # 5dc0 <entry_irq29+0x10>
    1982:	863a                	c.mv	a2,a4
    1984:	4ae7a023          	sw	a4,1184(a5)
    1988:	fbdff06f          	j	1944 <blt_brx_timing_update+0x3c>
    198c:	48078aa3          	sb	zero,1173(a5)
    1990:	00500693          	li	a3,5
    1994:	0ae6d063          	bge	a3,a4,1a34 <blt_brx_timing_update+0x12c>
    1998:	4a47a703          	lw	a4,1188(a5)
    199c:	4ae7a023          	sw	a4,1184(a5)
    19a0:	4967c683          	lbu	a3,1174(a5)
    19a4:	1c06b65b          	bfos	a2,a3,7,0
    19a8:	00064663          	bltz	a2,19b4 <blt_brx_timing_update+0xac>
    19ac:	00168693          	addi	a3,a3,1
    19b0:	48d78b23          	sb	a3,1174(a5)
    19b4:	4a97c683          	lbu	a3,1193(a5)
    19b8:	3ac7a603          	lw	a2,940(a5)
    19bc:	3907a583          	lw	a1,912(a5)
    19c0:	dec1                	c.beqz	a3,1958 <blt_brx_timing_update+0x50>
    19c2:	4967c803          	lbu	a6,1174(a5)
    19c6:	4685                	c.li	a3,1
    19c8:	f906f8e3          	bgeu	a3,a6,1958 <blt_brx_timing_update+0x50>
    19cc:	4537c683          	lbu	a3,1107(a5)
    19d0:	f6c1                	c.bnez	a3,1958 <blt_brx_timing_update+0x50>
    19d2:	4987a683          	lw	a3,1176(a5)
    19d6:	40d60833          	sub	a6,a2,a3
    19da:	001876b7          	lui	a3,0x187
    19de:	a0068693          	addi	a3,a3,-1536 # 186a00 <FLASH_SIZE+0x86a00>
    19e2:	f706dbe3          	bge	a3,a6,1958 <blt_brx_timing_update+0x50>
    19e6:	49c7ae03          	lw	t3,1180(a5)
    19ea:	6691                	c.lui	a3,0x4
    19ec:	030e0eb3          	mul	t4,t3,a6
    19f0:	fff68313          	addi	t1,a3,-1 # 3fff <blt_brx_sleep+0x5d3>
    19f4:	3847a683          	lw	a3,900(a5)
    19f8:	40d506b3          	sub	a3,a0,a3
    19fc:	41fed893          	srai	a7,t4,0x1f
    1a00:	0068f8b3          	and	a7,a7,t1
    1a04:	98f6                	c.add	a7,t4
    1a06:	40e8d893          	srai	a7,a7,0xe
    1a0a:	96c6                	c.add	a3,a7
    1a0c:	06ba                	c.slli	a3,0xe
    1a0e:	0306c6b3          	div	a3,a3,a6
    1a12:	41c686b3          	sub	a3,a3,t3
    1a16:	8685                	c.srai	a3,0x1
    1a18:	96f2                	c.add	a3,t3
    1a1a:	02d58833          	mul	a6,a1,a3
    1a1e:	48d7ae23          	sw	a3,1180(a5)
    1a22:	41f85693          	srai	a3,a6,0x1f
    1a26:	0066f6b3          	and	a3,a3,t1
    1a2a:	96c2                	c.add	a3,a6
    1a2c:	86b9                	c.srai	a3,0xe
    1a2e:	38d7a423          	sw	a3,904(a5)
    1a32:	b71d                	c.j	1958 <blt_brx_timing_update+0x50>
    1a34:	0705                	c.addi	a4,1
    1a36:	48e78a23          	sb	a4,1172(a5)
    1a3a:	4a07a703          	lw	a4,1184(a5)
    1a3e:	b78d                	c.j	19a0 <blt_brx_timing_update+0x98>

00001a40 <blt_brx_timing_update_init>:
    1a40:	000007b7          	lui	a5,0x0
    1a44:	17878793          	addi	a5,a5,376 # 178 <_AES_VMA_END>
    1a48:	3847a683          	lw	a3,900(a5)
    1a4c:	3907a583          	lw	a1,912(a5)
    1a50:	80141637          	lui	a2,0x80141
    1a54:	96ae                	c.add	a3,a1
    1a56:	a0360703          	lb	a4,-1533(a2) # 80140a03 <_DATA_LMA_START+0x60133083>
    1a5a:	38d7a223          	sw	a3,900(a5)
    1a5e:	6699                	c.lui	a3,0x6
    1a60:	dc068693          	addi	a3,a3,-576 # 5dc0 <entry_irq29+0x10>
    1a64:	0fe77713          	andi	a4,a4,254
    1a68:	48079a23          	sh	zero,1172(a5)
    1a6c:	48078b23          	sb	zero,1174(a5)
    1a70:	4807ae23          	sw	zero,1180(a5)
    1a74:	4ad7a023          	sw	a3,1184(a5)
    1a78:	3807a423          	sw	zero,904(a5)
    1a7c:	a0e601a3          	sb	a4,-1533(a2)
    1a80:	00008067          	ret

00001a84 <blt_set_fsmTimeout_intLevel>:
    1a84:	479d                	c.li	a5,7
    1a86:	02a7e163          	bltu	a5,a0,1aa8 <blt_set_fsmTimeout_intLevel+0x24>
    1a8a:	000007b7          	lui	a5,0x0
    1a8e:	17878793          	addi	a5,a5,376 # 178 <_AES_VMA_END>
    1a92:	4705                	c.li	a4,1
    1a94:	36e78423          	sb	a4,872(a5)
    1a98:	157d                	c.addi	a0,-1
    1a9a:	4e200713          	li	a4,1250
    1a9e:	02e50533          	mul	a0,a0,a4
    1aa2:	3ca7a423          	sw	a0,968(a5)
    1aa6:	8082                	c.jr	ra
    1aa8:	04f00793          	li	a5,79
    1aac:	02a7f863          	bgeu	a5,a0,1adc <blt_set_fsmTimeout_intLevel+0x58>
    1ab0:	000007b7          	lui	a5,0x0
    1ab4:	17878793          	addi	a5,a5,376 # 178 <_AES_VMA_END>
    1ab8:	00300713          	li	a4,3
    1abc:	36e78423          	sb	a4,872(a5)
    1ac0:	4741                	c.li	a4,16
    1ac2:	fca77be3          	bgeu	a4,a0,1a98 <blt_set_fsmTimeout_intLevel+0x14>
    1ac6:	02000713          	li	a4,32
    1aca:	02a77163          	bgeu	a4,a0,1aec <blt_set_fsmTimeout_intLevel+0x68>
    1ace:	27100713          	li	a4,625
    1ad2:	02e50533          	mul	a0,a0,a4
    1ad6:	3ca7a423          	sw	a0,968(a5)
    1ada:	8082                	c.jr	ra
    1adc:	000007b7          	lui	a5,0x0
    1ae0:	17878793          	addi	a5,a5,376 # 178 <_AES_VMA_END>
    1ae4:	4709                	c.li	a4,2
    1ae6:	36e78423          	sb	a4,872(a5)
    1aea:	bfd9                	c.j	1ac0 <blt_set_fsmTimeout_intLevel+0x3c>
    1aec:	1571                	c.addi	a0,-4
    1aee:	4e200713          	li	a4,1250
    1af2:	02e50533          	mul	a0,a0,a4
    1af6:	3ca7a423          	sw	a0,968(a5)
    1afa:	8082                	c.jr	ra

00001afc <blt_ll_channel_conn_update>:
    1afc:	1141                	c.addi	sp,-16
    1afe:	c422                	c.swsp	s0,8(sp)
    1b00:	00000437          	lui	s0,0x0
    1b04:	17840413          	addi	s0,s0,376 # 178 <_AES_VMA_END>
    1b08:	c226                	c.swsp	s1,4(sp)
    1b0a:	c606                	c.swsp	ra,12(sp)
    1b0c:	c04a                	c.swsp	s2,0(sp)
    1b0e:	10e44783          	lbu	a5,270(s0)
    1b12:	84aa                	c.mv	s1,a0
    1b14:	08079463          	bnez	a5,1b9c <blt_ll_channel_conn_update+0xa0>
    1b18:	0024c783          	lbu	a5,2(s1)
    1b1c:	4705                	c.li	a4,1
    1b1e:	0a17d35b          	beqc	a5,1,1bc4 <blt_ll_channel_conn_update+0xc8>
    1b22:	e78d                	c.bnez	a5,1b4c <blt_ll_channel_conn_update+0x50>
    1b24:	00c4d683          	lhu	a3,12(s1)
    1b28:	41041783          	lh	a5,1040(s0)
    1b2c:	40d41923          	sh	a3,1042(s0)
    1b30:	40f687b3          	sub	a5,a3,a5
    1b34:	3c07b7db          	bfos	a5,a5,15,0
    1b38:	0cf04c63          	bgtz	a5,1c10 <blt_ll_channel_conn_update+0x114>
    1b3c:	00000513          	li	a0,0
    1b40:	40b2                	c.lwsp	ra,12(sp)
    1b42:	4422                	c.lwsp	s0,8(sp)
    1b44:	4492                	c.lwsp	s1,4(sp)
    1b46:	4902                	c.lwsp	s2,0(sp)
    1b48:	0141                	c.addi	sp,16
    1b4a:	8082                	c.jr	ra
    1b4c:	bf87e85b          	bnec	a5,24,1b3c <blt_ll_channel_conn_update+0x40>
    1b50:	0064c783          	lbu	a5,6(s1)
    1b54:	0054c603          	lbu	a2,5(s1)
    1b58:	41041683          	lh	a3,1040(s0)
    1b5c:	07a2                	c.slli	a5,0x8
    1b5e:	8fd1                	c.or	a5,a2
    1b60:	40d786b3          	sub	a3,a5,a3
    1b64:	3c06b6db          	bfos	a3,a3,15,0
    1b68:	fcd05ae3          	blez	a3,1b3c <blt_ll_channel_conn_update+0x40>
    1b6c:	00348683          	lb	a3,3(s1)
    1b70:	00448583          	lb	a1,4(s1)
    1b74:	460d                	c.li	a2,3
    1b76:	8eed                	c.and	a3,a1
    1b78:	36e405a3          	sb	a4,875(s0)
    1b7c:	0ff6f693          	andi	a3,a3,255
    1b80:	3ec40aa3          	sb	a2,1013(s0)
    1b84:	40f41923          	sh	a5,1042(s0)
    1b88:	4e06f45b          	bbs	a3,0,1c70 <blt_ll_channel_conn_update+0x174>
    1b8c:	4e16f65b          	bbs	a3,1,1c78 <blt_ll_channel_conn_update+0x17c>
    1b90:	0e26fa5b          	bbc	a3,2,1c84 <blt_ll_channel_conn_update+0x188>
    1b94:	04c40d23          	sb	a2,90(s0)
    1b98:	fa5ff06f          	j	1b3c <blt_ll_channel_conn_update+0x40>
    1b9c:	0ec42903          	lw	s2,236(s0)
    1ba0:	3b842783          	lw	a5,952(s0)
    1ba4:	0ef42623          	sw	a5,236(s0)
    1ba8:	a49ff0ef          	jal	ra,15f0 <aes_ll_ccm_decryption.constprop.52>
    1bac:	0f242623          	sw	s2,236(s0)
    1bb0:	d525                	c.beqz	a0,1b18 <blt_ll_channel_conn_update+0x1c>
    1bb2:	4785                	c.li	a5,1
    1bb4:	10f407a3          	sb	a5,271(s0)
    1bb8:	40b2                	c.lwsp	ra,12(sp)
    1bba:	4422                	c.lwsp	s0,8(sp)
    1bbc:	4492                	c.lwsp	s1,4(sp)
    1bbe:	4902                	c.lwsp	s2,0(sp)
    1bc0:	0141                	c.addi	sp,16
    1bc2:	8082                	c.jr	ra
    1bc4:	0084d683          	lhu	a3,8(s1)
    1bc8:	41041703          	lh	a4,1040(s0)
    1bcc:	40d41923          	sh	a3,1042(s0)
    1bd0:	40e68733          	sub	a4,a3,a4
    1bd4:	3c07375b          	bfos	a4,a4,15,0
    1bd8:	f6e052e3          	blez	a4,1b3c <blt_ll_channel_conn_update+0x40>
    1bdc:	40740513          	addi	a0,s0,1031
    1be0:	00348593          	addi	a1,s1,3
    1be4:	00500613          	li	a2,5
    1be8:	36f405a3          	sb	a5,875(s0)
    1bec:	3ef40aa3          	sb	a5,1013(s0)
    1bf0:	e78ff0ef          	jal	ra,1268 <smemcpy>
    1bf4:	3dc42783          	lw	a5,988(s0)
    1bf8:	4501                	c.li	a0,0
    1bfa:	4007e793          	ori	a5,a5,1024
    1bfe:	3cf42e23          	sw	a5,988(s0)
    1c02:	40b2                	c.lwsp	ra,12(sp)
    1c04:	4422                	c.lwsp	s0,8(sp)
    1c06:	4492                	c.lwsp	s1,4(sp)
    1c08:	4902                	c.lwsp	s2,0(sp)
    1c0a:	0141                	c.addi	sp,16
    1c0c:	00008067          	ret
    1c10:	36e405a3          	sb	a4,875(s0)
    1c14:	0034c783          	lbu	a5,3(s1)
    1c18:	4ac40513          	addi	a0,s0,1196
    1c1c:	36f40723          	sb	a5,878(s0)
    1c20:	0044d783          	lhu	a5,4(s1)
    1c24:	4709                	c.li	a4,2
    1c26:	36f41c23          	sh	a5,888(s0)
    1c2a:	0064d783          	lhu	a5,6(s1)
    1c2e:	85a6                	c.mv	a1,s1
    1c30:	36f41d23          	sh	a5,890(s0)
    1c34:	0084d783          	lhu	a5,8(s1)
    1c38:	00e00613          	li	a2,14
    1c3c:	36f41e23          	sh	a5,892(s0)
    1c40:	00a4d783          	lhu	a5,10(s1)
    1c44:	3ee40aa3          	sb	a4,1013(s0)
    1c48:	36f41f23          	sh	a5,894(s0)
    1c4c:	e1cff0ef          	jal	ra,1268 <smemcpy>
    1c50:	3dc42783          	lw	a5,988(s0)
    1c54:	6705                	c.lui	a4,0x1
    1c56:	80070713          	addi	a4,a4,-2048 # 800 <cpu_sleep_wakeup>
    1c5a:	8fd9                	c.or	a5,a4
    1c5c:	3cf42e23          	sw	a5,988(s0)
    1c60:	40b2                	c.lwsp	ra,12(sp)
    1c62:	4422                	c.lwsp	s0,8(sp)
    1c64:	4492                	c.lwsp	s1,4(sp)
    1c66:	4902                	c.lwsp	s2,0(sp)
    1c68:	4501                	c.li	a0,0
    1c6a:	0141                	c.addi	sp,16
    1c6c:	00008067          	ret
    1c70:	04e40d23          	sb	a4,90(s0)
    1c74:	4501                	c.li	a0,0
    1c76:	b5e9                	c.j	1b40 <blt_ll_channel_conn_update+0x44>
    1c78:	4789                	c.li	a5,2
    1c7a:	04f40d23          	sb	a5,90(s0)
    1c7e:	4501                	c.li	a0,0
    1c80:	ec1ff06f          	j	1b40 <blt_ll_channel_conn_update+0x44>
    1c84:	05940783          	lb	a5,89(s0)
    1c88:	4501                	c.li	a0,0
    1c8a:	04f40d23          	sb	a5,90(s0)
    1c8e:	bd4d                	c.j	1b40 <blt_ll_channel_conn_update+0x44>

00001c90 <bls_ll_procUpdateReq>:
    1c90:	1141                	c.addi	sp,-16
    1c92:	c422                	c.swsp	s0,8(sp)
    1c94:	00000437          	lui	s0,0x0
    1c98:	17840413          	addi	s0,s0,376 # 178 <_AES_VMA_END>
    1c9c:	c226                	c.swsp	s1,4(sp)
    1c9e:	4bc40493          	addi	s1,s0,1212
    1ca2:	00450593          	addi	a1,a0,4
    1ca6:	4661                	c.li	a2,24
    1ca8:	8526                	c.mv	a0,s1
    1caa:	c606                	c.swsp	ra,12(sp)
    1cac:	dbcff0ef          	jal	ra,1268 <smemcpy>
    1cb0:	10e44783          	lbu	a5,270(s0)
    1cb4:	c385                	c.beqz	a5,1cd4 <bls_ll_procUpdateReq+0x44>
    1cb6:	3b442703          	lw	a4,948(s0)
    1cba:	4785                	c.li	a5,1
    1cbc:	3ae42c23          	sw	a4,952(s0)
    1cc0:	3cf42223          	sw	a5,964(s0)
    1cc4:	14f40b23          	sb	a5,342(s0)
    1cc8:	40b2                	c.lwsp	ra,12(sp)
    1cca:	4422                	c.lwsp	s0,8(sp)
    1ccc:	4492                	c.lwsp	s1,4(sp)
    1cce:	0141                	c.addi	sp,16
    1cd0:	00008067          	ret
    1cd4:	4422                	c.lwsp	s0,8(sp)
    1cd6:	40b2                	c.lwsp	ra,12(sp)
    1cd8:	8526                	c.mv	a0,s1
    1cda:	4492                	c.lwsp	s1,4(sp)
    1cdc:	0141                	c.addi	sp,16
    1cde:	bd39                	c.j	1afc <blt_ll_channel_conn_update>

00001ce0 <irq_blc_slave_rx_data>:
    1ce0:	1141                	c.addi	sp,-16
    1ce2:	c422                	c.swsp	s0,8(sp)
    1ce4:	00000437          	lui	s0,0x0
    1ce8:	17840413          	addi	s0,s0,376 # 178 <_AES_VMA_END>
    1cec:	c606                	c.swsp	ra,12(sp)
    1cee:	c226                	c.swsp	s1,4(sp)
    1cf0:	15940783          	lb	a5,345(s0)
    1cf4:	00554483          	lbu	s1,5(a0)
    1cf8:	0ff7f793          	andi	a5,a5,255
    1cfc:	00454803          	lbu	a6,4(a0)
    1d00:	c3a1                	c.beqz	a5,1d40 <irq_blc_slave_rx_data+0x60>
    1d02:	80140737          	lui	a4,0x80140
    1d06:	801417b7          	lui	a5,0x80141
    1d0a:	f8000693          	li	a3,-128
    1d0e:	a0d78023          	sb	a3,-1536(a5) # 80140a00 <_DATA_LMA_START+0x60133080>
    1d12:	20072783          	lw	a5,512(a4) # 80140200 <_DATA_LMA_START+0x60132880>
    1d16:	4689                	c.li	a3,2
    1d18:	32078793          	addi	a5,a5,800
    1d1c:	4cd40a23          	sb	a3,1236(s0)
    1d20:	20f72223          	sw	a5,516(a4)
    1d24:	16240783          	lb	a5,354(s0)
    1d28:	00000713          	li	a4,0
    1d2c:	0ff7f793          	andi	a5,a5,255
    1d30:	0457de5b          	beqc	a5,5,1d8c <irq_blc_slave_rx_data+0xac>
    1d34:	40b2                	c.lwsp	ra,12(sp)
    1d36:	4422                	c.lwsp	s0,8(sp)
    1d38:	4492                	c.lwsp	s1,4(sp)
    1d3a:	853a                	c.mv	a0,a4
    1d3c:	0141                	c.addi	sp,16
    1d3e:	8082                	c.jr	ra
    1d40:	80141737          	lui	a4,0x80141
    1d44:	a2270783          	lb	a5,-1502(a4) # 80140a22 <_DATA_LMA_START+0x601330a2>
    1d48:	a2370703          	lb	a4,-1501(a4)
    1d4c:	801006b7          	lui	a3,0x80100
    1d50:	0487275b          	bfoz	a4,a4,1,8
    1d54:	02077713          	andi	a4,a4,32
    1d58:	0047a7db          	bfoz	a5,a5,0,4
    1d5c:	50168603          	lb	a2,1281(a3) # 80100501 <_DATA_LMA_START+0x600f2b81>
    1d60:	8fd9                	c.or	a5,a4
    1d62:	50068683          	lb	a3,1280(a3)
    1d66:	4cf40aa3          	sb	a5,1237(s0)
    1d6a:	16240783          	lb	a5,354(s0)
    1d6e:	01f6f713          	andi	a4,a3,31
    1d72:	8a7d                	c.andi	a2,31
    1d74:	4685                	c.li	a3,1
    1d76:	4ce40ba3          	sb	a4,1239(s0)
    1d7a:	4cd40a23          	sb	a3,1236(s0)
    1d7e:	4cc40b23          	sb	a2,1238(s0)
    1d82:	0ff7f793          	andi	a5,a5,255
    1d86:	4701                	c.li	a4,0
    1d88:	ba57e65b          	bnec	a5,5,1d34 <irq_blc_slave_rx_data+0x54>
    1d8c:	15940783          	lb	a5,345(s0)
    1d90:	0ff7f793          	andi	a5,a5,255
    1d94:	f3c5                	c.bnez	a5,1d34 <irq_blc_slave_rx_data+0x54>
    1d96:	801417b7          	lui	a5,0x80141
    1d9a:	8507a703          	lw	a4,-1968(a5) # 80140850 <_DATA_LMA_START+0x60132ed0>
    1d9e:	3a842783          	lw	a5,936(s0)
    1da2:	eb8d                	c.bnez	a5,1dd4 <irq_blc_slave_rx_data+0xf4>
    1da4:	3f844783          	lbu	a5,1016(s0)
    1da8:	e795                	c.bnez	a5,1dd4 <irq_blc_slave_rx_data+0xf4>
    1daa:	06e44783          	lbu	a5,110(s0)
    1dae:	8d99                	c.sub	a1,a4
    1db0:	029787b3          	mul	a5,a5,s1
    1db4:	3e878793          	addi	a5,a5,1000
    1db8:	0792                	c.slli	a5,0x4
    1dba:	00f5fd63          	bgeu	a1,a5,1dd4 <irq_blc_slave_rx_data+0xf4>
    1dbe:	07245783          	lhu	a5,114(s0)
    1dc2:	0792                	c.slli	a5,0x4
    1dc4:	8f1d                	c.sub	a4,a5
    1dc6:	00176713          	ori	a4,a4,1
    1dca:	4785                	c.li	a5,1
    1dcc:	3ae42423          	sw	a4,936(s0)
    1dd0:	46f40923          	sb	a5,1138(s0)
    1dd4:	801407b7          	lui	a5,0x80140
    1dd8:	2007a783          	lw	a5,512(a5) # 80140200 <_DATA_LMA_START+0x60132880>
    1ddc:	36a44703          	lbu	a4,874(s0)
    1de0:	40f42a23          	sw	a5,1044(s0)
    1de4:	00454783          	lbu	a5,4(a0)
    1de8:	00387813          	andi	a6,a6,3
    1dec:	0c37a7db          	bfoz	a5,a5,3,3
    1df0:	02f70e63          	beq	a4,a5,1e2c <irq_blc_slave_rx_data+0x14c>
    1df4:	36f40523          	sb	a5,874(s0)
    1df8:	10000793          	li	a5,256
    1dfc:	369402a3          	sb	s1,869(s0)
    1e00:	36f415a3          	sh	a5,875(s0)
    1e04:	ec95                	c.bnez	s1,1e40 <irq_blc_slave_rx_data+0x160>
    1e06:	4d844783          	lbu	a5,1240(s0)
    1e0a:	e7ad                	c.bnez	a5,1e74 <irq_blc_slave_rx_data+0x194>
    1e0c:	00000713          	li	a4,0
    1e10:	36d44783          	lbu	a5,877(s0)
    1e14:	d385                	c.beqz	a5,1d34 <irq_blc_slave_rx_data+0x54>
    1e16:	360406a3          	sb	zero,877(s0)
    1e1a:	44040923          	sb	zero,1106(s0)
    1e1e:	40b2                	c.lwsp	ra,12(sp)
    1e20:	4422                	c.lwsp	s0,8(sp)
    1e22:	4492                	c.lwsp	s1,4(sp)
    1e24:	853a                	c.mv	a0,a4
    1e26:	0141                	c.addi	sp,16
    1e28:	00008067          	ret
    1e2c:	d0e5                	c.beqz	s1,1e0c <irq_blc_slave_rx_data+0x12c>
    1e2e:	36544783          	lbu	a5,869(s0)
    1e32:	ffe9                	c.bnez	a5,1e0c <irq_blc_slave_rx_data+0x12c>
    1e34:	10000793          	li	a5,256
    1e38:	369402a3          	sb	s1,869(s0)
    1e3c:	36f415a3          	sh	a5,875(s0)
    1e40:	04000793          	li	a5,64
    1e44:	00f50123          	sb	a5,2(a0)
    1e48:	00386e5b          	bnec	a6,3,1e64 <irq_blc_slave_rx_data+0x184>
    1e4c:	10e44783          	lbu	a5,270(s0)
    1e50:	02078863          	beqz	a5,1e80 <irq_blc_slave_rx_data+0x1a0>
    1e54:	0294dc5b          	beqc	s1,9,1e8c <irq_blc_slave_rx_data+0x1ac>
    1e58:	02c4da5b          	beqc	s1,12,1e8c <irq_blc_slave_rx_data+0x1ac>
    1e5c:	0304d85b          	beqc	s1,16,1e8c <irq_blc_slave_rx_data+0x1ac>
    1e60:	00048e63          	beqz	s1,1e7c <irq_blc_slave_rx_data+0x19c>
    1e64:	3b442783          	lw	a5,948(s0)
    1e68:	4705                	c.li	a4,1
    1e6a:	0785                	c.addi	a5,1
    1e6c:	3af42a23          	sw	a5,948(s0)
    1e70:	fa1ff06f          	j	1e10 <irq_blc_slave_rx_data+0x130>
    1e74:	04000793          	li	a5,64
    1e78:	00f50123          	sb	a5,2(a0)
    1e7c:	4705                	c.li	a4,1
    1e7e:	bf49                	c.j	1e10 <irq_blc_slave_rx_data+0x130>
    1e80:	0054d65b          	beqc	s1,5,1e8c <irq_blc_slave_rx_data+0x1ac>
    1e84:	0fb4f793          	andi	a5,s1,251
    1e88:	bc87ec5b          	bnec	a5,8,1e60 <irq_blc_slave_rx_data+0x180>
    1e8c:	e05ff0ef          	jal	ra,1c90 <bls_ll_procUpdateReq>
    1e90:	f8f1                	c.bnez	s1,1e64 <irq_blc_slave_rx_data+0x184>
    1e92:	b7ed                	c.j	1e7c <irq_blc_slave_rx_data+0x19c>

00001e94 <irq_blc_slave_tx>:
    1e94:	1141                	c.addi	sp,-16
    1e96:	c422                	c.swsp	s0,8(sp)
    1e98:	00000437          	lui	s0,0x0
    1e9c:	17840413          	addi	s0,s0,376 # 178 <_AES_VMA_END>
    1ea0:	c606                	c.swsp	ra,12(sp)
    1ea2:	3c442783          	lw	a5,964(s0)
    1ea6:	c799                	c.beqz	a5,1eb4 <irq_blc_slave_tx+0x20>
    1ea8:	16240783          	lb	a5,354(s0)
    1eac:	0ff7f793          	andi	a5,a5,255
    1eb0:	0057d65b          	beqc	a5,5,1ebc <irq_blc_slave_tx+0x28>
    1eb4:	40b2                	c.lwsp	ra,12(sp)
    1eb6:	4422                	c.lwsp	s0,8(sp)
    1eb8:	0141                	c.addi	sp,16
    1eba:	8082                	c.jr	ra
    1ebc:	3c042783          	lw	a5,960(s0)
    1ec0:	80141737          	lui	a4,0x80141
    1ec4:	f8000693          	li	a3,-128
    1ec8:	a0d70023          	sb	a3,-1536(a4) # 80140a00 <_DATA_LMA_START+0x60133080>
    1ecc:	00078e63          	beqz	a5,1ee8 <irq_blc_slave_tx+0x54>
    1ed0:	4bc40793          	addi	a5,s0,1212
    1ed4:	3af42e23          	sw	a5,956(s0)
    1ed8:	3c042223          	sw	zero,964(s0)
    1edc:	14040b23          	sb	zero,342(s0)
    1ee0:	40b2                	c.lwsp	ra,12(sp)
    1ee2:	4422                	c.lwsp	s0,8(sp)
    1ee4:	0141                	c.addi	sp,16
    1ee6:	8082                	c.jr	ra
    1ee8:	4bc40513          	addi	a0,s0,1212
    1eec:	c11ff0ef          	jal	ra,1afc <blt_ll_channel_conn_update>
    1ef0:	fe9ff06f          	j	1ed8 <irq_blc_slave_tx+0x44>

00001ef4 <blt_push_fifo_hw>:
    1ef4:	1101                	c.addi	sp,-32
    1ef6:	801416b7          	lui	a3,0x80141
    1efa:	cc22                	c.swsp	s0,24(sp)
    1efc:	c84a                	c.swsp	s2,16(sp)
    1efe:	ce06                	c.swsp	ra,28(sp)
    1f00:	ca26                	c.swsp	s1,20(sp)
    1f02:	c64e                	c.swsp	s3,12(sp)
    1f04:	a0368783          	lb	a5,-1533(a3) # 80140a03 <_DATA_LMA_START+0x60133083>
    1f08:	00000437          	lui	s0,0x0
    1f0c:	17840413          	addi	s0,s0,376 # 178 <_AES_VMA_END>
    1f10:	0cf7f793          	andi	a5,a5,207
    1f14:	a0f681a3          	sb	a5,-1533(a3)
    1f18:	a0368583          	lb	a1,-1533(a3)
    1f1c:	4d540703          	lb	a4,1237(s0)
    1f20:	4d640783          	lb	a5,1238(s0)
    1f24:	8f4d                	c.or	a4,a1
    1f26:	4d740603          	lb	a2,1239(s0)
    1f2a:	0ff77713          	andi	a4,a4,255
    1f2e:	0207e793          	ori	a5,a5,32
    1f32:	a0e681a3          	sb	a4,-1533(a3)
    1f36:	80100937          	lui	s2,0x80100
    1f3a:	0ff7f793          	andi	a5,a5,255
    1f3e:	50f900a3          	sb	a5,1281(s2) # 80100501 <_DATA_LMA_START+0x600f2b81>
    1f42:	01f67793          	andi	a5,a2,31
    1f46:	50f90023          	sb	a5,1280(s2)
    1f4a:	50090783          	lb	a5,1280(s2)
    1f4e:	50190683          	lb	a3,1281(s2)
    1f52:	48640483          	lb	s1,1158(s0)
    1f56:	48744703          	lbu	a4,1159(s0)
    1f5a:	8f95                	c.sub	a5,a3
    1f5c:	8c99                	c.sub	s1,a4
    1f5e:	4c040a23          	sb	zero,1236(s0)
    1f62:	8bfd                	c.andi	a5,31
    1f64:	88fd                	c.andi	s1,31
    1f66:	e399                	c.bnez	a5,1f6c <blt_push_fifo_hw+0x78>
    1f68:	02049863          	bnez	s1,1f98 <blt_push_fifo_hw+0xa4>
    1f6c:	80100737          	lui	a4,0x80100
    1f70:	50070783          	lb	a5,1280(a4) # 80100500 <_DATA_LMA_START+0x600f2b80>
    1f74:	48740683          	lb	a3,1159(s0)
    1f78:	97a6                	c.add	a5,s1
    1f7a:	0ff7f793          	andi	a5,a5,255
    1f7e:	50f70023          	sb	a5,1280(a4)
    1f82:	94b6                	c.add	s1,a3
    1f84:	489403a3          	sb	s1,1159(s0)
    1f88:	40f2                	c.lwsp	ra,28(sp)
    1f8a:	4462                	c.lwsp	s0,24(sp)
    1f8c:	44d2                	c.lwsp	s1,20(sp)
    1f8e:	4942                	c.lwsp	s2,16(sp)
    1f90:	49b2                	c.lwsp	s3,12(sp)
    1f92:	6105                	c.addi16sp	sp,32
    1f94:	00008067          	ret
    1f98:	48544783          	lbu	a5,1157(s0)
    1f9c:	48045683          	lhu	a3,1152(s0)
    1fa0:	48c42503          	lw	a0,1164(s0)
    1fa4:	fff70993          	addi	s3,a4,-1
    1fa8:	00f9f7b3          	and	a5,s3,a5
    1fac:	c4d7957f          	maddr32	a0,a5,a3
    1fb0:	00600613          	li	a2,6
    1fb4:	805f958b          	addigp	a1,-2044 # 80004 <blt_tx_empty_packet>
    1fb8:	ab0ff0ef          	jal	ra,1268 <smemcpy>
    1fbc:	01f9f713          	andi	a4,s3,31
    1fc0:	02076713          	ori	a4,a4,32
    1fc4:	50e900a3          	sb	a4,1281(s2)
    1fc8:	50190783          	lb	a5,1281(s2)
    1fcc:	0785                	c.addi	a5,1
    1fce:	0ff7f793          	andi	a5,a5,255
    1fd2:	50f90023          	sb	a5,1280(s2)
    1fd6:	bf59                	c.j	1f6c <blt_push_fifo_hw+0x78>

00001fd8 <blc_calc_remapping_table>:
    1fd8:	00000837          	lui	a6,0x0
    1fdc:	17880813          	addi	a6,a6,376 # 178 <_AES_VMA_END>
    1fe0:	4581                	c.li	a1,0
    1fe2:	4601                	c.li	a2,0
    1fe4:	00000793          	li	a5,0
    1fe8:	4c080ca3          	sb	zero,1241(a6)
    1fec:	4037d713          	srai	a4,a5,0x3
    1ff0:	972a                	c.add	a4,a0
    1ff2:	00074703          	lbu	a4,0(a4)
    1ff6:	0077f693          	andi	a3,a5,7
    1ffa:	40d75733          	sra	a4,a4,a3
    1ffe:	00160693          	addi	a3,a2,1
    2002:	0007755b          	bbc	a4,0,200c <blc_calc_remapping_table+0x34>
    2006:	0ff6f613          	andi	a2,a3,255
    200a:	4585                	c.li	a1,1
    200c:	0785                	c.addi	a5,1
    200e:	bc57efdb          	bnec	a5,37,1fec <blc_calc_remapping_table+0x14>
    2012:	e199                	c.bnez	a1,2018 <blc_calc_remapping_table+0x40>
    2014:	4501                	c.li	a0,0
    2016:	8082                	c.jr	ra
    2018:	4cc80ca3          	sb	a2,1241(a6)
    201c:	ff9ff06f          	j	2014 <blc_calc_remapping_table+0x3c>

00002020 <blt_ll_channelTable_calc>:
    2020:	7179                	c.addi16sp	sp,-48
    2022:	4781                	c.li	a5,0
    2024:	00000693          	li	a3,0
    2028:	4037d713          	srai	a4,a5,0x3
    202c:	972a                	c.add	a4,a0
    202e:	00074703          	lbu	a4,0(a4)
    2032:	0077f813          	andi	a6,a5,7
    2036:	41075733          	sra	a4,a4,a6
    203a:	00168813          	addi	a6,a3,1
    203e:	0007795b          	bbc	a4,0,2050 <blt_ll_channelTable_calc+0x30>
    2042:	1818                	c.addi4spn	a4,sp,48
    2044:	00d70733          	add	a4,a4,a3
    2048:	0ff87693          	andi	a3,a6,255
    204c:	fcf70c23          	sb	a5,-40(a4)
    2050:	0785                	c.addi	a5,1
    2052:	bc57ebdb          	bnec	a5,37,2028 <blt_ll_channelTable_calc+0x8>
    2056:	02560313          	addi	t1,a2,37
    205a:	4701                	c.li	a4,0
    205c:	02400893          	li	a7,36
    2060:	0100006f          	j	2070 <blt_ll_channelTable_calc+0x50>
    2064:	00e60023          	sb	a4,0(a2)
    2068:	00160613          	addi	a2,a2,1
    206c:	04c30a63          	beq	t1,a2,20c0 <blt_ll_channelTable_calc+0xa0>
    2070:	00b70733          	add	a4,a4,a1
    2074:	0ff77713          	andi	a4,a4,255
    2078:	00e8f663          	bgeu	a7,a4,2084 <blt_ll_channelTable_calc+0x64>
    207c:	fdb70713          	addi	a4,a4,-37
    2080:	0ff77713          	andi	a4,a4,255
    2084:	00375793          	srli	a5,a4,0x3
    2088:	97aa                	c.add	a5,a0
    208a:	0007c783          	lbu	a5,0(a5)
    208e:	00777813          	andi	a6,a4,7
    2092:	4107d7b3          	sra	a5,a5,a6
    2096:	fc07f75b          	bbs	a5,0,2064 <blt_ll_channelTable_calc+0x44>
    209a:	87ba                	c.mv	a5,a4
    209c:	00d76863          	bltu	a4,a3,20ac <blt_ll_channelTable_calc+0x8c>
    20a0:	40d787b3          	sub	a5,a5,a3
    20a4:	0ff7f793          	andi	a5,a5,255
    20a8:	fed7fce3          	bgeu	a5,a3,20a0 <blt_ll_channelTable_calc+0x80>
    20ac:	03010f13          	addi	t5,sp,48
    20b0:	97fa                	c.add	a5,t5
    20b2:	fd878783          	lb	a5,-40(a5)
    20b6:	0605                	c.addi	a2,1
    20b8:	fef60fa3          	sb	a5,-1(a2)
    20bc:	fac31ae3          	bne	t1,a2,2070 <blt_ll_channelTable_calc+0x50>
    20c0:	6145                	c.addi16sp	sp,48
    20c2:	8082                	c.jr	ra

000020c4 <connUpdate_mapUpdate_proc>:
    20c4:	1141                	c.addi	sp,-16
    20c6:	c422                	c.swsp	s0,8(sp)
    20c8:	00000437          	lui	s0,0x0
    20cc:	c606                	c.swsp	ra,12(sp)
    20ce:	c226                	c.swsp	s1,4(sp)
    20d0:	17840413          	addi	s0,s0,376 # 178 <_AES_VMA_END>
    20d4:	3f544783          	lbu	a5,1013(s0)
    20d8:	0a17da5b          	beqc	a5,1,218c <connUpdate_mapUpdate_proc+0xc8>
    20dc:	0227d05b          	beqc	a5,2,20fc <connUpdate_mapUpdate_proc+0x38>
    20e0:	0037e85b          	bnec	a5,3,20f0 <connUpdate_mapUpdate_proc+0x2c>
    20e4:	41045703          	lhu	a4,1040(s0)
    20e8:	41245783          	lhu	a5,1042(s0)
    20ec:	0ef70463          	beq	a4,a5,21d4 <connUpdate_mapUpdate_proc+0x110>
    20f0:	40b2                	c.lwsp	ra,12(sp)
    20f2:	4422                	c.lwsp	s0,8(sp)
    20f4:	4492                	c.lwsp	s1,4(sp)
    20f6:	0141                	c.addi	sp,16
    20f8:	00008067          	ret
    20fc:	41045703          	lhu	a4,1040(s0)
    2100:	41245783          	lhu	a5,1042(s0)
    2104:	fef716e3          	bne	a4,a5,20f0 <connUpdate_mapUpdate_proc+0x2c>
    2108:	37e45783          	lhu	a5,894(s0)
    210c:	00027737          	lui	a4,0x27
    2110:	10070713          	addi	a4,a4,256 # 27100 <BIN_SIZE+0x19762>
    2114:	02e787b3          	mul	a5,a5,a4
    2118:	37a45503          	lhu	a0,890(s0)
    211c:	37c45703          	lhu	a4,892(s0)
    2120:	3e040aa3          	sb	zero,1013(s0)
    2124:	38e42a23          	sw	a4,916(s0)
    2128:	38f42623          	sw	a5,908(s0)
    212c:	959ff0ef          	jal	ra,1a84 <blt_set_fsmTimeout_intLevel>
    2130:	37a45503          	lhu	a0,890(s0)
    2134:	6715                	c.lui	a4,0x5
    2136:	4a944783          	lbu	a5,1193(s0)
    213a:	e2070713          	addi	a4,a4,-480 # 4e20 <blt_sdk_main_loop+0x300>
    213e:	02e50733          	mul	a4,a0,a4
    2142:	e789                	c.bnez	a5,214c <connUpdate_mapUpdate_proc+0x88>
    2144:	00100793          	li	a5,1
    2148:	4cf40d23          	sb	a5,1242(s0)
    214c:	39042683          	lw	a3,912(s0)
    2150:	38442783          	lw	a5,900(s0)
    2154:	37845603          	lhu	a2,888(s0)
    2158:	97b6                	c.add	a5,a3
    215a:	6695                	c.lui	a3,0x5
    215c:	e2068693          	addi	a3,a3,-480 # 4e20 <blt_sdk_main_loop+0x300>
    2160:	c4d617ff          	maddr32	a5,a2,a3
    2164:	36e44583          	lbu	a1,878(s0)
    2168:	40e787b3          	sub	a5,a5,a4
    216c:	38f42223          	sw	a5,900(s0)
    2170:	38e42823          	sw	a4,912(s0)
    2174:	ee8ff0ef          	jal	ra,185c <bls_ll_setNewConnection_timing>
    2178:	3dc42783          	lw	a5,988(s0)
    217c:	6709                	c.lui	a4,0x2
    217e:	8fd9                	c.or	a5,a4
    2180:	3a042423          	sw	zero,936(s0)
    2184:	3cf42e23          	sw	a5,988(s0)
    2188:	f69ff06f          	j	20f0 <connUpdate_mapUpdate_proc+0x2c>
    218c:	41045703          	lhu	a4,1040(s0)
    2190:	41245783          	lhu	a5,1042(s0)
    2194:	f4f71ee3          	bne	a4,a5,20f0 <connUpdate_mapUpdate_proc+0x2c>
    2198:	40240493          	addi	s1,s0,1026
    219c:	4615                	c.li	a2,5
    219e:	40740593          	addi	a1,s0,1031
    21a2:	8526                	c.mv	a0,s1
    21a4:	3e040aa3          	sb	zero,1013(s0)
    21a8:	8c0ff0ef          	jal	ra,1268 <smemcpy>
    21ac:	3fe44783          	lbu	a5,1022(s0)
    21b0:	ef95                	c.bnez	a5,21ec <connUpdate_mapUpdate_proc+0x128>
    21b2:	40144583          	lbu	a1,1025(s0)
    21b6:	42440613          	addi	a2,s0,1060
    21ba:	8526                	c.mv	a0,s1
    21bc:	e65ff0ef          	jal	ra,2020 <blt_ll_channelTable_calc>
    21c0:	3dc42783          	lw	a5,988(s0)
    21c4:	6705                	c.lui	a4,0x1
    21c6:	8fd9                	c.or	a5,a4
    21c8:	3a042423          	sw	zero,936(s0)
    21cc:	3cf42e23          	sw	a5,988(s0)
    21d0:	f21ff06f          	j	20f0 <connUpdate_mapUpdate_proc+0x2c>
    21d4:	4dc42303          	lw	t1,1244(s0)
    21d8:	3e040aa3          	sb	zero,1013(s0)
    21dc:	f0030ae3          	beqz	t1,20f0 <connUpdate_mapUpdate_proc+0x2c>
    21e0:	4422                	c.lwsp	s0,8(sp)
    21e2:	40b2                	c.lwsp	ra,12(sp)
    21e4:	4492                	c.lwsp	s1,4(sp)
    21e6:	0141                	c.addi	sp,16
    21e8:	00030067          	jr	t1
    21ec:	8526                	c.mv	a0,s1
    21ee:	33ed                	c.jal	1fd8 <blc_calc_remapping_table>
    21f0:	fd1ff06f          	j	21c0 <connUpdate_mapUpdate_proc+0xfc>

000021f4 <blt_brx_post>:
    21f4:	1141                	c.addi	sp,-16
    21f6:	c422                	c.swsp	s0,8(sp)
    21f8:	00000437          	lui	s0,0x0
    21fc:	17840413          	addi	s0,s0,376 # 178 <_AES_VMA_END>
    2200:	c606                	c.swsp	ra,12(sp)
    2202:	4e042783          	lw	a5,1248(s0)
    2206:	c399                	c.beqz	a5,220c <blt_brx_post+0x18>
    2208:	4501                	c.li	a0,0
    220a:	9782                	c.jalr	a5
    220c:	41041703          	lh	a4,1040(s0)
    2210:	3ff40783          	lb	a5,1023(s0)
    2214:	801416b7          	lui	a3,0x80141
    2218:	f8000613          	li	a2,-128
    221c:	a0c68023          	sb	a2,-1536(a3) # 80140a00 <_DATA_LMA_START+0x60133080>
    2220:	567d                	c.li	a2,-1
    2222:	a2c69023          	sh	a2,-1504(a3)
    2226:	0705                	c.addi	a4,1
    2228:	0785                	c.addi	a5,1
    222a:	4699                	c.li	a3,6
    222c:	40e41823          	sh	a4,1040(s0)
    2230:	16d40123          	sb	a3,354(s0)
    2234:	0ff7f793          	andi	a5,a5,255
    2238:	02400713          	li	a4,36
    223c:	0af76c63          	bltu	a4,a5,22f4 <blt_brx_post+0x100>
    2240:	3ef40fa3          	sb	a5,1023(s0)
    2244:	3f544783          	lbu	a5,1013(s0)
    2248:	0a079c63          	bnez	a5,2300 <blt_brx_post+0x10c>
    224c:	36d44783          	lbu	a5,877(s0)
    2250:	0a079e63          	bnez	a5,230c <blt_brx_post+0x118>
    2254:	3a842503          	lw	a0,936(s0)
    2258:	00a035b3          	snez	a1,a0
    225c:	00159593          	slli	a1,a1,0x1
    2260:	ea8ff0ef          	jal	ra,1908 <blt_brx_timing_update>
    2264:	4e442783          	lw	a5,1252(s0)
    2268:	cf81                	c.beqz	a5,2280 <blt_brx_post+0x8c>
    226a:	80140737          	lui	a4,0x80140
    226e:	20072683          	lw	a3,512(a4) # 80140200 <_DATA_LMA_START+0x60132880>
    2272:	4e842703          	lw	a4,1256(s0)
    2276:	40f687b3          	sub	a5,a3,a5
    227a:	0712                	c.slli	a4,0x4
    227c:	0af76263          	bltu	a4,a5,2320 <blt_brx_post+0x12c>
    2280:	37344783          	lbu	a5,883(s0)
    2284:	0817d85b          	beqc	a5,1,2314 <blt_brx_post+0x120>
    2288:	0627d25b          	beqc	a5,2,22ec <blt_brx_post+0xf8>
    228c:	801407b7          	lui	a5,0x80140
    2290:	2007a783          	lw	a5,512(a5) # 80140200 <_DATA_LMA_START+0x60132880>
    2294:	41442683          	lw	a3,1044(s0)
    2298:	38c42703          	lw	a4,908(s0)
    229c:	40d787b3          	sub	a5,a5,a3
    22a0:	04f76663          	bltu	a4,a5,22ec <blt_brx_post+0xf8>
    22a4:	4d444783          	lbu	a5,1236(s0)
    22a8:	ef95                	c.bnez	a5,22e4 <blt_brx_post+0xf0>
    22aa:	80141737          	lui	a4,0x80141
    22ae:	a2270783          	lb	a5,-1502(a4) # 80140a22 <_DATA_LMA_START+0x601330a2>
    22b2:	a2370703          	lb	a4,-1501(a4)
    22b6:	801006b7          	lui	a3,0x80100
    22ba:	50168603          	lb	a2,1281(a3) # 80100501 <_DATA_LMA_START+0x600f2b81>
    22be:	0487275b          	bfoz	a4,a4,1,8
    22c2:	50068683          	lb	a3,1280(a3)
    22c6:	02077713          	andi	a4,a4,32
    22ca:	0047a7db          	bfoz	a5,a5,0,4
    22ce:	8fd9                	c.or	a5,a4
    22d0:	01f67613          	andi	a2,a2,31
    22d4:	01f6f713          	andi	a4,a3,31
    22d8:	4cf40aa3          	sb	a5,1237(s0)
    22dc:	4cc40b23          	sb	a2,1238(s0)
    22e0:	4ce40ba3          	sb	a4,1239(s0)
    22e4:	40b2                	c.lwsp	ra,12(sp)
    22e6:	4422                	c.lwsp	s0,8(sp)
    22e8:	0141                	c.addi	sp,16
    22ea:	8082                	c.jr	ra
    22ec:	c5cff0ef          	jal	ra,1748 <blt_terminate_proc>
    22f0:	fb5ff06f          	j	22a4 <blt_brx_post+0xb0>
    22f4:	3f544783          	lbu	a5,1013(s0)
    22f8:	3e040fa3          	sb	zero,1023(s0)
    22fc:	f40788e3          	beqz	a5,224c <blt_brx_post+0x58>
    2300:	dc5ff0ef          	jal	ra,20c4 <connUpdate_mapUpdate_proc>
    2304:	36d44783          	lbu	a5,877(s0)
    2308:	f40786e3          	beqz	a5,2254 <blt_brx_post+0x60>
    230c:	f34ff0ef          	jal	ra,1a40 <blt_brx_timing_update_init>
    2310:	f55ff06f          	j	2264 <blt_brx_post+0x70>
    2314:	cc4ff0ef          	jal	ra,17d8 <blt_terminate_pending_proc>
    2318:	37344783          	lbu	a5,883(s0)
    231c:	f6dff06f          	j	2288 <blt_brx_post+0x94>
    2320:	00400793          	li	a5,4
    2324:	36f409a3          	sb	a5,883(s0)
    2328:	4e042223          	sw	zero,1252(s0)
    232c:	4e042423          	sw	zero,1256(s0)
    2330:	4e040623          	sb	zero,1260(s0)
    2334:	c14ff0ef          	jal	ra,1748 <blt_terminate_proc>
    2338:	37344783          	lbu	a5,883(s0)
    233c:	b417e65b          	bnec	a5,1,2288 <blt_brx_post+0x94>
    2340:	fd5ff06f          	j	2314 <blt_brx_post+0x120>

00002344 <blt_ll_connect_common>:
    2344:	7179                	c.addi16sp	sp,-48
    2346:	d606                	c.swsp	ra,44(sp)
    2348:	d422                	c.swsp	s0,40(sp)
    234a:	d226                	c.swsp	s1,36(sp)
    234c:	d04a                	c.swsp	s2,32(sp)
    234e:	ce4e                	c.swsp	s3,28(sp)
    2350:	cc52                	c.swsp	s4,24(sp)
    2352:	0145c703          	lbu	a4,20(a1)
    2356:	0135c603          	lbu	a2,19(a1)
    235a:	0125c683          	lbu	a3,18(a1)
    235e:	0155c783          	lbu	a5,21(a1)
    2362:	0642                	c.slli	a2,0x10
    2364:	0722                	c.slli	a4,0x8
    2366:	8f51                	c.or	a4,a2
    2368:	8f5d                	c.or	a4,a5
    236a:	01258a13          	addi	s4,a1,18
    236e:	01869793          	slli	a5,a3,0x18
    2372:	84aa                	c.mv	s1,a0
    2374:	8fd9                	c.or	a5,a4
    2376:	842e                	c.mv	s0,a1
    2378:	4611                	c.li	a2,4
    237a:	85d2                	c.mv	a1,s4
    237c:	02450513          	addi	a0,a0,36
    2380:	02f4a423          	sw	a5,40(s1)
    2384:	ee5fe0ef          	jal	ra,1268 <smemcpy>
    2388:	01640593          	addi	a1,s0,22
    238c:	00300613          	li	a2,3
    2390:	02c48513          	addi	a0,s1,44
    2394:	ed5fe0ef          	jal	ra,1268 <smemcpy>
    2398:	02740783          	lb	a5,39(s0)
    239c:	00e48993          	addi	s3,s1,14
    23a0:	02240413          	addi	s0,s0,34
    23a4:	8bfd                	c.andi	a5,31
    23a6:	4615                	c.li	a2,5
    23a8:	85a2                	c.mv	a1,s0
    23aa:	854e                	c.mv	a0,s3
    23ac:	00000937          	lui	s2,0x0
    23b0:	00f486a3          	sb	a5,13(s1)
    23b4:	17890913          	addi	s2,s2,376 # 178 <_AES_VMA_END>
    23b8:	eb1fe0ef          	jal	ra,1268 <smemcpy>
    23bc:	16990783          	lb	a5,361(s2)
    23c0:	0ff7f793          	andi	a5,a5,255
    23c4:	cb81                	c.beqz	a5,23d4 <blt_ll_connect_common+0x90>
    23c6:	3dc92783          	lw	a5,988(s2)
    23ca:	80000737          	lui	a4,0x80000
    23ce:	8fd9                	c.or	a5,a4
    23d0:	3cf92e23          	sw	a5,988(s2)
    23d4:	16a90783          	lb	a5,362(s2)
    23d8:	0ff7f793          	andi	a5,a5,255
    23dc:	c791                	c.beqz	a5,23e8 <blt_ll_connect_common+0xa4>
    23de:	16990783          	lb	a5,361(s2)
    23e2:	0ff7f793          	andi	a5,a5,255
    23e6:	eb8d                	c.bnez	a5,2418 <blt_ll_connect_common+0xd4>
    23e8:	00d4c583          	lbu	a1,13(s1)
    23ec:	03048613          	addi	a2,s1,48
    23f0:	8522                	c.mv	a0,s0
    23f2:	00049523          	sh	zero,10(s1)
    23f6:	312d                	c.jal	2020 <blt_ll_channelTable_calc>
    23f8:	e4dfe0ef          	jal	ra,1244 <blt_reset_conn_phy_param.constprop.15>
    23fc:	00049e23          	sh	zero,28(s1)
    2400:	50b2                	c.lwsp	ra,44(sp)
    2402:	5422                	c.lwsp	s0,40(sp)
    2404:	4e090823          	sb	zero,1264(s2)
    2408:	5492                	c.lwsp	s1,36(sp)
    240a:	5902                	c.lwsp	s2,32(sp)
    240c:	49f2                	c.lwsp	s3,28(sp)
    240e:	4a62                	c.lwsp	s4,24(sp)
    2410:	4501                	c.li	a0,0
    2412:	6145                	c.addi16sp	sp,48
    2414:	00008067          	ret
    2418:	0068                	c.addi4spn	a0,sp,12
    241a:	4785                	c.li	a5,1
    241c:	4611                	c.li	a2,4
    241e:	85d2                	c.mv	a1,s4
    2420:	00f48523          	sb	a5,10(s1)
    2424:	e45fe0ef          	jal	ra,1268 <smemcpy>
    2428:	4732                	c.lwsp	a4,12(sp)
    242a:	854e                	c.mv	a0,s3
    242c:	01075793          	srli	a5,a4,0x10
    2430:	8fb9                	c.xor	a5,a4
    2432:	00f49d23          	sh	a5,26(s1)
    2436:	364d                	c.jal	1fd8 <blc_calc_remapping_table>
    2438:	fc1ff06f          	j	23f8 <blt_ll_connect_common+0xb4>

0000243c <bls_ll_setAdvEnable>:
    243c:	000007b7          	lui	a5,0x0
    2440:	17878793          	addi	a5,a5,376 # 178 <_AES_VMA_END>
    2444:	15b78703          	lb	a4,347(a5)
    2448:	4c17705b          	bbs	a4,1,2508 <bls_ll_setAdvEnable+0xcc>
    244c:	0ff57613          	andi	a2,a0,255
    2450:	0785745b          	bbc	a0,24,24b8 <bls_ll_setAdvEnable+0x7c>
    2454:	80100737          	lui	a4,0x80100
    2458:	f8000693          	li	a3,-128
    245c:	50d700a3          	sb	a3,1281(a4) # 80100501 <_DATA_LMA_START+0x600f2b81>
    2460:	80141737          	lui	a4,0x80141
    2464:	a0071e23          	sh	zero,-1508(a4) # 80140a1c <_DATA_LMA_START+0x6013309c>
    2468:	56fd                	c.li	a3,-1
    246a:	801405b7          	lui	a1,0x80140
    246e:	a2d71023          	sh	a3,-1504(a4)
    2472:	66a1                	c.lui	a3,0x8
    2474:	2005a703          	lw	a4,512(a1) # 80140200 <_DATA_LMA_START+0x60132880>
    2478:	d0068693          	addi	a3,a3,-768 # 7d00 <_RAMCODE_VMA_END+0x14fe>
    247c:	9736                	c.add	a4,a3
    247e:	50e7a823          	sw	a4,1296(a5)
    2482:	16178703          	lb	a4,353(a5)
    2486:	0ff77713          	andi	a4,a4,255
    248a:	ce39                	c.beqz	a2,24e8 <bls_ll_setAdvEnable+0xac>
    248c:	00175a5b          	beqc	a4,1,24a0 <bls_ll_setAdvEnable+0x64>
    2490:	00100713          	li	a4,1
    2494:	16e780a3          	sb	a4,353(a5)
    2498:	2005a703          	lw	a4,512(a1)
    249c:	18e7a823          	sw	a4,400(a5)
    24a0:	15b78703          	lb	a4,347(a5)
    24a4:	4501                	c.li	a0,0
    24a6:	0ff77713          	andi	a4,a4,255
    24aa:	00176713          	ori	a4,a4,1
    24ae:	14e78da3          	sb	a4,347(a5)
    24b2:	14c78823          	sb	a2,336(a5)
    24b6:	8082                	c.jr	ra
    24b8:	16178703          	lb	a4,353(a5)
    24bc:	0ff77713          	andi	a4,a4,255
    24c0:	db51                	c.beqz	a4,2454 <bls_ll_setAdvEnable+0x18>
    24c2:	16178703          	lb	a4,353(a5)
    24c6:	0ff77713          	andi	a4,a4,255
    24ca:	b817555b          	beqc	a4,1,2454 <bls_ll_setAdvEnable+0x18>
    24ce:	15b78703          	lb	a4,347(a5)
    24d2:	4501                	c.li	a0,0
    24d4:	0ff77713          	andi	a4,a4,255
    24d8:	00176713          	ori	a4,a4,1
    24dc:	14e78da3          	sb	a4,347(a5)
    24e0:	14c78823          	sb	a2,336(a5)
    24e4:	00008067          	ret
    24e8:	df45                	c.beqz	a4,24a0 <bls_ll_setAdvEnable+0x64>
    24ea:	160780a3          	sb	zero,353(a5)
    24ee:	15b78703          	lb	a4,347(a5)
    24f2:	4501                	c.li	a0,0
    24f4:	0ff77713          	andi	a4,a4,255
    24f8:	00176713          	ori	a4,a4,1
    24fc:	14e78da3          	sb	a4,347(a5)
    2500:	14c78823          	sb	a2,336(a5)
    2504:	00008067          	ret
    2508:	4531                	c.li	a0,12
    250a:	8082                	c.jr	ra

0000250c <blc_ll_recoverDeepRetention>:
    250c:	1141                	c.addi	sp,-16
    250e:	c422                	c.swsp	s0,8(sp)
    2510:	c226                	c.swsp	s1,4(sp)
    2512:	00000437          	lui	s0,0x0
    2516:	17840693          	addi	a3,s0,376 # 178 <_AES_VMA_END>
    251a:	c606                	c.swsp	ra,12(sp)
    251c:	c04a                	c.swsp	s2,0(sp)
    251e:	4785                	c.li	a5,1
    2520:	825fa70b          	lbugp	a4,-2012 # 80024 <g_pm_status_info>
    2524:	06f68423          	sb	a5,104(a3)
    2528:	17840413          	addi	s0,s0,376
    252c:	825f948b          	addigp	s1,-2012 # 80024 <g_pm_status_info>
    2530:	cf61                	c.beqz	a4,2608 <blc_ll_recoverDeepRetention+0xfc>
    2532:	51442783          	lw	a5,1300(s0)
    2536:	4605                	c.li	a2,1
    2538:	00148593          	addi	a1,s1,1
    253c:	4525                	c.li	a0,9
    253e:	45645903          	lhu	s2,1110(s0)
    2542:	9782                	c.jalr	a5
    2544:	47e40703          	lb	a4,1150(s0)
    2548:	16140783          	lb	a5,353(s0)
    254c:	0705                	c.addi	a4,1
    254e:	46e40f23          	sb	a4,1150(s0)
    2552:	0ff7f793          	andi	a5,a5,255
    2556:	0a87e35b          	bnec	a5,8,25fc <blc_ll_recoverDeepRetention+0xf0>
    255a:	801407b7          	lui	a5,0x80140
    255e:	2007a683          	lw	a3,512(a5) # 80140200 <_DATA_LMA_START+0x60132880>
    2562:	51842703          	lw	a4,1304(s0)
    2566:	77c9                	c.lui	a5,0xffff2
    2568:	54078793          	addi	a5,a5,1344 # ffff2540 <_DATA_LMA_START+0xdffe4bc0>
    256c:	97ba                	c.add	a5,a4
    256e:	8f95                	c.sub	a5,a3
    2570:	39042883          	lw	a7,912(s0)
    2574:	4a944e83          	lbu	t4,1193(s0)
    2578:	50842503          	lw	a0,1288(s0)
    257c:	38842e03          	lw	t3,904(s0)
    2580:	3ff44683          	lbu	a3,1023(s0)
    2584:	41045603          	lhu	a2,1040(s0)
    2588:	4801                	c.li	a6,0
    258a:	4581                	c.li	a1,0
    258c:	40000337          	lui	t1,0x40000
    2590:	411787b3          	sub	a5,a5,a7
    2594:	0267fe63          	bgeu	a5,t1,25d0 <blc_ll_recoverDeepRetention+0xc4>
    2598:	41170733          	sub	a4,a4,a7
    259c:	000e8863          	beqz	t4,25ac <blc_ll_recoverDeepRetention+0xa0>
    25a0:	00090a63          	beqz	s2,25b4 <blc_ll_recoverDeepRetention+0xa8>
    25a4:	41c70733          	sub	a4,a4,t3
    25a8:	00c0006f          	j	25b4 <blc_ll_recoverDeepRetention+0xa8>
    25ac:	41150533          	sub	a0,a0,a7
    25b0:	00100813          	li	a6,1
    25b4:	fff68593          	addi	a1,a3,-1
    25b8:	c681                	c.beqz	a3,25c0 <blc_ll_recoverDeepRetention+0xb4>
    25ba:	0ff5f693          	andi	a3,a1,255
    25be:	a019                	c.j	25c4 <blc_ll_recoverDeepRetention+0xb8>
    25c0:	02400693          	li	a3,36
    25c4:	167d                	c.addi	a2,-1
    25c6:	3c06265b          	bfoz	a2,a2,15,0
    25ca:	4585                	c.li	a1,1
    25cc:	fc5ff06f          	j	2590 <blc_ll_recoverDeepRetention+0x84>
    25d0:	0e058e63          	beqz	a1,26cc <blc_ll_recoverDeepRetention+0x1c0>
    25d4:	50e42c23          	sw	a4,1304(s0)
    25d8:	00080663          	beqz	a6,25e4 <blc_ll_recoverDeepRetention+0xd8>
    25dc:	50a42423          	sw	a0,1288(s0)
    25e0:	00058663          	beqz	a1,25ec <blc_ll_recoverDeepRetention+0xe0>
    25e4:	3ed40fa3          	sb	a3,1023(s0)
    25e8:	40c41823          	sh	a2,1040(s0)
    25ec:	3a442783          	lw	a5,932(s0)
    25f0:	51842703          	lw	a4,1304(s0)
    25f4:	00e787b3          	add	a5,a5,a4
    25f8:	38f42223          	sw	a5,900(s0)
    25fc:	4785                	c.li	a5,1
    25fe:	16f40223          	sb	a5,356(s0)
    2602:	46040823          	sb	zero,1136(s0)
    2606:	a00d                	c.j	2628 <blc_ll_recoverDeepRetention+0x11c>
    2608:	00148703          	lb	a4,1(s1)
    260c:	00177e5b          	bbc	a4,1,2628 <blc_ll_recoverDeepRetention+0x11c>
    2610:	46f44703          	lbu	a4,1135(s0)
    2614:	c711                	c.beqz	a4,2620 <blc_ll_recoverDeepRetention+0x114>
    2616:	46f40823          	sb	a5,1136(s0)
    261a:	44f409a3          	sb	a5,1107(s0)
    261e:	a029                	c.j	2628 <blc_ll_recoverDeepRetention+0x11c>
    2620:	46040823          	sb	zero,1136(s0)
    2624:	16f40223          	sb	a5,356(s0)
    2628:	16140783          	lb	a5,353(s0)
    262c:	55fd                	c.li	a1,-1
    262e:	460407a3          	sb	zero,1135(s0)
    2632:	46040923          	sb	zero,1138(s0)
    2636:	440408a3          	sb	zero,1105(s0)
    263a:	44b41d23          	sh	a1,1114(s0)
    263e:	0ff7f793          	andi	a5,a5,255
    2642:	4605                	c.li	a2,1
    2644:	0017e65b          	bnec	a5,1,2650 <blc_ll_recoverDeepRetention+0x144>
    2648:	4c041b23          	sh	zero,1238(s0)
    264c:	0640006f          	j	26b0 <blc_ll_recoverDeepRetention+0x1a4>
    2650:	16140783          	lb	a5,353(s0)
    2654:	0ff7f793          	andi	a5,a5,255
    2658:	0487ec5b          	bnec	a5,8,26b0 <blc_ll_recoverDeepRetention+0x1a4>
    265c:	80141737          	lui	a4,0x80141
    2660:	4d640783          	lb	a5,1238(s0)
    2664:	a0c700a3          	sb	a2,-1535(a4) # 80140a01 <_DATA_LMA_START+0x60133081>
    2668:	a0071e23          	sh	zero,-1508(a4)
    266c:	0207e793          	ori	a5,a5,32
    2670:	4d740683          	lb	a3,1239(s0)
    2674:	a2b71023          	sh	a1,-1504(a4)
    2678:	47700593          	li	a1,1143
    267c:	a0b71e23          	sh	a1,-1508(a4)
    2680:	0ff7f793          	andi	a5,a5,255
    2684:	80100737          	lui	a4,0x80100
    2688:	50f700a3          	sb	a5,1281(a4) # 80100501 <_DATA_LMA_START+0x600f2b81>
    268c:	01f6f793          	andi	a5,a3,31
    2690:	50f70023          	sb	a5,1280(a4)
    2694:	e40026b7          	lui	a3,0xe4002
    2698:	80140737          	lui	a4,0x80140
    269c:	20c704a3          	sb	a2,521(a4) # 80140209 <_DATA_LMA_START+0x60132889>
    26a0:	429c                	c.lw	a5,0(a3)
    26a2:	51842603          	lw	a2,1304(s0)
    26a6:	0027e793          	ori	a5,a5,2
    26aa:	c29c                	c.sw	a5,0(a3)
    26ac:	20c72223          	sw	a2,516(a4)
    26b0:	00248783          	lb	a5,2(s1)
    26b4:	16040423          	sb	zero,360(s0)
    26b8:	9bdd                	c.andi	a5,-9
    26ba:	40b2                	c.lwsp	ra,12(sp)
    26bc:	4422                	c.lwsp	s0,8(sp)
    26be:	00f48123          	sb	a5,2(s1)
    26c2:	4902                	c.lwsp	s2,0(sp)
    26c4:	4492                	c.lwsp	s1,4(sp)
    26c6:	0141                	c.addi	sp,16
    26c8:	00008067          	ret
    26cc:	f20800e3          	beqz	a6,25ec <blc_ll_recoverDeepRetention+0xe0>
    26d0:	f0dff06f          	j	25dc <blc_ll_recoverDeepRetention+0xd0>

000026d4 <irq_ll_system_timer>:
    26d4:	000007b7          	lui	a5,0x0
    26d8:	17878793          	addi	a5,a5,376 # 178 <_AES_VMA_END>
    26dc:	16178703          	lb	a4,353(a5)
    26e0:	0ff77713          	andi	a4,a4,255
    26e4:	0087545b          	beqc	a4,8,26ec <irq_ll_system_timer+0x18>
    26e8:	00008067          	ret
    26ec:	51c7a303          	lw	t1,1308(a5)
    26f0:	fe030ce3          	beqz	t1,26e8 <irq_ll_system_timer+0x14>
    26f4:	00030067          	jr	t1 # 40000000 <_DATA_LMA_START+0x1fff2680>

000026f8 <blt_event_callback_func>:
    26f8:	000007b7          	lui	a5,0x0
    26fc:	17878793          	addi	a5,a5,376 # 178 <_AES_VMA_END>
    2700:	52c7a683          	lw	a3,1324(a5)
    2704:	872a                	c.mv	a4,a0
    2706:	ca89                	c.beqz	a3,2718 <blt_event_callback_func+0x20>
    2708:	4785                	c.li	a5,1
    270a:	00a797b3          	sll	a5,a5,a0
    270e:	8ff5                	c.and	a5,a3
    2710:	00079c63          	bnez	a5,2728 <blt_event_callback_func+0x30>
    2714:	00008067          	ret
    2718:	0ca787db          	lea.w	a5,a5,a0
    271c:	5307a303          	lw	t1,1328(a5)
    2720:	fe030ae3          	beqz	t1,2714 <blt_event_callback_func+0x1c>
    2724:	00030067          	jr	t1
    2728:	01000537          	lui	a0,0x1000
    272c:	00e56533          	or	a0,a0,a4
    2730:	20005317          	auipc	t1,0x20005
    2734:	b1c30067          	jr	-1252(t1) # 2000724c <blc_hci_send_event>

00002738 <trng_rand>:
    2738:	000006b7          	lui	a3,0x0
    273c:	17868693          	addi	a3,a3,376 # 178 <_AES_VMA_END>
    2740:	5846a783          	lw	a5,1412(a3)
    2744:	6641                	c.lui	a2,0x10
    2746:	167d                	c.addi	a2,-1
    2748:	65a5                	c.lui	a1,0x9
    274a:	5806a703          	lw	a4,1408(a3)
    274e:	00c7f533          	and	a0,a5,a2
    2752:	06958593          	addi	a1,a1,105 # 9069 <_RAMCODE_VMA_END+0x2867>
    2756:	83c1                	c.srli	a5,0x10
    2758:	c4b517ff          	maddr32	a5,a0,a1
    275c:	6591                	c.lui	a1,0x4
    275e:	8e79                	c.and	a2,a4
    2760:	65058593          	addi	a1,a1,1616 # 4650 <cpu_sleep_wakeup_32k_rc_ram+0x1a0>
    2764:	8341                	c.srli	a4,0x10
    2766:	c4b6177f          	maddr32	a4,a2,a1
    276a:	80140637          	lui	a2,0x80140
    276e:	20062503          	lw	a0,512(a2) # 80140200 <_DATA_LMA_START+0x60132880>
    2772:	01079613          	slli	a2,a5,0x10
    2776:	963a                	c.add	a2,a4
    2778:	58e6a023          	sw	a4,1408(a3)
    277c:	58f6a223          	sw	a5,1412(a3)
    2780:	8d31                	c.xor	a0,a2
    2782:	8082                	c.jr	ra

00002784 <pm_tim_recover_32k_rc>:
    2784:	000007b7          	lui	a5,0x0
    2788:	17878793          	addi	a5,a5,376 # 178 <_AES_VMA_END>
    278c:	58c7a703          	lw	a4,1420(a5)
    2790:	5b87c603          	lbu	a2,1464(a5)
    2794:	5887a583          	lw	a1,1416(a5)
    2798:	40e50733          	sub	a4,a0,a4
    279c:	5b47a683          	lw	a3,1460(a5)
    27a0:	ee01                	c.bnez	a2,27b8 <pm_tim_recover_32k_rc+0x34>
    27a2:	02d70633          	mul	a2,a4,a3
    27a6:	5aa7a223          	sw	a0,1444(a5)
    27aa:	5ae7a023          	sw	a4,1440(a5)
    27ae:	00465693          	srli	a3,a2,0x4
    27b2:	95b6                	c.add	a1,a3
    27b4:	852e                	c.mv	a0,a1
    27b6:	8082                	c.jr	ra
    27b8:	00475613          	srli	a2,a4,0x4
    27bc:	c4d615ff          	maddr32	a1,a2,a3
    27c0:	5aa7a223          	sw	a0,1444(a5)
    27c4:	5ae7a023          	sw	a4,1440(a5)
    27c8:	852e                	c.mv	a0,a1
    27ca:	8082                	c.jr	ra

000027cc <pm_get_32k_rc_calib>:
    27cc:	801407b7          	lui	a5,0x80140
    27d0:	2147a703          	lw	a4,532(a5) # 80140214 <_DATA_LMA_START+0x60132894>
    27d4:	df75                	c.beqz	a4,27d0 <pm_get_32k_rc_calib+0x4>
    27d6:	2147a503          	lw	a0,532(a5)
    27da:	000007b7          	lui	a5,0x0
    27de:	17878793          	addi	a5,a5,376 # 178 <_AES_VMA_END>
    27e2:	59c7a703          	lw	a4,1436(a5)
    27e6:	5aa7a623          	sw	a0,1452(a5)
    27ea:	0512                	c.slli	a0,0x4
    27ec:	cb11                	c.beqz	a4,2800 <pm_get_32k_rc_calib+0x34>
    27ee:	5b07c603          	lbu	a2,1456(a5)
    27f2:	4691                	c.li	a3,4
    27f4:	8d19                	c.sub	a0,a4
    27f6:	8e91                	c.sub	a3,a2
    27f8:	40d55533          	sra	a0,a0,a3
    27fc:	00e50533          	add	a0,a0,a4
    2800:	58a7ae23          	sw	a0,1436(a5)
    2804:	5907a783          	lw	a5,1424(a5)
    2808:	8511                	c.srai	a0,0x4
    280a:	02f507b3          	mul	a5,a0,a5
    280e:	87c9                	c.srai	a5,0x12
    2810:	953e                	c.add	a0,a5
    2812:	8082                	c.jr	ra

00002814 <pm_update_32k_rc_sleep_tick>:
    2814:	000007b7          	lui	a5,0x0
    2818:	17878793          	addi	a5,a5,376 # 178 <_AES_VMA_END>
    281c:	5a47a703          	lw	a4,1444(a5)
    2820:	5b07c683          	lbu	a3,1456(a5)
    2824:	40e50733          	sub	a4,a0,a4
    2828:	5ae7a423          	sw	a4,1448(a5)
    282c:	e681                	c.bnez	a3,2834 <pm_update_32k_rc_sleep_tick+0x20>
    282e:	5887a703          	lw	a4,1416(a5)
    2832:	eb19                	c.bnez	a4,2848 <pm_update_32k_rc_sleep_tick+0x34>
    2834:	0015e593          	ori	a1,a1,1
    2838:	5a078823          	sb	zero,1456(a5)
    283c:	58a7a623          	sw	a0,1420(a5)
    2840:	58b7a423          	sw	a1,1416(a5)
    2844:	00008067          	ret
    2848:	58c7a703          	lw	a4,1420(a5)
    284c:	6691                	c.lui	a3,0x4
    284e:	40e50733          	sub	a4,a0,a4
    2852:	6c07275b          	bfoz	a4,a4,27,0
    2856:	e8068693          	addi	a3,a3,-384 # 3e80 <blt_brx_sleep+0x454>
    285a:	fee6f5e3          	bgeu	a3,a4,2844 <pm_update_32k_rc_sleep_tick+0x30>
    285e:	0015e593          	ori	a1,a1,1
    2862:	5a078823          	sb	zero,1456(a5)
    2866:	58a7a623          	sw	a0,1420(a5)
    286a:	58b7a423          	sw	a1,1416(a5)
    286e:	bfd9                	c.j	2844 <pm_update_32k_rc_sleep_tick+0x30>

00002870 <pm_cal_32k_rc_offset>:
    2870:	6789                	c.lui	a5,0x2
    2872:	d1078793          	addi	a5,a5,-752 # 1d10 <irq_blc_slave_rx_data+0x30>
    2876:	02f507b3          	mul	a5,a0,a5
    287a:	00000737          	lui	a4,0x0
    287e:	17870713          	addi	a4,a4,376 # 178 <_AES_VMA_END>
    2882:	5a072803          	lw	a6,1440(a4)
    2886:	59472583          	lw	a1,1428(a4)
    288a:	59072603          	lw	a2,1424(a4)
    288e:	40b506b3          	sub	a3,a0,a1
    2892:	868d                	c.srai	a3,0x3
    2894:	96ae                	c.add	a3,a1
    2896:	58d72a23          	sw	a3,1428(a4)
    289a:	0307c7b3          	div	a5,a5,a6
    289e:	f0000693          	li	a3,-256
    28a2:	4585                	c.li	a1,1
    28a4:	58a72c23          	sw	a0,1432(a4)
    28a8:	5ab70823          	sb	a1,1456(a4)
    28ac:	f2d787ff          	maxw	a5,a5,a3
    28b0:	10000693          	li	a3,256
    28b4:	f0d787ff          	minw	a5,a5,a3
    28b8:	8f91                	c.sub	a5,a2
    28ba:	8791                	c.srai	a5,0x4
    28bc:	97b2                	c.add	a5,a2
    28be:	58f72823          	sw	a5,1424(a4)
    28c2:	8082                	c.jr	ra

000028c4 <rf_set_ble_channel>:
    28c4:	80141737          	lui	a4,0x80141
    28c8:	0ff57793          	andi	a5,a0,255
    28cc:	80f706a3          	sb	a5,-2035(a4) # 8014080d <_DATA_LMA_START+0x60132e8d>
    28d0:	4729                	c.li	a4,10
    28d2:	0aa75163          	bge	a4,a0,2974 <rf_set_ble_channel+0xb0>
    28d6:	02400693          	li	a3,36
    28da:	02a6d363          	bge	a3,a0,2900 <rf_set_ble_channel+0x3c>
    28de:	105553db          	beqc	a0,37,29e4 <rf_set_ble_channel+0x120>
    28e2:	0e655bdb          	beqc	a0,38,29d8 <rf_set_ble_channel+0x114>
    28e6:	107555db          	beqc	a0,39,29f0 <rf_set_ble_channel+0x12c>
    28ea:	fcd78693          	addi	a3,a5,-51
    28ee:	0ff6f693          	andi	a3,a3,255
    28f2:	00d76b63          	bltu	a4,a3,2908 <rf_set_ble_channel+0x44>
    28f6:	fc378513          	addi	a0,a5,-61
    28fa:	1c05355b          	bfos	a0,a0,7,0
    28fe:	a029                	c.j	2908 <rf_set_ble_channel+0x44>
    2900:	00378513          	addi	a0,a5,3
    2904:	1c05355b          	bfos	a0,a0,7,0
    2908:	6785                	c.lui	a5,0x1
    290a:	96078713          	addi	a4,a5,-1696 # 960 <app_acl_txfifo>
    290e:	0475355b          	bfos	a0,a0,1,7
    2912:	953a                	c.add	a0,a4
    2914:	9d778713          	addi	a4,a5,-1577
    2918:	00151813          	slli	a6,a0,0x1
    291c:	02000693          	li	a3,32
    2920:	06a77c63          	bgeu	a4,a0,2998 <rf_set_ble_channel+0xd4>
    2924:	801417b7          	lui	a5,0x80141
    2928:	e4478603          	lb	a2,-444(a5) # 80140e44 <_DATA_LMA_START+0x601334c4>
    292c:	0ff67613          	andi	a2,a2,255
    2930:	829fa70b          	lbugp	a4,-2008 # 80028 <g_single_tong_freqoffset>
    2934:	00166613          	ori	a2,a2,1
    2938:	e4c78223          	sb	a2,-444(a5)
    293c:	e4478583          	lb	a1,-444(a5)
    2940:	9742                	c.add	a4,a6
    2942:	0477265b          	bfoz	a2,a4,1,7
    2946:	8985                	c.andi	a1,1
    2948:	8e4d                	c.or	a2,a1
    294a:	e4c78223          	sb	a2,-444(a5)
    294e:	e4578603          	lb	a2,-443(a5)
    2952:	3877275b          	bfoz	a4,a4,14,7
    2956:	0c067613          	andi	a2,a2,192
    295a:	8f51                	c.or	a4,a2
    295c:	e4e782a3          	sb	a4,-443(a5)
    2960:	e2978703          	lb	a4,-471(a5)
    2964:	03f77713          	andi	a4,a4,63
    2968:	8ed9                	c.or	a3,a4
    296a:	0ff6f693          	andi	a3,a3,255
    296e:	e2d784a3          	sb	a3,-471(a5)
    2972:	8082                	c.jr	ra
    2974:	00278513          	addi	a0,a5,2
    2978:	1c05355b          	bfos	a0,a0,7,0
    297c:	6785                	c.lui	a5,0x1
    297e:	96078713          	addi	a4,a5,-1696 # 960 <app_acl_txfifo>
    2982:	0475355b          	bfos	a0,a0,1,7
    2986:	953a                	c.add	a0,a4
    2988:	9d778713          	addi	a4,a5,-1577
    298c:	00151813          	slli	a6,a0,0x1
    2990:	02000693          	li	a3,32
    2994:	f8a768e3          	bltu	a4,a0,2924 <rf_set_ble_channel+0x60>
    2998:	9be78713          	addi	a4,a5,-1602
    299c:	04000693          	li	a3,64
    29a0:	f8a762e3          	bltu	a4,a0,2924 <rf_set_ble_channel+0x60>
    29a4:	9a078713          	addi	a4,a5,-1632
    29a8:	06000693          	li	a3,96
    29ac:	f6a76ce3          	bltu	a4,a0,2924 <rf_set_ble_channel+0x60>
    29b0:	98278713          	addi	a4,a5,-1662
    29b4:	f8000693          	li	a3,-128
    29b8:	f6a766e3          	bltu	a4,a0,2924 <rf_set_ble_channel+0x60>
    29bc:	96478713          	addi	a4,a5,-1692
    29c0:	fa000693          	li	a3,-96
    29c4:	f6a760e3          	bltu	a4,a0,2924 <rf_set_ble_channel+0x60>
    29c8:	94b78793          	addi	a5,a5,-1717
    29cc:	5681                	c.li	a3,-32
    29ce:	f4a7fbe3          	bgeu	a5,a0,2924 <rf_set_ble_channel+0x60>
    29d2:	fc000693          	li	a3,-64
    29d6:	b7b9                	c.j	2924 <rf_set_ble_channel+0x60>
    29d8:	6705                	c.lui	a4,0x1
    29da:	2f470813          	addi	a6,a4,756 # 12f4 <aes_ccmBaseTran.isra.0.constprop.56+0x74>
    29de:	fa000693          	li	a3,-96
    29e2:	b789                	c.j	2924 <rf_set_ble_channel+0x60>
    29e4:	6705                	c.lui	a4,0x1
    29e6:	2c470813          	addi	a6,a4,708 # 12c4 <aes_ccmBaseTran.isra.0.constprop.56+0x44>
    29ea:	fc000693          	li	a3,-64
    29ee:	bf1d                	c.j	2924 <rf_set_ble_channel+0x60>
    29f0:	6705                	c.lui	a4,0x1
    29f2:	36070813          	addi	a6,a4,864 # 1360 <aes_ccmBaseTran.isra.0.constprop.56+0xe0>
    29f6:	06000693          	li	a3,96
    29fa:	b72d                	c.j	2924 <rf_set_ble_channel+0x60>

000029fc <blt_ll_start_common>:
    29fc:	1141                	c.addi	sp,-16
    29fe:	c422                	c.swsp	s0,8(sp)
    2a00:	c606                	c.swsp	ra,12(sp)
    2a02:	c226                	c.swsp	s1,4(sp)
    2a04:	801417b7          	lui	a5,0x80141
    2a08:	47700713          	li	a4,1143
    2a0c:	a0e79e23          	sh	a4,-1508(a5) # 80140a1c <_DATA_LMA_START+0x6013309c>
    2a10:	577d                	c.li	a4,-1
    2a12:	a2e79023          	sh	a4,-1504(a5)
    2a16:	00a54783          	lbu	a5,10(a0) # 100000a <FLASH_SIZE+0xf0000a>
    2a1a:	00051223          	sh	zero,4(a0)
    2a1e:	00050323          	sb	zero,6(a0)
    2a22:	842a                	c.mv	s0,a0
    2a24:	cba5                	c.beqz	a5,2a94 <blt_ll_start_common+0x98>
    2a26:	000004b7          	lui	s1,0x0
    2a2a:	17848493          	addi	s1,s1,376 # 178 <_AES_VMA_END>
    2a2e:	01a55603          	lhu	a2,26(a0)
    2a32:	01c55583          	lhu	a1,28(a0)
    2a36:	5bc4a783          	lw	a5,1468(s1)
    2a3a:	0539                	c.addi	a0,14
    2a3c:	000780e7          	jalr	a5
    2a40:	00a40623          	sb	a0,12(s0)
    2a44:	1c05355b          	bfos	a0,a0,7,0
    2a48:	e7dff0ef          	jal	ra,28c4 <rf_set_ble_channel>
    2a4c:	3e04d783          	lhu	a5,992(s1)
    2a50:	80141737          	lui	a4,0x80141
    2a54:	0791                	c.addi	a5,4
    2a56:	0ff7f793          	andi	a5,a5,255
    2a5a:	82f708a3          	sb	a5,-1999(a4) # 80140831 <_DATA_LMA_START+0x60132eb1>
    2a5e:	5c04a783          	lw	a5,1472(s1)
    2a62:	c399                	c.beqz	a5,2a68 <blt_ll_start_common+0x6c>
    2a64:	000780e7          	jalr	a5
    2a68:	541c                	c.lw	a5,40(s0)
    2a6a:	80141737          	lui	a4,0x80141
    2a6e:	80f72423          	sw	a5,-2040(a4) # 80140808 <_DATA_LMA_START+0x60132e88>
    2a72:	c2570783          	lb	a5,-987(a4)
    2a76:	4501                	c.li	a0,0
    2a78:	0ff7f793          	andi	a5,a5,255
    2a7c:	0017e793          	ori	a5,a5,1
    2a80:	c2f702a3          	sb	a5,-987(a4)
    2a84:	545c                	c.lw	a5,44(s0)
    2a86:	82f72223          	sw	a5,-2012(a4)
    2a8a:	40b2                	c.lwsp	ra,12(sp)
    2a8c:	4422                	c.lwsp	s0,8(sp)
    2a8e:	4492                	c.lwsp	s1,4(sp)
    2a90:	0141                	c.addi	sp,16
    2a92:	8082                	c.jr	ra
    2a94:	00b54783          	lbu	a5,11(a0)
    2a98:	000004b7          	lui	s1,0x0
    2a9c:	97aa                	c.add	a5,a0
    2a9e:	0307c503          	lbu	a0,48(a5)
    2aa2:	17848493          	addi	s1,s1,376 # 178 <_AES_VMA_END>
    2aa6:	00a40623          	sb	a0,12(s0)
    2aaa:	bf69                	c.j	2a44 <blt_ll_start_common+0x48>

00002aac <rf_start_fsm>:
    2aac:	ffb57713          	andi	a4,a0,-5
    2ab0:	08200793          	li	a5,130
    2ab4:	04f70463          	beq	a4,a5,2afc <rf_start_fsm+0x50>
    2ab8:	08400793          	li	a5,132
    2abc:	04f50063          	beq	a0,a5,2afc <rf_start_fsm+0x50>
    2ac0:	80141737          	lui	a4,0x80141
    2ac4:	a0c72c23          	sw	a2,-1512(a4) # 80140a18 <_DATA_LMA_START+0x60133098>
    2ac8:	a1670783          	lb	a5,-1514(a4)
    2acc:	0ff57513          	andi	a0,a0,255
    2ad0:	0ff7f793          	andi	a5,a5,255
    2ad4:	0047e793          	ori	a5,a5,4
    2ad8:	a0f70b23          	sb	a5,-1514(a4)
    2adc:	a0a70023          	sb	a0,-1536(a4)
    2ae0:	cd81                	c.beqz	a1,2af8 <rf_start_fsm+0x4c>
    2ae2:	000a07b7          	lui	a5,0xa0
    2ae6:	00f5f563          	bgeu	a1,a5,2af0 <rf_start_fsm+0x44>
    2aea:	c01807b7          	lui	a5,0xc0180
    2aee:	95be                	c.add	a1,a5
    2af0:	801007b7          	lui	a5,0x80100
    2af4:	44b7a423          	sw	a1,1096(a5) # 80100448 <_DATA_LMA_START+0x600f2ac8>
    2af8:	00008067          	ret
    2afc:	100007b7          	lui	a5,0x10000
    2b00:	80141737          	lui	a4,0x80141
    2b04:	17fd                	c.addi	a5,-1
    2b06:	a2f72423          	sw	a5,-1496(a4) # 80140a28 <_DATA_LMA_START+0x601330a8>
    2b0a:	bf5d                	c.j	2ac0 <rf_start_fsm+0x14>

00002b0c <ble_rx_dma_config>:
    2b0c:	801006b7          	lui	a3,0x80100
    2b10:	2000e7b7          	lui	a5,0x2000e
    2b14:	4586a703          	lw	a4,1112(a3) # 80100458 <_DATA_LMA_START+0x600f2ad8>
    2b18:	9587a783          	lw	a5,-1704(a5) # 2000d958 <rf_rx_dma_config>
    2b1c:	8b3d                	c.andi	a4,15
    2b1e:	0792                	c.slli	a5,0x4
    2b20:	8fd9                	c.or	a5,a4
    2b22:	44f6ac23          	sw	a5,1112(a3)
    2b26:	8082                	c.jr	ra

00002b28 <ble_tx_dma_config>:
    2b28:	801006b7          	lui	a3,0x80100
    2b2c:	2000e7b7          	lui	a5,0x2000e
    2b30:	4446a703          	lw	a4,1092(a3) # 80100444 <_DATA_LMA_START+0x600f2ac4>
    2b34:	95c7a783          	lw	a5,-1700(a5) # 2000d95c <rf_tx_dma_config>
    2b38:	8b3d                	c.andi	a4,15
    2b3a:	0792                	c.slli	a5,0x4
    2b3c:	8fd9                	c.or	a5,a4
    2b3e:	44f6a223          	sw	a5,1092(a3)
    2b42:	8082                	c.jr	ra

00002b44 <blc_ll_initBasicMCU>:
    2b44:	1141                	c.addi	sp,-16
    2b46:	80140737          	lui	a4,0x80140
    2b4a:	c606                	c.swsp	ra,12(sp)
    2b4c:	20072783          	lw	a5,512(a4) # 80140200 <_DATA_LMA_START+0x60132880>
    2b50:	800006b7          	lui	a3,0x80000
    2b54:	97b6                	c.add	a5,a3
    2b56:	20f72223          	sw	a5,516(a4)
    2b5a:	20870783          	lb	a5,520(a4)
    2b5e:	e40026b7          	lui	a3,0xe4002
    2b62:	0ff7f793          	andi	a5,a5,255
    2b66:	0017e793          	ori	a5,a5,1
    2b6a:	20f70423          	sb	a5,520(a4)
    2b6e:	429c                	c.lw	a5,0(a3)
    2b70:	6621                	c.lui	a2,0x8
    2b72:	8fd1                	c.or	a5,a2
    2b74:	c29c                	c.sw	a5,0(a3)
    2b76:	e4000737          	lui	a4,0xe4000
    2b7a:	4789                	c.li	a5,2
    2b7c:	df5c                	c.sw	a5,60(a4)
    2b7e:	c35c                	c.sw	a5,4(a4)
    2b80:	e42007b7          	lui	a5,0xe4200
    2b84:	0007a023          	sw	zero,0(a5) # e4200000 <_DATA_LMA_START+0xc41f2680>
    2b88:	fa1ff0ef          	jal	ra,2b28 <ble_tx_dma_config>
    2b8c:	40b2                	c.lwsp	ra,12(sp)
    2b8e:	0141                	c.addi	sp,16
    2b90:	f7dff06f          	j	2b0c <ble_rx_dma_config>

00002b94 <ble_rf_set_tx_dma>:
    2b94:	80100737          	lui	a4,0x80100
    2b98:	50c70783          	lb	a5,1292(a4) # 8010050c <_DATA_LMA_START+0x600f2b8c>
    2b9c:	0ff7f793          	andi	a5,a5,255
    2ba0:	0057e793          	ori	a5,a5,5
    2ba4:	50f70623          	sb	a5,1292(a4)
    2ba8:	4ea709a3          	sb	a0,1267(a4)
    2bac:	4eb70923          	sb	a1,1266(a4)
    2bb0:	803fa7ab          	lwgp	a5,-2048 # 80000 <_DATA_VMA_START>
    2bb4:	000a0737          	lui	a4,0xa0
    2bb8:	00e7f663          	bgeu	a5,a4,2bc4 <ble_rf_set_tx_dma+0x30>
    2bbc:	c0180737          	lui	a4,0xc0180
    2bc0:	00e787b3          	add	a5,a5,a4
    2bc4:	80100737          	lui	a4,0x80100
    2bc8:	44f72423          	sw	a5,1096(a4) # 80100448 <_DATA_LMA_START+0x600f2ac8>
    2bcc:	001417b7          	lui	a5,0x141
    2bd0:	88478793          	addi	a5,a5,-1916 # 140884 <FLASH_SIZE+0x40884>
    2bd4:	44f72623          	sw	a5,1100(a4)
    2bd8:	00008067          	ret

00002bdc <ble_rf_set_rx_dma>:
    2bdc:	801007b7          	lui	a5,0x80100
    2be0:	50c78703          	lb	a4,1292(a5) # 8010050c <_DATA_LMA_START+0x600f2b8c>
    2be4:	0511                	c.addi	a0,4
    2be6:	0ff77713          	andi	a4,a4,255
    2bea:	00676713          	ori	a4,a4,6
    2bee:	50e78623          	sb	a4,1292(a5)
    2bf2:	500786a3          	sb	zero,1293(a5)
    2bf6:	00141737          	lui	a4,0x141
    2bfa:	4eb78b23          	sb	a1,1270(a5)
    2bfe:	88070713          	addi	a4,a4,-1920 # 140880 <FLASH_SIZE+0x40880>
    2c02:	44e7ae23          	sw	a4,1116(a5)
    2c06:	000a07b7          	lui	a5,0xa0
    2c0a:	00f57563          	bgeu	a0,a5,2c14 <ble_rf_set_rx_dma+0x38>
    2c0e:	c01807b7          	lui	a5,0xc0180
    2c12:	953e                	c.add	a0,a5
    2c14:	801007b7          	lui	a5,0x80100
    2c18:	46a7a023          	sw	a0,1120(a5) # 80100460 <_DATA_LMA_START+0x600f2ae0>
    2c1c:	577d                	c.li	a4,-1
    2c1e:	46e7a223          	sw	a4,1124(a5)
    2c22:	8082                	c.jr	ra

00002c24 <blt_brx_start>:
    2c24:	1141                	c.addi	sp,-16
    2c26:	c422                	c.swsp	s0,8(sp)
    2c28:	00000437          	lui	s0,0x0
    2c2c:	17840413          	addi	s0,s0,376 # 178 <_AES_VMA_END>
    2c30:	c606                	c.swsp	ra,12(sp)
    2c32:	17442503          	lw	a0,372(s0)
    2c36:	16740583          	lb	a1,359(s0)
    2c3a:	0ff5f593          	andi	a1,a1,255
    2c3e:	3f79                	c.jal	2bdc <ble_rf_set_rx_dma>
    2c40:	801417b7          	lui	a5,0x80141
    2c44:	02900713          	li	a4,41
    2c48:	a0e78b23          	sb	a4,-1514(a5) # 80140a16 <_DATA_LMA_START+0x60133096>
    2c4c:	f8000713          	li	a4,-128
    2c50:	82e78423          	sb	a4,-2008(a5)
    2c54:	04500693          	li	a3,69
    2c58:	a0d78123          	sb	a3,-1534(a5)
    2c5c:	a0e78023          	sb	a4,-1536(a5)
    2c60:	4705                	c.li	a4,1
    2c62:	a0e780a3          	sb	a4,-1535(a5)
    2c66:	801407b7          	lui	a5,0x80140
    2c6a:	2007a783          	lw	a5,512(a5) # 80140200 <_DATA_LMA_START+0x60132880>
    2c6e:	4f842503          	lw	a0,1272(s0)
    2c72:	3af42623          	sw	a5,940(s0)
    2c76:	3a042423          	sw	zero,936(s0)
    2c7a:	36040623          	sb	zero,876(s0)
    2c7e:	3bbd                	c.jal	29fc <blt_ll_start_common>
    2c80:	a74ff0ef          	jal	ra,1ef4 <blt_push_fifo_hw>
    2c84:	81bf878b          	lbgp	a5,-2022 # 8001a <sys_clk+0x2>
    2c88:	0df7f793          	andi	a5,a5,223
    2c8c:	4807d45b          	beqc	a5,64,2d14 <blt_brx_start+0xf0>
    2c90:	05944783          	lbu	a5,89(s0)
    2c94:	008787b3          	add	a5,a5,s0
    2c98:	5c87c783          	lbu	a5,1480(a5)
    2c9c:	3c07a7db          	bfoz	a5,a5,15,0
    2ca0:	80141737          	lui	a4,0x80141
    2ca4:	a0f71223          	sh	a5,-1532(a4) # 80140a04 <_DATA_LMA_START+0x60133084>
    2ca8:	25800713          	li	a4,600
    2cac:	05944783          	lbu	a5,89(s0)
    2cb0:	0037d45b          	beqc	a5,3,2cb8 <blt_brx_start+0x94>
    2cb4:	0fa00713          	li	a4,250
    2cb8:	801417b7          	lui	a5,0x80141
    2cbc:	36d44683          	lbu	a3,877(s0)
    2cc0:	a0e79523          	sh	a4,-1526(a5) # 80140a0a <_DATA_LMA_START+0x6013308a>
    2cc4:	a0378703          	lb	a4,-1533(a5)
    2cc8:	04068c63          	beqz	a3,2d20 <blt_brx_start+0xfc>
    2ccc:	0fe77713          	andi	a4,a4,254
    2cd0:	a0e781a3          	sb	a4,-1533(a5)
    2cd4:	48045583          	lhu	a1,1152(s0)
    2cd8:	48344503          	lbu	a0,1155(s0)
    2cdc:	2c45a5db          	bfoz	a1,a1,11,4
    2ce0:	eb5ff0ef          	jal	ra,2b94 <ble_rf_set_tx_dma>
    2ce4:	801407b7          	lui	a5,0x80140
    2ce8:	2007a603          	lw	a2,512(a5) # 80140200 <_DATA_LMA_START+0x60132880>
    2cec:	48842583          	lw	a1,1160(s0)
    2cf0:	0629                	c.addi	a2,10
    2cf2:	08200513          	li	a0,130
    2cf6:	3b5d                	c.jal	2aac <rf_start_fsm>
    2cf8:	4e042783          	lw	a5,1248(s0)
    2cfc:	c781                	c.beqz	a5,2d04 <blt_brx_start+0xe0>
    2cfe:	4509                	c.li	a0,2
    2d00:	000780e7          	jalr	a5
    2d04:	46040f23          	sb	zero,1150(s0)
    2d08:	40b2                	c.lwsp	ra,12(sp)
    2d0a:	4422                	c.lwsp	s0,8(sp)
    2d0c:	4501                	c.li	a0,0
    2d0e:	0141                	c.addi	sp,16
    2d10:	00008067          	ret
    2d14:	05944783          	lbu	a5,89(s0)
    2d18:	97a2                	c.add	a5,s0
    2d1a:	5c47c783          	lbu	a5,1476(a5)
    2d1e:	bfbd                	c.j	2c9c <blt_brx_start+0x78>
    2d20:	0ff77713          	andi	a4,a4,255
    2d24:	3c842683          	lw	a3,968(s0)
    2d28:	00176713          	ori	a4,a4,1
    2d2c:	a0e781a3          	sb	a4,-1533(a5)
    2d30:	a2d7a623          	sw	a3,-1492(a5)
    2d34:	fa1ff06f          	j	2cd4 <blt_brx_start+0xb0>

00002d38 <irq_slave_system_timer>:
    2d38:	1141                	c.addi	sp,-16
    2d3a:	c422                	c.swsp	s0,8(sp)
    2d3c:	00000437          	lui	s0,0x0
    2d40:	17840413          	addi	s0,s0,376 # 178 <_AES_VMA_END>
    2d44:	00112623          	sw	ra,12(sp)
    2d48:	16140783          	lb	a5,353(s0)
    2d4c:	0ff7f793          	andi	a5,a5,255
    2d50:	0087d65b          	beqc	a5,8,2d5c <irq_slave_system_timer+0x24>
    2d54:	40b2                	c.lwsp	ra,12(sp)
    2d56:	4422                	c.lwsp	s0,8(sp)
    2d58:	0141                	c.addi	sp,16
    2d5a:	8082                	c.jr	ra
    2d5c:	16240783          	lb	a5,354(s0)
    2d60:	0ff7f793          	andi	a5,a5,255
    2d64:	0457d85b          	beqc	a5,5,2db4 <irq_slave_system_timer+0x7c>
    2d68:	16240783          	lb	a5,354(s0)
    2d6c:	0ff7f793          	andi	a5,a5,255
    2d70:	0067dc5b          	beqc	a5,6,2d88 <irq_slave_system_timer+0x50>
    2d74:	5d640783          	lb	a5,1494(s0)
    2d78:	bc67fe5b          	bbc	a5,6,2d54 <irq_slave_system_timer+0x1c>
    2d7c:	16240783          	lb	a5,354(s0)
    2d80:	0ff7f793          	andi	a5,a5,255
    2d84:	bc27e85b          	bnec	a5,2,2d54 <irq_slave_system_timer+0x1c>
    2d88:	4785                	c.li	a5,1
    2d8a:	16f40223          	sb	a5,356(s0)
    2d8e:	577d                	c.li	a4,-1
    2d90:	801417b7          	lui	a5,0x80141
    2d94:	a2e79023          	sh	a4,-1504(a5) # 80140a20 <_DATA_LMA_START+0x601330a0>
    2d98:	4795                	c.li	a5,5
    2d9a:	16f40123          	sb	a5,354(s0)
    2d9e:	3559                	c.jal	2c24 <blt_brx_start>
    2da0:	80140737          	lui	a4,0x80140
    2da4:	20072783          	lw	a5,512(a4) # 80140200 <_DATA_LMA_START+0x60132880>
    2da8:	39842683          	lw	a3,920(s0)
    2dac:	97b6                	c.add	a5,a3
    2dae:	20f72223          	sw	a5,516(a4)
    2db2:	b74d                	c.j	2d54 <irq_slave_system_timer+0x1c>
    2db4:	801417b7          	lui	a5,0x80141
    2db8:	84078783          	lb	a5,-1984(a5) # 80140840 <_DATA_LMA_START+0x60132ec0>
    2dbc:	4705                	c.li	a4,1
    2dbe:	8b9d                	c.andi	a5,7
    2dc0:	00f77a63          	bgeu	a4,a5,2dd4 <irq_slave_system_timer+0x9c>
    2dc4:	05944783          	lbu	a5,89(s0)
    2dc8:	0a37da5b          	beqc	a5,3,2e7c <irq_slave_system_timer+0x144>
    2dcc:	3f244783          	lbu	a5,1010(s0)
    2dd0:	08079c63          	bnez	a5,2e68 <irq_slave_system_timer+0x130>
    2dd4:	4a944783          	lbu	a5,1193(s0)
    2dd8:	04078a63          	beqz	a5,2e2c <irq_slave_system_timer+0xf4>
    2ddc:	c18ff0ef          	jal	ra,21f4 <blt_brx_post>
    2de0:	15140783          	lb	a5,337(s0)
    2de4:	0067f85b          	bbc	a5,6,2df4 <irq_slave_system_timer+0xbc>
    2de8:	5cc42783          	lw	a5,1484(s0)
    2dec:	4705                	c.li	a4,1
    2dee:	16e40123          	sb	a4,354(s0)
    2df2:	9782                	c.jalr	a5
    2df4:	5d640783          	lb	a5,1494(s0)
    2df8:	0067f65b          	bbc	a5,6,2e04 <irq_slave_system_timer+0xcc>
    2dfc:	5e842783          	lw	a5,1512(s0)
    2e00:	000780e7          	jalr	a5
    2e04:	16040223          	sb	zero,356(s0)
    2e08:	16140783          	lb	a5,353(s0)
    2e0c:	0ff7f793          	andi	a5,a5,255
    2e10:	0287dc5b          	beqc	a5,8,2e48 <irq_slave_system_timer+0x110>
    2e14:	e4002737          	lui	a4,0xe4002
    2e18:	801407b7          	lui	a5,0x80140
    2e1c:	4685                	c.li	a3,1
    2e1e:	20d784a3          	sb	a3,521(a5) # 80140209 <_DATA_LMA_START+0x60132889>
    2e22:	431c                	c.lw	a5,0(a4)
    2e24:	9bf5                	c.andi	a5,-3
    2e26:	c31c                	c.sw	a5,0(a4)
    2e28:	f2dff06f          	j	2d54 <irq_slave_system_timer+0x1c>
    2e2c:	50042703          	lw	a4,1280(s0)
    2e30:	50442783          	lw	a5,1284(s0)
    2e34:	faf704e3          	beq	a4,a5,2ddc <irq_slave_system_timer+0xa4>
    2e38:	50842703          	lw	a4,1288(s0)
    2e3c:	39042783          	lw	a5,912(s0)
    2e40:	97ba                	c.add	a5,a4
    2e42:	50f42423          	sw	a5,1288(s0)
    2e46:	bf59                	c.j	2ddc <irq_slave_system_timer+0xa4>
    2e48:	3a442703          	lw	a4,932(s0)
    2e4c:	38442783          	lw	a5,900(s0)
    2e50:	801406b7          	lui	a3,0x80140
    2e54:	8f99                	c.sub	a5,a4
    2e56:	5ec44703          	lbu	a4,1516(s0)
    2e5a:	20f6a223          	sw	a5,516(a3) # 80140204 <_DATA_LMA_START+0x60132884>
    2e5e:	ee070be3          	beqz	a4,2d54 <irq_slave_system_timer+0x1c>
    2e62:	46040823          	sb	zero,1136(s0)
    2e66:	b5fd                	c.j	2d54 <irq_slave_system_timer+0x1c>
    2e68:	80140737          	lui	a4,0x80140
    2e6c:	20072683          	lw	a3,512(a4) # 80140200 <_DATA_LMA_START+0x60132880>
    2e70:	07e5                	c.addi	a5,25
    2e72:	079e                	c.slli	a5,0x7
    2e74:	97b6                	c.add	a5,a3
    2e76:	20f72223          	sw	a5,516(a4)
    2e7a:	bde9                	c.j	2d54 <irq_slave_system_timer+0x1c>
    2e7c:	801406b7          	lui	a3,0x80140
    2e80:	2006a783          	lw	a5,512(a3) # 80140200 <_DATA_LMA_START+0x60132880>
    2e84:	6721                	c.lui	a4,0x8
    2e86:	d0070713          	addi	a4,a4,-768 # 7d00 <_RAMCODE_VMA_END+0x14fe>
    2e8a:	97ba                	c.add	a5,a4
    2e8c:	20f6a223          	sw	a5,516(a3)
    2e90:	ec5ff06f          	j	2d54 <irq_slave_system_timer+0x1c>

00002e94 <irq_blc_ll_rx>:
    2e94:	1141                	c.addi	sp,-16
    2e96:	c422                	c.swsp	s0,8(sp)
    2e98:	00000437          	lui	s0,0x0
    2e9c:	17840413          	addi	s0,s0,376 # 178 <_AES_VMA_END>
    2ea0:	c606                	c.swsp	ra,12(sp)
    2ea2:	c226                	c.swsp	s1,4(sp)
    2ea4:	5f644703          	lbu	a4,1526(s0)
    2ea8:	5fc42483          	lw	s1,1532(s0)
    2eac:	5f544603          	lbu	a2,1525(s0)
    2eb0:	5f045683          	lhu	a3,1520(s0)
    2eb4:	00170793          	addi	a5,a4,1
    2eb8:	0ff7f793          	andi	a5,a5,255
    2ebc:	00c7f5b3          	and	a1,a5,a2
    2ec0:	8526                	c.mv	a0,s1
    2ec2:	c4d5957f          	maddr32	a0,a1,a3
    2ec6:	8f71                	c.and	a4,a2
    2ec8:	16a42a23          	sw	a0,372(s0)
    2ecc:	17442503          	lw	a0,372(s0)
    2ed0:	16740583          	lb	a1,359(s0)
    2ed4:	c4d714ff          	maddr32	s1,a4,a3
    2ed8:	0ff5f593          	andi	a1,a1,255
    2edc:	5ef40b23          	sb	a5,1526(s0)
    2ee0:	cfdff0ef          	jal	ra,2bdc <ble_rf_set_rx_dma>
    2ee4:	801417b7          	lui	a5,0x80141
    2ee8:	00100713          	li	a4,1
    2eec:	a2e79023          	sh	a4,-1504(a5) # 80140a20 <_DATA_LMA_START+0x601330a0>
    2ef0:	801407b7          	lui	a5,0x80140
    2ef4:	2007a583          	lw	a1,512(a5) # 80140200 <_DATA_LMA_START+0x60132880>
    2ef8:	00048123          	sb	zero,2(s1)
    2efc:	16240783          	lb	a5,354(s0)
    2f00:	0ff7f793          	andi	a5,a5,255
    2f04:	1057d45b          	beqc	a5,5,300c <irq_blc_ll_rx+0x178>
    2f08:	801417b7          	lui	a5,0x80141
    2f0c:	83178783          	lb	a5,-1999(a5) # 80140831 <_DATA_LMA_START+0x60132eb1>
    2f10:	0054c703          	lbu	a4,5(s1)
    2f14:	0ff7f793          	andi	a5,a5,255
    2f18:	00e7e863          	bltu	a5,a4,2f28 <irq_blc_ll_rx+0x94>
    2f1c:	00970733          	add	a4,a4,s1
    2f20:	01070783          	lb	a5,16(a4)
    2f24:	0207fa5b          	bbc	a5,0,2f58 <irq_blc_ll_rx+0xc4>
    2f28:	3f840783          	lb	a5,1016(s0)
    2f2c:	00178793          	addi	a5,a5,1
    2f30:	3ef40c23          	sb	a5,1016(s0)
    2f34:	5f640783          	lb	a5,1526(s0)
    2f38:	16942a23          	sw	s1,372(s0)
    2f3c:	17fd                	c.addi	a5,-1
    2f3e:	5ef40b23          	sb	a5,1526(s0)
    2f42:	17442503          	lw	a0,372(s0)
    2f46:	16740583          	lb	a1,359(s0)
    2f4a:	4422                	c.lwsp	s0,8(sp)
    2f4c:	40b2                	c.lwsp	ra,12(sp)
    2f4e:	4492                	c.lwsp	s1,4(sp)
    2f50:	0ff5f593          	andi	a1,a1,255
    2f54:	0141                	c.addi	sp,16
    2f56:	b159                	c.j	2bdc <ble_rf_set_rx_dma>
    2f58:	16140783          	lb	a5,353(s0)
    2f5c:	00000513          	li	a0,0
    2f60:	0ff7f793          	andi	a5,a5,255
    2f64:	0647d45b          	beqc	a5,4,2fcc <irq_blc_ll_rx+0x138>
    2f68:	16140783          	lb	a5,353(s0)
    2f6c:	0ff7f793          	andi	a5,a5,255
    2f70:	0487ee5b          	bnec	a5,8,2fcc <irq_blc_ll_rx+0x138>
    2f74:	16240783          	lb	a5,354(s0)
    2f78:	0ff7f793          	andi	a5,a5,255
    2f7c:	0057d85b          	beqc	a5,5,2f8c <irq_blc_ll_rx+0xf8>
    2f80:	16240783          	lb	a5,354(s0)
    2f84:	0ff7f793          	andi	a5,a5,255
    2f88:	0437e25b          	bnec	a5,3,2fcc <irq_blc_ll_rx+0x138>
    2f8c:	60042703          	lw	a4,1536(s0)
    2f90:	4501                	c.li	a0,0
    2f92:	cf0d                	c.beqz	a4,2fcc <irq_blc_ll_rx+0x138>
    2f94:	15840783          	lb	a5,344(s0)
    2f98:	0ff7f793          	andi	a5,a5,255
    2f9c:	0c078463          	beqz	a5,3064 <irq_blc_ll_rx+0x1d0>
    2fa0:	15840783          	lb	a5,344(s0)
    2fa4:	3f844683          	lbu	a3,1016(s0)
    2fa8:	0ff7f793          	andi	a5,a5,255
    2fac:	0af6ec63          	bltu	a3,a5,3064 <irq_blc_ll_rx+0x1d0>
    2fb0:	3dc42783          	lw	a5,988(s0)
    2fb4:	00100693          	li	a3,1
    2fb8:	0407e793          	ori	a5,a5,64
    2fbc:	14d40ca3          	sb	a3,345(s0)
    2fc0:	3cf42e23          	sw	a5,988(s0)
    2fc4:	8526                	c.mv	a0,s1
    2fc6:	9702                	c.jalr	a4
    2fc8:	0ff57513          	andi	a0,a0,255
    2fcc:	14040ca3          	sb	zero,345(s0)
    2fd0:	15440703          	lb	a4,340(s0)
    2fd4:	0054c783          	lbu	a5,5(s1)
    2fd8:	0ff77713          	andi	a4,a4,255
    2fdc:	97a6                	c.add	a5,s1
    2fde:	00f7c683          	lbu	a3,15(a5)
    2fe2:	cf39                	c.beqz	a4,3040 <irq_blc_ll_rx+0x1ac>
    2fe4:	15440783          	lb	a5,340(s0)
    2fe8:	0ff7f793          	andi	a5,a5,255
    2fec:	97b6                	c.add	a5,a3
    2fee:	8385                	c.srli	a5,0x1
    2ff0:	14f40a23          	sb	a5,340(s0)
    2ff4:	3f840783          	lb	a5,1016(s0)
    2ff8:	0785                	c.addi	a5,1
    2ffa:	3ef40c23          	sb	a5,1016(s0)
    2ffe:	d91d                	c.beqz	a0,2f34 <irq_blc_ll_rx+0xa0>
    3000:	40b2                	c.lwsp	ra,12(sp)
    3002:	4422                	c.lwsp	s0,8(sp)
    3004:	4492                	c.lwsp	s1,4(sp)
    3006:	0141                	c.addi	sp,16
    3008:	00008067          	ret
    300c:	05944783          	lbu	a5,89(s0)
    3010:	0437d65b          	beqc	a5,3,305c <irq_blc_ll_rx+0x1c8>
    3014:	3f344783          	lbu	a5,1011(s0)
    3018:	cb85                	c.beqz	a5,3048 <irq_blc_ll_rx+0x1b4>
    301a:	80100737          	lui	a4,0x80100
    301e:	50070683          	lb	a3,1280(a4) # 80100500 <_DATA_LMA_START+0x600f2b80>
    3022:	50170703          	lb	a4,1281(a4)
    3026:	0ff6f693          	andi	a3,a3,255
    302a:	0ff77713          	andi	a4,a4,255
    302e:	00e68d63          	beq	a3,a4,3048 <irq_blc_ll_rx+0x1b4>
    3032:	6705                	c.lui	a4,0x1
    3034:	83470713          	addi	a4,a4,-1996 # 834 <key_not_released>
    3038:	0ef707db          	lea.d	a5,a4,a5
    303c:	0792                	c.slli	a5,0x4
    303e:	a809                	c.j	3050 <irq_blc_ll_rx+0x1bc>
    3040:	14d40a23          	sb	a3,340(s0)
    3044:	fb1ff06f          	j	2ff4 <irq_blc_ll_rx+0x160>
    3048:	000087b7          	lui	a5,0x8
    304c:	34078793          	addi	a5,a5,832 # 8340 <_RAMCODE_VMA_END+0x1b3e>
    3050:	97ae                	c.add	a5,a1
    3052:	80140737          	lui	a4,0x80140
    3056:	20f72223          	sw	a5,516(a4) # 80140204 <_DATA_LMA_START+0x60132884>
    305a:	b57d                	c.j	2f08 <irq_blc_ll_rx+0x74>
    305c:	67d5                	c.lui	a5,0x15
    305e:	b4078793          	addi	a5,a5,-1216 # 14b40 <BIN_SIZE+0x71a2>
    3062:	b7fd                	c.j	3050 <irq_blc_ll_rx+0x1bc>
    3064:	5f640783          	lb	a5,1526(s0)
    3068:	5f740603          	lb	a2,1527(s0)
    306c:	5f444683          	lbu	a3,1524(s0)
    3070:	8f91                	c.sub	a5,a2
    3072:	03f7f793          	andi	a5,a5,63
    3076:	f4d7e7e3          	bltu	a5,a3,2fc4 <irq_blc_ll_rx+0x130>
    307a:	bf1d                	c.j	2fb0 <irq_blc_ll_rx+0x11c>

0000307c <irq_blt_sdk_handler>:
    307c:	1141                	c.addi	sp,-16
    307e:	c422                	c.swsp	s0,8(sp)
    3080:	00000437          	lui	s0,0x0
    3084:	17840413          	addi	s0,s0,376 # 178 <_AES_VMA_END>
    3088:	c606                	c.swsp	ra,12(sp)
    308a:	c226                	c.swsp	s1,4(sp)
    308c:	15240783          	lb	a5,338(s0)
    3090:	0ff7f793          	andi	a5,a5,255
    3094:	efe1                	c.bnez	a5,316c <irq_blt_sdk_handler+0xf0>
    3096:	801417b7          	lui	a5,0x80141
    309a:	a2079483          	lh	s1,-1504(a5) # 80140a20 <_DATA_LMA_START+0x601330a0>
    309e:	3c04a4db          	bfoz	s1,s1,15,0
    30a2:	0204f75b          	bbc	s1,0,30d0 <irq_blt_sdk_handler+0x54>
    30a6:	16240783          	lb	a5,354(s0)
    30aa:	0ff7f793          	andi	a5,a5,255
    30ae:	1627eb5b          	bnec	a5,2,3224 <irq_blt_sdk_handler+0x1a8>
    30b2:	60442783          	lw	a5,1540(s0)
    30b6:	9782                	c.jalr	a5
    30b8:	4e042703          	lw	a4,1248(s0)
    30bc:	00070a63          	beqz	a4,30d0 <irq_blt_sdk_handler+0x54>
    30c0:	16240783          	lb	a5,354(s0)
    30c4:	0ff7f793          	andi	a5,a5,255
    30c8:	1457e45b          	bnec	a5,5,3210 <irq_blt_sdk_handler+0x194>
    30cc:	4505                	c.li	a0,1
    30ce:	9702                	c.jalr	a4
    30d0:	0414f25b          	bbc	s1,1,3114 <irq_blt_sdk_handler+0x98>
    30d4:	4e042703          	lw	a4,1248(s0)
    30d8:	801417b7          	lui	a5,0x80141
    30dc:	4689                	c.li	a3,2
    30de:	a2d79023          	sh	a3,-1504(a5) # 80140a20 <_DATA_LMA_START+0x601330a0>
    30e2:	cb09                	c.beqz	a4,30f4 <irq_blt_sdk_handler+0x78>
    30e4:	16240783          	lb	a5,354(s0)
    30e8:	0ff7f793          	andi	a5,a5,255
    30ec:	1057ea5b          	bnec	a5,5,3200 <irq_blt_sdk_handler+0x184>
    30f0:	4509                	c.li	a0,2
    30f2:	9702                	c.jalr	a4
    30f4:	60842703          	lw	a4,1544(s0)
    30f8:	cb01                	c.beqz	a4,3108 <irq_blt_sdk_handler+0x8c>
    30fa:	15640783          	lb	a5,342(s0)
    30fe:	0ff7f793          	andi	a5,a5,255
    3102:	c399                	c.beqz	a5,3108 <irq_blt_sdk_handler+0x8c>
    3104:	000700e7          	jalr	a4
    3108:	16140783          	lb	a5,353(s0)
    310c:	0ff7f793          	andi	a5,a5,255
    3110:	0887d65b          	beqc	a5,8,319c <irq_blt_sdk_handler+0x120>
    3114:	4744f493          	andi	s1,s1,1140
    3118:	00048e63          	beqz	s1,3134 <irq_blt_sdk_handler+0xb8>
    311c:	801417b7          	lui	a5,0x80141
    3120:	47400713          	li	a4,1140
    3124:	a2e79023          	sh	a4,-1504(a5) # 80140a20 <_DATA_LMA_START+0x601330a0>
    3128:	16240783          	lb	a5,354(s0)
    312c:	0ff7f793          	andi	a5,a5,255
    3130:	0a57de5b          	beqc	a5,5,31ec <irq_blt_sdk_handler+0x170>
    3134:	801407b7          	lui	a5,0x80140
    3138:	20978703          	lb	a4,521(a5) # 80140209 <_DATA_LMA_START+0x60132889>
    313c:	42077e5b          	bbs	a4,0,3178 <irq_blt_sdk_handler+0xfc>
    3140:	80140737          	lui	a4,0x80140
    3144:	20472783          	lw	a5,516(a4) # 80140204 <_DATA_LMA_START+0x60132884>
    3148:	20072603          	lw	a2,512(a4)
    314c:	400006b7          	lui	a3,0x40000
    3150:	40c787b3          	sub	a5,a5,a2
    3154:	00f6fc63          	bgeu	a3,a5,316c <irq_blt_sdk_handler+0xf0>
    3158:	16140783          	lb	a5,353(s0)
    315c:	8bb9                	c.andi	a5,14
    315e:	c799                	c.beqz	a5,316c <irq_blt_sdk_handler+0xf0>
    3160:	20072783          	lw	a5,512(a4)
    3164:	7d078793          	addi	a5,a5,2000
    3168:	20f72223          	sw	a5,516(a4)
    316c:	40b2                	c.lwsp	ra,12(sp)
    316e:	4422                	c.lwsp	s0,8(sp)
    3170:	4492                	c.lwsp	s1,4(sp)
    3172:	0141                	c.addi	sp,16
    3174:	00008067          	ret
    3178:	00100713          	li	a4,1
    317c:	20e784a3          	sb	a4,521(a5)
    3180:	d54ff0ef          	jal	ra,26d4 <irq_ll_system_timer>
    3184:	80140737          	lui	a4,0x80140
    3188:	20472783          	lw	a5,516(a4) # 80140204 <_DATA_LMA_START+0x60132884>
    318c:	20072603          	lw	a2,512(a4)
    3190:	400006b7          	lui	a3,0x40000
    3194:	8f91                	c.sub	a5,a2
    3196:	fcf6e1e3          	bltu	a3,a5,3158 <irq_blt_sdk_handler+0xdc>
    319a:	bfc9                	c.j	316c <irq_blt_sdk_handler+0xf0>
    319c:	48640783          	lb	a5,1158(s0)
    31a0:	48740683          	lb	a3,1159(s0)
    31a4:	8f95                	c.sub	a5,a3
    31a6:	8bfd                	c.andi	a5,31
    31a8:	d7b5                	c.beqz	a5,3114 <irq_blt_sdk_handler+0x98>
    31aa:	80100637          	lui	a2,0x80100
    31ae:	50060703          	lb	a4,1280(a2) # 80100500 <_DATA_LMA_START+0x600f2b80>
    31b2:	50160503          	lb	a0,1281(a2)
    31b6:	4585                	c.li	a1,1
    31b8:	8f09                	c.sub	a4,a0
    31ba:	8b7d                	c.andi	a4,31
    31bc:	177d                	c.addi	a4,-1
    31be:	f4e5ebe3          	bltu	a1,a4,3114 <irq_blt_sdk_handler+0x98>
    31c2:	50060703          	lb	a4,1280(a2)
    31c6:	96be                	c.add	a3,a5
    31c8:	97ba                	c.add	a5,a4
    31ca:	48d403a3          	sb	a3,1159(s0)
    31ce:	0ff7f793          	andi	a5,a5,255
    31d2:	50f60023          	sb	a5,1280(a2)
    31d6:	50160703          	lb	a4,1281(a2)
    31da:	50060783          	lb	a5,1280(a2)
    31de:	8b7d                	c.andi	a4,31
    31e0:	8bfd                	c.andi	a5,31
    31e2:	4ce40b23          	sb	a4,1238(s0)
    31e6:	4cf40ba3          	sb	a5,1239(s0)
    31ea:	b72d                	c.j	3114 <irq_blt_sdk_handler+0x98>
    31ec:	80140737          	lui	a4,0x80140
    31f0:	20072783          	lw	a5,512(a4) # 80140200 <_DATA_LMA_START+0x60132880>
    31f4:	0c878793          	addi	a5,a5,200
    31f8:	20f72223          	sw	a5,516(a4)
    31fc:	f39ff06f          	j	3134 <irq_blt_sdk_handler+0xb8>
    3200:	16240783          	lb	a5,354(s0)
    3204:	0ff7f793          	andi	a5,a5,255
    3208:	ae37e65b          	bnec	a5,3,30f4 <irq_blt_sdk_handler+0x78>
    320c:	ee5ff06f          	j	30f0 <irq_blt_sdk_handler+0x74>
    3210:	16240783          	lb	a5,354(s0)
    3214:	0ff7f793          	andi	a5,a5,255
    3218:	aa37da5b          	beqc	a5,3,30cc <irq_blt_sdk_handler+0x50>
    321c:	ae14fc5b          	bbc	s1,1,3114 <irq_blt_sdk_handler+0x98>
    3220:	eb5ff06f          	j	30d4 <irq_blt_sdk_handler+0x58>
    3224:	c71ff0ef          	jal	ra,2e94 <irq_blc_ll_rx>
    3228:	e91ff06f          	j	30b8 <irq_blt_sdk_handler+0x3c>

0000322c <stimer_irq_handler>:
    322c:	e51ff06f          	j	307c <irq_blt_sdk_handler>

00003230 <rf_irq_handler>:
    3230:	e4dff06f          	j	307c <irq_blt_sdk_handler>

00003234 <task_suspend_exit>:
    3234:	fcdfd06f          	j	1200 <rf_set_power_level_index.constprop.58>

00003238 <ble_remote_set_sleep_wakeup>:
    3238:	000007b7          	lui	a5,0x0
    323c:	17878793          	addi	a5,a5,376 # 178 <_AES_VMA_END>
    3240:	16178703          	lb	a4,353(a5)
    3244:	0ff77693          	andi	a3,a4,255
    3248:	0086d45b          	beqc	a3,8,3250 <ble_remote_set_sleep_wakeup+0x18>
    324c:	00008067          	ret
    3250:	801406b7          	lui	a3,0x80140
    3254:	2006a683          	lw	a3,512(a3) # 80140200 <_DATA_LMA_START+0x60132880>
    3258:	4787a603          	lw	a2,1144(a5)
    325c:	8e15                	c.sub	a2,a3
    325e:	001396b7          	lui	a3,0x139
    3262:	80068693          	addi	a3,a3,-2048 # 138800 <FLASH_SIZE+0x38800>
    3266:	fec6f3e3          	bgeu	a3,a2,324c <ble_remote_set_sleep_wakeup+0x14>
    326a:	44e788a3          	sb	a4,1105(a5)
    326e:	8082                	c.jr	ra

00003270 <delay_ms>:
    3270:	000047b7          	lui	a5,0x4
    3274:	e8078793          	addi	a5,a5,-384 # 3e80 <blt_brx_sleep+0x454>
    3278:	02f50533          	mul	a0,a0,a5
    327c:	801407b7          	lui	a5,0x80140
    3280:	2007a683          	lw	a3,512(a5) # 80140200 <_DATA_LMA_START+0x60132880>
    3284:	80140737          	lui	a4,0x80140
    3288:	20072783          	lw	a5,512(a4) # 80140200 <_DATA_LMA_START+0x60132880>
    328c:	8f95                	c.sub	a5,a3
    328e:	fef57de3          	bgeu	a0,a5,3288 <delay_ms+0x18>
    3292:	8082                	c.jr	ra

00003294 <delay_us>:
    3294:	801407b7          	lui	a5,0x80140
    3298:	2007a683          	lw	a3,512(a5) # 80140200 <_DATA_LMA_START+0x60132880>
    329c:	00451513          	slli	a0,a0,0x4
    32a0:	80140737          	lui	a4,0x80140
    32a4:	20072783          	lw	a5,512(a4) # 80140200 <_DATA_LMA_START+0x60132880>
    32a8:	8f95                	c.sub	a5,a3
    32aa:	fef57de3          	bgeu	a0,a5,32a4 <delay_us+0x10>
    32ae:	8082                	c.jr	ra

000032b0 <flash_send_addr>:
    32b0:	5d05275b          	bfoz	a4,a0,23,16
    32b4:	801407b7          	lui	a5,0x80140
    32b8:	801406b7          	lui	a3,0x80140
    32bc:	10e78023          	sb	a4,256(a5) # 80140100 <_DATA_LMA_START+0x60132780>
    32c0:	10268783          	lb	a5,258(a3) # 80140102 <_DATA_LMA_START+0x60132782>
    32c4:	fe07fe5b          	bbs	a5,0,32c0 <flash_send_addr+0x10>
    32c8:	3c8527db          	bfoz	a5,a0,15,8
    32cc:	80140737          	lui	a4,0x80140
    32d0:	10f68023          	sb	a5,256(a3)
    32d4:	10270783          	lb	a5,258(a4) # 80140102 <_DATA_LMA_START+0x60132782>
    32d8:	fe07fe5b          	bbs	a5,0,32d4 <flash_send_addr+0x24>
    32dc:	0ff57513          	andi	a0,a0,255
    32e0:	801406b7          	lui	a3,0x80140
    32e4:	10a70023          	sb	a0,256(a4)
    32e8:	10268783          	lb	a5,258(a3) # 80140102 <_DATA_LMA_START+0x60132782>
    32ec:	fe07fe5b          	bbs	a5,0,32e8 <flash_send_addr+0x38>
    32f0:	00008067          	ret

000032f4 <flash_send_cmd>:
    32f4:	801407b7          	lui	a5,0x80140
    32f8:	10178703          	lb	a4,257(a5) # 80140101 <_DATA_LMA_START+0x60132781>
    32fc:	0ff77713          	andi	a4,a4,255
    3300:	01076713          	ori	a4,a4,16
    3304:	10e780a3          	sb	a4,257(a5)
    3308:	0001                	c.nop
    330a:	0001                	c.nop
    330c:	0001                	c.nop
    330e:	0001                	c.nop
    3310:	0001                	c.nop
    3312:	0001                	c.nop
    3314:	0001                	c.nop
    3316:	0001                	c.nop
    3318:	0001                	c.nop
    331a:	0001                	c.nop
    331c:	10178683          	lb	a3,257(a5)
    3320:	0ff57513          	andi	a0,a0,255
    3324:	0ef6f693          	andi	a3,a3,239
    3328:	10d780a3          	sb	a3,257(a5)
    332c:	80140737          	lui	a4,0x80140
    3330:	10a78023          	sb	a0,256(a5)
    3334:	10270783          	lb	a5,258(a4) # 80140102 <_DATA_LMA_START+0x60132782>
    3338:	fe07fe5b          	bbs	a5,0,3334 <flash_send_cmd+0x40>
    333c:	00008067          	ret

00003340 <flash_mspi_read_ram>:
    3340:	1101                	c.addi	sp,-32
    3342:	cc22                	c.swsp	s0,24(sp)
    3344:	ca26                	c.swsp	s1,20(sp)
    3346:	c84a                	c.swsp	s2,16(sp)
    3348:	c64e                	c.swsp	s3,12(sp)
    334a:	c452                	c.swsp	s4,8(sp)
    334c:	c256                	c.swsp	s5,4(sp)
    334e:	ce06                	c.swsp	ra,28(sp)
    3350:	89aa                	c.mv	s3,a0
    3352:	843a                	c.mv	s0,a4
    3354:	84be                	c.mv	s1,a5
    3356:	4705                	c.li	a4,1
    3358:	e42007b7          	lui	a5,0xe4200
    335c:	8a2e                	c.mv	s4,a1
    335e:	8ab2                	c.mv	s5,a2
    3360:	8936                	c.mv	s2,a3
    3362:	80140537          	lui	a0,0x80140
    3366:	c398                	c.sw	a4,0(a5)
    3368:	10250703          	lb	a4,258(a0) # 80140102 <_DATA_LMA_START+0x60132782>
    336c:	fe077e5b          	bbs	a4,0,3368 <flash_mspi_read_ram+0x28>
    3370:	10150783          	lb	a5,257(a0)
    3374:	80140837          	lui	a6,0x80140
    3378:	0ff7f793          	andi	a5,a5,255
    337c:	0107e793          	ori	a5,a5,16
    3380:	10f500a3          	sb	a5,257(a0)
    3384:	32880703          	lb	a4,808(a6) # 80140328 <_DATA_LMA_START+0x601329a8>
    3388:	be377e5b          	bbc	a4,3,3384 <flash_mspi_read_ram+0x44>
    338c:	10180783          	lb	a5,257(a6)
    3390:	854e                	c.mv	a0,s3
    3392:	0fd7f793          	andi	a5,a5,253
    3396:	10f800a3          	sb	a5,257(a6)
    339a:	10180783          	lb	a5,257(a6)
    339e:	0f37f793          	andi	a5,a5,243
    33a2:	10f800a3          	sb	a5,257(a6)
    33a6:	37b9                	c.jal	32f4 <flash_send_cmd>
    33a8:	0e0a9c63          	bnez	s5,34a0 <flash_mspi_read_ram+0x160>
    33ac:	00000713          	li	a4,0
    33b0:	801405b7          	lui	a1,0x80140
    33b4:	01277c63          	bgeu	a4,s2,33cc <flash_mspi_read_ram+0x8c>
    33b8:	00100713          	li	a4,1
    33bc:	10058023          	sb	zero,256(a1) # 80140100 <_DATA_LMA_START+0x60132780>
    33c0:	10258603          	lb	a2,258(a1)
    33c4:	fe067e5b          	bbs	a2,0,33c0 <flash_mspi_read_ram+0x80>
    33c8:	ff2768e3          	bltu	a4,s2,33b8 <flash_mspi_read_ram+0x78>
    33cc:	01b9ecdb          	bnec	s3,59,33e4 <flash_mspi_read_ram+0xa4>
    33d0:	80140737          	lui	a4,0x80140
    33d4:	10170783          	lb	a5,257(a4) # 80140101 <_DATA_LMA_START+0x60132781>
    33d8:	0f37f793          	andi	a5,a5,243
    33dc:	0047e793          	ori	a5,a5,4
    33e0:	10f700a3          	sb	a5,257(a4)
    33e4:	80140737          	lui	a4,0x80140
    33e8:	10170783          	lb	a5,257(a4) # 80140101 <_DATA_LMA_START+0x60132781>
    33ec:	801406b7          	lui	a3,0x80140
    33f0:	0ff7f793          	andi	a5,a5,255
    33f4:	0027e793          	ori	a5,a5,2
    33f8:	10f700a3          	sb	a5,257(a4)
    33fc:	10070023          	sb	zero,256(a4)
    3400:	10268703          	lb	a4,258(a3) # 80140102 <_DATA_LMA_START+0x60132782>
    3404:	fe077e5b          	bbs	a4,0,3400 <flash_mspi_read_ram+0xc0>
    3408:	10168703          	lb	a4,257(a3)
    340c:	801407b7          	lui	a5,0x80140
    3410:	0ff77713          	andi	a4,a4,255
    3414:	00176713          	ori	a4,a4,1
    3418:	10e680a3          	sb	a4,257(a3)
    341c:	10278703          	lb	a4,258(a5) # 80140102 <_DATA_LMA_START+0x60132782>
    3420:	fe077e5b          	bbs	a4,0,341c <flash_mspi_read_ram+0xdc>
    3424:	02048263          	beqz	s1,3448 <flash_mspi_read_ram+0x108>
    3428:	00940733          	add	a4,s0,s1
    342c:	801406b7          	lui	a3,0x80140
    3430:	10068783          	lb	a5,256(a3) # 80140100 <_DATA_LMA_START+0x60132780>
    3434:	00140413          	addi	s0,s0,1
    3438:	fef40fa3          	sb	a5,-1(s0)
    343c:	10268783          	lb	a5,258(a3)
    3440:	fe07fe5b          	bbs	a5,0,343c <flash_mspi_read_ram+0xfc>
    3444:	fee416e3          	bne	s0,a4,3430 <flash_mspi_read_ram+0xf0>
    3448:	801407b7          	lui	a5,0x80140
    344c:	10178703          	lb	a4,257(a5) # 80140101 <_DATA_LMA_START+0x60132781>
    3450:	0fe77713          	andi	a4,a4,254
    3454:	10e780a3          	sb	a4,257(a5)
    3458:	01b9e8db          	bnec	s3,59,3468 <flash_mspi_read_ram+0x128>
    345c:	10178703          	lb	a4,257(a5)
    3460:	0f377713          	andi	a4,a4,243
    3464:	10e780a3          	sb	a4,257(a5)
    3468:	80140737          	lui	a4,0x80140
    346c:	10170783          	lb	a5,257(a4) # 80140101 <_DATA_LMA_START+0x60132781>
    3470:	0ff7f793          	andi	a5,a5,255
    3474:	0107e793          	ori	a5,a5,16
    3478:	10f700a3          	sb	a5,257(a4)
    347c:	0001                	c.nop
    347e:	0001                	c.nop
    3480:	0001                	c.nop
    3482:	0001                	c.nop
    3484:	0001                	c.nop
    3486:	e42007b7          	lui	a5,0xe4200
    348a:	0007a023          	sw	zero,0(a5) # e4200000 <_DATA_LMA_START+0xc41f2680>
    348e:	40f2                	c.lwsp	ra,28(sp)
    3490:	4462                	c.lwsp	s0,24(sp)
    3492:	44d2                	c.lwsp	s1,20(sp)
    3494:	4942                	c.lwsp	s2,16(sp)
    3496:	49b2                	c.lwsp	s3,12(sp)
    3498:	4a22                	c.lwsp	s4,8(sp)
    349a:	4a92                	c.lwsp	s5,4(sp)
    349c:	6105                	c.addi16sp	sp,32
    349e:	8082                	c.jr	ra
    34a0:	8552                	c.mv	a0,s4
    34a2:	3539                	c.jal	32b0 <flash_send_addr>
    34a4:	f09ff06f          	j	33ac <flash_mspi_read_ram+0x6c>

000034a8 <flash_wait_done>:
    34a8:	1141                	c.addi	sp,-16
    34aa:	4515                	c.li	a0,5
    34ac:	c606                	c.swsp	ra,12(sp)
    34ae:	3599                	c.jal	32f4 <flash_send_cmd>
    34b0:	009896b7          	lui	a3,0x989
    34b4:	68068693          	addi	a3,a3,1664 # 989680 <FLASH_SIZE+0x889680>
    34b8:	80140737          	lui	a4,0x80140
    34bc:	10070023          	sb	zero,256(a4) # 80140100 <_DATA_LMA_START+0x60132780>
    34c0:	10270783          	lb	a5,258(a4)
    34c4:	fe07fe5b          	bbs	a5,0,34c0 <flash_wait_done+0x18>
    34c8:	10070783          	lb	a5,256(a4)
    34cc:	0007f45b          	bbc	a5,0,34d4 <flash_wait_done+0x2c>
    34d0:	16fd                	c.addi	a3,-1
    34d2:	f6ed                	c.bnez	a3,34bc <flash_wait_done+0x14>
    34d4:	80140737          	lui	a4,0x80140
    34d8:	10170783          	lb	a5,257(a4) # 80140101 <_DATA_LMA_START+0x60132781>
    34dc:	0ff7f793          	andi	a5,a5,255
    34e0:	0107e793          	ori	a5,a5,16
    34e4:	10f700a3          	sb	a5,257(a4)
    34e8:	40b2                	c.lwsp	ra,12(sp)
    34ea:	0141                	c.addi	sp,16
    34ec:	00008067          	ret

000034f0 <flash_mspi_write_ram.constprop.63>:
    34f0:	1101                	c.addi	sp,-32
    34f2:	cc22                	c.swsp	s0,24(sp)
    34f4:	ca26                	c.swsp	s1,20(sp)
    34f6:	c84a                	c.swsp	s2,16(sp)
    34f8:	c64e                	c.swsp	s3,12(sp)
    34fa:	ce06                	c.swsp	ra,28(sp)
    34fc:	892a                	c.mv	s2,a0
    34fe:	e42007b7          	lui	a5,0xe4200
    3502:	4705                	c.li	a4,1
    3504:	84ae                	c.mv	s1,a1
    3506:	89b2                	c.mv	s3,a2
    3508:	8436                	c.mv	s0,a3
    350a:	80140537          	lui	a0,0x80140
    350e:	c398                	c.sw	a4,0(a5)
    3510:	10250783          	lb	a5,258(a0) # 80140102 <_DATA_LMA_START+0x60132782>
    3514:	fe07fe5b          	bbs	a5,0,3510 <flash_mspi_write_ram.constprop.63+0x20>
    3518:	10150783          	lb	a5,257(a0)
    351c:	80140737          	lui	a4,0x80140
    3520:	0ff7f793          	andi	a5,a5,255
    3524:	0107e793          	ori	a5,a5,16
    3528:	10f500a3          	sb	a5,257(a0)
    352c:	32870783          	lb	a5,808(a4) # 80140328 <_DATA_LMA_START+0x601329a8>
    3530:	be37fe5b          	bbc	a5,3,352c <flash_mspi_write_ram.constprop.63+0x3c>
    3534:	10170783          	lb	a5,257(a4)
    3538:	4519                	c.li	a0,6
    353a:	0fd7f793          	andi	a5,a5,253
    353e:	10f700a3          	sb	a5,257(a4)
    3542:	10170783          	lb	a5,257(a4)
    3546:	0f37f793          	andi	a5,a5,243
    354a:	10f700a3          	sb	a5,257(a4)
    354e:	335d                	c.jal	32f4 <flash_send_cmd>
    3550:	01200533          	add	a0,zero,s2
    3554:	da1ff0ef          	jal	ra,32f4 <flash_send_cmd>
    3558:	00900533          	add	a0,zero,s1
    355c:	d55ff0ef          	jal	ra,32b0 <flash_send_addr>
    3560:	c015                	c.beqz	s0,3584 <flash_mspi_write_ram.constprop.63+0x94>
    3562:	864e                	c.mv	a2,s3
    3564:	008986b3          	add	a3,s3,s0
    3568:	80140737          	lui	a4,0x80140
    356c:	00064783          	lbu	a5,0(a2)
    3570:	10f70023          	sb	a5,256(a4) # 80140100 <_DATA_LMA_START+0x60132780>
    3574:	10270783          	lb	a5,258(a4)
    3578:	fe07fe5b          	bbs	a5,0,3574 <flash_mspi_write_ram.constprop.63+0x84>
    357c:	00160613          	addi	a2,a2,1
    3580:	fec696e3          	bne	a3,a2,356c <flash_mspi_write_ram.constprop.63+0x7c>
    3584:	80140737          	lui	a4,0x80140
    3588:	10170783          	lb	a5,257(a4) # 80140101 <_DATA_LMA_START+0x60132781>
    358c:	0ff7f793          	andi	a5,a5,255
    3590:	0107e793          	ori	a5,a5,16
    3594:	10f700a3          	sb	a5,257(a4)
    3598:	f11ff0ef          	jal	ra,34a8 <flash_wait_done>
    359c:	0001                	c.nop
    359e:	0001                	c.nop
    35a0:	0001                	c.nop
    35a2:	0001                	c.nop
    35a4:	0001                	c.nop
    35a6:	e42007b7          	lui	a5,0xe4200
    35aa:	0007a023          	sw	zero,0(a5) # e4200000 <_DATA_LMA_START+0xc41f2680>
    35ae:	40f2                	c.lwsp	ra,28(sp)
    35b0:	4462                	c.lwsp	s0,24(sp)
    35b2:	44d2                	c.lwsp	s1,20(sp)
    35b4:	4942                	c.lwsp	s2,16(sp)
    35b6:	49b2                	c.lwsp	s3,12(sp)
    35b8:	6105                	c.addi16sp	sp,32
    35ba:	8082                	c.jr	ra

000035bc <clock_set_32k_tick>:
    35bc:	801406b7          	lui	a3,0x80140
    35c0:	20a68703          	lb	a4,522(a3) # 8014020a <_DATA_LMA_START+0x6013288a>
    35c4:	801407b7          	lui	a5,0x80140
    35c8:	0ff77713          	andi	a4,a4,255
    35cc:	00176713          	ori	a4,a4,1
    35d0:	20e68523          	sb	a4,522(a3)
    35d4:	20b78703          	lb	a4,523(a5) # 8014020b <_DATA_LMA_START+0x6013288b>
    35d8:	20b78693          	addi	a3,a5,523
    35dc:	fe677c5b          	bbs	a4,6,35d4 <clock_set_32k_tick+0x18>
    35e0:	20a7a623          	sw	a0,524(a5)
    35e4:	47a1                	c.li	a5,8
    35e6:	00f68023          	sb	a5,0(a3)
    35ea:	0001                	c.nop
    35ec:	0001                	c.nop
    35ee:	0001                	c.nop
    35f0:	0001                	c.nop
    35f2:	0001                	c.nop
    35f4:	0001                	c.nop
    35f6:	0001                	c.nop
    35f8:	0001                	c.nop
    35fa:	0001                	c.nop
    35fc:	0001                	c.nop
    35fe:	0001                	c.nop
    3600:	0001                	c.nop
    3602:	0001                	c.nop
    3604:	0001                	c.nop
    3606:	0001                	c.nop
    3608:	00000013          	nop
    360c:	80140737          	lui	a4,0x80140
    3610:	20b70783          	lb	a5,523(a4) # 8014020b <_DATA_LMA_START+0x6013288b>
    3614:	fe37fe5b          	bbs	a5,3,3610 <clock_set_32k_tick+0x54>
    3618:	00008067          	ret

0000361c <clock_get_32k_tick>:
    361c:	1141                	c.addi	sp,-16
    361e:	c422                	c.swsp	s0,8(sp)
    3620:	00112623          	sw	ra,12(sp)
    3624:	20004097          	auipc	ra,0x20004
    3628:	5e0080e7          	jalr	1504(ra) # 20007c04 <analog_read_reg32.constprop.65>
    362c:	00a00433          	add	s0,zero,a0
    3630:	20004097          	auipc	ra,0x20004
    3634:	5d4080e7          	jalr	1492(ra) # 20007c04 <analog_read_reg32.constprop.65>
    3638:	40850733          	sub	a4,a0,s0
    363c:	842a                	c.mv	s0,a0
    363e:	be17695b          	bnec	a4,1,3630 <clock_get_32k_tick+0x14>
    3642:	40b2                	c.lwsp	ra,12(sp)
    3644:	4422                	c.lwsp	s0,8(sp)
    3646:	0141                	c.addi	sp,16
    3648:	00008067          	ret

0000364c <smp_quickResolvPrivateAddr>:
    364c:	30002873          	csrr	a6,mstatus
    3650:	00887813          	andi	a6,a6,8
    3654:	00080463          	beqz	a6,365c <smp_quickResolvPrivateAddr+0x10>
    3658:	300477f3          	csrrci	a5,mstatus,8
    365c:	411c                	c.lw	a5,0(a0)
    365e:	80160637          	lui	a2,0x80160
    3662:	0af62a23          	sw	a5,180(a2) # 801600b4 <_DATA_LMA_START+0x60152734>
    3666:	415c                	c.lw	a5,4(a0)
    3668:	00000737          	lui	a4,0x0
    366c:	0af62c23          	sw	a5,184(a2)
    3670:	451c                	c.lw	a5,8(a0)
    3672:	15870713          	addi	a4,a4,344 # 158 <_RETENTION_RESET_VMA_END>
    3676:	0af62e23          	sw	a5,188(a2)
    367a:	455c                	c.lw	a5,12(a0)
    367c:	0cf62023          	sw	a5,192(a2)
    3680:	0045c783          	lbu	a5,4(a1)
    3684:	0055c683          	lbu	a3,5(a1)
    3688:	0035c503          	lbu	a0,3(a1)
    368c:	06c2                	c.slli	a3,0x10
    368e:	07a2                	c.slli	a5,0x8
    3690:	8fd5                	c.or	a5,a3
    3692:	8fc9                	c.or	a5,a0
    3694:	c31c                	c.sw	a5,0(a4)
    3696:	0ce62223          	sw	a4,196(a2)
    369a:	00072223          	sw	zero,4(a4)
    369e:	00072423          	sw	zero,8(a4)
    36a2:	00072623          	sw	zero,12(a4)
    36a6:	4785                	c.li	a5,1
    36a8:	801606b7          	lui	a3,0x80160
    36ac:	0af62823          	sw	a5,176(a2)
    36b0:	0b06a783          	lw	a5,176(a3) # 801600b0 <_DATA_LMA_START+0x60152730>
    36b4:	fe07fe5b          	bbs	a5,0,36b0 <smp_quickResolvPrivateAddr+0x64>
    36b8:	00080463          	beqz	a6,36c0 <smp_quickResolvPrivateAddr+0x74>
    36bc:	30082873          	csrrs	a6,mstatus,a6
    36c0:	0015c503          	lbu	a0,1(a1)
    36c4:	0025c683          	lbu	a3,2(a1)
    36c8:	0005c603          	lbu	a2,0(a1)
    36cc:	06c2                	c.slli	a3,0x10
    36ce:	4b1c                	c.lw	a5,16(a4)
    36d0:	0522                	c.slli	a0,0x8
    36d2:	8d55                	c.or	a0,a3
    36d4:	8d51                	c.or	a0,a2
    36d6:	5c07a7db          	bfoz	a5,a5,23,0
    36da:	8d1d                	c.sub	a0,a5
    36dc:	00153513          	seqz	a0,a0
    36e0:	00008067          	ret

000036e4 <blt_ll_searchAddr_in_ResolvingList>:
    36e4:	1101                	c.addi	sp,-32
    36e6:	ce06                	c.swsp	ra,28(sp)
    36e8:	cc22                	c.swsp	s0,24(sp)
    36ea:	ca26                	c.swsp	s1,20(sp)
    36ec:	c84a                	c.swsp	s2,16(sp)
    36ee:	c64e                	c.swsp	s3,12(sp)
    36f0:	c452                	c.swsp	s4,8(sp)
    36f2:	c256                	c.swsp	s5,4(sp)
    36f4:	0015545b          	beqc	a0,1,36fc <blt_ll_searchAddr_in_ResolvingList+0x18>
    36f8:	4981                	c.li	s3,0
    36fa:	a099                	c.j	3740 <blt_ll_searchAddr_in_ResolvingList+0x5c>
    36fc:	00558783          	lb	a5,5(a1)
    3700:	0c07f793          	andi	a5,a5,192
    3704:	fe07ea5b          	bnec	a5,64,36f8 <blt_ll_searchAddr_in_ResolvingList+0x14>
    3708:	00000437          	lui	s0,0x0
    370c:	17840793          	addi	a5,s0,376 # 178 <_AES_VMA_END>
    3710:	66d7c783          	lbu	a5,1645(a5)
    3714:	17840413          	addi	s0,s0,376
    3718:	4901                	c.li	s2,0
    371a:	dff9                	c.beqz	a5,36f8 <blt_ll_searchAddr_in_ResolvingList+0x14>
    371c:	84ae                	c.mv	s1,a1
    371e:	4ae1                	c.li	s5,24
    3720:	64440a13          	addi	s4,s0,1604
    3724:	89d2                	c.mv	s3,s4
    3726:	c55919ff          	maddr32	s3,s2,s5
    372a:	66c44783          	lbu	a5,1644(s0)
    372e:	85a6                	c.mv	a1,s1
    3730:	854e                	c.mv	a0,s3
    3732:	fcf953e3          	bge	s2,a5,36f8 <blt_ll_searchAddr_in_ResolvingList+0x14>
    3736:	0905                	c.addi	s2,1
    3738:	f15ff0ef          	jal	ra,364c <smp_quickResolvPrivateAddr>
    373c:	fe0504e3          	beqz	a0,3724 <blt_ll_searchAddr_in_ResolvingList+0x40>
    3740:	40f2                	c.lwsp	ra,28(sp)
    3742:	4462                	c.lwsp	s0,24(sp)
    3744:	854e                	c.mv	a0,s3
    3746:	44d2                	c.lwsp	s1,20(sp)
    3748:	4942                	c.lwsp	s2,16(sp)
    374a:	49b2                	c.lwsp	s3,12(sp)
    374c:	4a22                	c.lwsp	s4,8(sp)
    374e:	4a92                	c.lwsp	s5,4(sp)
    3750:	6105                	c.addi16sp	sp,32
    3752:	8082                	c.jr	ra

00003754 <ll_searchAddr_in_WhiteList_and_ResolvingList>:
    3754:	1141                	c.addi	sp,-16
    3756:	c422                	c.swsp	s0,8(sp)
    3758:	c226                	c.swsp	s1,4(sp)
    375a:	c606                	c.swsp	ra,12(sp)
    375c:	842a                	c.mv	s0,a0
    375e:	84ae                	c.mv	s1,a1
    3760:	f65fd0ef          	jal	ra,16c4 <blt_ll_searchAddr_in_WhiteList>
    3764:	e901                	c.bnez	a0,3774 <ll_searchAddr_in_WhiteList_and_ResolvingList+0x20>
    3766:	8522                	c.mv	a0,s0
    3768:	4422                	c.lwsp	s0,8(sp)
    376a:	40b2                	c.lwsp	ra,12(sp)
    376c:	85a6                	c.mv	a1,s1
    376e:	4492                	c.lwsp	s1,4(sp)
    3770:	0141                	c.addi	sp,16
    3772:	bf8d                	c.j	36e4 <blt_ll_searchAddr_in_ResolvingList>
    3774:	40b2                	c.lwsp	ra,12(sp)
    3776:	4422                	c.lwsp	s0,8(sp)
    3778:	4492                	c.lwsp	s1,4(sp)
    377a:	0141                	c.addi	sp,16
    377c:	00008067          	ret

00003780 <blt_ll_getRealTxFifoNumber>:
    3780:	300027f3          	csrr	a5,mstatus
    3784:	8ba1                	c.andi	a5,8
    3786:	cb8d                	c.beqz	a5,37b8 <blt_ll_getRealTxFifoNumber+0x38>
    3788:	30047773          	csrrci	a4,mstatus,8
    378c:	000006b7          	lui	a3,0x0
    3790:	80100637          	lui	a2,0x80100
    3794:	17868693          	addi	a3,a3,376 # 178 <_AES_VMA_END>
    3798:	50060703          	lb	a4,1280(a2) # 80100500 <_DATA_LMA_START+0x600f2b80>
    379c:	48668503          	lb	a0,1158(a3)
    37a0:	50160603          	lb	a2,1281(a2)
    37a4:	48768683          	lb	a3,1159(a3)
    37a8:	8f11                	c.sub	a4,a2
    37aa:	8d15                	c.sub	a0,a3
    37ac:	8b7d                	c.andi	a4,31
    37ae:	897d                	c.andi	a0,31
    37b0:	953a                	c.add	a0,a4
    37b2:	3007a7f3          	csrrs	a5,mstatus,a5
    37b6:	8082                	c.jr	ra
    37b8:	00000737          	lui	a4,0x0
    37bc:	801006b7          	lui	a3,0x80100
    37c0:	17870713          	addi	a4,a4,376 # 178 <_AES_VMA_END>
    37c4:	50068783          	lb	a5,1280(a3) # 80100500 <_DATA_LMA_START+0x600f2b80>
    37c8:	48670503          	lb	a0,1158(a4)
    37cc:	50168683          	lb	a3,1281(a3)
    37d0:	48770703          	lb	a4,1159(a4)
    37d4:	8f95                	c.sub	a5,a3
    37d6:	8d19                	c.sub	a0,a4
    37d8:	8bfd                	c.andi	a5,31
    37da:	897d                	c.andi	a0,31
    37dc:	953e                	c.add	a0,a5
    37de:	8082                	c.jr	ra

000037e0 <blc_ll_getTxFifoNumber>:
    37e0:	300027f3          	csrr	a5,mstatus
    37e4:	8ba1                	c.andi	a5,8
    37e6:	cf9d                	c.beqz	a5,3824 <blc_ll_getTxFifoNumber+0x44>
    37e8:	30047773          	csrrci	a4,mstatus,8
    37ec:	000006b7          	lui	a3,0x0
    37f0:	80100637          	lui	a2,0x80100
    37f4:	17868693          	addi	a3,a3,376 # 178 <_AES_VMA_END>
    37f8:	50060703          	lb	a4,1280(a2) # 80100500 <_DATA_LMA_START+0x600f2b80>
    37fc:	48668503          	lb	a0,1158(a3)
    3800:	50160603          	lb	a2,1281(a2)
    3804:	48768683          	lb	a3,1159(a3)
    3808:	8f11                	c.sub	a4,a2
    380a:	8d15                	c.sub	a0,a3
    380c:	8b7d                	c.andi	a4,31
    380e:	897d                	c.andi	a0,31
    3810:	953a                	c.add	a0,a4
    3812:	e709                	c.bnez	a4,381c <blc_ll_getTxFifoNumber+0x3c>
    3814:	00150513          	addi	a0,a0,1
    3818:	0ff57513          	andi	a0,a0,255
    381c:	3007a7f3          	csrrs	a5,mstatus,a5
    3820:	00008067          	ret
    3824:	00000737          	lui	a4,0x0
    3828:	801006b7          	lui	a3,0x80100
    382c:	17870713          	addi	a4,a4,376 # 178 <_AES_VMA_END>
    3830:	50068783          	lb	a5,1280(a3) # 80100500 <_DATA_LMA_START+0x600f2b80>
    3834:	48670503          	lb	a0,1158(a4)
    3838:	50168683          	lb	a3,1281(a3)
    383c:	48770703          	lb	a4,1159(a4)
    3840:	8f95                	c.sub	a5,a3
    3842:	8d19                	c.sub	a0,a4
    3844:	8bfd                	c.andi	a5,31
    3846:	897d                	c.andi	a0,31
    3848:	953e                	c.add	a0,a5
    384a:	c399                	c.beqz	a5,3850 <blc_ll_getTxFifoNumber+0x70>
    384c:	00008067          	ret
    3850:	0505                	c.addi	a0,1
    3852:	0ff57513          	andi	a0,a0,255
    3856:	8082                	c.jr	ra

00003858 <cpu_stall_WakeUp_By_RF_SystemTick>:
    3858:	300027f3          	csrr	a5,mstatus
    385c:	8ba1                	c.andi	a5,8
    385e:	c399                	c.beqz	a5,3864 <cpu_stall_WakeUp_By_RF_SystemTick+0xc>
    3860:	30047773          	csrrci	a4,mstatus,8
    3864:	e4002737          	lui	a4,0xe4002
    3868:	801418b7          	lui	a7,0x80141
    386c:	80140837          	lui	a6,0x80140
    3870:	a1c89e03          	lh	t3,-1508(a7) # 80140a1c <_DATA_LMA_START+0x6013309c>
    3874:	20880e83          	lb	t4,520(a6) # 80140208 <_DATA_LMA_START+0x60132888>
    3878:	00072303          	lw	t1,0(a4) # e4002000 <_DATA_LMA_START+0xc3ff4680>
    387c:	4314                	c.lw	a3,0(a4)
    387e:	6f11                	c.lui	t5,0x4
    3880:	0026e693          	ori	a3,a3,2
    3884:	c314                	c.sw	a3,0(a4)
    3886:	4314                	c.lw	a3,0(a4)
    3888:	01e6e6b3          	or	a3,a3,t5
    388c:	00d72023          	sw	a3,0(a4)
    3890:	a0b89e23          	sh	a1,-1508(a7)
    3894:	00057c5b          	bbc	a0,0,38ac <cpu_stall_WakeUp_By_RF_SystemTick+0x54>
    3898:	20c82223          	sw	a2,516(a6)
    389c:	20880703          	lb	a4,520(a6)
    38a0:	0ff77713          	andi	a4,a4,255
    38a4:	00176713          	ori	a4,a4,1
    38a8:	20e80423          	sb	a4,520(a6)
    38ac:	10500073          	wfi
    38b0:	80141837          	lui	a6,0x80141
    38b4:	577d                	c.li	a4,-1
    38b6:	a2e81023          	sh	a4,-1504(a6) # 80140a20 <_DATA_LMA_START+0x601330a0>
    38ba:	80140537          	lui	a0,0x80140
    38be:	e4002737          	lui	a4,0xe4002
    38c2:	4685                	c.li	a3,1
    38c4:	20d504a3          	sb	a3,521(a0) # 80140209 <_DATA_LMA_START+0x60132889>
    38c8:	75f1                	c.lui	a1,0xffffc
    38ca:	4310                	c.lw	a2,0(a4)
    38cc:	15f5                	c.addi	a1,-3
    38ce:	8e6d                	c.and	a2,a1
    38d0:	c310                	c.sw	a2,0(a4)
    38d2:	4314                	c.lw	a3,0(a4)
    38d4:	0066e6b3          	or	a3,a3,t1
    38d8:	c314                	c.sw	a3,0(a4)
    38da:	a1c81e23          	sh	t3,-1508(a6)
    38de:	21d50423          	sb	t4,520(a0)
    38e2:	c399                	c.beqz	a5,38e8 <cpu_stall_WakeUp_By_RF_SystemTick+0x90>
    38e4:	3007a7f3          	csrrs	a5,mstatus,a5
    38e8:	4501                	c.li	a0,0
    38ea:	8082                	c.jr	ra

000038ec <analog_write_reg8>:
    38ec:	30002673          	csrr	a2,mstatus
    38f0:	8a21                	c.andi	a2,8
    38f2:	c219                	c.beqz	a2,38f8 <analog_write_reg8+0xc>
    38f4:	300477f3          	csrrci	a5,mstatus,8
    38f8:	80140737          	lui	a4,0x80140
    38fc:	18a70023          	sb	a0,384(a4) # 80140180 <_DATA_LMA_START+0x60132800>
    3900:	18b70223          	sb	a1,388(a4)
    3904:	06000693          	li	a3,96
    3908:	801407b7          	lui	a5,0x80140
    390c:	18d70123          	sb	a3,386(a4)
    3910:	18278703          	lb	a4,386(a5) # 80140182 <_DATA_LMA_START+0x60132802>
    3914:	fe777e5b          	bbs	a4,7,3910 <analog_write_reg8+0x24>
    3918:	18078123          	sb	zero,386(a5)
    391c:	00060463          	beqz	a2,3924 <analog_write_reg8+0x38>
    3920:	30062673          	csrrs	a2,mstatus,a2
    3924:	00008067          	ret

00003928 <rf_drv_ble_init>:
    3928:	1141                	c.addi	sp,-16
    392a:	6789                	c.lui	a5,0x2
    392c:	c422                	c.swsp	s0,8(sp)
    392e:	c226                	c.swsp	s1,4(sp)
    3930:	80141437          	lui	s0,0x80141
    3934:	c04a                	c.swsp	s2,0(sp)
    3936:	c606                	c.swsp	ra,12(sp)
    3938:	99b78793          	addi	a5,a5,-1637 # 199b <blt_brx_timing_update+0x93>
    393c:	ecf41923          	sh	a5,-302(s0) # 80140ed2 <_DATA_LMA_START+0x60133552>
    3940:	6905                	c.lui	s2,0x1
    3942:	47b9                	c.li	a5,14
    3944:	c6f40da3          	sb	a5,-901(s0)
    3948:	90e90793          	addi	a5,s2,-1778 # 90e <smpOwnParingConfirm+0xe>
    394c:	e4f41523          	sh	a5,-438(s0)
    3950:	080c17b7          	lui	a5,0x80c1
    3954:	649d                	c.lui	s1,0x7
    3956:	90e78793          	addi	a5,a5,-1778 # 80c090e <FLASH_SIZE+0x7fc090e>
    395a:	e4f42a23          	sw	a5,-428(s0)
    395e:	35048793          	addi	a5,s1,848 # 7350 <_RAMCODE_VMA_END+0xb4e>
    3962:	c6f41b23          	sh	a5,-906(s0)
    3966:	6799                	c.lui	a5,0x6
    3968:	58678793          	addi	a5,a5,1414 # 6586 <entry_irq2+0x1a>
    396c:	4591                	c.li	a1,4
    396e:	08b00513          	li	a0,139
    3972:	82f41d23          	sh	a5,-1990(s0)
    3976:	3f9d                	c.jal	38ec <analog_write_reg8>
    3978:	06100793          	li	a5,97
    397c:	e2f40ea3          	sb	a5,-451(s0)
    3980:	232017b7          	lui	a5,0x23201
    3984:	a1678793          	addi	a5,a5,-1514 # 23200a16 <_DATA_LMA_START+0x31f3096>
    3988:	e2f42023          	sw	a5,-480(s0)
    398c:	f8400793          	li	a5,-124
    3990:	c2f40023          	sb	a5,-992(s0)
    3994:	c2040123          	sb	zero,-990(s0)
    3998:	4785                	c.li	a5,1
    399a:	c4f406a3          	sb	a5,-947(s0)
    399e:	4779                	c.li	a4,30
    39a0:	c4e40723          	sb	a4,-946(s0)
    39a4:	eb790913          	addi	s2,s2,-329
    39a8:	c3241b23          	sh	s2,-970(s0)
    39ac:	1c448493          	addi	s1,s1,452
    39b0:	c2941c23          	sh	s1,-968(s0)
    39b4:	c6f409a3          	sb	a5,-909(s0)
    39b8:	03800793          	li	a5,56
    39bc:	c6f40ca3          	sb	a5,-903(s0)
    39c0:	6795                	c.lui	a5,0x5
    39c2:	c8040d23          	sb	zero,-870(s0)
    39c6:	b3978793          	addi	a5,a5,-1223 # 4b39 <blt_sdk_main_loop+0x19>
    39ca:	ccf41123          	sh	a5,-830(s0)
    39ce:	796e67b7          	lui	a5,0x796e6
    39d2:	25678793          	addi	a5,a5,598 # 796e6256 <_DATA_LMA_START+0x596d88d6>
    39d6:	ccf42223          	sw	a5,-828(s0)
    39da:	444617b7          	lui	a5,0x44461
    39de:	81f78793          	addi	a5,a5,-2017 # 4446081f <_DATA_LMA_START+0x24452e9f>
    39e2:	80f42023          	sw	a5,-2048(s0)
    39e6:	4f500793          	li	a5,1269
    39ea:	80f41223          	sh	a5,-2044(s0)
    39ee:	80042423          	sw	zero,-2040(s0)
    39f2:	47fd                	c.li	a5,31
    39f4:	c4f40723          	sb	a5,-946(s0)
    39f8:	03600793          	li	a5,54
    39fc:	82f40823          	sb	a5,-2000(s0)
    3a00:	a0040323          	sb	zero,-1530(s0)
    3a04:	05000793          	li	a5,80
    3a08:	a0f40623          	sb	a5,-1524(s0)
    3a0c:	a0040723          	sb	zero,-1522(s0)
    3a10:	a0040823          	sb	zero,-1520(s0)
    3a14:	c2040783          	lb	a5,-992(s0)
    3a18:	0bf7f793          	andi	a5,a5,191
    3a1c:	c2f40023          	sb	a5,-992(s0)
    3a20:	40b2                	c.lwsp	ra,12(sp)
    3a22:	4422                	c.lwsp	s0,8(sp)
    3a24:	4492                	c.lwsp	s1,4(sp)
    3a26:	4902                	c.lwsp	s2,0(sp)
    3a28:	0141                	c.addi	sp,16
    3a2a:	8082                	c.jr	ra

00003a2c <blt_brx_sleep>:
    3a2c:	1101                	c.addi	sp,-32
    3a2e:	cc22                	c.swsp	s0,24(sp)
    3a30:	00000437          	lui	s0,0x0
    3a34:	17840413          	addi	s0,s0,376 # 178 <_AES_VMA_END>
    3a38:	ce06                	c.swsp	ra,28(sp)
    3a3a:	ca26                	c.swsp	s1,20(sp)
    3a3c:	c84a                	c.swsp	s2,16(sp)
    3a3e:	46e44703          	lbu	a4,1134(s0)
    3a42:	46041e23          	sh	zero,1148(s0)
    3a46:	c30d                	c.beqz	a4,3a68 <blt_brx_sleep+0x3c>
    3a48:	801407b7          	lui	a5,0x80140
    3a4c:	2007a783          	lw	a5,512(a5) # 80140200 <_DATA_LMA_START+0x60132880>
    3a50:	6699                	c.lui	a3,0x6
    3a52:	0e068693          	addi	a3,a3,224 # 60e0 <entry_irq17>
    3a56:	47442603          	lw	a2,1140(s0)
    3a5a:	97b6                	c.add	a5,a3
    3a5c:	40c787b3          	sub	a5,a5,a2
    3a60:	040006b7          	lui	a3,0x4000
    3a64:	0ad7ec63          	bltu	a5,a3,3b1c <blt_brx_sleep+0xf0>
    3a68:	16140783          	lb	a5,353(s0)
    3a6c:	44041b23          	sh	zero,1110(s0)
    3a70:	46040623          	sb	zero,1132(s0)
    3a74:	0ff7f613          	andi	a2,a5,255
    3a78:	45044683          	lbu	a3,1104(s0)
    3a7c:	0a165c5b          	beqc	a2,1,3b34 <blt_brx_sleep+0x108>
    3a80:	38442783          	lw	a5,900(s0)
    3a84:	3a442603          	lw	a2,932(s0)
    3a88:	40c787b3          	sub	a5,a5,a2
    3a8c:	50f42c23          	sw	a5,1304(s0)
    3a90:	4836fc5b          	bbs	a3,3,3b28 <blt_brx_sleep+0xfc>
    3a94:	20000937          	lui	s2,0x20000
    3a98:	47044783          	lbu	a5,1136(s0)
    3a9c:	eb95                	c.bnez	a5,3ad0 <blt_brx_sleep+0xa4>
    3a9e:	47e44783          	lbu	a5,1150(s0)
    3aa2:	e79d                	c.bnez	a5,3ad0 <blt_brx_sleep+0xa4>
    3aa4:	16140783          	lb	a5,353(s0)
    3aa8:	0ff7f793          	andi	a5,a5,255
    3aac:	2087d25b          	beqc	a5,8,3cb0 <blt_brx_sleep+0x284>
    3ab0:	16140783          	lb	a5,353(s0)
    3ab4:	0ff7f793          	andi	a5,a5,255
    3ab8:	0087dc5b          	beqc	a5,8,3ad0 <blt_brx_sleep+0xa4>
    3abc:	4a944783          	lbu	a5,1193(s0)
    3ac0:	00079863          	bnez	a5,3ad0 <blt_brx_sleep+0xa4>
    3ac4:	50042023          	sw	zero,1280(s0)
    3ac8:	50042223          	sw	zero,1284(s0)
    3acc:	50042423          	sw	zero,1288(s0)
    3ad0:	cb11                	c.beqz	a4,3ae4 <blt_brx_sleep+0xb8>
    3ad2:	47442483          	lw	s1,1140(s0)
    3ad6:	51842783          	lw	a5,1304(s0)
    3ada:	40000737          	lui	a4,0x40000
    3ade:	8f85                	c.sub	a5,s1
    3ae0:	14e7e063          	bltu	a5,a4,3c20 <blt_brx_sleep+0x1f4>
    3ae4:	46f44783          	lbu	a5,1135(s0)
    3ae8:	18079063          	bnez	a5,3c68 <blt_brx_sleep+0x23c>
    3aec:	51842483          	lw	s1,1304(s0)
    3af0:	46040823          	sb	zero,1136(s0)
    3af4:	16140783          	lb	a5,353(s0)
    3af8:	0ff7f793          	andi	a5,a5,255
    3afc:	0417d85b          	beqc	a5,1,3b4c <blt_brx_sleep+0x120>
    3b00:	16140783          	lb	a5,353(s0)
    3b04:	0ff7f793          	andi	a5,a5,255
    3b08:	1087d65b          	beqc	a5,8,3c14 <blt_brx_sleep+0x1e8>
    3b0c:	fff00793          	li	a5,-1
    3b10:	460407a3          	sb	zero,1135(s0)
    3b14:	440408a3          	sb	zero,1105(s0)
    3b18:	44f41d23          	sh	a5,1114(s0)
    3b1c:	40f2                	c.lwsp	ra,28(sp)
    3b1e:	4462                	c.lwsp	s0,24(sp)
    3b20:	44d2                	c.lwsp	s1,20(sp)
    3b22:	4942                	c.lwsp	s2,16(sp)
    3b24:	6105                	c.addi16sp	sp,32
    3b26:	8082                	c.jr	ra
    3b28:	4785                	c.li	a5,1
    3b2a:	46442903          	lw	s2,1124(s0)
    3b2e:	46f40623          	sb	a5,1132(s0)
    3b32:	b79d                	c.j	3a98 <blt_brx_sleep+0x6c>
    3b34:	51042603          	lw	a2,1296(s0)
    3b38:	50c42c23          	sw	a2,1304(s0)
    3b3c:	b426fc5b          	bbc	a3,2,3a94 <blt_brx_sleep+0x68>
    3b40:	46042903          	lw	s2,1120(s0)
    3b44:	46f40623          	sb	a5,1132(s0)
    3b48:	f51ff06f          	j	3a98 <blt_brx_sleep+0x6c>
    3b4c:	45040783          	lb	a5,1104(s0)
    3b50:	ba07f85b          	bbc	a5,0,3b00 <blt_brx_sleep+0xd4>
    3b54:	51442783          	lw	a5,1300(s0)
    3b58:	4601                	c.li	a2,0
    3b5a:	4581                	c.li	a1,0
    3b5c:	4539                	c.li	a0,14
    3b5e:	46942c23          	sw	s1,1144(s0)
    3b62:	9782                	c.jalr	a5
    3b64:	823fa72b          	lwgp	a4,-2016 # 80020 <_BSS_VMA_START>
    3b68:	0ff00793          	li	a5,255
    3b6c:	0cf70a63          	beq	a4,a5,3c40 <blt_brx_sleep+0x214>
    3b70:	46c44783          	lbu	a5,1132(s0)
    3b74:	4501                	c.li	a0,0
    3b76:	cf89                	c.beqz	a5,3b90 <blt_brx_sleep+0x164>
    3b78:	801407b7          	lui	a5,0x80140
    3b7c:	2007a783          	lw	a5,512(a5) # 80140200 <_DATA_LMA_START+0x60132880>
    3b80:	40000737          	lui	a4,0x40000
    3b84:	40f487b3          	sub	a5,s1,a5
    3b88:	41278933          	sub	s2,a5,s2
    3b8c:	24e96263          	bltu	s2,a4,3dd0 <blt_brx_sleep+0x3a4>
    3b90:	45140783          	lb	a5,1105(s0)
    3b94:	47c45583          	lhu	a1,1148(s0)
    3b98:	0207e793          	ori	a5,a5,32
    3b9c:	0ff7f793          	andi	a5,a5,255
    3ba0:	68842703          	lw	a4,1672(s0)
    3ba4:	8ddd                	c.or	a1,a5
    3ba6:	8626                	c.mv	a2,s1
    3ba8:	9702                	c.jalr	a4
    3baa:	801417b7          	lui	a5,0x80141
    3bae:	c62a                	c.swsp	a0,12(sp)
    3bb0:	c0000737          	lui	a4,0xc0000
    3bb4:	b0e7a223          	sw	a4,-1276(a5) # 80140b04 <_DATA_LMA_START+0x60133184>
    3bb8:	47b2                	c.lwsp	a5,12(sp)
    3bba:	01e7f75b          	bbc	a5,30,3bc8 <blt_brx_sleep+0x19c>
    3bbe:	177d                	c.addi	a4,-1
    3bc0:	8ff9                	c.and	a5,a4
    3bc2:	c63e                	c.swsp	a5,12(sp)
    3bc4:	46040923          	sb	zero,1138(s0)
    3bc8:	d61ff0ef          	jal	ra,3928 <rf_drv_ble_init>
    3bcc:	51442783          	lw	a5,1300(s0)
    3bd0:	4485                	c.li	s1,1
    3bd2:	4605                	c.li	a2,1
    3bd4:	006c                	c.addi4spn	a1,sp,12
    3bd6:	453d                	c.li	a0,15
    3bd8:	06940423          	sb	s1,104(s0)
    3bdc:	9782                	c.jalr	a5
    3bde:	47b2                	c.lwsp	a5,12(sp)
    3be0:	00a7f713          	andi	a4,a5,10
    3be4:	0887565b          	beqc	a4,8,3c70 <blt_brx_sleep+0x244>
    3be8:	08000713          	li	a4,128
    3bec:	08e78263          	beq	a5,a4,3c70 <blt_brx_sleep+0x244>
    3bf0:	b017fe5b          	bbc	a5,1,3b0c <blt_brx_sleep+0xe0>
    3bf4:	46f44783          	lbu	a5,1135(s0)
    3bf8:	1e078263          	beqz	a5,3ddc <blt_brx_sleep+0x3b0>
    3bfc:	68c42783          	lw	a5,1676(s0)
    3c00:	c781                	c.beqz	a5,3c08 <blt_brx_sleep+0x1dc>
    3c02:	4505                	c.li	a0,1
    3c04:	000780e7          	jalr	a5
    3c08:	4785                	c.li	a5,1
    3c0a:	46f40823          	sb	a5,1136(s0)
    3c0e:	44f409a3          	sb	a5,1107(s0)
    3c12:	bded                	c.j	3b0c <blt_brx_sleep+0xe0>
    3c14:	45040783          	lb	a5,1104(s0)
    3c18:	ae17fa5b          	bbc	a5,1,3b0c <blt_brx_sleep+0xe0>
    3c1c:	f39ff06f          	j	3b54 <blt_brx_sleep+0x128>
    3c20:	16140783          	lb	a5,353(s0)
    3c24:	00100713          	li	a4,1
    3c28:	46e407a3          	sb	a4,1135(s0)
    3c2c:	0ff7f793          	andi	a5,a5,255
    3c30:	0087e45b          	bnec	a5,8,3c38 <blt_brx_sleep+0x20c>
    3c34:	46e408a3          	sb	a4,1137(s0)
    3c38:	4785                	c.li	a5,1
    3c3a:	46f40823          	sb	a5,1136(s0)
    3c3e:	bd5d                	c.j	3af4 <blt_brx_sleep+0xc8>
    3c40:	801407b7          	lui	a5,0x80140
    3c44:	2007a703          	lw	a4,512(a5) # 80140200 <_DATA_LMA_START+0x60132880>
    3c48:	77f1                	c.lui	a5,0xffffc
    3c4a:	85078793          	addi	a5,a5,-1968 # ffffb850 <_DATA_LMA_START+0xdffeded0>
    3c4e:	8f99                	c.sub	a5,a4
    3c50:	97a6                	c.add	a5,s1
    3c52:	40000737          	lui	a4,0x40000
    3c56:	00e7f563          	bgeu	a5,a4,3c60 <blt_brx_sleep+0x234>
    3c5a:	46842783          	lw	a5,1128(s0)
    3c5e:	8c9d                	c.sub	s1,a5
    3c60:	46d44503          	lbu	a0,1133(s0)
    3c64:	f2dff06f          	j	3b90 <blt_brx_sleep+0x164>
    3c68:	47442483          	lw	s1,1140(s0)
    3c6c:	fcdff06f          	j	3c38 <blt_brx_sleep+0x20c>
    3c70:	51442783          	lw	a5,1300(s0)
    3c74:	4605                	c.li	a2,1
    3c76:	006c                	c.addi4spn	a1,sp,12
    3c78:	4525                	c.li	a0,9
    3c7a:	45645483          	lhu	s1,1110(s0)
    3c7e:	9782                	c.jalr	a5
    3c80:	47e40703          	lb	a4,1150(s0)
    3c84:	16140783          	lb	a5,353(s0)
    3c88:	00170713          	addi	a4,a4,1 # 40000001 <_DATA_LMA_START+0x1fff2681>
    3c8c:	46e40f23          	sb	a4,1150(s0)
    3c90:	0ff7f793          	andi	a5,a5,255
    3c94:	1487da5b          	beqc	a5,8,3de8 <blt_brx_sleep+0x3bc>
    3c98:	4732                	c.lwsp	a4,12(sp)
    3c9a:	46040823          	sb	zero,1136(s0)
    3c9e:	08000793          	li	a5,128
    3ca2:	e6f715e3          	bne	a4,a5,3b0c <blt_brx_sleep+0xe0>
    3ca6:	4785                	c.li	a5,1
    3ca8:	16f40223          	sb	a5,356(s0)
    3cac:	e61ff06f          	j	3b0c <blt_brx_sleep+0xe0>
    3cb0:	a016f05b          	bbc	a3,1,3ab0 <blt_brx_sleep+0x84>
    3cb4:	39442703          	lw	a4,916(s0)
    3cb8:	44041c23          	sh	zero,1112(s0)
    3cbc:	00000793          	li	a5,0
    3cc0:	24071c63          	bnez	a4,3f18 <blt_brx_sleep+0x4ec>
    3cc4:	00100713          	li	a4,1
    3cc8:	44e40aa3          	sb	a4,1109(s0)
    3ccc:	45a41703          	lh	a4,1114(s0)
    3cd0:	3c0724db          	bfoz	s1,a4,15,0
    3cd4:	0097f663          	bgeu	a5,s1,3ce0 <blt_brx_sleep+0x2b4>
    3cd8:	3c07a4db          	bfoz	s1,a5,15,0
    3cdc:	00900733          	add	a4,zero,s1
    3ce0:	39042783          	lw	a5,912(s0)
    3ce4:	00148693          	addi	a3,s1,1
    3ce8:	02f68633          	mul	a2,a3,a5
    3cec:	44e41e23          	sh	a4,1116(s0)
    3cf0:	44e41f23          	sh	a4,1118(s0)
    3cf4:	00187737          	lui	a4,0x187
    3cf8:	a0070713          	addi	a4,a4,-1536 # 186a00 <FLASH_SIZE+0x86a00>
    3cfc:	00c77463          	bgeu	a4,a2,3d04 <blt_brx_sleep+0x2d8>
    3d00:	44d41b23          	sh	a3,1110(s0)
    3d04:	4a944703          	lbu	a4,1193(s0)
    3d08:	18070463          	beqz	a4,3e90 <blt_brx_sleep+0x464>
    3d0c:	38442703          	lw	a4,900(s0)
    3d10:	45645883          	lhu	a7,1110(s0)
    3d14:	38842803          	lw	a6,904(s0)
    3d18:	3ff44683          	lbu	a3,1023(s0)
    3d1c:	dd67d637          	lui	a2,0xdd67d
    3d20:	c508977f          	maddr32	a4,a7,a6
    3d24:	96a6                	c.add	a3,s1
    3d26:	8a760613          	addi	a2,a2,-1881 # dd67c8a7 <_DATA_LMA_START+0xbd66ef27>
    3d2a:	e0c6957f          	mulsr64	a0,a3,a2
    3d2e:	00b68633          	add	a2,a3,a1
    3d32:	c497977f          	maddr32	a4,a5,s1
    3d36:	41f6d513          	srai	a0,a3,0x1f
    3d3a:	8615                	c.srai	a2,0x5
    3d3c:	41041583          	lh	a1,1040(s0)
    3d40:	87ba                	c.mv	a5,a4
    3d42:	8e09                	c.sub	a2,a0
    3d44:	02500713          	li	a4,37
    3d48:	c6e616ff          	msubr32	a3,a2,a4
    3d4c:	94ae                	c.add	s1,a1
    3d4e:	3a842703          	lw	a4,936(s0)
    3d52:	38f42223          	sw	a5,900(s0)
    3d56:	3ed40fa3          	sb	a3,1023(s0)
    3d5a:	40941823          	sh	s1,1040(s0)
    3d5e:	24070b63          	beqz	a4,3fb4 <blt_brx_sleep+0x588>
    3d62:	80140737          	lui	a4,0x80140
    3d66:	20072703          	lw	a4,512(a4) # 80140200 <_DATA_LMA_START+0x60132880>
    3d6a:	360403a3          	sb	zero,871(s0)
    3d6e:	8f99                	c.sub	a5,a4
    3d70:	40000737          	lui	a4,0x40000
    3d74:	20e7e663          	bltu	a5,a4,3f80 <blt_brx_sleep+0x554>
    3d78:	3a442783          	lw	a5,932(s0)
    3d7c:	5ec44703          	lbu	a4,1516(s0)
    3d80:	cf01                	c.beqz	a4,3d98 <blt_brx_sleep+0x36c>
    3d82:	39842703          	lw	a4,920(s0)
    3d86:	6685                	c.lui	a3,0x1
    3d88:	c8068693          	addi	a3,a3,-896 # c80 <app_acl_txfifo+0x320>
    3d8c:	00d70733          	add	a4,a4,a3
    3d90:	64078793          	addi	a5,a5,1600
    3d94:	38e42c23          	sw	a4,920(s0)
    3d98:	3fe44703          	lbu	a4,1022(s0)
    3d9c:	00070463          	beqz	a4,3da4 <blt_brx_sleep+0x378>
    3da0:	14078793          	addi	a5,a5,320
    3da4:	05944703          	lbu	a4,89(s0)
    3da8:	0017545b          	beqc	a4,1,3db0 <blt_brx_sleep+0x384>
    3dac:	0a078793          	addi	a5,a5,160
    3db0:	1e078713          	addi	a4,a5,480
    3db4:	38442783          	lw	a5,900(s0)
    3db8:	3ae42223          	sw	a4,932(s0)
    3dbc:	8f99                	c.sub	a5,a4
    3dbe:	50f42c23          	sw	a5,1304(s0)
    3dc2:	80140737          	lui	a4,0x80140
    3dc6:	20f72223          	sw	a5,516(a4) # 80140204 <_DATA_LMA_START+0x60132884>
    3dca:	46e44703          	lbu	a4,1134(s0)
    3dce:	b309                	c.j	3ad0 <blt_brx_sleep+0xa4>
    3dd0:	46842783          	lw	a5,1128(s0)
    3dd4:	46d44503          	lbu	a0,1133(s0)
    3dd8:	8c9d                	c.sub	s1,a5
    3dda:	bb5d                	c.j	3b90 <blt_brx_sleep+0x164>
    3ddc:	46040823          	sb	zero,1136(s0)
    3de0:	16940223          	sb	s1,356(s0)
    3de4:	d29ff06f          	j	3b0c <blt_brx_sleep+0xe0>
    3de8:	801407b7          	lui	a5,0x80140
    3dec:	2007a703          	lw	a4,512(a5) # 80140200 <_DATA_LMA_START+0x60132880>
    3df0:	51842603          	lw	a2,1304(s0)
    3df4:	77c9                	c.lui	a5,0xffff2
    3df6:	54078793          	addi	a5,a5,1344 # ffff2540 <_DATA_LMA_START+0xdffe4bc0>
    3dfa:	39042583          	lw	a1,912(s0)
    3dfe:	97b2                	c.add	a5,a2
    3e00:	8f99                	c.sub	a5,a4
    3e02:	8f8d                	c.sub	a5,a1
    3e04:	40000737          	lui	a4,0x40000
    3e08:	06e7f863          	bgeu	a5,a4,3e78 <blt_brx_sleep+0x44c>
    3e0c:	4a944303          	lbu	t1,1193(s0)
    3e10:	50842803          	lw	a6,1288(s0)
    3e14:	38842e83          	lw	t4,904(s0)
    3e18:	3ff44683          	lbu	a3,1023(s0)
    3e1c:	41045703          	lhu	a4,1040(s0)
    3e20:	4e01                	c.li	t3,0
    3e22:	400008b7          	lui	a7,0x40000
    3e26:	a00d                	c.j	3e48 <blt_brx_sleep+0x41c>
    3e28:	00048463          	beqz	s1,3e30 <blt_brx_sleep+0x404>
    3e2c:	41d60633          	sub	a2,a2,t4
    3e30:	fff68513          	addi	a0,a3,-1
    3e34:	02068463          	beqz	a3,3e5c <blt_brx_sleep+0x430>
    3e38:	0ff57693          	andi	a3,a0,255
    3e3c:	177d                	c.addi	a4,-1
    3e3e:	8f8d                	c.sub	a5,a1
    3e40:	3c07275b          	bfoz	a4,a4,15,0
    3e44:	0317f063          	bgeu	a5,a7,3e64 <blt_brx_sleep+0x438>
    3e48:	8e0d                	c.sub	a2,a1
    3e4a:	fc031fe3          	bnez	t1,3e28 <blt_brx_sleep+0x3fc>
    3e4e:	40b80833          	sub	a6,a6,a1
    3e52:	4e05                	c.li	t3,1
    3e54:	fff68513          	addi	a0,a3,-1
    3e58:	fe0690e3          	bnez	a3,3e38 <blt_brx_sleep+0x40c>
    3e5c:	02400693          	li	a3,36
    3e60:	fddff06f          	j	3e3c <blt_brx_sleep+0x410>
    3e64:	50c42c23          	sw	a2,1304(s0)
    3e68:	000e0463          	beqz	t3,3e70 <blt_brx_sleep+0x444>
    3e6c:	51042423          	sw	a6,1288(s0)
    3e70:	3ed40fa3          	sb	a3,1023(s0)
    3e74:	40e41823          	sh	a4,1040(s0)
    3e78:	51842703          	lw	a4,1304(s0)
    3e7c:	3a442783          	lw	a5,932(s0)
    3e80:	97ba                	c.add	a5,a4
    3e82:	80140737          	lui	a4,0x80140
    3e86:	20c72223          	sw	a2,516(a4) # 80140204 <_DATA_LMA_START+0x60132884>
    3e8a:	38f42223          	sw	a5,900(s0)
    3e8e:	b529                	c.j	3c98 <blt_brx_sleep+0x26c>
    3e90:	3a842683          	lw	a3,936(s0)
    3e94:	14069863          	bnez	a3,3fe4 <blt_brx_sleep+0x5b8>
    3e98:	50842803          	lw	a6,1288(s0)
    3e9c:	02f48733          	mul	a4,s1,a5
    3ea0:	3ff44683          	lbu	a3,1023(s0)
    3ea4:	dd67d7b7          	lui	a5,0xdd67d
    3ea8:	96a6                	c.add	a3,s1
    3eaa:	8a778793          	addi	a5,a5,-1881 # dd67c8a7 <_DATA_LMA_START+0xbd66ef27>
    3eae:	e0f6957f          	mulsr64	a0,a3,a5
    3eb2:	00b68633          	add	a2,a3,a1
    3eb6:	41f6d513          	srai	a0,a3,0x1f
    3eba:	8615                	c.srai	a2,0x5
    3ebc:	8e09                	c.sub	a2,a0
    3ebe:	02500513          	li	a0,37
    3ec2:	c6a616ff          	msubr32	a3,a2,a0
    3ec6:	41041583          	lh	a1,1040(s0)
    3eca:	38442783          	lw	a5,900(s0)
    3ece:	80140637          	lui	a2,0x80140
    3ed2:	20062603          	lw	a2,512(a2) # 80140200 <_DATA_LMA_START+0x60132880>
    3ed6:	97ba                	c.add	a5,a4
    3ed8:	94ae                	c.add	s1,a1
    3eda:	9742                	c.add	a4,a6
    3edc:	50e42423          	sw	a4,1288(s0)
    3ee0:	3ed40fa3          	sb	a3,1023(s0)
    3ee4:	38f42223          	sw	a5,900(s0)
    3ee8:	40941823          	sh	s1,1040(s0)
    3eec:	40c78733          	sub	a4,a5,a2
    3ef0:	68042223          	sw	zero,1668(s0)
    3ef4:	400006b7          	lui	a3,0x40000
    3ef8:	0ad77a63          	bgeu	a4,a3,3fac <blt_brx_sleep+0x580>
    3efc:	00875693          	srli	a3,a4,0x8
    3f00:	6751                	c.lui	a4,0x14
    3f02:	88070713          	addi	a4,a4,-1920 # 13880 <BIN_SIZE+0x5ee2>
    3f06:	00e6f363          	bgeu	a3,a4,3f0c <blt_brx_sleep+0x4e0>
    3f0a:	86ba                	c.mv	a3,a4
    3f0c:	3a442703          	lw	a4,932(s0)
    3f10:	68d42223          	sw	a3,1668(s0)
    3f14:	ea9ff06f          	j	3dbc <blt_brx_sleep+0x390>
    3f18:	869ff0ef          	jal	ra,3780 <blt_ll_getRealTxFifoNumber>
    3f1c:	ed31                	c.bnez	a0,3f78 <blt_brx_sleep+0x54c>
    3f1e:	3a842783          	lw	a5,936(s0)
    3f22:	cbb9                	c.beqz	a5,3f78 <blt_brx_sleep+0x54c>
    3f24:	36c44783          	lbu	a5,876(s0)
    3f28:	cba1                	c.beqz	a5,3f78 <blt_brx_sleep+0x54c>
    3f2a:	37344783          	lbu	a5,883(s0)
    3f2e:	e7a9                	c.bnez	a5,3f78 <blt_brx_sleep+0x54c>
    3f30:	3f544783          	lbu	a5,1013(s0)
    3f34:	12078e63          	beqz	a5,4070 <blt_brx_sleep+0x644>
    3f38:	36b44783          	lbu	a5,875(s0)
    3f3c:	ef95                	c.bnez	a5,3f78 <blt_brx_sleep+0x54c>
    3f3e:	41241783          	lh	a5,1042(s0)
    3f42:	41041703          	lh	a4,1040(s0)
    3f46:	17fd                	c.addi	a5,-1
    3f48:	40e787b3          	sub	a5,a5,a4
    3f4c:	3c07a7db          	bfoz	a5,a5,15,0
    3f50:	44040aa3          	sb	zero,1109(s0)
    3f54:	3c07b75b          	bfos	a4,a5,15,0
    3f58:	0ee05663          	blez	a4,4044 <blt_brx_sleep+0x618>
    3f5c:	39442683          	lw	a3,916(s0)
    3f60:	00d76863          	bltu	a4,a3,3f70 <blt_brx_sleep+0x544>
    3f64:	45845783          	lhu	a5,1112(s0)
    3f68:	d60792e3          	bnez	a5,3ccc <blt_brx_sleep+0x2a0>
    3f6c:	39445783          	lhu	a5,916(s0)
    3f70:	44f41c23          	sh	a5,1112(s0)
    3f74:	d59ff06f          	j	3ccc <blt_brx_sleep+0x2a0>
    3f78:	45845783          	lhu	a5,1112(s0)
    3f7c:	d49ff06f          	j	3cc4 <blt_brx_sleep+0x298>
    3f80:	02000737          	lui	a4,0x2000
    3f84:	0af77463          	bgeu	a4,a5,402c <blt_brx_sleep+0x600>
    3f88:	4a442703          	lw	a4,1188(s0)
    3f8c:	478d                	c.li	a5,3
    3f8e:	36f403a3          	sb	a5,871(s0)
    3f92:	00171793          	slli	a5,a4,0x1
    3f96:	070a                	c.slli	a4,0x2
    3f98:	39842683          	lw	a3,920(s0)
    3f9c:	3a442603          	lw	a2,932(s0)
    3fa0:	9736                	c.add	a4,a3
    3fa2:	97b2                	c.add	a5,a2
    3fa4:	38e42c23          	sw	a4,920(s0)
    3fa8:	dd5ff06f          	j	3d7c <blt_brx_sleep+0x350>
    3fac:	3a442703          	lw	a4,932(s0)
    3fb0:	e0dff06f          	j	3dbc <blt_brx_sleep+0x390>
    3fb4:	80140737          	lui	a4,0x80140
    3fb8:	20072683          	lw	a3,512(a4) # 80140200 <_DATA_LMA_START+0x60132880>
    3fbc:	40000737          	lui	a4,0x40000
    3fc0:	40d787b3          	sub	a5,a5,a3
    3fc4:	fae7eee3          	bltu	a5,a4,3f80 <blt_brx_sleep+0x554>
    3fc8:	36744703          	lbu	a4,871(s0)
    3fcc:	3a442783          	lw	a5,932(s0)
    3fd0:	da0706e3          	beqz	a4,3d7c <blt_brx_sleep+0x350>
    3fd4:	4a442783          	lw	a5,1188(s0)
    3fd8:	177d                	c.addi	a4,-1
    3fda:	02f707b3          	mul	a5,a4,a5
    3fde:	00179713          	slli	a4,a5,0x1
    3fe2:	bf5d                	c.j	3f98 <blt_brx_sleep+0x56c>
    3fe4:	50442703          	lw	a4,1284(s0)
    3fe8:	50042603          	lw	a2,1280(s0)
    3fec:	06e60263          	beq	a2,a4,4050 <blt_brx_sleep+0x624>
    3ff0:	4da44603          	lbu	a2,1242(s0)
    3ff4:	50e42023          	sw	a4,1280(s0)
    3ff8:	e605                	c.bnez	a2,4020 <blt_brx_sleep+0x5f4>
    3ffa:	50842503          	lw	a0,1288(s0)
    3ffe:	68442603          	lw	a2,1668(s0)
    4002:	972a                	c.add	a4,a0
    4004:	40d70533          	sub	a0,a4,a3
    4008:	40a00733          	neg	a4,a0
    400c:	f2e5077f          	maxw	a4,a0,a4
    4010:	00c77863          	bgeu	a4,a2,4020 <blt_brx_sleep+0x5f4>
    4014:	85dfe0ef          	jal	ra,2870 <pm_cal_32k_rc_offset>
    4018:	3a842683          	lw	a3,936(s0)
    401c:	39042783          	lw	a5,912(s0)
    4020:	4801                	c.li	a6,0
    4022:	4c040d23          	sb	zero,1242(s0)
    4026:	50d42223          	sw	a3,1284(s0)
    402a:	bd8d                	c.j	3e9c <blt_brx_sleep+0x470>
    402c:	01000737          	lui	a4,0x1000
    4030:	02f77663          	bgeu	a4,a5,405c <blt_brx_sleep+0x630>
    4034:	4a442783          	lw	a5,1188(s0)
    4038:	4709                	c.li	a4,2
    403a:	36e403a3          	sb	a4,871(s0)
    403e:	00179713          	slli	a4,a5,0x1
    4042:	bf99                	c.j	3f98 <blt_brx_sleep+0x56c>
    4044:	4785                	c.li	a5,1
    4046:	44f40aa3          	sb	a5,1109(s0)
    404a:	45845783          	lhu	a5,1112(s0)
    404e:	b9bd                	c.j	3ccc <blt_brx_sleep+0x2a0>
    4050:	50842803          	lw	a6,1288(s0)
    4054:	50d42223          	sw	a3,1284(s0)
    4058:	e45ff06f          	j	3e9c <blt_brx_sleep+0x470>
    405c:	00800737          	lui	a4,0x800
    4060:	f6f774e3          	bgeu	a4,a5,3fc8 <blt_brx_sleep+0x59c>
    4064:	4785                	c.li	a5,1
    4066:	36f403a3          	sb	a5,871(s0)
    406a:	4701                	c.li	a4,0
    406c:	4781                	c.li	a5,0
    406e:	b72d                	c.j	3f98 <blt_brx_sleep+0x56c>
    4070:	44040aa3          	sb	zero,1109(s0)
    4074:	45845783          	lhu	a5,1112(s0)
    4078:	ef1ff06f          	j	3f68 <blt_brx_sleep+0x53c>

0000407c <analog_read_reg8>:
    407c:	300026f3          	csrr	a3,mstatus
    4080:	8aa1                	c.andi	a3,8
    4082:	c299                	c.beqz	a3,4088 <analog_read_reg8+0xc>
    4084:	300477f3          	csrrci	a5,mstatus,8
    4088:	801407b7          	lui	a5,0x80140
    408c:	18a78023          	sb	a0,384(a5) # 80140180 <_DATA_LMA_START+0x60132800>
    4090:	00100713          	li	a4,1
    4094:	18e781a3          	sb	a4,387(a5)
    4098:	04000613          	li	a2,64
    409c:	80140737          	lui	a4,0x80140
    40a0:	18c78123          	sb	a2,386(a5)
    40a4:	18270783          	lb	a5,386(a4) # 80140182 <_DATA_LMA_START+0x60132802>
    40a8:	fe77fe5b          	bbs	a5,7,40a4 <analog_read_reg8+0x28>
    40ac:	18470503          	lb	a0,388(a4)
    40b0:	0ff57513          	andi	a0,a0,255
    40b4:	00068463          	beqz	a3,40bc <analog_read_reg8+0x40>
    40b8:	3006a6f3          	csrrs	a3,mstatus,a3
    40bc:	00008067          	ret

000040c0 <clock_init.constprop.64>:
    40c0:	1141                	c.addi	sp,-16
    40c2:	08000513          	li	a0,128
    40c6:	c606                	c.swsp	ra,12(sp)
    40c8:	c422                	c.swsp	s0,8(sp)
    40ca:	3f4d                	c.jal	407c <analog_read_reg8>
    40cc:	0e057593          	andi	a1,a0,224
    40d0:	0105e593          	ori	a1,a1,16
    40d4:	08000513          	li	a0,128
    40d8:	815ff0ef          	jal	ra,38ec <analog_write_reg8>
    40dc:	00900513          	li	a0,9
    40e0:	f9dff0ef          	jal	ra,407c <analog_read_reg8>
    40e4:	0f357593          	andi	a1,a0,243
    40e8:	0085e593          	ori	a1,a1,8
    40ec:	00900513          	li	a0,9
    40f0:	ffcff0ef          	jal	ra,38ec <analog_write_reg8>
    40f4:	0c000793          	li	a5,192
    40f8:	819f940b          	addigp	s0,-2024 # 80018 <sys_clk>
    40fc:	00f41023          	sh	a5,0(s0)
    4100:	4711                	c.li	a4,4
    4102:	801407b7          	lui	a5,0x80140
    4106:	08100513          	li	a0,129
    410a:	1ee78da3          	sb	a4,507(a5) # 801401fb <_DATA_LMA_START+0x6013287b>
    410e:	37bd                	c.jal	407c <analog_read_reg8>
    4110:	04056593          	ori	a1,a0,64
    4114:	0ff5f593          	andi	a1,a1,255
    4118:	08100513          	li	a0,129
    411c:	fd0ff0ef          	jal	ra,38ec <analog_write_reg8>
    4120:	08800513          	li	a0,136
    4124:	f59ff0ef          	jal	ra,407c <analog_read_reg8>
    4128:	be557c5b          	bbc	a0,5,4120 <clock_init.constprop.64+0x60>
    412c:	08100513          	li	a0,129
    4130:	f4dff0ef          	jal	ra,407c <analog_read_reg8>
    4134:	0bf57593          	andi	a1,a0,191
    4138:	08100513          	li	a0,129
    413c:	fb0ff0ef          	jal	ra,38ec <analog_write_reg8>
    4140:	80140737          	lui	a4,0x80140
    4144:	10270783          	lb	a5,258(a4) # 80140102 <_DATA_LMA_START+0x60132782>
    4148:	fe07fe5b          	bbs	a5,0,4144 <clock_init.constprop.64+0x84>
    414c:	10170683          	lb	a3,257(a4)
    4150:	801407b7          	lui	a5,0x80140
    4154:	0ff6f693          	andi	a3,a3,255
    4158:	0106e693          	ori	a3,a3,16
    415c:	10d700a3          	sb	a3,257(a4)
    4160:	32878703          	lb	a4,808(a5) # 80140328 <_DATA_LMA_START+0x601329a8>
    4164:	be377e5b          	bbc	a4,3,4160 <clock_init.constprop.64+0xa0>
    4168:	1e978703          	lb	a4,489(a5)
    416c:	aaaab637          	lui	a2,0xaaaab
    4170:	8b3d                	c.andi	a4,15
    4172:	04076713          	ori	a4,a4,64
    4176:	1ee784a3          	sb	a4,489(a5)
    417a:	1e878703          	lb	a4,488(a5)
    417e:	aab60613          	addi	a2,a2,-1365 # aaaaaaab <_DATA_LMA_START+0x8aa9d12b>
    4182:	f8076713          	ori	a4,a4,-128
    4186:	0ff77713          	andi	a4,a4,255
    418a:	1ee78423          	sb	a4,488(a5)
    418e:	1e878703          	lb	a4,488(a5)
    4192:	f8076713          	ori	a4,a4,-128
    4196:	0ff77713          	andi	a4,a4,255
    419a:	1ee78423          	sb	a4,488(a5)
    419e:	1d878703          	lb	a4,472(a5)
    41a2:	00045683          	lhu	a3,0(s0)
    41a6:	0fb77713          	andi	a4,a4,251
    41aa:	1ce78c23          	sb	a4,472(a5)
    41ae:	1d878703          	lb	a4,472(a5)
    41b2:	8289                	c.srli	a3,0x2
    41b4:	00d402a3          	sb	a3,5(s0)
    41b8:	0fc77713          	andi	a4,a4,252
    41bc:	1ce78c23          	sb	a4,472(a5)
    41c0:	1e878703          	lb	a4,488(a5)
    41c4:	0f077713          	andi	a4,a4,240
    41c8:	00c76713          	ori	a4,a4,12
    41cc:	1ee78423          	sb	a4,488(a5)
    41d0:	00045703          	lhu	a4,0(s0)
    41d4:	1e878683          	lb	a3,488(a5)
    41d8:	02c73733          	mulhu	a4,a4,a2
    41dc:	08f6f693          	andi	a3,a3,143
    41e0:	0206e693          	ori	a3,a3,32
    41e4:	1ed78423          	sb	a3,488(a5)
    41e8:	00375793          	srli	a5,a4,0x3
    41ec:	00f40123          	sb	a5,2(s0)
    41f0:	0ff7f793          	andi	a5,a5,255
    41f4:	00f401a3          	sb	a5,3(s0)
    41f8:	00f40223          	sb	a5,4(s0)
    41fc:	40b2                	c.lwsp	ra,12(sp)
    41fe:	4422                	c.lwsp	s0,8(sp)
    4200:	0141                	c.addi	sp,16
    4202:	8082                	c.jr	ra

00004204 <user_init_deepRetn>:
    4204:	1141                	c.addi	sp,-16
    4206:	c606                	c.swsp	ra,12(sp)
    4208:	93dfe0ef          	jal	ra,2b44 <blc_ll_initBasicMCU>
    420c:	ff5fc0ef          	jal	ra,1200 <rf_set_power_level_index.constprop.58>
    4210:	afcfe0ef          	jal	ra,250c <blc_ll_recoverDeepRetention>
    4214:	300467f3          	csrrsi	a5,mstatus,8
    4218:	000017b7          	lui	a5,0x1
    421c:	88878793          	addi	a5,a5,-1912 # 888 <adv_rx_buff+0x8>
    4220:	3047a7f3          	csrrs	a5,mie,a5
    4224:	20400513          	li	a0,516
    4228:	20004097          	auipc	ra,0x20004
    422c:	12c080e7          	jalr	300(ra) # 20008354 <pm_set_gpio_wakeup.constprop.47>
    4230:	40b2                	c.lwsp	ra,12(sp)
    4232:	20100513          	li	a0,513
    4236:	0141                	c.addi	sp,16
    4238:	20004317          	auipc	t1,0x20004
    423c:	11c30067          	jr	284(t1) # 20008354 <pm_set_gpio_wakeup.constprop.47>

00004240 <pm_wait_bbpll_done>:
    4240:	1101                	c.addi	sp,-32
    4242:	08100513          	li	a0,129
    4246:	cc22                	c.swsp	s0,24(sp)
    4248:	ca26                	c.swsp	s1,20(sp)
    424a:	c84a                	c.swsp	s2,16(sp)
    424c:	ce06                	c.swsp	ra,28(sp)
    424e:	353d                	c.jal	407c <analog_read_reg8>
    4250:	04056593          	ori	a1,a0,64
    4254:	892a                	c.mv	s2,a0
    4256:	0ff5f593          	andi	a1,a1,255
    425a:	08100513          	li	a0,129
    425e:	0bf97913          	andi	s2,s2,191
    4262:	4481                	c.li	s1,0
    4264:	01d00413          	li	s0,29
    4268:	e84ff0ef          	jal	ra,38ec <analog_write_reg8>
    426c:	000107a3          	sb	zero,15(sp)
    4270:	00f10783          	lb	a5,15(sp)
    4274:	0ff7f793          	andi	a5,a5,255
    4278:	02f46063          	bltu	s0,a5,4298 <pm_wait_bbpll_done+0x58>
    427c:	0001                	c.nop
    427e:	00f10783          	lb	a5,15(sp)
    4282:	0785                	c.addi	a5,1
    4284:	0ff7f793          	andi	a5,a5,255
    4288:	00f107a3          	sb	a5,15(sp)
    428c:	00f10783          	lb	a5,15(sp)
    4290:	0ff7f793          	andi	a5,a5,255
    4294:	fef474e3          	bgeu	s0,a5,427c <pm_wait_bbpll_done+0x3c>
    4298:	08800513          	li	a0,136
    429c:	de1ff0ef          	jal	ra,407c <analog_read_reg8>
    42a0:	4255765b          	bbs	a0,5,42cc <pm_wait_bbpll_done+0x8c>
    42a4:	cc95                	c.beqz	s1,42e0 <pm_wait_bbpll_done+0xa0>
    42a6:	0414d55b          	beqc	s1,1,42f0 <pm_wait_bbpll_done+0xb0>
    42aa:	85ca                	c.mv	a1,s2
    42ac:	08100513          	li	a0,129
    42b0:	e3cff0ef          	jal	ra,38ec <analog_write_reg8>
    42b4:	0024d65b          	beqc	s1,2,42c0 <pm_wait_bbpll_done+0x80>
    42b8:	0485                	c.addi	s1,1
    42ba:	0ff4f493          	andi	s1,s1,255
    42be:	b77d                	c.j	426c <pm_wait_bbpll_done+0x2c>
    42c0:	40f2                	c.lwsp	ra,28(sp)
    42c2:	4462                	c.lwsp	s0,24(sp)
    42c4:	44d2                	c.lwsp	s1,20(sp)
    42c6:	4942                	c.lwsp	s2,16(sp)
    42c8:	6105                	c.addi16sp	sp,32
    42ca:	8082                	c.jr	ra
    42cc:	4462                	c.lwsp	s0,24(sp)
    42ce:	40f2                	c.lwsp	ra,28(sp)
    42d0:	44d2                	c.lwsp	s1,20(sp)
    42d2:	85ca                	c.mv	a1,s2
    42d4:	4942                	c.lwsp	s2,16(sp)
    42d6:	08100513          	li	a0,129
    42da:	6105                	c.addi16sp	sp,32
    42dc:	e10ff06f          	j	38ec <analog_write_reg8>
    42e0:	04600593          	li	a1,70
    42e4:	00100513          	li	a0,1
    42e8:	e04ff0ef          	jal	ra,38ec <analog_write_reg8>
    42ec:	fcdff06f          	j	42b8 <pm_wait_bbpll_done+0x78>
    42f0:	04300593          	li	a1,67
    42f4:	00100513          	li	a0,1
    42f8:	df4ff0ef          	jal	ra,38ec <analog_write_reg8>
    42fc:	fbdff06f          	j	42b8 <pm_wait_bbpll_done+0x78>

00004300 <pm_sleep_start>:
    4300:	1101                	c.addi	sp,-32
    4302:	823fa72b          	lwgp	a4,-2016 # 80020 <_BSS_VMA_START>
    4306:	000016b7          	lui	a3,0x1
    430a:	ce06                	c.swsp	ra,28(sp)
    430c:	00812c23          	sw	s0,24(sp)
    4310:	0ff00793          	li	a5,255
    4314:	8086c583          	lbu	a1,-2040(a3) # 808 <g_pm_suspend_power_cfg>
    4318:	18f70463          	beq	a4,a5,44a0 <pm_sleep_start+0x1a0>
    431c:	07d00513          	li	a0,125
    4320:	dccff0ef          	jal	ra,38ec <analog_write_reg8>
    4324:	801406b7          	lui	a3,0x80140
    4328:	10268783          	lb	a5,258(a3) # 80140102 <_DATA_LMA_START+0x60132782>
    432c:	fe07fe5b          	bbs	a5,0,4328 <pm_sleep_start+0x28>
    4330:	10168783          	lb	a5,257(a3)
    4334:	80140737          	lui	a4,0x80140
    4338:	0ff7f793          	andi	a5,a5,255
    433c:	0107e793          	ori	a5,a5,16
    4340:	10f680a3          	sb	a5,257(a3)
    4344:	32870783          	lb	a5,808(a4) # 80140328 <_DATA_LMA_START+0x601329a8>
    4348:	be37fe5b          	bbc	a5,3,4344 <pm_sleep_start+0x44>
    434c:	10170783          	lb	a5,257(a4)
    4350:	80140437          	lui	s0,0x80140
    4354:	0fd7f793          	andi	a5,a5,253
    4358:	10f700a3          	sb	a5,257(a4)
    435c:	10170783          	lb	a5,257(a4)
    4360:	0ef7f793          	andi	a5,a5,239
    4364:	10f700a3          	sb	a5,257(a4)
    4368:	fb900793          	li	a5,-71
    436c:	10f70023          	sb	a5,256(a4)
    4370:	10240783          	lb	a5,258(s0) # 80140102 <_DATA_LMA_START+0x60132782>
    4374:	fe07fe5b          	bbs	a5,0,4370 <pm_sleep_start+0x70>
    4378:	10140783          	lb	a5,257(s0)
    437c:	452d                	c.li	a0,11
    437e:	0ff7f793          	andi	a5,a5,255
    4382:	0107e793          	ori	a5,a5,16
    4386:	10f400a3          	sb	a5,257(s0)
    438a:	320404a3          	sb	zero,809(s0)
    438e:	31fd                	c.jal	407c <analog_read_reg8>
    4390:	0fc57593          	andi	a1,a0,252
    4394:	00b00513          	li	a0,11
    4398:	d54ff0ef          	jal	ra,38ec <analog_write_reg8>
    439c:	08100513          	li	a0,129
    43a0:	cddff0ef          	jal	ra,407c <analog_read_reg8>
    43a4:	f8056593          	ori	a1,a0,-128
    43a8:	0ff5f593          	andi	a1,a1,255
    43ac:	08100513          	li	a0,129
    43b0:	d3cff0ef          	jal	ra,38ec <analog_write_reg8>
    43b4:	f8000793          	li	a5,-128
    43b8:	1ef407a3          	sb	a5,495(s0)
    43bc:	c402                	c.swsp	zero,8(sp)
    43be:	4722                	c.lwsp	a4,8(sp)
    43c0:	03f00793          	li	a5,63
    43c4:	00e7ec63          	bltu	a5,a4,43dc <pm_sleep_start+0xdc>
    43c8:	03f00713          	li	a4,63
    43cc:	0001                	c.nop
    43ce:	47a2                	c.lwsp	a5,8(sp)
    43d0:	0785                	c.addi	a5,1
    43d2:	c43e                	c.swsp	a5,8(sp)
    43d4:	00812783          	lw	a5,8(sp)
    43d8:	fef77ae3          	bgeu	a4,a5,43cc <pm_sleep_start+0xcc>
    43dc:	08100513          	li	a0,129
    43e0:	c9dff0ef          	jal	ra,407c <analog_read_reg8>
    43e4:	07f57593          	andi	a1,a0,127
    43e8:	08100513          	li	a0,129
    43ec:	d00ff0ef          	jal	ra,38ec <analog_write_reg8>
    43f0:	00b00513          	li	a0,11
    43f4:	c89ff0ef          	jal	ra,407c <analog_read_reg8>
    43f8:	00356593          	ori	a1,a0,3
    43fc:	0ff5f593          	andi	a1,a1,255
    4400:	00b00513          	li	a0,11
    4404:	ce8ff0ef          	jal	ra,38ec <analog_write_reg8>
    4408:	08000593          	li	a1,128
    440c:	07d00513          	li	a0,125
    4410:	cdcff0ef          	jal	ra,38ec <analog_write_reg8>
    4414:	c602                	c.swsp	zero,12(sp)
    4416:	4732                	c.lwsp	a4,12(sp)
    4418:	12b00793          	li	a5,299
    441c:	00e7ec63          	bltu	a5,a4,4434 <pm_sleep_start+0x134>
    4420:	12b00713          	li	a4,299
    4424:	0001                	c.nop
    4426:	47b2                	c.lwsp	a5,12(sp)
    4428:	0785                	c.addi	a5,1
    442a:	c63e                	c.swsp	a5,12(sp)
    442c:	00c12783          	lw	a5,12(sp)
    4430:	fef77ae3          	bgeu	a4,a5,4424 <pm_sleep_start+0x124>
    4434:	08800513          	li	a0,136
    4438:	c45ff0ef          	jal	ra,407c <analog_read_reg8>
    443c:	be757c5b          	bbc	a0,7,4434 <pm_sleep_start+0x134>
    4440:	08800513          	li	a0,136
    4444:	c39ff0ef          	jal	ra,407c <analog_read_reg8>
    4448:	be757c5b          	bbc	a0,7,4440 <pm_sleep_start+0x140>
    444c:	08800513          	li	a0,136
    4450:	c2dff0ef          	jal	ra,407c <analog_read_reg8>
    4454:	be757c5b          	bbc	a0,7,444c <pm_sleep_start+0x14c>
    4458:	de9ff0ef          	jal	ra,4240 <pm_wait_bbpll_done>
    445c:	801407b7          	lui	a5,0x80140
    4460:	03f00713          	li	a4,63
    4464:	32e784a3          	sb	a4,809(a5) # 80140329 <_DATA_LMA_START+0x601329a9>
    4468:	10178683          	lb	a3,257(a5)
    446c:	80140737          	lui	a4,0x80140
    4470:	0ef6f693          	andi	a3,a3,239
    4474:	10d780a3          	sb	a3,257(a5)
    4478:	fab00693          	li	a3,-85
    447c:	10d78023          	sb	a3,256(a5)
    4480:	10270783          	lb	a5,258(a4) # 80140102 <_DATA_LMA_START+0x60132782>
    4484:	fe07fe5b          	bbs	a5,0,4480 <pm_sleep_start+0x180>
    4488:	10170783          	lb	a5,257(a4)
    448c:	0ff7f793          	andi	a5,a5,255
    4490:	0107e793          	ori	a5,a5,16
    4494:	10f700a3          	sb	a5,257(a4)
    4498:	40f2                	c.lwsp	ra,28(sp)
    449a:	4462                	c.lwsp	s0,24(sp)
    449c:	6105                	c.addi16sp	sp,32
    449e:	8082                	c.jr	ra
    44a0:	0fe5f593          	andi	a1,a1,254
    44a4:	07d00513          	li	a0,125
    44a8:	c44ff0ef          	jal	ra,38ec <analog_write_reg8>
    44ac:	e79ff06f          	j	4324 <pm_sleep_start+0x24>

000044b0 <cpu_sleep_wakeup_32k_rc_ram>:
    44b0:	7179                	c.addi16sp	sp,-48
    44b2:	d422                	c.swsp	s0,40(sp)
    44b4:	d226                	c.swsp	s1,36(sp)
    44b6:	ce4e                	c.swsp	s3,28(sp)
    44b8:	cc52                	c.swsp	s4,24(sp)
    44ba:	ca56                	c.swsp	s5,20(sp)
    44bc:	c266                	c.swsp	s9,4(sp)
    44be:	c06a                	c.swsp	s10,0(sp)
    44c0:	d606                	c.swsp	ra,44(sp)
    44c2:	8d2e                	c.mv	s10,a1
    44c4:	d04a                	c.swsp	s2,32(sp)
    44c6:	c85a                	c.swsp	s6,16(sp)
    44c8:	c65e                	c.swsp	s7,12(sp)
    44ca:	c462                	c.swsp	s8,8(sp)
    44cc:	89aa                	c.mv	s3,a0
    44ce:	8ab2                	c.mv	s5,a2
    44d0:	afcfe0ef          	jal	ra,27cc <pm_get_32k_rc_calib>
    44d4:	801407b7          	lui	a5,0x80140
    44d8:	00000437          	lui	s0,0x0
    44dc:	17840413          	addi	s0,s0,376 # 178 <_AES_VMA_END>
    44e0:	2007a483          	lw	s1,512(a5) # 80140200 <_DATA_LMA_START+0x60132880>
    44e4:	020d7a13          	andi	s4,s10,32
    44e8:	5aa42a23          	sw	a0,1460(s0)
    44ec:	00a00cb3          	add	s9,zero,a0
    44f0:	020a0063          	beqz	s4,4510 <cpu_sleep_wakeup_32k_rc_ram+0x60>
    44f4:	409a84b3          	sub	s1,s5,s1
    44f8:	e0000737          	lui	a4,0xe0000
    44fc:	34976a63          	bltu	a4,s1,4850 <cpu_sleep_wakeup_32k_rc_ram+0x3a0>
    4500:	80df970b          	addigp	a4,-2036 # 8000c <g_pm_early_wakeup_time_us>
    4504:	00671703          	lh	a4,6(a4) # e0000006 <_DATA_LMA_START+0xbfff2686>
    4508:	1137275b          	bfoz	a4,a4,4,19
    450c:	34e4ea63          	bltu	s1,a4,4860 <cpu_sleep_wakeup_32k_rc_ram+0x3b0>
    4510:	300024f3          	csrr	s1,mstatus
    4514:	88a1                	c.andi	s1,8
    4516:	e88d                	c.bnez	s1,4548 <cpu_sleep_wakeup_32k_rc_ram+0x98>
    4518:	69442783          	lw	a5,1684(s0)
    451c:	cb95                	c.beqz	a5,4550 <cpu_sleep_wakeup_32k_rc_ram+0xa0>
    451e:	9782                	c.jalr	a5
    4520:	e905                	c.bnez	a0,4550 <cpu_sleep_wakeup_32k_rc_ram+0xa0>
    4522:	4521                	c.li	a0,8
    4524:	00048463          	beqz	s1,452c <cpu_sleep_wakeup_32k_rc_ram+0x7c>
    4528:	3004a4f3          	csrrs	s1,mstatus,s1
    452c:	50b2                	c.lwsp	ra,44(sp)
    452e:	5422                	c.lwsp	s0,40(sp)
    4530:	5492                	c.lwsp	s1,36(sp)
    4532:	5902                	c.lwsp	s2,32(sp)
    4534:	49f2                	c.lwsp	s3,28(sp)
    4536:	4a62                	c.lwsp	s4,24(sp)
    4538:	4ad2                	c.lwsp	s5,20(sp)
    453a:	4b42                	c.lwsp	s6,16(sp)
    453c:	4bb2                	c.lwsp	s7,12(sp)
    453e:	4c22                	c.lwsp	s8,8(sp)
    4540:	4c92                	c.lwsp	s9,4(sp)
    4542:	4d02                	c.lwsp	s10,0(sp)
    4544:	6145                	c.addi16sp	sp,48
    4546:	8082                	c.jr	ra
    4548:	300477f3          	csrrci	a5,mstatus,8
    454c:	fcdff06f          	j	4518 <cpu_sleep_wakeup_32k_rc_ram+0x68>
    4550:	80140937          	lui	s2,0x80140
    4554:	1e890b03          	lb	s6,488(s2) # 801401e8 <_DATA_LMA_START+0x60132868>
    4558:	00f9fc13          	andi	s8,s3,15
    455c:	08fb7793          	andi	a5,s6,143
    4560:	1ef90423          	sb	a5,488(s2)
    4564:	1d890b83          	lb	s7,472(s2)
    4568:	0f8bf793          	andi	a5,s7,248
    456c:	1cf90c23          	sb	a5,472(s2)
    4570:	20890783          	lb	a5,520(s2)
    4574:	0fe7f793          	andi	a5,a5,254
    4578:	20f90423          	sb	a5,520(s2)
    457c:	00100793          	li	a5,1
    4580:	20f90c23          	sb	a5,536(s2)
    4584:	20a90783          	lb	a5,522(s2)
    4588:	0f77f793          	andi	a5,a5,247
    458c:	20f90523          	sb	a5,522(s2)
    4590:	88cff0ef          	jal	ra,361c <clock_get_32k_tick>
    4594:	4789                	c.li	a5,2
    4596:	20f905a3          	sb	a5,523(s2)
    459a:	20092783          	lw	a5,512(s2)
    459e:	68a42c23          	sw	a0,1688(s0)
    45a2:	85be                	c.mv	a1,a5
    45a4:	68f42e23          	sw	a5,1692(s0)
    45a8:	a6cfe0ef          	jal	ra,2814 <pm_update_32k_rc_sleep_tick>
    45ac:	0ffd7593          	andi	a1,s10,255
    45b0:	04b00513          	li	a0,75
    45b4:	b38ff0ef          	jal	ra,38ec <analog_write_reg8>
    45b8:	01f00593          	li	a1,31
    45bc:	06400513          	li	a0,100
    45c0:	b2cff0ef          	jal	ra,38ec <analog_write_reg8>
    45c4:	0ff9f593          	andi	a1,s3,255
    45c8:	07e00513          	li	a0,126
    45cc:	b20ff0ef          	jal	ra,38ec <analog_write_reg8>
    45d0:	040d7793          	andi	a5,s10,64
    45d4:	1c0c1263          	bnez	s8,4798 <cpu_sleep_wakeup_32k_rc_ram+0x2e8>
    45d8:	2f09dadb          	beqc	s3,48,48cc <cpu_sleep_wakeup_32k_rc_ram+0x41c>
    45dc:	32078663          	beqz	a5,4908 <cpu_sleep_wakeup_32k_rc_ram+0x458>
    45e0:	06000593          	li	a1,96
    45e4:	04d00513          	li	a0,77
    45e8:	b04ff0ef          	jal	ra,38ec <analog_write_reg8>
    45ec:	00100593          	li	a1,1
    45f0:	07f00513          	li	a0,127
    45f4:	af8ff0ef          	jal	ra,38ec <analog_write_reg8>
    45f8:	80df992b          	lhgp	s2,-2036 # 8000c <g_pm_early_wakeup_time_us>
    45fc:	3c09295b          	bfoz	s2,s2,15,0
    4600:	00491913          	slli	s2,s2,0x4
    4604:	0e0d7d13          	andi	s10,s10,224
    4608:	412a8933          	sub	s2,s5,s2
    460c:	1c0d0263          	beqz	s10,47d0 <cpu_sleep_wakeup_32k_rc_ram+0x320>
    4610:	0ee00593          	li	a1,238
    4614:	04c00513          	li	a0,76
    4618:	ad4ff0ef          	jal	ra,38ec <analog_write_reg8>
    461c:	1d09d2db          	beqc	s3,48,47e0 <cpu_sleep_wakeup_32k_rc_ram+0x330>
    4620:	815f978b          	addigp	a5,-2028 # 80014 <g_pm_r_delay_cycle>
    4624:	00279583          	lh	a1,2(a5)
    4628:	04000513          	li	a0,64
    462c:	0ff5f593          	andi	a1,a1,255
    4630:	abcff0ef          	jal	ra,38ec <analog_write_reg8>
    4634:	58842783          	lw	a5,1416(s0)
    4638:	40f907b3          	sub	a5,s2,a5
    463c:	1c0a0063          	beqz	s4,47fc <cpu_sleep_wakeup_32k_rc_ram+0x34c>
    4640:	0ff00737          	lui	a4,0xff00
    4644:	26f77863          	bgeu	a4,a5,48b4 <cpu_sleep_wakeup_32k_rc_ram+0x404>
    4648:	00100713          	li	a4,1
    464c:	5ae40c23          	sb	a4,1464(s0)
    4650:	5b442683          	lw	a3,1460(s0)
    4654:	58c42583          	lw	a1,1420(s0)
    4658:	02d7d533          	divu	a0,a5,a3
    465c:	69842703          	lw	a4,1688(s0)
    4660:	40000637          	lui	a2,0x40000
    4664:	00370793          	addi	a5,a4,3 # ff00003 <FLASH_SIZE+0xfe00003>
    4668:	0512                	c.slli	a0,0x4
    466a:	952e                	c.add	a0,a1
    466c:	8f89                	c.sub	a5,a0
    466e:	02c7f163          	bgeu	a5,a2,4690 <cpu_sleep_wakeup_32k_rc_ram+0x1e0>
    4672:	69c42783          	lw	a5,1692(s0)
    4676:	58e42623          	sw	a4,1420(s0)
    467a:	0017e793          	ori	a5,a5,1
    467e:	40f90533          	sub	a0,s2,a5
    4682:	02d55533          	divu	a0,a0,a3
    4686:	58f42423          	sw	a5,1416(s0)
    468a:	0512                	c.slli	a0,0x4
    468c:	00e50533          	add	a0,a0,a4
    4690:	f2dfe0ef          	jal	ra,35bc <clock_set_32k_tick>
    4694:	06400513          	li	a0,100
    4698:	9e5ff0ef          	jal	ra,407c <analog_read_reg8>
    469c:	01f57513          	andi	a0,a0,31
    46a0:	00051c63          	bnez	a0,46b8 <cpu_sleep_wakeup_32k_rc_ram+0x208>
    46a4:	240c1a63          	bnez	s8,48f8 <cpu_sleep_wakeup_32k_rc_ram+0x448>
    46a8:	c59ff0ef          	jal	ra,4300 <pm_sleep_start>
    46ac:	00100593          	li	a1,1
    46b0:	07f00513          	li	a0,127
    46b4:	a38ff0ef          	jal	ra,38ec <analog_write_reg8>
    46b8:	0109e8db          	bnec	s3,48,46c8 <cpu_sleep_wakeup_32k_rc_ram+0x218>
    46bc:	801407b7          	lui	a5,0x80140
    46c0:	02000713          	li	a4,32
    46c4:	1ee787a3          	sb	a4,495(a5) # 801401ef <_DATA_LMA_START+0x6013286f>
    46c8:	801407b7          	lui	a5,0x80140
    46cc:	20878703          	lb	a4,520(a5) # 80140208 <_DATA_LMA_START+0x60132888>
    46d0:	0ff77713          	andi	a4,a4,255
    46d4:	00176713          	ori	a4,a4,1
    46d8:	20e78423          	sb	a4,520(a5)
    46dc:	00200713          	li	a4,2
    46e0:	20e78c23          	sb	a4,536(a5)
    46e4:	20a78703          	lb	a4,522(a5)
    46e8:	0ff77713          	andi	a4,a4,255
    46ec:	00c76713          	ori	a4,a4,12
    46f0:	20e78523          	sb	a4,522(a5)
    46f4:	f29fe0ef          	jal	ra,361c <clock_get_32k_tick>
    46f8:	5b844783          	lbu	a5,1464(s0)
