
FrL_Network_HWSample.elf:     file format elf32-littleriscv
FrL_Network_HWSample.elf
architecture: riscv:rv32, flags 0x00000112:
EXEC_P, HAS_SYMS, D_PAGED
start address 0x20000000

Program Header:
    LOAD off    0x00001000 vaddr 0x20000000 paddr 0x20000000 align 2**12
         filesz 0x0000018a memsz 0x0000018a flags r-x
    LOAD off    0x00002000 vaddr 0x00000000 paddr 0x20000190 align 2**12
         filesz 0x00000158 memsz 0x00000178 flags rwx
    LOAD off    0x00002178 vaddr 0x00000178 paddr 0x200002e8 align 2**12
         filesz 0x0000118c memsz 0x0000118c flags rw-
    LOAD off    0x00003400 vaddr 0x00001400 paddr 0x20001478 align 2**12
         filesz 0x00005002 memsz 0x00005002 flags r-x
    LOAD off    0x00008480 vaddr 0x20006480 paddr 0x20006480 align 2**12
         filesz 0x00011b18 memsz 0x00011b18 flags r-x
    LOAD off    0x0001a000 vaddr 0x00080000 paddr 0x20017f98 align 2**12
         filesz 0x000001fa memsz 0x00016d78 flags rw-
0x70000000 off    0x0006d7cc vaddr 0x00000000 paddr 0x00000000 align 2**0
         filesz 0x0000003b memsz 0x00000000 flags r--

Sections:
Idx Name          Size      VMA       LMA       File off  Algn
  0 .vectors      0000018a  20000000  20000000  00001000  2**2
                  CONTENTS, ALLOC, LOAD, READONLY, CODE
  1 .retention_reset 00000158  00000000  20000190  00002000  2**2
                  CONTENTS, ALLOC, LOAD, READONLY, CODE
  2 .aes_data     00000020  00000158  200002e8  00002158  2**2
                  ALLOC
  3 .retention_data 0000118c  00000178  200002e8  00002178  2**2
                  CONTENTS, ALLOC, LOAD, DATA
  4 .ram_code     00005002  00001400  20001478  00003400  2**8
                  CONTENTS, ALLOC, LOAD, READONLY, CODE
  5 .text         0000f09c  20006480  20006480  00008480  2**2
                  CONTENTS, ALLOC, LOAD, READONLY, CODE
  6 .rodata       00002970  2001551c  2001551c  0001751c  2**2
                  CONTENTS, ALLOC, LOAD, READONLY, DATA
  7 .eh_frame     000000f8  20017ea0  20017ea0  00019ea0  2**2
                  CONTENTS, ALLOC, LOAD, READONLY, DATA
  8 .data         000001fa  00080000  20017f98  0001a000  2**2
                  CONTENTS, ALLOC, LOAD, DATA
  9 .sbss         00000054  00080200  20018198  0001a1fa  2**2
                  ALLOC
 10 .bss          00016b24  00080254  200181ec  0001a1fa  2**2
                  ALLOC
 11 .debug_info   00023668  00000000  00000000  0001a1fa  2**0
                  CONTENTS, READONLY, DEBUGGING
 12 .debug_abbrev 000016f1  00000000  00000000  0003d862  2**0
                  CONTENTS, READONLY, DEBUGGING
 13 .debug_loc    0000eddf  00000000  00000000  0003ef53  2**0
                  CONTENTS, READONLY, DEBUGGING
 14 .debug_aranges 000008c8  00000000  00000000  0004dd38  2**3
                  CONTENTS, READONLY, DEBUGGING
 15 .debug_ranges 00004b50  00000000  00000000  0004e600  2**3
                  CONTENTS, READONLY, DEBUGGING
 16 .debug_line   0000f46c  00000000  00000000  00053150  2**0
                  CONTENTS, READONLY, DEBUGGING
 17 .debug_str    0000b1d9  00000000  00000000  000625bc  2**0
                  CONTENTS, READONLY, DEBUGGING
 18 .comment      00000037  00000000  00000000  0006d795  2**0
                  CONTENTS, READONLY
 19 .riscv.attributes 0000003b  00000000  00000000  0006d7cc  2**0
                  CONTENTS, READONLY
 20 .debug_frame  00002928  00000000  00000000  0006d808  2**2
                  CONTENTS, READONLY, DEBUGGING
SYMBOL TABLE:
20000000 l    d  .vectors	00000000 .vectors
00000000 l    d  .retention_reset	00000000 .retention_reset
00000158 l    d  .aes_data	00000000 .aes_data
00000178 l    d  .retention_data	00000000 .retention_data
00001400 l    d  .ram_code	00000000 .ram_code
20006480 l    d  .text	00000000 .text
2001551c l    d  .rodata	00000000 .rodata
20017ea0 l    d  .eh_frame	00000000 .eh_frame
00080000 l    d  .data	00000000 .data
00080200 l    d  .sbss	00000000 .sbss
00080254 l    d  .bss	00000000 .bss
00000000 l    d  .debug_info	00000000 .debug_info
00000000 l    d  .debug_abbrev	00000000 .debug_abbrev
00000000 l    d  .debug_loc	00000000 .debug_loc
00000000 l    d  .debug_aranges	00000000 .debug_aranges
00000000 l    d  .debug_ranges	00000000 .debug_ranges
00000000 l    d  .debug_line	00000000 .debug_line
00000000 l    d  .debug_str	00000000 .debug_str
00000000 l    d  .comment	00000000 .comment
00000000 l    d  .riscv.attributes	00000000 .riscv.attributes
00000000 l    d  .debug_frame	00000000 .debug_frame
00000000 l    df *ABS*	00000000 ./boot/B91/cstartup_B91.o
20000028 l       .vectors	00000000 _START
20000030 l       .vectors	00000000 _SWS_USB_DIS
2000008e l       .vectors	00000000 _RETENTION_RESET_INIT
200000a6 l       .vectors	00000000 _RETENTION_RESET_BEGIN
200000b8 l       .vectors	00000000 _RETENTION_DATA_INIT
200000cc l       .vectors	00000000 _RETENTION_DATA_INIT_BEGIN
200000de l       .vectors	00000000 _RAMCODE_INIT
200000f6 l       .vectors	00000000 _RAMCODE_INIT_BEGIN
20000108 l       .vectors	00000000 _DATA_INIT
20000120 l       .vectors	00000000 _DATA_INIT_BEGIN
20000132 l       .vectors	00000000 _ZERO_BSS
20000146 l       .vectors	00000000 _ZERO_BSS_BEGIN
20000152 l       .vectors	00000000 _ZERO_AES
20000166 l       .vectors	00000000 _ZERO_AES_BEGIN
20000172 l       .vectors	00000000 _FILL_STK
20000172 l       .vectors	00000000 _MAIN_FUNC
20000188 l       .vectors	00000000 _END
00000022 l       .retention_reset	00000000 _ISTART
0000002a l       .retention_reset	00000000 _ISWS_USB_DIS
00000088 l       .retention_reset	00000000 _WAKEUP_FLASH
000000a2 l       .retention_reset	00000000 _MSPI_WAIT
000000bc l       .retention_reset	00000000 _WAIT_EFUSE_LOAD_FINISH
000000c2 l       .retention_reset	00000000 _MULTI_ADDRESS_BEGIN
000000d6 l       .retention_reset	00000000 _IDATA_INIT
000000ee l       .retention_reset	00000000 _IDATA_INIT_BEGIN
00000100 l       .retention_reset	00000000 _IZERO_BSS
00000114 l       .retention_reset	00000000 _IZERO_BSS_BEGIN
00000120 l       .retention_reset	00000000 _IZERO_AES
00000134 l       .retention_reset	00000000 _IZERO_AES_BEGIN
00000140 l       .retention_reset	00000000 _IFILL_STK
00000140 l       .retention_reset	00000000 _IMAIN_FUNC
00000156 l       .retention_reset	00000000 _IEND
00000040 l       *ABS*	00000000 irqno
00000000 l    df *ABS*	00000000 
00001400 l     F .ram_code	00000004 timer0_irq_handler
00001404 l     F .ram_code	00000004 gpio_irq_handler
20006534 l     F .text	0000001e IsOnline
20006554 l     F .text	00000012 IsJoinedNetwork
20006568 l     F .text	00000078 FL_NODELIST_TABLE_Updated
200065e4 l     F .text	00000036 fl_db_crc32
2000661c l     F .text	0000008c aes_set_key_data
200066a8 l     F .text	00000054 FL_QUEUE_GET
200066fc l     F .text	00000058 FL_QUEUE_ADD
20006754 l     F .text	00000006 _Simulate
2000675c l     F .text	00000158 fl_rtc_timestamp_to_datetime
00001408 l     F .ram_code	000000d8 dr_putchar
200068b4 l     F .text	00000036 TEST_Counter_Event
200068ec l     F .text	00000050 blt_soft_timer_delete_by_index.part.1
2000693c l     F .text	00000098 blt_soft_timer_delete
200069d4 l     F .text	0000009e blt_soft_timer_sort
20006a74 l     F .text	0000003a fl_packet_parse
20006ab0 l     F .text	00000106 _help
20006bb8 l     F .text	000001ba blt_soft_timer_process
20006d74 l     F .text	000000f8 blt_soft_timer_add
20006e6c l     F .text	00000e5a tbs_counter_printf
20007cc8 l     F .text	0000005c fl_queueREQcRSP_clear
20007d28 l     F .text	00000062 FL_QUEUE_CLEAR
20007d8c l     F .text	00000016 ct_remove_nwwk
000014e0 l     F .ram_code	00000004 stimer_irq_handler
000014e4 l     F .ram_code	00000004 rf_irq_handler
20007da4 l     F .text	0000004e plog_IndexOf.part.0.lto_priv.78
20007da4 l     F .text	0000004e plog_IndexOf.part.0.lto_priv.79
20007da4 l     F .text	0000004e plog_IndexOf.part.1
20007df4 l     F .text	00000072 FL_QUEUE_FIND
20007e68 l     F .text	000000c0 _set_plog
20007f28 l     F .text	000000ae _informMaster
2000886c l     F .text	0000017a _Inform11_rsp_callback
20007fd8 l     F .text	0000001a fl_durationADV_timeout_proccess
20007ff4 l     F .text	000001aa fl_nwk_joinnwk_timeout
2000a870 l     F .text	00000860 fl_controller_event_callback
200081a0 l     F .text	00000114 fl_nwk_decrypt16
200082b4 l     F .text	0000010e fl_nwk_encrypt16
200083c4 l     F .text	0000040e fl_adv_send
20008840 l     F .text	00000028 _isOnline_check
000018ac l     F .ram_code	00000168 flash_mspi_read_ram
200091c8 l     F .text	000000b2 blc_readFlashSize_autoConfigCustomFlashSector
2000927c l     F .text	000000e8 fl_db_slaveuserdata_load
20009364 l     F .text	000000d8 fl_db_slavesettings_load
20009440 l     F .text	000000e2 fl_db_slaveprofile_load
20009524 l     F .text	0000004c fl_db_rtc_load
200095d4 l     F .text	0000006e fl_db_clearAll
20009644 l     F .text	0000002c fl_db_Pairing_Clear
20009670 l     F .text	00000130 fl_db_slaveuserdata_save
20009890 l     F .text	00000116 fl_db_slaveprofile_save
200099a8 l     F .text	000004ba _nwk_slave_backup
20009e64 l     F .text	0000037e fl_db_slaveprofile_init
2000a1e4 l     F .text	0000006a fl_nwk_slave_nwkclear
2000a68c l     F .text	000000ee _interval_report
2000a1e4 l     F .text	0000006a fl_nwk_slave_nwkRemove
2000a250 l     F .text	0000007a fl_db_rtc_save
2000a2cc l     F .text	00000082 fl_rtc_getWithMilliStep
2000a418 l     F .text	0000002a fl_rtc_get
2000a444 l     F .text	00000246 TBS_Device_Init
2000a77c l     F .text	00000066 fl_rtc_set
2000a7e4 l     F .text	0000008a REBOOT_DEV
2000b0d0 l     F .text	000000aa app_system_time_sync
2000b17c l     F .text	000001a2 fl_rtc_sync
2000b320 l     F .text	00000e92 fl_rsp_slave_packet_build
00080360 l     O .bss	00003600 G_HISTORY_CONTAINER
2000c1b4 l     F .text	00002208 fl_adv_run
2000e3c0 l     F .text	0000001a main_loop
00001b28 l     F .ram_code	00000104 rf_drv_ble_init
2000e3dc l     F .text	000000da clock_cal_32k_rc
2000e598 l     F .text	00000f76 user_init_normal
2000f88c l     F .text	0000020a _Passing_CmdLine
2000f5f4 l     F .text	0000003c FLASH_ReadStatusReg
2000f630 l     F .text	000000b6 W25XXX_WR_Page
00080254 l     O .bss	00000010 FL_NWK_USE_KEY
00080264 l     O .bss	00000011 FOTA_SLAVE_INFO
00080278 l     O .bss	000000e6 G_COUNTER_LCD
00083960 l     O .bss	00000370 G_NODELIST_TABLE
00083cd0 l     O .bss	00005200 g_data_array
00088ed0 l     O .bss	00005200 g_fw_receiving_array
0008e0d0 l     O .bss	00000a40 g_fw_sending_array
0008eb10 l     O .bss	00000a40 g_handle_array
0008f550 l     O .bss	00005200 g_history_sending_array
00094750 l     O .bss	00000a40 g_nodelist_array
00095190 l     O .bss	00000a40 g_pack_array
00095bd0 l     O .bss	00000010 map
00080000 l     O .data	00000010 FL_NWK_PB_KEY
00080010 l     O .data	0000000c G_DATA_CONTAINER
0008001c l     O .data	0000000c G_FW_QUEUE_REC
00080028 l     O .data	0000000c G_FW_QUEUE_SENDING
00080034 l     O .data	0000000c G_HANDLE_CONTAINER
00080040 l     O .data	0000000c G_QUEUE_HISTORY_SENDING
0008004c l     O .data	0000000c G_REPEAT_CONTAINER
00080058 l     O .data	00000012 MASTER_CLEARNETWORK
0008006c l     O .data	0000000c NODELIST_TABLE_SENDING
00080078 l     O .data	000000ea SLAVE_SETTINGS_DEFAULT
00080164 l     O .data	00000037 SLAVE_USERDATA_DEFAULT
00000178 l     O .retention_data	000000f1 blt_timer
0000026c l     O .retention_data	00000008 advData_backup
00000274 l     O .retention_data	00000004 flash_sector_mac_address
00000278 l     O .retention_data	00000004 flash_sector_calibration
0000027c l     O .retention_data	00000004 RTC_OFFSET_TIME
00000280 l     O .retention_data	00000006 adc_vref_cfg
00000288 l     O .retention_data	00000330 app_acl_txfifo
000005b8 l     O .retention_data	00000180 app_acl_rxfifo
00000738 l     O .retention_data	00000001 g_plic_preempt_en
200156c0 l     O .rodata	0000000f FL_NWK_HDR
200156d0 l     O .rodata	0000000f G_NWK_HDR
200156e0 l     O .rodata	0000000c G_NWK_HDR_LIST
20015734 l     O .rodata	0000001b SLAVE_PROFILE_DEFAULT
200158b0 l     O .rodata	0000000c __FUNCTION__.10022
200158bc l     O .rodata	00000018 __FUNCTION__.10042
200158d4 l     O .rodata	00000018 __FUNCTION__.10066
200158ec l     O .rodata	00000018 __FUNCTION__.10089
20015904 l     O .rodata	00000019 __FUNCTION__.10170
20015920 l     O .rodata	00000019 __FUNCTION__.10226
2001593c l     O .rodata	00000019 __FUNCTION__.10250
20015958 l     O .rodata	0000000b __FUNCTION__.10317
20015964 l     O .rodata	00000017 __FUNCTION__.10495
2001597c l     O .rodata	00000011 __FUNCTION__.10520
20015990 l     O .rodata	0000000e __FUNCTION__.10529
200159a0 l     O .rodata	0000000b __FUNCTION__.10541
200159ac l     O .rodata	00000011 __FUNCTION__.10561
200159c0 l     O .rodata	0000001d __FUNCTION__.10590
200159e0 l     O .rodata	00000019 __FUNCTION__.10601
200159fc l     O .rodata	00000016 __FUNCTION__.10734
20015a14 l     O .rodata	0000001d __FUNCTION__.10829
20015a34 l     O .rodata	0000001a __FUNCTION__.10860
20015a50 l     O .rodata	00000013 __FUNCTION__.12966
20015a64 l     O .rodata	00000017 __FUNCTION__.13002
20015a7c l     O .rodata	00000015 __FUNCTION__.13141
20015a94 l     O .rodata	00000011 __FUNCTION__.13167
20015aa8 l     O .rodata	00000010 __FUNCTION__.13789
20015ab8 l     O .rodata	00000017 __FUNCTION__.13822
20015ad0 l     O .rodata	0000000e __FUNCTION__.13871
20015ae0 l     O .rodata	00000011 __FUNCTION__.13883
20015af4 l     O .rodata	00000012 __FUNCTION__.13895
20015b08 l     O .rodata	0000001d __FUNCTION__.13922
20015b28 l     O .rodata	00000014 __FUNCTION__.14002
20015b3c l     O .rodata	00000012 __FUNCTION__.14192
20015b50 l     O .rodata	00000014 __FUNCTION__.14202
20015b64 l     O .rodata	00000018 __FUNCTION__.14212
20015b7c l     O .rodata	0000000c __FUNCTION__.14217
20015b88 l     O .rodata	00000014 __FUNCTION__.14284
20015b9c l     O .rodata	0000000b __FUNCTION__.14314
20015ba8 l     O .rodata	0000001a __FUNCTION__.14338
20015bc4 l     O .rodata	00000012 __FUNCTION__.14662
20015bd8 l     O .rodata	00000013 __FUNCTION__.14673
20015bec l     O .rodata	00000013 __FUNCTION__.14793
20015c00 l     O .rodata	00000018 __FUNCTION__.14876
20015c18 l     O .rodata	00000017 __FUNCTION__.14947
20015c30 l     O .rodata	00000015 __FUNCTION__.14991
20015c48 l     O .rodata	00000011 __FUNCTION__.15109
20015c5c l     O .rodata	00000019 __FUNCTION__.15336
20015c78 l     O .rodata	0000001f __FUNCTION__.15638
20015c98 l     O .rodata	00000015 __FUNCTION__.15663
20015cb0 l     O .rodata	0000000c __FUNCTION__.9994
2001600c l     O .rodata	0000000c days_in_month
20016d88 l     O .rodata	000000a9 help
20016e34 l     O .rodata	000000f0 plog_cmd
00080200 l     O .sbss	00000004 FL_NWK_COLLECTION_MODE
00080204 l     O .sbss	00000001 F_SENDING_STATE
00080205 l     O .sbss	00000001 GETINFO_FLAG_EVENTTEST
00080208 l     O .sbss	00000004 Passing
0008020c l     O .sbss	00000005 WIFI_ORIGINAL_GETALL
00080211 l     O .sbss	00000001 check_inused.14179
00080214 l     O .sbss	00000004 crc32.10803
00080218 l     O .sbss	00000004 crc32.15319
0008021c l     O .sbss	00000004 crc_check_change.15646
00080220 l     O .sbss	00000001 debug_on_offline.14990
00080221 l     O .sbss	00000001 g_single_tong_freqoffset
00080224 l     O .sbss	00000004 mcause
00080228 l     O .sbss	00000004 mepc
0008022c l     O .sbss	00000004 pre_crc32.13878
000801d8 l     O .data	00000004 TXADDR
20017e7c l     O .rodata	00000004 rf_rx_dma_config
20017e80 l     O .rodata	00000004 rf_tx_dma_config
00000000 l    df *ABS*	00000000 
000030a8 l     F .ram_code	00000024 blt_reset_conn_phy_param.constprop.17
2000fab4 l     F .text	00000030 blt_ll_unknown_rsp.constprop.16
000030cc l     F .ram_code	00000010 smemset.constprop.15
2000fae8 l     F .text	00000058 blc_gatt_requestServiceAccess.constprop.6
2000fb40 l     F .text	00000076 aes_ll_encryption
2000fbb8 l     F .text	00000014 blc_gap_send_event
2000fbd0 l     F .text	00000052 blc_smp_procParingEnd
2000fc24 l     F .text	0000008a att_Find_end_group
2000fcb0 l     F .text	0000009e l2cap_att_search
2000fd50 l     F .text	00000014 blc_hci_send_event
000030dc l     F .ram_code	0000007c blt_ll_searchAddr_in_WhiteList
00003158 l     F .ram_code	00000090 blt_terminate_proc
000031e8 l     F .ram_code	00000084 blt_terminate_pending_proc
0000326c l     F .ram_code	000000ac bls_ll_setNewConnection_timing
00003318 l     F .ram_code	00000138 blt_brx_timing_update
00003450 l     F .ram_code	00000044 blt_brx_timing_update_init
00003494 l     F .ram_code	00000078 blt_set_fsmTimeout_intLevel
0000350c l     F .ram_code	00000048 blc_calc_remapping_table
00003554 l     F .ram_code	000000a4 blt_ll_channelTable_calc
000036c8 l     F .ram_code	00000024 irq_ll_system_timer
2000fd68 l     F .text	000000a4 blt_ll_exchangeDataLength
0000372c l     F .ram_code	00000040 rf_set_rxmode
000037b4 l     F .ram_code	00000048 pm_get_32k_rc_calib
000037fc l     F .ram_code	0000005c pm_update_32k_rc_sleep_tick
00003858 l     F .ram_code	00000098 smp_quickResolvPrivateAddr
000038f0 l     F .ram_code	00000070 blt_ll_searchAddr_in_ResolvingList
00003960 l     F .ram_code	0000002c ll_searchAddr_in_WhiteList_and_ResolvingList
0000398c l     F .ram_code	00000060 blt_ll_getRealTxFifoNumber
000039ec l     F .ram_code	00000078 blc_ll_getTxFifoNumber
00003a64 l     F .ram_code	000000c4 pm_wait_bbpll_done
00003b28 l     F .ram_code	000001b4 pm_sleep_start
2000ffb8 l     F .text	000005be fl_req_slave_packet_createNsend.constprop.24
20010578 l     F .text	00000068 pwm_kick_32k_pad.constprop.22
00003cdc l     F .ram_code	000002b4 bls_ll_procRxPacket.constprop.18
200105e0 l     F .text	0000006e smp_write_flash_page
20010650 l     F .text	00000352 bls_smp_pairing_success.part.3
00003f90 l     F .ram_code	00000154 irq_scan_rx_primary_channel
000040e4 l     F .ram_code	000001ec irq_blc_ll_rx
000042d0 l     F .ram_code	000000d4 blt_setScan_enter_manaul_rx
000043a4 l     F .ram_code	000000b0 blt_ll_start_common
00004454 l     F .ram_code	00000478 cpu_sleep_wakeup_32k_rc_ram
00004d88 l     F .ram_code	000001c0 aes_ccmAuthTran.constprop.14
00004f48 l     F .ram_code	000001b4 aes_ccmBaseTran.isra.0.constprop.13
000050fc l     F .ram_code	000000d4 aes_ll_ccm_decryption.constprop.12
20011b28 l     F .text	000000ea blt_smp_alg_c1.constprop.1
20011c14 l     F .text	00000148 blt_leg_scan_mainloop_task
20011d5c l     F .text	00000066 bls_ll_send_read_remote_feature_event.part.5
000051d0 l     F .ram_code	00000120 connUpdate_mapUpdate_proc
000052f0 l     F .ram_code	00000150 blt_brx_post
00005440 l     F .ram_code	00000194 blt_ll_channel_conn_update
000055d4 l     F .ram_code	00000050 bls_ll_procUpdateReq
00005838 l     F .ram_code	000000e4 blt_push_fifo_hw
0000591c l     F .ram_code	00000120 blt_brx_start
200135fc l     F .text	00000096 bls_ll_pushEncPkt
00005b98 l     F .ram_code	00000100 blt_ll_connect_common
00096334 l     O .bss	00000a40 g_sending_array
0000073c l     O .retention_data	0000000c blt_conn_phy
00000748 l     O .retention_data	00000010 bltPHYs
0000075c l     O .retention_data	00000070 tbl_bondDevice
000007cc l     O .retention_data	00000028 blc_cyrpt_para
000007f4 l     O .retention_data	00000004 blc_gap_event_handler
0000083c l     O .retention_data	00000001 smp_DistributeKeyInit
00000840 l     O .retention_data	00000001 smp_DistributeKeyResp
00000844 l     O .retention_data	00000004 smp_phase_record
00000848 l     O .retention_data	00000004 gap_eventMask
0000084c l     O .retention_data	00000004 gAttributes
00000854 l     O .retention_data	00000022 ll_whiteList_tbl
000008e0 l     O .retention_data	00000004 blc_tlkEvent_pending
000008f8 l     O .retention_data	00000058 blttcon
00000994 l     O .retention_data	00000004 pkt_slave_terminate
00000998 l     O .retention_data	00000010 bls_timing
000009b0 l     O .retention_data	00000001 g_num_used_chans
000009b4 l     O .retention_data	00000004 blt_advExpectTime
000009d4 l     O .retention_data	00000004 blt_dleSendTime_tick
000009d8 l     O .retention_data	00000001 blt_ll_version_ind_rsp_flag
000009dc l     O .retention_data	00000004 ll_connTerminate_handler
000009e4 l     O .retention_data	00000004 hci_eventMask
000009e8 l     O .retention_data	00000010 blc_tlkEvent_data
000009fc l     O .retention_data	00000004 hci_tlk_module_eventMask
00000a50 l     O .retention_data	00000029 pmcd
00000a7c l     O .retention_data	00000004 g_pm_tick_32k_calib
00000a80 l     O .retention_data	00000001 g_pm_long_suspend
00000a84 l     O .retention_data	00000032 ll_resolvingList_tbl
00000ab6 l     O .retention_data	00000001 g_pm_suspend_power_cfg
00000ab8 l     O .retention_data	00000040 adv_rx_buff
00000b4f l     O .retention_data	00000001 adv_peak_current_opt
00000b50 l     O .retention_data	00000004 blc_rf_pa_cb
00000b54 l     O .retention_data	00000004 blc_rcvd_connReq_tick
00000b64 l     O .retention_data	00000050 smp_param_peer
00000bb4 l     O .retention_data	00000024 mlDevMng
00000bd8 l     O .retention_data	00000048 smp_param_own
00000c20 l     O .retention_data	00000004 bond_device_flash_cfg_idx
00000c24 l     O .retention_data	00000004 smp_param_current_start_addr
00000c28 l     O .retention_data	00000008 scan_priRxFifo
00000c5c l     O .retention_data	00000004 ll_phy_switch_cb
00000c64 l     O .retention_data	00000004 ll_chn_index_calc_cb
00000c68 l     O .retention_data	00000004 ll_conn_phy_swicth_cb
00000c6c l     O .retention_data	00000004 func_before_suspend
00000c70 l     O .retention_data	00000004 g_pm_tick_32k_cur
00000c74 l     O .retention_data	00000004 g_pm_tick_cur
00000c7c l     O .retention_data	00000004 pm_get_32k_tick
00000c88 l     O .retention_data	00000004 ll_conn_phy_update_cb
00000c8c l     O .retention_data	00000004 lmp_tick
00000c90 l     O .retention_data	00000004 lmp_timeout
00000c94 l     O .retention_data	00000001 bls_peer_start_enc_flag
00000c98 l     O .retention_data	00000004 blt_bb
00000c9c l     O .retention_data	00000018 blt_buff_conn
00000cb4 l     O .retention_data	00000001 blt_smp_empty_pkt_entry
00000cb8 l     O .retention_data	00000004 blt_pconn
00000cbc l     O .retention_data	00000004 tx_stl_auto_mode_high_freq
00000cc0 l     O .retention_data	00000004 tx_stl_auto_mode
00000cc4 l     O .retention_data	00000004 ble_first_rx_tick_last
00000cc8 l     O .retention_data	00000004 ble_first_rx_tick_pre
00000ccc l     O .retention_data	00000004 ble_actual_conn_interval_tick
00000cd0 l     O .retention_data	00000004 ll_module_advSlave_cb
00000cd4 l     O .retention_data	00000004 ll_enter_pri_chn_scan_cb
00000cd8 l     O .retention_data	00000001 x_freertos_on
00000cdc l     O .retention_data	0000001c smpResSignalPkt
00000cf8 l     O .retention_data	0000000b pkt_errRsp
00000d04 l     O .retention_data	00000100 blt_buff_prepare_write
00000e04 l     O .retention_data	00000009 pkt_mtu_rsp
00000e10 l     O .retention_data	0000000c l2cap_buff
00001204 l     O .retention_data	00000100 blt_buff_ll_rx
00001104 l     O .retention_data	00000100 blt_buff_att_tx
00000e1c l     O .retention_data	00000010 smpOwnRand_const
00000e2c l     O .retention_data	00000001 smpPkShftCnt
00000e30 l     O .retention_data	00000004 func_smp_sc_pushPkt_proc
00000e34 l     O .retention_data	00000010 smpOwnParingConfirm
00000e44 l     O .retention_data	00000004 func_smp_sc_proc
00000e48 l     O .retention_data	0000000a bltAtt
00000e54 l     O .retention_data	00000004 pAppPrepareWriteBuff
00000e58 l     O .retention_data	00000002 prepare_pkt_current_len
00000e5a l     O .retention_data	00000002 pAppPrepareWrite_max_len
00000e5c l     O .retention_data	00000004 hid_reportmap_psrc
00000e60 l     O .retention_data	00000004 hid_reportmap_len
00000e64 l     O .retention_data	00000004 att_client_handler
00000e68 l     O .retention_data	00000004 att_sig_hander
00000e6c l     O .retention_data	00000004 l2cap_connUpdateRsp_cb
00000e70 l     O .retention_data	00000008 enc_skds
00000e78 l     O .retention_data	00000004 enc_ivs
00000e7c l     O .retention_data	00000001 restart_encryption
00000e80 l     O .retention_data	00000008 enc_skdm
00000e88 l     O .retention_data	00000004 enc_ivm
00000e8c l     O .retention_data	00000004 blt_ltk_request
00000e90 l     O .retention_data	00000004 ll_encryption_done_cb
00000e94 l     O .retention_data	00000004 LL_FEATURE_MASK_0
00000e98 l     O .retention_data	00000004 LL_FEATURE_MASK_1
00000ea0 l     O .retention_data	00000010 enc_ltk
00000eb0 l     O .retention_data	00000004 ll_connComplete_handler
00000eb4 l     O .retention_data	00000004 ll_irq_scan_rx_pri_chn_cb
00000eb8 l     O .retention_data	00000004 ll_leg_scan_mlp_task_cb
00000ec8 l     O .retention_data	00000200 scan_pri_chn_rx_fifo
000010c8 l     O .retention_data	00000004 blc_main_loop_phyTest_cb
000010d4 l     O .retention_data	00000004 ll_host_main_loop_cb
000010d8 l     O .retention_data	00000004 blc_hci_rx_handler
000010dc l     O .retention_data	00000004 blc_hci_tx_handler
000010e0 l     O .retention_data	00000004 pm_check_32k_clk_stable
000010e4 l     O .retention_data	00000004 ll_module_pm_cb
000010ec l     O .retention_data	00000004 tick_rc24mCal
000010f4 l     O .retention_data	00000004 g_rnd_m_w
000010f8 l     O .retention_data	00000004 g_rnd_m_z
000010fc l     O .retention_data	00000004 advertise_prepare_handler
00001100 l     O .retention_data	00000001 adv_decrease_time_opt
200177e8 l     O .rodata	00000019 __FUNCTION__.10196
20017804 l     O .rodata	00000016 __FUNCTION__.10291
2001781c l     O .rodata	00000014 __FUNCTION__.10533
20017830 l     O .rodata	00000011 __FUNCTION__.14225
20017844 l     O .rodata	00000020 __FUNCTION__.14235
20017864 l     O .rodata	00000017 __FUNCTION__.15024
2001787c l     O .rodata	00000018 __FUNCTION__.15668
20017894 l     O .rodata	00000010 att_access_err_enc
200178a4 l     O .rodata	00000010 att_access_err_no_enc
200178b4 l     O .rodata	0000001a cmd_length_array
20017ac8 l     O .rodata	00000064 gen_method_legacy
20017b2c l     O .rodata	00000064 gen_method_sc
0008023c l     O .sbss	00000004 g_chip_version
000801e8 l     O .data	00000008 g_pm_early_wakeup_time_us
000801f0 l     O .data	00000004 g_pm_r_delay_cycle
00000000 l    df *ABS*	00000000 memcpy.c
00000000 l    df *ABS*	00000000 printf.c
00000000 l    df *ABS*	00000000 strcpy.c
00000000 l    df *ABS*	00000000 strlen.c
00000000 l    df *ABS*	00000000 strrchr.c
00000000 l    df *ABS*	00000000 vprintf.c
20014a08 l     F .text	0000003a __vprintf_help
00080248 l     O .sbss	00000004 __vprintf_buf
0008024c l     O .sbss	00000004 __vprintf_buf_len
00000000 l    df *ABS*	00000000 printf_impl.c
00000000 l    df *ABS*	00000000 printf_impl_float.c
00000000 l    df *ABS*	00000000 strnlen.c
00000000 l    df *ABS*	00000000 libgcc2.c
00000000 l    df *ABS*	00000000 libgcc2.c
00000000 l    df *ABS*	00000000 printf_data.c
00002274 g     F .ram_code	00000048 entry_irq55
00002c6c g     F .ram_code	00000044 entry_irq13
200148fc g     F .text	0000007c strcpy
00002b54 g     F .ram_code	000000d4 entry_irq15
2001548c g     F .text	0000002e .hidden __ashldi3
00002824 g     F .ram_code	00000044 entry_irq27
0000210c g     F .ram_code	00000048 entry_irq60
00000b24 g     O .retention_data	0000002b .hidden pkt_scan_rsp
00000758 g     O .retention_data	00000004 .hidden ll_push_tx_fifo_handler
00001a5c g     F .ram_code	00000060 .hidden clock_set_32k_tick
00002f9c g     F .ram_code	000000d4 entry_irq1
20009574 g     F .text	00000060 .hidden _db_recheck_write
0000234c g     F .ram_code	00000048 entry_irq52
000023dc g     F .ram_code	00000048 entry_irq50
000010e8 g     O .retention_data	00000004 .hidden ll_module_adv_cb
0000207c g     F .ram_code	00000048 entry_irq62
200148dc g     F .text	0000001e printf
00080800 g       .data	00000000 __global_pointer$
200154c4 g       .text	00000000 .hidden __riscv_save_8
0000219c g     F .ram_code	00000048 entry_irq58
0000181c g     F .ram_code	00000044 .hidden flash_send_addr.lto_priv.75
00000b60 g     O .retention_data	00000004 .hidden flash_read_page
20015510 g       .text	00000000 .hidden __riscv_restore_3
00005c98 g     F .ram_code	00000050 .hidden blc_ll_initBasicMCU
00001304 g       .retention_data	00000000 _RETENTION_DATA_VMA_END
000801b8 g     O .data	0000000c .hidden G_QUEUE_SENDING
000801f4 g     O .data	00000006 .hidden sys_clk
200064d8 g     F .text	0000002c .hidden flash_dread
200154fc g       .text	00000000 .hidden __riscv_restore_10
00095be0 g     O .bss	0000001e .hidden G_COUNTER_DEV
000009f8 g     O .retention_data	00000004 .hidden hci_le_eventMask
000048cc g     F .ram_code	000000d0 .hidden flash_mspi_write_ram.constprop.67
200154c4 g       .text	00000000 .hidden __riscv_save_11
00080240 g     O .sbss	00000004 .hidden g_pm_status_info
20014a8e g     F .text	0000004c __print_integral
200109e8 g     F .text	0000029e .hidden nvm_reroll.constprop.63
00000000 g       .retention_reset	00000000 _RETENTION_RESET_VMA_START
00002d38 g     F .ram_code	00000044 entry_irq10
000029bc g     F .ram_code	00000044 entry_irq21
00000158 g       .aes_data	00000000 _AES_VMA_START
00000950 g     O .retention_data	00000004 .hidden pFunc_ll_SetAdv_Enable
00002428 g     F .ram_code	00000004 entry_irq48
000010cc g     O .retention_data	00000004 .hidden blc_main_loop_data_cb
20015510 g       .text	00000000 .hidden __riscv_restore_2
2000e4b8 g     F .text	000000dc .hidden cpu_wakeup_no_deepretn_back_init.lto_priv.77
00002dc0 g     F .ram_code	00000044 entry_irq8
000009a8 g     O .retention_data	00000004 .hidden CONN_SHORT_TOLERANCE_TIME
20010c88 g     F .text	00000064 .hidden FL_QUEUE_GET_LOOP.constprop.57
00002684 g     F .ram_code	00000048 entry_irq33
20011aa4 g     F .text	00000080 .hidden pwm_kick_32k_pad_times.constprop.21
00095c00 g     O .bss	00000054 .hidden G_INFORMATION
00096d78 g       .bss	00000000 _BSS_VMA_END
000008e4 g     O .retention_data	00000014 .hidden bltData
20014738 g     F .text	000000fa memcpy
20000190 g       *ABS*	00000000 _RETENTION_RESET_LMA_START
20014ada g     F .text	0000047a __printf_impl
20017e84 g     O .rodata	00000008 .hidden G_NWK_HDR_REQLIST
00002cb0 g     F .ram_code	00000044 entry_irq12
20014168 g     F .text	000004dc .hidden blt_send_adv
2000fa98 g     F .text	0000001a .hidden cpu_sleep_wakeup_32k_rc
0000376c g     F .ram_code	00000048 .hidden pm_tim_recover_32k_rc
2000fe10 g     F .text	000001a6 .hidden blt_slave_main_loop_post
00002c28 g     F .ram_code	00000044 entry_irq14
00095c54 g     O .bss	000006e0 .hidden G_QUEUE_REQ_CALL_RSP
200154bc g       .text	00000000 .hidden __riscv_save_12
000009ac g     O .retention_data	00000004 .hidden blt_miscParam
00000984 g     O .retention_data	00000010 .hidden blt_txfifo
00002f58 g     F .ram_code	00000044 entry_irq2
00002394 g     F .ram_code	00000048 entry_irq51
200154fc g       .text	00000000 .hidden __riscv_restore_11
000027e0 g     F .ram_code	00000044 entry_irq28
000024c4 g     F .ram_code	00000048 entry_irq43
200154ec g       .text	00000000 .hidden __riscv_save_1
20015510 g       .text	00000000 .hidden __riscv_restore_0
2000881c g     F .text	00000022 .hidden blt_soft_timer_restart
00002a00 g     F .ram_code	00000044 entry_irq20
200154d2 g       .text	00000000 .hidden __riscv_save_7
00080200 g       .sbss	00000000 _BSS_VMA_START
00002034 g     F .ram_code	00000048 entry_irq63
00005624 g     F .ram_code	000001b4 .hidden irq_blc_slave_rx_data
000801fa g       .data	00000000 _DATA_VMA_END
00002430 g     F .ram_code	00000048 entry_irq46
20008ab4 g     F .text	000000b6 .hidden fl_queueREQcRSP_sort
00000810 g     O .retention_data	0000002c .hidden bltParam
00002714 g     F .ram_code	00000044 entry_irq31
200117cc g     F .text	000002d6 .hidden fl_api_slave_req.constprop.23
000009e0 g     O .retention_data	00000004 .hidden blt_p_event_callback
20013eb8 g     F .text	0000022a .hidden blt_connect
00002b10 g     F .ram_code	00000044 entry_irq16
00100000 g       *ABS*	00000000 FLASH_SIZE
20015506 g       .text	00000000 .hidden __riscv_restore_5
00080000 g       .data	00000000 _DATA_VMA_START
000801dc g     O .data	00000002 .hidden FmDebug
00002304 g     F .ram_code	00000048 entry_irq53
00002cf4 g     F .ram_code	00000044 entry_irq11
00000158 g       .retention_reset	00000000 _RETENTION_RESET_VMA_END
20015442 g     F .text	00000018 strnlen
20015506 g       .text	00000000 .hidden __riscv_restore_6
00000a00 g     O .retention_data	00000050 .hidden blt_event_func
200149dc g     F .text	0000002c strrchr
200116e0 g     F .text	000000ea .hidden fl_db_tbsprofile_save.constprop.30
00002e8c g     F .ram_code	00000044 entry_irq5
00002934 g     F .ram_code	00000044 entry_irq23
00000b5c g     O .retention_data	00000004 .hidden flash_write_page
0000263c g     F .ram_code	00000048 entry_irq34
2001545c g     F .text	0000002e .hidden __lshrdi3
000025ac g     F .ram_code	00000048 entry_irq36
200154c4 g       .text	00000000 .hidden __riscv_save_9
0000247c g     F .ram_code	00000048 entry_irq44
200140e4 g     F .text	00000080 .hidden blc_ll_addScanningInAdvState
000007f8 g     O .retention_data	00000018 .hidden blc_smpMng
20014a42 g     F .text	0000004c vprintf
00002478 g     F .ram_code	00000004 entry_irq45
00002868 g     F .ram_code	00000044 entry_irq26
200154d2 g       .text	00000000 .hidden __riscv_save_4
00001680 g     F .ram_code	0000001c .hidden ble_rx_dma_config
000801c4 g     O .data	00000012 .hidden pkt_scan_req
00002554 g     F .ram_code	00000004 entry_irq41
0000169c g     F .ram_code	0000001c .hidden ble_tx_dma_config
200109a4 g     F .text	00000042 .hidden analog_read_reg32.constprop.65
000020c4 g     F .ram_code	00000048 entry_irq61
000010d0 g     O .retention_data	00000004 .hidden blc_main_loop_post_cb
00004ae8 g     F .ram_code	00000034 .hidden rf_set_power_level_index.constprop.48
20000000 g       .vectors	00000000 BIN_BEGIN
200154ec g       .text	00000000 .hidden __riscv_save_3
000016b8 g     F .ram_code	00000048 .hidden ble_rf_set_tx_dma
2000f80c g     F .text	0000007e .hidden FLASH_Erase_Sector
000060c8 g     F .ram_code	000001b4 .hidden irq_blt_sdk_handler
00001748 g     F .ram_code	00000094 .hidden cpu_stall_WakeUp_By_RF_SystemTick
20008c58 g     F .text	0000056e .hidden fl_adv_sendFIFO_add
00002560 g     F .ram_code	00000004 entry_irq38
2000f55c g     F .text	00000096 .hidden writeSPIByte
000035f8 g     F .ram_code	000000d0 .hidden bls_ll_setAdvEnable
00000c80 g     O .retention_data	00000004 .hidden pm_tim_recover
00000c48 g     O .retention_data	00000010 .hidden blt_rxfifo
00006300 g       .ram_code	00000000 __vectors
00018192 g       *ABS*	00000000 BIN_SIZE
00080244 g     O .sbss	00000004 .hidden nvm_current_pos
20017e64 g     O .rodata	00000010 __digits
20011dc4 g     F .text	000001ca .hidden bls_ll_pushTxFifo
20011594 g     F .text	0000014a .hidden fl_db_slavesettings_save.constprop.45
20001478 g       *ABS*	00000000 _RAMCODE_LMA_START
00001860 g     F .ram_code	0000004c .hidden flash_send_cmd
00000158 g     O .aes_data	00000020 .hidden aes_data_buff
00080250 g     O .sbss	00000004 __printf_count
00002154 g     F .ram_code	00000048 entry_irq59
20011f90 g     F .text	0000166c .hidden blc_l2cap_packet_receive
200146e8 g     F .text	0000004e memcmp
000801e0 g     O .data	00000006 .hidden blt_tx_empty_packet
00000ebc g     O .retention_data	0000000c .hidden bltMac
200087d4 g     F .text	00000048 .hidden generateRandomNum
00001aec g     F .ram_code	0000003c .hidden analog_write_reg8
00002e48 g     F .ram_code	00000044 entry_irq6
000036ec g     F .ram_code	00000040 .hidden blt_event_callback_func
200154c4 g       .text	00000000 .hidden __riscv_save_10
00001800 g     F .ram_code	0000001c .hidden delay_us
2000a350 g     F .text	000000c6 .hidden GenerateTimetampField
20017f98 g       *ABS*	00000000 _DATA_LMA_START
20014f74 g     F .text	00000090 __print_integral_poly
0000627c g     F .ram_code	0000004c .hidden trng_rand
20000000 g       *ABS*	00000000 NDS_SAG_LMA_FLASH
20015506 g       .text	00000000 .hidden __riscv_restore_4
200154fc g       .text	00000000 .hidden __riscv_restore_8
200154d2 g       .text	00000000 .hidden __riscv_save_6
00004d70 g     F .ram_code	00000018 .hidden smemcpy
20000000  w      .vectors	00000000 _RELAX_END_
00005a3c g     F .ram_code	0000015c .hidden irq_slave_system_timer
20015004 g     F .text	0000040a __printf_float_impl
20014832 g     F .text	000000aa memset
200154fc g       .text	00000000 .hidden __riscv_restore_9
20015506 g       .text	00000000 .hidden __riscv_restore_7
00001c70 g     F .ram_code	00000348 main
000017dc g     F .ram_code	00000024 .hidden delay_ms
00002f14 g     F .ram_code	00000044 entry_irq3
00003070 g     F .ram_code	00000034 trap_entry
00000178 g       .aes_data	00000000 _AES_VMA_END
000009b8 g     O .retention_data	00000018 .hidden blta
00000c60 g     O .retention_data	00000003 .hidden blc_adv_channel
20014644 g     F .text	000000a2 .hidden trng_init
0000255c g     F .ram_code	00000004 entry_irq39
00002424 g     F .ram_code	00000004 entry_irq49
00000c78 g     O .retention_data	00000004 g_pm_multi_addr
000021e4 g     F .ram_code	00000048 entry_irq57
0000242c g     F .ram_code	00000004 entry_irq47
200097a4 g     F .text	000000ec .hidden TBS_Device_Store_run
200002e8 g       *ABS*	00000000 _RETENTION_DATA_LMA_START
000009d0 g     O .retention_data	00000004 .hidden ll_irq_systemTick_conn_cb
20000000 g     F .vectors	00000000 _RESET_ENTRY
00001abc g     F .ram_code	00000030 .hidden clock_get_32k_tick
00000850 g     O .retention_data	00000004 .hidden blc_hci_event_handler
00000c30 g     O .retention_data	00000018 .hidden blts
00000178 g       .retention_data	00000000 _RETENTION_DATA_VMA_START
00002ed0 g     F .ram_code	00000044 entry_irq4
000a0000 g       *ABS*	00000000 _STACK_TOP
00002978 g     F .ram_code	00000044 entry_irq22
00001c2c g     F .ram_code	00000044 .hidden analog_read_reg8
20013694 g     F .text	00000822 .hidden blt_slave_main_loop_data
00002758 g     F .ram_code	00000044 entry_irq30
00004b1c g     F .ram_code	00000254 .hidden sys_init.constprop.20
00000b58 g     O .retention_data	00000004 .hidden ll_adv2conn_cb
20008b6c g     F .text	000000ea .hidden fl_queue_REQnRSP_TimeoutStart
0000250c g     F .ram_code	00000048 entry_irq42
00000c84 g     O .retention_data	00000004 .hidden cpu_sleep_wakeup
0008019c g     O .data	00000019 .hidden G_ADV_SETTINGS
000028f0 g     F .ram_code	00000044 entry_irq24
200154ec g       .text	00000000 .hidden __riscv_save_2
00006402 g       .ram_code	00000000 _RAMCODE_VMA_END
00001a14 g     F .ram_code	00000048 .hidden flash_wait_done.lto_priv.76
00000000  w      *ABS*	00000000 _ITB_BASE_
00000af8 g     O .retention_data	0000002b .hidden pkt_adv
200154d2 g       .text	00000000 .hidden __riscv_save_5
00002a44 g     F .ram_code	00000044 entry_irq19
2000f510 g     F .text	0000004c _write
00096d78 g       .bss	00000000 _end
00002acc g     F .ram_code	00000044 entry_irq17
00002d7c g     F .ram_code	00000044 entry_irq9
0000222c g     F .ram_code	00000048 entry_irq56
000014e8 g     F .ram_code	00000138 .hidden rf_set_ble_channel
00005ce8 g     F .ram_code	000003e0 .hidden blt_sdk_main_loop
20006480 g     F .text	00000058 .hidden flash_page_program
000025f4 g     F .ram_code	00000048 entry_irq35
00002564 g     F .ram_code	00000048 entry_irq37
000057d8 g     F .ram_code	00000060 .hidden irq_blc_slave_tx
00001fb8 g     F .ram_code	0000007c .hidden clock_cal_24m_rc
000022bc g     F .ram_code	00000048 entry_irq54
00000e9c g     O .retention_data	00000004 .hidden blc_l2cap_handler
00002558 g     F .ram_code	00000004 entry_irq40
000010f0 g     O .retention_data	00000004 .hidden ll_irq_tx_cb
200154f8 g       .text	00000000 .hidden __riscv_restore_12
00000878 g     O .retention_data	00000068 .hidden bltc
00001400 g       .ram_code	00000000 _RAMCODE_VMA_START
00001700 g     F .ram_code	00000048 .hidden ble_rf_set_rx_dma
200154ec g       .text	00000000 .hidden __riscv_save_0
2001497c g     F .text	0000005e strlen
00080234 g     O .sbss	00000005 .hidden ORIGINAL_MASTER_TIME
2000f6e8 g     F .text	00000124 .hidden W25XXX_WR_Block
0000279c g     F .ram_code	00000044 entry_irq29
20015410 g     F .text	00000030 strchr
0000499c g     F .ram_code	0000014c .hidden clock_init.constprop.54
20015510 g       .text	00000000 .hidden __riscv_restore_1
20006504 g     F .text	0000002e .hidden flash_erase_sector
20010cf0 g     F .text	000008a4 .hidden tbs_power_meter_printf.constprop.46
200089e8 g     F .text	00000038 .hidden blt_soft_timer_find
00002e04 g     F .ram_code	00000044 entry_irq7
000026cc g     F .ram_code	00000048 entry_irq32
00000000 g     F .retention_reset	00000000 _IRESET_ENTRY
00000954 g     O .retention_data	00000030 .hidden bltPm
20008a20 g     F .text	00000094 .hidden fl_adv_timetampStepInPack
00002a88 g     F .ram_code	00000044 entry_irq18
00000c58 g     O .retention_data	00000004 .hidden ll_irq_rx_data_cb
20014f54 g     F .text	00000020 __int_to_poly
000028ac g     F .ram_code	00000044 entry_irq25
00080231 g     O .sbss	00000001 .hidden NWK_REPEAT_MODE
000801de g     O .data	00000001 .hidden NWK_REPEAT_LEVEL
00080230 g     O .sbss	00000001 .hidden NWK_DEBUG_STT
00001620 g     F .ram_code	00000060 .hidden rf_start_fsm



Disassembly of section .vectors:

20000000 <_RESET_ENTRY>:
20000000:	a025                	c.j	20000028 <_START>
	...
20000016:	0000                	unimp
20000018:	8192                	c.mv	gp,tp
2000001a:	0001                	c.nop
2000001c:	0000                	unimp
2000001e:	0000                	unimp
20000020:	544c4e4b          	fnmsub.h	ft8,fs8,ft4,fa0,rmm
20000024:	0000                	unimp
20000026:	          	sllw	a4,zero,zero

20000028 <_START>:
20000028:	e0080197          	auipc	gp,0xe0080
2000002c:	7d818193          	addi	gp,gp,2008 # 80800 <__global_pointer$>

20000030 <_SWS_USB_DIS>:
20000030:	801002b7          	lui	t0,0x80100
20000034:	70028293          	addi	t0,t0,1792 # 80100700 <_DATA_LMA_START+0x600e8768>
20000038:	04000313          	li	t1,64
2000003c:	506280a3          	sb	t1,1281(t0)
20000040:	e00a0297          	auipc	t0,0xe00a0
20000044:	fc028293          	addi	t0,t0,-64 # a0000 <_STACK_TOP>
20000048:	8116                	c.mv	sp,t0
2000004a:	e0000297          	auipc	t0,0xe0000
2000004e:	fb628293          	addi	t0,t0,-74 # 0 <_ITB_BASE_>
20000052:	80029073          	csrw	uitb,t0
20000056:	6299                	c.lui	t0,0x6
20000058:	3002a2f3          	csrrs	t0,mstatus,t0
2000005c:	00301073          	fssr	zero
20000060:	e0006297          	auipc	t0,0xe0006
20000064:	2a028293          	addi	t0,t0,672 # 6300 <__vectors>
20000068:	30529073          	csrw	mtvec,t0
2000006c:	7d016073          	csrsi	mmisc_ctl,2
20000070:	e40002b7          	lui	t0,0xe4000
20000074:	430d                	c.li	t1,3
20000076:	0062a023          	sw	t1,0(t0) # e4000000 <_DATA_LMA_START+0xc3fe8068>
2000007a:	7ca022f3          	csrr	t0,mcache_ctl
2000007e:	0012e293          	ori	t0,t0,1
20000082:	0022e293          	ori	t0,t0,2
20000086:	7ca29073          	csrw	mcache_ctl,t0
2000008a:	0000100f          	fence.i

2000008e <_RETENTION_RESET_INIT>:
2000008e:	00000317          	auipc	t1,0x0
20000092:	10230313          	addi	t1,t1,258 # 20000190 <_RETENTION_RESET_LMA_START>
20000096:	e0000397          	auipc	t2,0xe0000
2000009a:	f6a38393          	addi	t2,t2,-150 # 0 <_ITB_BASE_>
2000009e:	e0000e17          	auipc	t3,0xe0000
200000a2:	0bae0e13          	addi	t3,t3,186 # 158 <_RETENTION_RESET_VMA_END>

200000a6 <_RETENTION_RESET_BEGIN>:
200000a6:	01c3f963          	bgeu	t2,t3,200000b8 <_RETENTION_DATA_INIT>
200000aa:	00032283          	lw	t0,0(t1)
200000ae:	0053a023          	sw	t0,0(t2)
200000b2:	0311                	c.addi	t1,4
200000b4:	0391                	c.addi	t2,4
200000b6:	bfc5                	c.j	200000a6 <_RETENTION_RESET_BEGIN>

200000b8 <_RETENTION_DATA_INIT>:
200000b8:	00000317          	auipc	t1,0x0
200000bc:	23030313          	addi	t1,t1,560 # 200002e8 <_RETENTION_DATA_LMA_START>
200000c0:	17800393          	li	t2,376
200000c4:	e0001e17          	auipc	t3,0xe0001
200000c8:	240e0e13          	addi	t3,t3,576 # 1304 <_RETENTION_DATA_VMA_END>

200000cc <_RETENTION_DATA_INIT_BEGIN>:
200000cc:	01c3f963          	bgeu	t2,t3,200000de <_RAMCODE_INIT>
200000d0:	00032283          	lw	t0,0(t1)
200000d4:	0053a023          	sw	t0,0(t2)
200000d8:	0311                	c.addi	t1,4
200000da:	0391                	c.addi	t2,4
200000dc:	bfc5                	c.j	200000cc <_RETENTION_DATA_INIT_BEGIN>

200000de <_RAMCODE_INIT>:
200000de:	00001317          	auipc	t1,0x1
200000e2:	39a30313          	addi	t1,t1,922 # 20001478 <_RAMCODE_LMA_START>
200000e6:	e0001397          	auipc	t2,0xe0001
200000ea:	31a38393          	addi	t2,t2,794 # 1400 <timer0_irq_handler>
200000ee:	e0006e17          	auipc	t3,0xe0006
200000f2:	314e0e13          	addi	t3,t3,788 # 6402 <_RAMCODE_VMA_END>

200000f6 <_RAMCODE_INIT_BEGIN>:
200000f6:	01c3f963          	bgeu	t2,t3,20000108 <_DATA_INIT>
200000fa:	00032283          	lw	t0,0(t1)
200000fe:	0053a023          	sw	t0,0(t2)
20000102:	0311                	c.addi	t1,4
20000104:	0391                	c.addi	t2,4
20000106:	bfc5                	c.j	200000f6 <_RAMCODE_INIT_BEGIN>

20000108 <_DATA_INIT>:
20000108:	00018317          	auipc	t1,0x18
2000010c:	e9030313          	addi	t1,t1,-368 # 20017f98 <_DATA_LMA_START>
20000110:	e0080397          	auipc	t2,0xe0080
20000114:	ef038393          	addi	t2,t2,-272 # 80000 <_DATA_VMA_START>
20000118:	e0080e17          	auipc	t3,0xe0080
2000011c:	0e2e0e13          	addi	t3,t3,226 # 801fa <_DATA_VMA_END>

20000120 <_DATA_INIT_BEGIN>:
20000120:	01c3f963          	bgeu	t2,t3,20000132 <_ZERO_BSS>
20000124:	00032283          	lw	t0,0(t1)
20000128:	0053a023          	sw	t0,0(t2)
2000012c:	0311                	c.addi	t1,4
2000012e:	0391                	c.addi	t2,4
20000130:	bfc5                	c.j	20000120 <_DATA_INIT_BEGIN>

20000132 <_ZERO_BSS>:
20000132:	000002b7          	lui	t0,0x0
20000136:	e0080397          	auipc	t2,0xe0080
2000013a:	0ca38393          	addi	t2,t2,202 # 80200 <_BSS_VMA_START>
2000013e:	e0097e17          	auipc	t3,0xe0097
20000142:	c3ae0e13          	addi	t3,t3,-966 # 96d78 <_BSS_VMA_END>

20000146 <_ZERO_BSS_BEGIN>:
20000146:	01c3f663          	bgeu	t2,t3,20000152 <_ZERO_AES>
2000014a:	0053a023          	sw	t0,0(t2)
2000014e:	0391                	c.addi	t2,4
20000150:	bfdd                	c.j	20000146 <_ZERO_BSS_BEGIN>

20000152 <_ZERO_AES>:
20000152:	000002b7          	lui	t0,0x0
20000156:	e0000397          	auipc	t2,0xe0000
2000015a:	00238393          	addi	t2,t2,2 # 158 <_RETENTION_RESET_VMA_END>
2000015e:	e0000e17          	auipc	t3,0xe0000
20000162:	01ae0e13          	addi	t3,t3,26 # 178 <_AES_VMA_END>

20000166 <_ZERO_AES_BEGIN>:
20000166:	01c3f663          	bgeu	t2,t3,20000172 <_FILL_STK>
2000016a:	0053a023          	sw	t0,0(t2)
2000016e:	0391                	c.addi	t2,4
20000170:	bfdd                	c.j	20000166 <_ZERO_AES_BEGIN>

20000172 <_FILL_STK>:
20000172:	0001                	c.nop
20000174:	e0002297          	auipc	t0,0xe0002
20000178:	afc28293          	addi	t0,t0,-1284 # 1c70 <main>
2000017c:	9282                	c.jalr	t0
2000017e:	0001                	c.nop
20000180:	0001                	c.nop
20000182:	0001                	c.nop
20000184:	0001                	c.nop
20000186:	0001                	c.nop

20000188 <_END>:
20000188:	a001                	c.j	20000188 <_END>

Disassembly of section .retention_reset:

00000000 <_IRESET_ENTRY>:
   0:	a00d                	c.j	22 <_ISTART>
	...

00000022 <_ISTART>:
  22:	00080197          	auipc	gp,0x80
  26:	7de18193          	addi	gp,gp,2014 # 80800 <__global_pointer$>

0000002a <_ISWS_USB_DIS>:
  2a:	801002b7          	lui	t0,0x80100
  2e:	70028293          	addi	t0,t0,1792 # 80100700 <_DATA_LMA_START+0x600e8768>
  32:	04000313          	li	t1,64
  36:	506280a3          	sb	t1,1281(t0)
  3a:	000a0297          	auipc	t0,0xa0
  3e:	fc628293          	addi	t0,t0,-58 # a0000 <_STACK_TOP>
  42:	8116                	c.mv	sp,t0
  44:	00000297          	auipc	t0,0x0
  48:	fbc28293          	addi	t0,t0,-68 # 0 <_IRESET_ENTRY>
  4c:	80029073          	csrw	uitb,t0
  50:	6299                	c.lui	t0,0x6
  52:	3002a2f3          	csrrs	t0,mstatus,t0
  56:	00301073          	fssr	zero
  5a:	00006297          	auipc	t0,0x6
  5e:	2a628293          	addi	t0,t0,678 # 6300 <__vectors>
  62:	30529073          	csrw	mtvec,t0
  66:	7d016073          	csrsi	mmisc_ctl,2
  6a:	e40002b7          	lui	t0,0xe4000
  6e:	430d                	c.li	t1,3
  70:	0062a023          	sw	t1,0(t0) # e4000000 <_DATA_LMA_START+0xc3fe8068>
  74:	7ca022f3          	csrr	t0,mcache_ctl
  78:	0012e293          	ori	t0,t0,1
  7c:	0022e293          	ori	t0,t0,2
  80:	7ca29073          	csrw	mcache_ctl,t0
  84:	0000100f          	fence.i

00000088 <_WAKEUP_FLASH>:
  88:	801402b7          	lui	t0,0x80140
  8c:	0ff00313          	li	t1,255
  90:	4381                	c.li	t2,0
  92:	0ab00e13          	li	t3,171
  96:	326284a3          	sb	t1,809(t0) # 80140329 <_DATA_LMA_START+0x60128391>
  9a:	107280a3          	sb	t2,257(t0)
  9e:	11c28023          	sb	t3,256(t0)

000000a2 <_MSPI_WAIT>:
  a2:	801402b7          	lui	t0,0x80140
  a6:	10228383          	lb	t2,258(t0) # 80140102 <_DATA_LMA_START+0x6012816a>
  aa:	4e05                	c.li	t3,1
  ac:	4ec1                	c.li	t4,16
  ae:	fe7e0ae3          	beq	t3,t2,a2 <_MSPI_WAIT>
  b2:	11d280a3          	sb	t4,257(t0)
  b6:	4281                	c.li	t0,0
  b8:	0e200313          	li	t1,226

000000bc <_WAIT_EFUSE_LOAD_FINISH>:
  bc:	0285                	c.addi	t0,1
  be:	fe537fe3          	bgeu	t1,t0,bc <_WAIT_EFUSE_LOAD_FINISH>

000000c2 <_MULTI_ADDRESS_BEGIN>:
  c2:	801402b7          	lui	t0,0x80140
  c6:	00001317          	auipc	t1,0x1
  ca:	bb230313          	addi	t1,t1,-1102 # c78 <g_pm_multi_addr>
  ce:	00032383          	lw	t2,0(t1)
  d2:	1072a223          	sw	t2,260(t0) # 80140104 <_DATA_LMA_START+0x6012816c>

000000d6 <_IDATA_INIT>:
  d6:	20018317          	auipc	t1,0x20018
  da:	ec230313          	addi	t1,t1,-318 # 20017f98 <_DATA_LMA_START>
  de:	00080397          	auipc	t2,0x80
  e2:	f2238393          	addi	t2,t2,-222 # 80000 <_DATA_VMA_START>
  e6:	00080e17          	auipc	t3,0x80
  ea:	114e0e13          	addi	t3,t3,276 # 801fa <_DATA_VMA_END>

000000ee <_IDATA_INIT_BEGIN>:
  ee:	01c3f963          	bgeu	t2,t3,100 <_IZERO_BSS>
  f2:	00032283          	lw	t0,0(t1)
  f6:	0053a023          	sw	t0,0(t2)
  fa:	0311                	c.addi	t1,4
  fc:	0391                	c.addi	t2,4
  fe:	bfc5                	c.j	ee <_IDATA_INIT_BEGIN>

00000100 <_IZERO_BSS>:
 100:	000002b7          	lui	t0,0x0
 104:	00080397          	auipc	t2,0x80
 108:	0fc38393          	addi	t2,t2,252 # 80200 <_BSS_VMA_START>
 10c:	00097e17          	auipc	t3,0x97
 110:	c6ce0e13          	addi	t3,t3,-916 # 96d78 <_BSS_VMA_END>

00000114 <_IZERO_BSS_BEGIN>:
 114:	01c3f663          	bgeu	t2,t3,120 <_IZERO_AES>
 118:	0053a023          	sw	t0,0(t2)
 11c:	0391                	c.addi	t2,4
 11e:	bfdd                	c.j	114 <_IZERO_BSS_BEGIN>

00000120 <_IZERO_AES>:
 120:	000002b7          	lui	t0,0x0
 124:	00000397          	auipc	t2,0x0
 128:	03438393          	addi	t2,t2,52 # 158 <_RETENTION_RESET_VMA_END>
 12c:	00000e17          	auipc	t3,0x0
 130:	04ce0e13          	addi	t3,t3,76 # 178 <_AES_VMA_END>

00000134 <_IZERO_AES_BEGIN>:
 134:	01c3f663          	bgeu	t2,t3,140 <_IFILL_STK>
 138:	0053a023          	sw	t0,0(t2)
 13c:	0391                	c.addi	t2,4
 13e:	bfdd                	c.j	134 <_IZERO_AES_BEGIN>

00000140 <_IFILL_STK>:
 140:	0001                	c.nop
 142:	00002297          	auipc	t0,0x2
 146:	b2e28293          	addi	t0,t0,-1234 # 1c70 <main>
 14a:	9282                	c.jalr	t0
 14c:	0001                	c.nop
 14e:	0001                	c.nop
 150:	0001                	c.nop
 152:	0001                	c.nop
 154:	0001                	c.nop

00000156 <_IEND>:
 156:	a001                	c.j	156 <_IEND>

Disassembly of section .ram_code:

00001400 <timer0_irq_handler>:
    1400:	00008067          	ret

00001404 <gpio_irq_handler>:
    1404:	00008067          	ret

00001408 <dr_putchar>:
    1408:	801407b7          	lui	a5,0x80140
    140c:	30378803          	lb	a6,771(a5) # 80140303 <_DATA_LMA_START+0x6012836b>
    1410:	30378783          	lb	a5,771(a5)
    1414:	1141                	c.addi	sp,-16
    1416:	07f87813          	andi	a6,a6,127
    141a:	f807e793          	ori	a5,a5,-128
    141e:	0ff7f793          	andi	a5,a5,255
    1422:	01010223          	sb	a6,4(sp)
    1426:	873e                	c.mv	a4,a5
    1428:	4005745b          	bbs	a0,0,1430 <dr_putchar+0x28>
    142c:	01000733          	add	a4,zero,a6
    1430:	00e102a3          	sb	a4,5(sp)
    1434:	8742                	c.mv	a4,a6
    1436:	0015735b          	bbc	a0,1,143c <dr_putchar+0x34>
    143a:	873e                	c.mv	a4,a5
    143c:	00e10323          	sb	a4,6(sp)
    1440:	8742                	c.mv	a4,a6
    1442:	0025735b          	bbc	a0,2,1448 <dr_putchar+0x40>
    1446:	873e                	c.mv	a4,a5
    1448:	00e103a3          	sb	a4,7(sp)
    144c:	8742                	c.mv	a4,a6
    144e:	0035735b          	bbc	a0,3,1454 <dr_putchar+0x4c>
    1452:	873e                	c.mv	a4,a5
    1454:	00e10423          	sb	a4,8(sp)
    1458:	8742                	c.mv	a4,a6
    145a:	0045735b          	bbc	a0,4,1460 <dr_putchar+0x58>
    145e:	873e                	c.mv	a4,a5
    1460:	00e104a3          	sb	a4,9(sp)
    1464:	8742                	c.mv	a4,a6
    1466:	0055735b          	bbc	a0,5,146c <dr_putchar+0x64>
    146a:	873e                	c.mv	a4,a5
    146c:	00e10523          	sb	a4,10(sp)
    1470:	8742                	c.mv	a4,a6
    1472:	0065735b          	bbc	a0,6,1478 <dr_putchar+0x70>
    1476:	873e                	c.mv	a4,a5
    1478:	00e105a3          	sb	a4,11(sp)
    147c:	811d                	c.srli	a0,0x7
    147e:	8742                	c.mv	a4,a6
    1480:	c111                	c.beqz	a0,1484 <dr_putchar+0x7c>
    1482:	873e                	c.mv	a4,a5
    1484:	00e10623          	sb	a4,12(sp)
    1488:	00f106a3          	sb	a5,13(sp)
    148c:	30002373          	csrr	t1,mstatus
    1490:	00837313          	andi	t1,t1,8
    1494:	00030463          	beqz	t1,149c <dr_putchar+0x94>
    1498:	300477f3          	csrrci	a5,mstatus,8
    149c:	801407b7          	lui	a5,0x80140
    14a0:	2007a603          	lw	a2,512(a5) # 80140200 <_DATA_LMA_START+0x60128268>
    14a4:	00510513          	addi	a0,sp,5
    14a8:	00e10893          	addi	a7,sp,14
    14ac:	801406b7          	lui	a3,0x80140
    14b0:	08900593          	li	a1,137
    14b4:	2006a783          	lw	a5,512(a3) # 80140200 <_DATA_LMA_START+0x60128268>
    14b8:	40c78733          	sub	a4,a5,a2
    14bc:	fee5fce3          	bgeu	a1,a4,14b4 <dr_putchar+0xac>
    14c0:	310681a3          	sb	a6,771(a3)
    14c4:	01150863          	beq	a0,a7,14d4 <dr_putchar+0xcc>
    14c8:	00054803          	lbu	a6,0(a0)
    14cc:	863e                	c.mv	a2,a5
    14ce:	0505                	c.addi	a0,1
    14d0:	fe5ff06f          	j	14b4 <dr_putchar+0xac>
    14d4:	00030463          	beqz	t1,14dc <dr_putchar+0xd4>
    14d8:	30032373          	csrrs	t1,mstatus,t1
    14dc:	0141                	c.addi	sp,16
    14de:	8082                	c.jr	ra

000014e0 <stimer_irq_handler>:
    14e0:	3e90406f          	j	60c8 <irq_blt_sdk_handler>

000014e4 <rf_irq_handler>:
    14e4:	3e50406f          	j	60c8 <irq_blt_sdk_handler>

000014e8 <rf_set_ble_channel>:
    14e8:	80141737          	lui	a4,0x80141
    14ec:	0ff57793          	andi	a5,a0,255
    14f0:	80f706a3          	sb	a5,-2035(a4) # 8014080d <_DATA_LMA_START+0x60128875>
    14f4:	4729                	c.li	a4,10
    14f6:	0aa75163          	bge	a4,a0,1598 <rf_set_ble_channel+0xb0>
    14fa:	02400693          	li	a3,36
    14fe:	02a6d363          	bge	a3,a0,1524 <rf_set_ble_channel+0x3c>
    1502:	105553db          	beqc	a0,37,1608 <rf_set_ble_channel+0x120>
    1506:	0e655bdb          	beqc	a0,38,15fc <rf_set_ble_channel+0x114>
    150a:	107555db          	beqc	a0,39,1614 <rf_set_ble_channel+0x12c>
    150e:	fcd78693          	addi	a3,a5,-51
    1512:	0ff6f693          	andi	a3,a3,255
    1516:	00d76b63          	bltu	a4,a3,152c <rf_set_ble_channel+0x44>
    151a:	fc378513          	addi	a0,a5,-61
    151e:	1c05355b          	bfos	a0,a0,7,0
    1522:	a029                	c.j	152c <rf_set_ble_channel+0x44>
    1524:	00378513          	addi	a0,a5,3
    1528:	1c05355b          	bfos	a0,a0,7,0
    152c:	6785                	c.lui	a5,0x1
    152e:	96078713          	addi	a4,a5,-1696 # 960 <bltPm+0xc>
    1532:	0475355b          	bfos	a0,a0,1,7
    1536:	953a                	c.add	a0,a4
    1538:	9d778713          	addi	a4,a5,-1577
    153c:	00151813          	slli	a6,a0,0x1
    1540:	02000693          	li	a3,32
    1544:	06a77c63          	bgeu	a4,a0,15bc <rf_set_ble_channel+0xd4>
    1548:	801417b7          	lui	a5,0x80141
    154c:	e4478603          	lb	a2,-444(a5) # 80140e44 <_DATA_LMA_START+0x60128eac>
    1550:	0ff67613          	andi	a2,a2,255
    1554:	a21fe70b          	lbugp	a4,-1503 # 80221 <g_single_tong_freqoffset>
    1558:	00166613          	ori	a2,a2,1
    155c:	e4c78223          	sb	a2,-444(a5)
    1560:	e4478583          	lb	a1,-444(a5)
    1564:	9742                	c.add	a4,a6
    1566:	0477265b          	bfoz	a2,a4,1,7
    156a:	8985                	c.andi	a1,1
    156c:	8e4d                	c.or	a2,a1
    156e:	e4c78223          	sb	a2,-444(a5)
    1572:	e4578603          	lb	a2,-443(a5)
    1576:	3877275b          	bfoz	a4,a4,14,7
    157a:	0c067613          	andi	a2,a2,192
    157e:	8f51                	c.or	a4,a2
    1580:	e4e782a3          	sb	a4,-443(a5)
    1584:	e2978703          	lb	a4,-471(a5)
    1588:	03f77713          	andi	a4,a4,63
    158c:	8ed9                	c.or	a3,a4
    158e:	0ff6f693          	andi	a3,a3,255
    1592:	e2d784a3          	sb	a3,-471(a5)
    1596:	8082                	c.jr	ra
    1598:	00278513          	addi	a0,a5,2
    159c:	1c05355b          	bfos	a0,a0,7,0
    15a0:	6785                	c.lui	a5,0x1
    15a2:	96078713          	addi	a4,a5,-1696 # 960 <bltPm+0xc>
    15a6:	0475355b          	bfos	a0,a0,1,7
    15aa:	953a                	c.add	a0,a4
    15ac:	9d778713          	addi	a4,a5,-1577
    15b0:	00151813          	slli	a6,a0,0x1
    15b4:	02000693          	li	a3,32
    15b8:	f8a768e3          	bltu	a4,a0,1548 <rf_set_ble_channel+0x60>
    15bc:	9be78713          	addi	a4,a5,-1602
    15c0:	04000693          	li	a3,64
    15c4:	f8a762e3          	bltu	a4,a0,1548 <rf_set_ble_channel+0x60>
    15c8:	9a078713          	addi	a4,a5,-1632
    15cc:	06000693          	li	a3,96
    15d0:	f6a76ce3          	bltu	a4,a0,1548 <rf_set_ble_channel+0x60>
    15d4:	98278713          	addi	a4,a5,-1662
    15d8:	f8000693          	li	a3,-128
    15dc:	f6a766e3          	bltu	a4,a0,1548 <rf_set_ble_channel+0x60>
    15e0:	96478713          	addi	a4,a5,-1692
    15e4:	fa000693          	li	a3,-96
    15e8:	f6a760e3          	bltu	a4,a0,1548 <rf_set_ble_channel+0x60>
    15ec:	94b78793          	addi	a5,a5,-1717
    15f0:	5681                	c.li	a3,-32
    15f2:	f4a7fbe3          	bgeu	a5,a0,1548 <rf_set_ble_channel+0x60>
    15f6:	fc000693          	li	a3,-64
    15fa:	b7b9                	c.j	1548 <rf_set_ble_channel+0x60>
    15fc:	6705                	c.lui	a4,0x1
    15fe:	2f470813          	addi	a6,a4,756 # 12f4 <blt_buff_ll_rx+0xf0>
    1602:	fa000693          	li	a3,-96
    1606:	b789                	c.j	1548 <rf_set_ble_channel+0x60>
    1608:	6705                	c.lui	a4,0x1
    160a:	2c470813          	addi	a6,a4,708 # 12c4 <blt_buff_ll_rx+0xc0>
    160e:	fc000693          	li	a3,-64
    1612:	bf1d                	c.j	1548 <rf_set_ble_channel+0x60>
    1614:	6705                	c.lui	a4,0x1
    1616:	36070813          	addi	a6,a4,864 # 1360 <_RETENTION_DATA_VMA_END+0x5c>
    161a:	06000693          	li	a3,96
    161e:	b72d                	c.j	1548 <rf_set_ble_channel+0x60>

00001620 <rf_start_fsm>:
    1620:	ffb57713          	andi	a4,a0,-5
    1624:	08200793          	li	a5,130
    1628:	04f70463          	beq	a4,a5,1670 <rf_start_fsm+0x50>
    162c:	08400793          	li	a5,132
    1630:	04f50063          	beq	a0,a5,1670 <rf_start_fsm+0x50>
    1634:	80141737          	lui	a4,0x80141
    1638:	a0c72c23          	sw	a2,-1512(a4) # 80140a18 <_DATA_LMA_START+0x60128a80>
    163c:	a1670783          	lb	a5,-1514(a4)
    1640:	0ff57513          	andi	a0,a0,255
    1644:	0ff7f793          	andi	a5,a5,255
    1648:	0047e793          	ori	a5,a5,4
    164c:	a0f70b23          	sb	a5,-1514(a4)
    1650:	a0a70023          	sb	a0,-1536(a4)
    1654:	cd81                	c.beqz	a1,166c <rf_start_fsm+0x4c>
    1656:	000a07b7          	lui	a5,0xa0
    165a:	00f5f563          	bgeu	a1,a5,1664 <rf_start_fsm+0x44>
    165e:	c01807b7          	lui	a5,0xc0180
    1662:	95be                	c.add	a1,a5
    1664:	801007b7          	lui	a5,0x80100
    1668:	44b7a423          	sw	a1,1096(a5) # 80100448 <_DATA_LMA_START+0x600e84b0>
    166c:	00008067          	ret
    1670:	100007b7          	lui	a5,0x10000
    1674:	80141737          	lui	a4,0x80141
    1678:	17fd                	c.addi	a5,-1
    167a:	a2f72423          	sw	a5,-1496(a4) # 80140a28 <_DATA_LMA_START+0x60128a90>
    167e:	bf5d                	c.j	1634 <rf_start_fsm+0x14>

00001680 <ble_rx_dma_config>:
    1680:	801006b7          	lui	a3,0x80100
    1684:	200187b7          	lui	a5,0x20018
    1688:	4586a703          	lw	a4,1112(a3) # 80100458 <_DATA_LMA_START+0x600e84c0>
    168c:	e7c7a783          	lw	a5,-388(a5) # 20017e7c <rf_rx_dma_config>
    1690:	8b3d                	c.andi	a4,15
    1692:	0792                	c.slli	a5,0x4
    1694:	8fd9                	c.or	a5,a4
    1696:	44f6ac23          	sw	a5,1112(a3)
    169a:	8082                	c.jr	ra

0000169c <ble_tx_dma_config>:
    169c:	801006b7          	lui	a3,0x80100
    16a0:	200187b7          	lui	a5,0x20018
    16a4:	4446a703          	lw	a4,1092(a3) # 80100444 <_DATA_LMA_START+0x600e84ac>
    16a8:	e807a783          	lw	a5,-384(a5) # 20017e80 <rf_tx_dma_config>
    16ac:	8b3d                	c.andi	a4,15
    16ae:	0792                	c.slli	a5,0x4
    16b0:	8fd9                	c.or	a5,a4
    16b2:	44f6a223          	sw	a5,1092(a3)
    16b6:	8082                	c.jr	ra

000016b8 <ble_rf_set_tx_dma>:
    16b8:	80100737          	lui	a4,0x80100
    16bc:	50c70783          	lb	a5,1292(a4) # 8010050c <_DATA_LMA_START+0x600e8574>
    16c0:	0ff7f793          	andi	a5,a5,255
    16c4:	0057e793          	ori	a5,a5,5
    16c8:	50f70623          	sb	a5,1292(a4)
    16cc:	4ea709a3          	sb	a0,1267(a4)
    16d0:	4eb70923          	sb	a1,1266(a4)
    16d4:	9dbfa7ab          	lwgp	a5,-1576 # 801d8 <TXADDR>
    16d8:	000a0737          	lui	a4,0xa0
    16dc:	00e7f663          	bgeu	a5,a4,16e8 <ble_rf_set_tx_dma+0x30>
    16e0:	c0180737          	lui	a4,0xc0180
    16e4:	00e787b3          	add	a5,a5,a4
    16e8:	80100737          	lui	a4,0x80100
    16ec:	44f72423          	sw	a5,1096(a4) # 80100448 <_DATA_LMA_START+0x600e84b0>
    16f0:	001417b7          	lui	a5,0x141
    16f4:	88478793          	addi	a5,a5,-1916 # 140884 <FLASH_SIZE+0x40884>
    16f8:	44f72623          	sw	a5,1100(a4)
    16fc:	00008067          	ret

00001700 <ble_rf_set_rx_dma>:
    1700:	801007b7          	lui	a5,0x80100
    1704:	50c78703          	lb	a4,1292(a5) # 8010050c <_DATA_LMA_START+0x600e8574>
    1708:	0511                	c.addi	a0,4
    170a:	0ff77713          	andi	a4,a4,255
    170e:	00676713          	ori	a4,a4,6
    1712:	50e78623          	sb	a4,1292(a5)
    1716:	500786a3          	sb	zero,1293(a5)
    171a:	00141737          	lui	a4,0x141
    171e:	4eb78b23          	sb	a1,1270(a5)
    1722:	88070713          	addi	a4,a4,-1920 # 140880 <FLASH_SIZE+0x40880>
    1726:	44e7ae23          	sw	a4,1116(a5)
    172a:	000a07b7          	lui	a5,0xa0
    172e:	00f57563          	bgeu	a0,a5,1738 <ble_rf_set_rx_dma+0x38>
    1732:	c01807b7          	lui	a5,0xc0180
    1736:	953e                	c.add	a0,a5
    1738:	801007b7          	lui	a5,0x80100
    173c:	46a7a023          	sw	a0,1120(a5) # 80100460 <_DATA_LMA_START+0x600e84c8>
    1740:	577d                	c.li	a4,-1
    1742:	46e7a223          	sw	a4,1124(a5)
    1746:	8082                	c.jr	ra

00001748 <cpu_stall_WakeUp_By_RF_SystemTick>:
    1748:	300027f3          	csrr	a5,mstatus
    174c:	8ba1                	c.andi	a5,8
    174e:	c399                	c.beqz	a5,1754 <cpu_stall_WakeUp_By_RF_SystemTick+0xc>
    1750:	30047773          	csrrci	a4,mstatus,8
    1754:	e4002737          	lui	a4,0xe4002
    1758:	801418b7          	lui	a7,0x80141
    175c:	80140837          	lui	a6,0x80140
    1760:	a1c89e03          	lh	t3,-1508(a7) # 80140a1c <_DATA_LMA_START+0x60128a84>
    1764:	20880e83          	lb	t4,520(a6) # 80140208 <_DATA_LMA_START+0x60128270>
    1768:	00072303          	lw	t1,0(a4) # e4002000 <_DATA_LMA_START+0xc3fea068>
    176c:	4314                	c.lw	a3,0(a4)
    176e:	6f11                	c.lui	t5,0x4
    1770:	0026e693          	ori	a3,a3,2
    1774:	c314                	c.sw	a3,0(a4)
    1776:	4314                	c.lw	a3,0(a4)
    1778:	01e6e6b3          	or	a3,a3,t5
    177c:	00d72023          	sw	a3,0(a4)
    1780:	a0b89e23          	sh	a1,-1508(a7)
    1784:	00057c5b          	bbc	a0,0,179c <cpu_stall_WakeUp_By_RF_SystemTick+0x54>
    1788:	20c82223          	sw	a2,516(a6)
    178c:	20880703          	lb	a4,520(a6)
    1790:	0ff77713          	andi	a4,a4,255
    1794:	00176713          	ori	a4,a4,1
    1798:	20e80423          	sb	a4,520(a6)
    179c:	10500073          	wfi
    17a0:	80141837          	lui	a6,0x80141
    17a4:	577d                	c.li	a4,-1
    17a6:	a2e81023          	sh	a4,-1504(a6) # 80140a20 <_DATA_LMA_START+0x60128a88>
    17aa:	80140537          	lui	a0,0x80140
    17ae:	e4002737          	lui	a4,0xe4002
    17b2:	4685                	c.li	a3,1
    17b4:	20d504a3          	sb	a3,521(a0) # 80140209 <_DATA_LMA_START+0x60128271>
    17b8:	75f1                	c.lui	a1,0xffffc
    17ba:	4310                	c.lw	a2,0(a4)
    17bc:	15f5                	c.addi	a1,-3
    17be:	8e6d                	c.and	a2,a1
    17c0:	c310                	c.sw	a2,0(a4)
    17c2:	4314                	c.lw	a3,0(a4)
    17c4:	0066e6b3          	or	a3,a3,t1
    17c8:	c314                	c.sw	a3,0(a4)
    17ca:	a1c81e23          	sh	t3,-1508(a6)
    17ce:	21d50423          	sb	t4,520(a0)
    17d2:	c399                	c.beqz	a5,17d8 <cpu_stall_WakeUp_By_RF_SystemTick+0x90>
    17d4:	3007a7f3          	csrrs	a5,mstatus,a5
    17d8:	4501                	c.li	a0,0
    17da:	8082                	c.jr	ra

000017dc <delay_ms>:
    17dc:	000047b7          	lui	a5,0x4
    17e0:	e8078793          	addi	a5,a5,-384 # 3e80 <bls_ll_procRxPacket.constprop.18+0x1a4>
    17e4:	02f50533          	mul	a0,a0,a5
    17e8:	801407b7          	lui	a5,0x80140
    17ec:	2007a683          	lw	a3,512(a5) # 80140200 <_DATA_LMA_START+0x60128268>
    17f0:	80140737          	lui	a4,0x80140
    17f4:	20072783          	lw	a5,512(a4) # 80140200 <_DATA_LMA_START+0x60128268>
    17f8:	8f95                	c.sub	a5,a3
    17fa:	fef57de3          	bgeu	a0,a5,17f4 <delay_ms+0x18>
    17fe:	8082                	c.jr	ra

00001800 <delay_us>:
    1800:	801407b7          	lui	a5,0x80140
    1804:	2007a683          	lw	a3,512(a5) # 80140200 <_DATA_LMA_START+0x60128268>
    1808:	00451513          	slli	a0,a0,0x4
    180c:	80140737          	lui	a4,0x80140
    1810:	20072783          	lw	a5,512(a4) # 80140200 <_DATA_LMA_START+0x60128268>
    1814:	8f95                	c.sub	a5,a3
    1816:	fef57de3          	bgeu	a0,a5,1810 <delay_us+0x10>
    181a:	8082                	c.jr	ra

0000181c <flash_send_addr.lto_priv.75>:
    181c:	5d05275b          	bfoz	a4,a0,23,16
    1820:	801407b7          	lui	a5,0x80140
    1824:	801406b7          	lui	a3,0x80140
    1828:	10e78023          	sb	a4,256(a5) # 80140100 <_DATA_LMA_START+0x60128168>
    182c:	10268783          	lb	a5,258(a3) # 80140102 <_DATA_LMA_START+0x6012816a>
    1830:	fe07fe5b          	bbs	a5,0,182c <flash_send_addr.lto_priv.75+0x10>
    1834:	3c8527db          	bfoz	a5,a0,15,8
    1838:	80140737          	lui	a4,0x80140
    183c:	10f68023          	sb	a5,256(a3)
    1840:	10270783          	lb	a5,258(a4) # 80140102 <_DATA_LMA_START+0x6012816a>
    1844:	fe07fe5b          	bbs	a5,0,1840 <flash_send_addr.lto_priv.75+0x24>
    1848:	0ff57513          	andi	a0,a0,255
    184c:	801406b7          	lui	a3,0x80140
    1850:	10a70023          	sb	a0,256(a4)
    1854:	10268783          	lb	a5,258(a3) # 80140102 <_DATA_LMA_START+0x6012816a>
    1858:	fe07fe5b          	bbs	a5,0,1854 <flash_send_addr.lto_priv.75+0x38>
    185c:	00008067          	ret

00001860 <flash_send_cmd>:
    1860:	801407b7          	lui	a5,0x80140
    1864:	10178703          	lb	a4,257(a5) # 80140101 <_DATA_LMA_START+0x60128169>
    1868:	0ff77713          	andi	a4,a4,255
    186c:	01076713          	ori	a4,a4,16
    1870:	10e780a3          	sb	a4,257(a5)
    1874:	0001                	c.nop
    1876:	0001                	c.nop
    1878:	0001                	c.nop
    187a:	0001                	c.nop
    187c:	0001                	c.nop
    187e:	0001                	c.nop
    1880:	0001                	c.nop
    1882:	0001                	c.nop
    1884:	0001                	c.nop
    1886:	0001                	c.nop
    1888:	10178683          	lb	a3,257(a5)
    188c:	0ff57513          	andi	a0,a0,255
    1890:	0ef6f693          	andi	a3,a3,239
    1894:	10d780a3          	sb	a3,257(a5)
    1898:	80140737          	lui	a4,0x80140
    189c:	10a78023          	sb	a0,256(a5)
    18a0:	10270783          	lb	a5,258(a4) # 80140102 <_DATA_LMA_START+0x6012816a>
    18a4:	fe07fe5b          	bbs	a5,0,18a0 <flash_send_cmd+0x40>
    18a8:	00008067          	ret

000018ac <flash_mspi_read_ram>:
    18ac:	1101                	c.addi	sp,-32
    18ae:	cc22                	c.swsp	s0,24(sp)
    18b0:	ca26                	c.swsp	s1,20(sp)
    18b2:	c84a                	c.swsp	s2,16(sp)
    18b4:	c64e                	c.swsp	s3,12(sp)
    18b6:	c452                	c.swsp	s4,8(sp)
    18b8:	c256                	c.swsp	s5,4(sp)
    18ba:	ce06                	c.swsp	ra,28(sp)
    18bc:	89aa                	c.mv	s3,a0
    18be:	843a                	c.mv	s0,a4
    18c0:	84be                	c.mv	s1,a5
    18c2:	4705                	c.li	a4,1
    18c4:	e42007b7          	lui	a5,0xe4200
    18c8:	8a2e                	c.mv	s4,a1
    18ca:	8ab2                	c.mv	s5,a2
    18cc:	8936                	c.mv	s2,a3
    18ce:	80140537          	lui	a0,0x80140
    18d2:	c398                	c.sw	a4,0(a5)
    18d4:	10250703          	lb	a4,258(a0) # 80140102 <_DATA_LMA_START+0x6012816a>
    18d8:	fe077e5b          	bbs	a4,0,18d4 <flash_mspi_read_ram+0x28>
    18dc:	10150783          	lb	a5,257(a0)
    18e0:	80140837          	lui	a6,0x80140
    18e4:	0ff7f793          	andi	a5,a5,255
    18e8:	0107e793          	ori	a5,a5,16
    18ec:	10f500a3          	sb	a5,257(a0)
    18f0:	32880703          	lb	a4,808(a6) # 80140328 <_DATA_LMA_START+0x60128390>
    18f4:	be377e5b          	bbc	a4,3,18f0 <flash_mspi_read_ram+0x44>
    18f8:	10180783          	lb	a5,257(a6)
    18fc:	854e                	c.mv	a0,s3
    18fe:	0fd7f793          	andi	a5,a5,253
    1902:	10f800a3          	sb	a5,257(a6)
    1906:	10180783          	lb	a5,257(a6)
    190a:	0f37f793          	andi	a5,a5,243
    190e:	10f800a3          	sb	a5,257(a6)
    1912:	37b9                	c.jal	1860 <flash_send_cmd>
    1914:	0e0a9c63          	bnez	s5,1a0c <flash_mspi_read_ram+0x160>
    1918:	00000713          	li	a4,0
    191c:	801405b7          	lui	a1,0x80140
    1920:	01277c63          	bgeu	a4,s2,1938 <flash_mspi_read_ram+0x8c>
    1924:	00100713          	li	a4,1
    1928:	10058023          	sb	zero,256(a1) # 80140100 <_DATA_LMA_START+0x60128168>
    192c:	10258603          	lb	a2,258(a1)
    1930:	fe067e5b          	bbs	a2,0,192c <flash_mspi_read_ram+0x80>
    1934:	ff2768e3          	bltu	a4,s2,1924 <flash_mspi_read_ram+0x78>
    1938:	01b9ecdb          	bnec	s3,59,1950 <flash_mspi_read_ram+0xa4>
    193c:	80140737          	lui	a4,0x80140
    1940:	10170783          	lb	a5,257(a4) # 80140101 <_DATA_LMA_START+0x60128169>
    1944:	0f37f793          	andi	a5,a5,243
    1948:	0047e793          	ori	a5,a5,4
    194c:	10f700a3          	sb	a5,257(a4)
    1950:	80140737          	lui	a4,0x80140
    1954:	10170783          	lb	a5,257(a4) # 80140101 <_DATA_LMA_START+0x60128169>
    1958:	801406b7          	lui	a3,0x80140
    195c:	0ff7f793          	andi	a5,a5,255
    1960:	0027e793          	ori	a5,a5,2
    1964:	10f700a3          	sb	a5,257(a4)
    1968:	10070023          	sb	zero,256(a4)
    196c:	10268703          	lb	a4,258(a3) # 80140102 <_DATA_LMA_START+0x6012816a>
    1970:	fe077e5b          	bbs	a4,0,196c <flash_mspi_read_ram+0xc0>
    1974:	10168703          	lb	a4,257(a3)
    1978:	801407b7          	lui	a5,0x80140
    197c:	0ff77713          	andi	a4,a4,255
    1980:	00176713          	ori	a4,a4,1
    1984:	10e680a3          	sb	a4,257(a3)
    1988:	10278703          	lb	a4,258(a5) # 80140102 <_DATA_LMA_START+0x6012816a>
    198c:	fe077e5b          	bbs	a4,0,1988 <flash_mspi_read_ram+0xdc>
    1990:	02048263          	beqz	s1,19b4 <flash_mspi_read_ram+0x108>
    1994:	00940733          	add	a4,s0,s1
    1998:	801406b7          	lui	a3,0x80140
    199c:	10068783          	lb	a5,256(a3) # 80140100 <_DATA_LMA_START+0x60128168>
    19a0:	00140413          	addi	s0,s0,1
    19a4:	fef40fa3          	sb	a5,-1(s0)
    19a8:	10268783          	lb	a5,258(a3)
    19ac:	fe07fe5b          	bbs	a5,0,19a8 <flash_mspi_read_ram+0xfc>
    19b0:	fee416e3          	bne	s0,a4,199c <flash_mspi_read_ram+0xf0>
    19b4:	801407b7          	lui	a5,0x80140
    19b8:	10178703          	lb	a4,257(a5) # 80140101 <_DATA_LMA_START+0x60128169>
    19bc:	0fe77713          	andi	a4,a4,254
    19c0:	10e780a3          	sb	a4,257(a5)
    19c4:	01b9e8db          	bnec	s3,59,19d4 <flash_mspi_read_ram+0x128>
    19c8:	10178703          	lb	a4,257(a5)
    19cc:	0f377713          	andi	a4,a4,243
    19d0:	10e780a3          	sb	a4,257(a5)
    19d4:	80140737          	lui	a4,0x80140
    19d8:	10170783          	lb	a5,257(a4) # 80140101 <_DATA_LMA_START+0x60128169>
    19dc:	0ff7f793          	andi	a5,a5,255
    19e0:	0107e793          	ori	a5,a5,16
    19e4:	10f700a3          	sb	a5,257(a4)
    19e8:	0001                	c.nop
    19ea:	0001                	c.nop
    19ec:	0001                	c.nop
    19ee:	0001                	c.nop
    19f0:	0001                	c.nop
    19f2:	e42007b7          	lui	a5,0xe4200
    19f6:	0007a023          	sw	zero,0(a5) # e4200000 <_DATA_LMA_START+0xc41e8068>
    19fa:	40f2                	c.lwsp	ra,28(sp)
    19fc:	4462                	c.lwsp	s0,24(sp)
    19fe:	44d2                	c.lwsp	s1,20(sp)
    1a00:	4942                	c.lwsp	s2,16(sp)
    1a02:	49b2                	c.lwsp	s3,12(sp)
    1a04:	4a22                	c.lwsp	s4,8(sp)
    1a06:	4a92                	c.lwsp	s5,4(sp)
    1a08:	6105                	c.addi16sp	sp,32
    1a0a:	8082                	c.jr	ra
    1a0c:	8552                	c.mv	a0,s4
    1a0e:	3539                	c.jal	181c <flash_send_addr.lto_priv.75>
    1a10:	f09ff06f          	j	1918 <flash_mspi_read_ram+0x6c>

00001a14 <flash_wait_done.lto_priv.76>:
    1a14:	1141                	c.addi	sp,-16
    1a16:	4515                	c.li	a0,5
    1a18:	c606                	c.swsp	ra,12(sp)
    1a1a:	3599                	c.jal	1860 <flash_send_cmd>
    1a1c:	009896b7          	lui	a3,0x989
    1a20:	68068693          	addi	a3,a3,1664 # 989680 <FLASH_SIZE+0x889680>
    1a24:	80140737          	lui	a4,0x80140
    1a28:	10070023          	sb	zero,256(a4) # 80140100 <_DATA_LMA_START+0x60128168>
    1a2c:	10270783          	lb	a5,258(a4)
    1a30:	fe07fe5b          	bbs	a5,0,1a2c <flash_wait_done.lto_priv.76+0x18>
    1a34:	10070783          	lb	a5,256(a4)
    1a38:	0007f45b          	bbc	a5,0,1a40 <flash_wait_done.lto_priv.76+0x2c>
    1a3c:	16fd                	c.addi	a3,-1
    1a3e:	f6ed                	c.bnez	a3,1a28 <flash_wait_done.lto_priv.76+0x14>
    1a40:	80140737          	lui	a4,0x80140
    1a44:	10170783          	lb	a5,257(a4) # 80140101 <_DATA_LMA_START+0x60128169>
    1a48:	0ff7f793          	andi	a5,a5,255
    1a4c:	0107e793          	ori	a5,a5,16
    1a50:	10f700a3          	sb	a5,257(a4)
    1a54:	40b2                	c.lwsp	ra,12(sp)
    1a56:	0141                	c.addi	sp,16
    1a58:	00008067          	ret

00001a5c <clock_set_32k_tick>:
    1a5c:	801406b7          	lui	a3,0x80140
    1a60:	20a68703          	lb	a4,522(a3) # 8014020a <_DATA_LMA_START+0x60128272>
    1a64:	801407b7          	lui	a5,0x80140
    1a68:	0ff77713          	andi	a4,a4,255
    1a6c:	00176713          	ori	a4,a4,1
    1a70:	20e68523          	sb	a4,522(a3)
    1a74:	20b78703          	lb	a4,523(a5) # 8014020b <_DATA_LMA_START+0x60128273>
    1a78:	20b78693          	addi	a3,a5,523
    1a7c:	fe677c5b          	bbs	a4,6,1a74 <clock_set_32k_tick+0x18>
    1a80:	20a7a623          	sw	a0,524(a5)
    1a84:	47a1                	c.li	a5,8
    1a86:	00f68023          	sb	a5,0(a3)
    1a8a:	0001                	c.nop
    1a8c:	0001                	c.nop
    1a8e:	0001                	c.nop
    1a90:	0001                	c.nop
    1a92:	0001                	c.nop
    1a94:	0001                	c.nop
    1a96:	0001                	c.nop
    1a98:	0001                	c.nop
    1a9a:	0001                	c.nop
    1a9c:	0001                	c.nop
    1a9e:	0001                	c.nop
    1aa0:	0001                	c.nop
    1aa2:	0001                	c.nop
    1aa4:	0001                	c.nop
    1aa6:	0001                	c.nop
    1aa8:	00000013          	nop
    1aac:	80140737          	lui	a4,0x80140
    1ab0:	20b70783          	lb	a5,523(a4) # 8014020b <_DATA_LMA_START+0x60128273>
    1ab4:	fe37fe5b          	bbs	a5,3,1ab0 <clock_set_32k_tick+0x54>
    1ab8:	00008067          	ret

00001abc <clock_get_32k_tick>:
    1abc:	1141                	c.addi	sp,-16
    1abe:	c422                	c.swsp	s0,8(sp)
    1ac0:	00112623          	sw	ra,12(sp)
    1ac4:	2000f097          	auipc	ra,0x2000f
    1ac8:	ee0080e7          	jalr	-288(ra) # 200109a4 <analog_read_reg32.constprop.65>
    1acc:	00a00433          	add	s0,zero,a0
    1ad0:	2000f097          	auipc	ra,0x2000f
    1ad4:	ed4080e7          	jalr	-300(ra) # 200109a4 <analog_read_reg32.constprop.65>
    1ad8:	40850733          	sub	a4,a0,s0
    1adc:	842a                	c.mv	s0,a0
    1ade:	be17695b          	bnec	a4,1,1ad0 <clock_get_32k_tick+0x14>
    1ae2:	40b2                	c.lwsp	ra,12(sp)
    1ae4:	4422                	c.lwsp	s0,8(sp)
    1ae6:	0141                	c.addi	sp,16
    1ae8:	00008067          	ret

00001aec <analog_write_reg8>:
    1aec:	30002673          	csrr	a2,mstatus
    1af0:	8a21                	c.andi	a2,8
    1af2:	c219                	c.beqz	a2,1af8 <analog_write_reg8+0xc>
    1af4:	300477f3          	csrrci	a5,mstatus,8
    1af8:	80140737          	lui	a4,0x80140
    1afc:	18a70023          	sb	a0,384(a4) # 80140180 <_DATA_LMA_START+0x601281e8>
    1b00:	18b70223          	sb	a1,388(a4)
    1b04:	06000693          	li	a3,96
    1b08:	801407b7          	lui	a5,0x80140
    1b0c:	18d70123          	sb	a3,386(a4)
    1b10:	18278703          	lb	a4,386(a5) # 80140182 <_DATA_LMA_START+0x601281ea>
    1b14:	fe777e5b          	bbs	a4,7,1b10 <analog_write_reg8+0x24>
    1b18:	18078123          	sb	zero,386(a5)
    1b1c:	00060463          	beqz	a2,1b24 <analog_write_reg8+0x38>
    1b20:	30062673          	csrrs	a2,mstatus,a2
    1b24:	00008067          	ret

00001b28 <rf_drv_ble_init>:
    1b28:	1141                	c.addi	sp,-16
    1b2a:	6789                	c.lui	a5,0x2
    1b2c:	c422                	c.swsp	s0,8(sp)
    1b2e:	c226                	c.swsp	s1,4(sp)
    1b30:	80141437          	lui	s0,0x80141
    1b34:	c04a                	c.swsp	s2,0(sp)
    1b36:	c606                	c.swsp	ra,12(sp)
    1b38:	99b78793          	addi	a5,a5,-1637 # 199b <flash_mspi_read_ram+0xef>
    1b3c:	ecf41923          	sh	a5,-302(s0) # 80140ed2 <_DATA_LMA_START+0x60128f3a>
    1b40:	6905                	c.lui	s2,0x1
    1b42:	47b9                	c.li	a5,14
    1b44:	c6f40da3          	sb	a5,-901(s0)
    1b48:	90e90793          	addi	a5,s2,-1778 # 90e <blttcon+0x16>
    1b4c:	e4f41523          	sh	a5,-438(s0)
    1b50:	080c17b7          	lui	a5,0x80c1
    1b54:	649d                	c.lui	s1,0x7
    1b56:	90e78793          	addi	a5,a5,-1778 # 80c090e <FLASH_SIZE+0x7fc090e>
    1b5a:	e4f42a23          	sw	a5,-428(s0)
    1b5e:	35048793          	addi	a5,s1,848 # 7350 <_RAMCODE_VMA_END+0xf4e>
    1b62:	c6f41b23          	sh	a5,-906(s0)
    1b66:	6799                	c.lui	a5,0x6
    1b68:	58678793          	addi	a5,a5,1414 # 6586 <_RAMCODE_VMA_END+0x184>
    1b6c:	4591                	c.li	a1,4
    1b6e:	08b00513          	li	a0,139
    1b72:	82f41d23          	sh	a5,-1990(s0)
    1b76:	3f9d                	c.jal	1aec <analog_write_reg8>
    1b78:	06100793          	li	a5,97
    1b7c:	e2f40ea3          	sb	a5,-451(s0)
    1b80:	232017b7          	lui	a5,0x23201
    1b84:	a1678793          	addi	a5,a5,-1514 # 23200a16 <_DATA_LMA_START+0x31e8a7e>
    1b88:	e2f42023          	sw	a5,-480(s0)
    1b8c:	f8400793          	li	a5,-124
    1b90:	c2f40023          	sb	a5,-992(s0)
    1b94:	c2040123          	sb	zero,-990(s0)
    1b98:	4785                	c.li	a5,1
    1b9a:	c4f406a3          	sb	a5,-947(s0)
    1b9e:	4779                	c.li	a4,30
    1ba0:	c4e40723          	sb	a4,-946(s0)
    1ba4:	eb790913          	addi	s2,s2,-329
    1ba8:	c3241b23          	sh	s2,-970(s0)
    1bac:	1c448493          	addi	s1,s1,452
    1bb0:	c2941c23          	sh	s1,-968(s0)
    1bb4:	c6f409a3          	sb	a5,-909(s0)
    1bb8:	03800793          	li	a5,56
    1bbc:	c6f40ca3          	sb	a5,-903(s0)
    1bc0:	6795                	c.lui	a5,0x5
    1bc2:	c8040d23          	sb	zero,-870(s0)
    1bc6:	b3978793          	addi	a5,a5,-1223 # 4b39 <sys_init.constprop.20+0x1d>
    1bca:	ccf41123          	sh	a5,-830(s0)
    1bce:	796e67b7          	lui	a5,0x796e6
    1bd2:	25678793          	addi	a5,a5,598 # 796e6256 <_DATA_LMA_START+0x596ce2be>
    1bd6:	ccf42223          	sw	a5,-828(s0)
    1bda:	444617b7          	lui	a5,0x44461
    1bde:	81f78793          	addi	a5,a5,-2017 # 4446081f <_DATA_LMA_START+0x24448887>
    1be2:	80f42023          	sw	a5,-2048(s0)
    1be6:	4f500793          	li	a5,1269
    1bea:	80f41223          	sh	a5,-2044(s0)
    1bee:	80042423          	sw	zero,-2040(s0)
    1bf2:	47fd                	c.li	a5,31
    1bf4:	c4f40723          	sb	a5,-946(s0)
    1bf8:	03600793          	li	a5,54
    1bfc:	82f40823          	sb	a5,-2000(s0)
    1c00:	a0040323          	sb	zero,-1530(s0)
    1c04:	05000793          	li	a5,80
    1c08:	a0f40623          	sb	a5,-1524(s0)
    1c0c:	a0040723          	sb	zero,-1522(s0)
    1c10:	a0040823          	sb	zero,-1520(s0)
    1c14:	c2040783          	lb	a5,-992(s0)
    1c18:	0bf7f793          	andi	a5,a5,191
    1c1c:	c2f40023          	sb	a5,-992(s0)
    1c20:	40b2                	c.lwsp	ra,12(sp)
    1c22:	4422                	c.lwsp	s0,8(sp)
    1c24:	4492                	c.lwsp	s1,4(sp)
    1c26:	4902                	c.lwsp	s2,0(sp)
    1c28:	0141                	c.addi	sp,16
    1c2a:	8082                	c.jr	ra

00001c2c <analog_read_reg8>:
    1c2c:	300026f3          	csrr	a3,mstatus
    1c30:	8aa1                	c.andi	a3,8
    1c32:	c299                	c.beqz	a3,1c38 <analog_read_reg8+0xc>
    1c34:	300477f3          	csrrci	a5,mstatus,8
    1c38:	801407b7          	lui	a5,0x80140
    1c3c:	18a78023          	sb	a0,384(a5) # 80140180 <_DATA_LMA_START+0x601281e8>
    1c40:	00100713          	li	a4,1
    1c44:	18e781a3          	sb	a4,387(a5)
    1c48:	04000613          	li	a2,64
    1c4c:	80140737          	lui	a4,0x80140
    1c50:	18c78123          	sb	a2,386(a5)
    1c54:	18270783          	lb	a5,386(a4) # 80140182 <_DATA_LMA_START+0x601281ea>
    1c58:	fe77fe5b          	bbs	a5,7,1c54 <analog_read_reg8+0x28>
    1c5c:	18470503          	lb	a0,388(a4)
    1c60:	0ff57513          	andi	a0,a0,255
    1c64:	00068463          	beqz	a3,1c6c <analog_read_reg8+0x40>
    1c68:	3006a6f3          	csrrs	a3,mstatus,a3
    1c6c:	00008067          	ret

00001c70 <main>:
    1c70:	200107b7          	lui	a5,0x20010
    1c74:	00001737          	lui	a4,0x1
    1c78:	a9878793          	addi	a5,a5,-1384 # 2000fa98 <cpu_sleep_wakeup_32k_rc>
    1c7c:	7111                	c.addi16sp	sp,-256
    1c7e:	c8f72223          	sw	a5,-892(a4) # c84 <cpu_sleep_wakeup>
    1c82:	000037b7          	lui	a5,0x3
    1c86:	00001737          	lui	a4,0x1
    1c8a:	d7ce                	c.swsp	s3,236(sp)
    1c8c:	76c78793          	addi	a5,a5,1900 # 376c <pm_tim_recover_32k_rc>
    1c90:	000019b7          	lui	s3,0x1
    1c94:	c8f72023          	sw	a5,-896(a4) # c80 <pm_tim_recover>
    1c98:	d9ca                	c.swsp	s2,240(sp)
    1c9a:	4785                	c.li	a5,1
    1c9c:	9ac98913          	addi	s2,s3,-1620 # 9ac <blt_miscParam>
    1ca0:	df86                	c.swsp	ra,252(sp)
    1ca2:	00f90123          	sb	a5,2(s2)
    1ca6:	dda2                	c.swsp	s0,248(sp)
    1ca8:	dba6                	c.swsp	s1,244(sp)
    1caa:	d5d2                	c.swsp	s4,232(sp)
    1cac:	d3d6                	c.swsp	s5,228(sp)
    1cae:	d1da                	c.swsp	s6,224(sp)
    1cb0:	66d020ef          	jal	ra,4b1c <sys_init.constprop.20>
    1cb4:	20013097          	auipc	ra,0x20013
    1cb8:	990080e7          	jalr	-1648(ra) # 20014644 <trng_init>
    1cbc:	a43f848b          	lbgp	s1,-1470 # 80242 <g_pm_status_info+0x2>
    1cc0:	4dd020ef          	jal	ra,499c <clock_init.constprop.54>
    1cc4:	e65ff0ef          	jal	ra,1b28 <rf_drv_ble_init>
    1cc8:	80140437          	lui	s0,0x80140
    1ccc:	807f87b7          	lui	a5,0x807f8
    1cd0:	30f42023          	sw	a5,768(s0) # 80140300 <_DATA_LMA_START+0x60128368>
    1cd4:	008007b7          	lui	a5,0x800
    1cd8:	f0078793          	addi	a5,a5,-256 # 7fff00 <FLASH_SIZE+0x6fff00>
    1cdc:	30f42223          	sw	a5,772(s0)
    1ce0:	00ff0b37          	lui	s6,0xff0
    1ce4:	01000a37          	lui	s4,0x1000
    1ce8:	f00a0a13          	addi	s4,s4,-256 # ffff00 <FLASH_SIZE+0xefff00>
    1cec:	31642423          	sw	s6,776(s0)
    1cf0:	4581                	c.li	a1,0
    1cf2:	0bd00513          	li	a0,189
    1cf6:	5afd                	c.li	s5,-1
    1cf8:	31442623          	sw	s4,780(s0)
    1cfc:	df1ff0ef          	jal	ra,1aec <analog_write_reg8>
    1d00:	0ff00593          	li	a1,255
    1d04:	31540923          	sb	s5,786(s0)
    1d08:	0bf00513          	li	a0,191
    1d0c:	300409a3          	sb	zero,787(s0)
    1d10:	dddff0ef          	jal	ra,1aec <analog_write_reg8>
    1d14:	4581                	c.li	a1,0
    1d16:	0c000513          	li	a0,192
    1d1a:	31540b23          	sb	s5,790(s0)
    1d1e:	33f9                	c.jal	1aec <analog_write_reg8>
    1d20:	0ff00593          	li	a1,255
    1d24:	31540d23          	sb	s5,794(s0)
    1d28:	0c200513          	li	a0,194
    1d2c:	30040da3          	sb	zero,795(s0)
    1d30:	dbdff0ef          	jal	ra,1aec <analog_write_reg8>
    1d34:	31540f23          	sb	s5,798(s0)
    1d38:	33642023          	sw	s6,800(s0)
    1d3c:	0084f493          	andi	s1,s1,8
    1d40:	33442223          	sw	s4,804(s0)
    1d44:	10048e63          	beqz	s1,1e60 <main+0x1f0>
    1d48:	80140437          	lui	s0,0x80140
    1d4c:	30640783          	lb	a5,774(s0) # 80140306 <_DATA_LMA_START+0x6012836e>
    1d50:	453d                	c.li	a0,15
    1d52:	f807e793          	ori	a5,a5,-128
    1d56:	0ff7f793          	andi	a5,a5,255
    1d5a:	30f40323          	sb	a5,774(s0)
    1d5e:	30240783          	lb	a5,770(s0)
    1d62:	07f7f793          	andi	a5,a5,127
    1d66:	30f40123          	sb	a5,770(s0)
    1d6a:	35c9                	c.jal	1c2c <analog_read_reg8>
    1d6c:	03f57593          	andi	a1,a0,63
    1d70:	0405e593          	ori	a1,a1,64
    1d74:	453d                	c.li	a0,15
    1d76:	3b9d                	c.jal	1aec <analog_write_reg8>
    1d78:	30340683          	lb	a3,771(s0)
    1d7c:	200177b7          	lui	a5,0x20017
    1d80:	f2478793          	addi	a5,a5,-220 # 20016f24 <plog_cmd+0xf0>
    1d84:	f806e693          	ori	a3,a3,-128
    1d88:	0ff6f693          	andi	a3,a3,255
    1d8c:	01010713          	addi	a4,sp,16
    1d90:	0cc78613          	addi	a2,a5,204
    1d94:	30d401a3          	sb	a3,771(s0)
    1d98:	4388                	c.lw	a0,0(a5)
    1d9a:	43cc                	c.lw	a1,4(a5)
    1d9c:	4794                	c.lw	a3,8(a5)
    1d9e:	c308                	c.sw	a0,0(a4)
    1da0:	c34c                	c.sw	a1,4(a4)
    1da2:	c714                	c.sw	a3,8(a4)
    1da4:	07b1                	c.addi	a5,12
    1da6:	0731                	c.addi	a4,12
    1da8:	fec798e3          	bne	a5,a2,1d98 <main+0x128>
    1dac:	439c                	c.lw	a5,0(a5)
    1dae:	20016537          	lui	a0,0x20016
    1db2:	cc450513          	addi	a0,a0,-828 # 20015cc4 <__FUNCTION__.9994+0x14>
    1db6:	c31c                	c.sw	a5,0(a4)
    1db8:	20013097          	auipc	ra,0x20013
    1dbc:	b24080e7          	jalr	-1244(ra) # 200148dc <printf>
    1dc0:	4585                	c.li	a1,1
    1dc2:	4885                	c.li	a7,1
    1dc4:	4805                	c.li	a6,1
    1dc6:	4795                	c.li	a5,5
    1dc8:	4705                	c.li	a4,1
    1dca:	468d                	c.li	a3,3
    1dcc:	4601                	c.li	a2,0
    1dce:	0808                	c.addi4spn	a0,sp,16
    1dd0:	c202                	c.swsp	zero,4(sp)
    1dd2:	c002                	c.swsp	zero,0(sp)
    1dd4:	20013097          	auipc	ra,0x20013
    1dd8:	b08080e7          	jalr	-1272(ra) # 200148dc <printf>
    1ddc:	20016537          	lui	a0,0x20016
    1de0:	cd450513          	addi	a0,a0,-812 # 20015cd4 <__FUNCTION__.9994+0x24>
    1de4:	20013097          	auipc	ra,0x20013
    1de8:	af8080e7          	jalr	-1288(ra) # 200148dc <printf>
    1dec:	200175b7          	lui	a1,0x20017
    1df0:	b6058593          	addi	a1,a1,-1184 # 20016b60 <days_in_month+0xb54>
    1df4:	00e00513          	li	a0,14
    1df8:	20006097          	auipc	ra,0x20006
    1dfc:	070080e7          	jalr	112(ra) # 20007e68 <_set_plog>
    1e00:	0a048a63          	beqz	s1,1eb4 <main+0x244>
    1e04:	00000437          	lui	s0,0x0
    1e08:	17840413          	addi	s0,s0,376 # 178 <_AES_VMA_END>
    1e0c:	10042503          	lw	a0,256(s0)
    1e10:	0a051e63          	bnez	a0,1ecc <main+0x25c>
    1e14:	300467f3          	csrrsi	a5,mstatus,8
    1e18:	6785                	c.lui	a5,0x1
    1e1a:	88878793          	addi	a5,a5,-1912 # 888 <bltc+0x10>
    1e1e:	3047a7f3          	csrrs	a5,mie,a5
    1e22:	9f9fa78b          	lbugp	a5,-1544 # 801f8 <sys_clk+0x4>
    1e26:	004c7737          	lui	a4,0x4c7
    1e2a:	63870713          	addi	a4,a4,1592 # 4c7638 <FLASH_SIZE+0x3c7638>
    1e2e:	02e787b3          	mul	a5,a5,a4
    1e32:	80140737          	lui	a4,0x80140
    1e36:	801404b7          	lui	s1,0x80140
    1e3a:	4431                	c.li	s0,12
    1e3c:	14f72623          	sw	a5,332(a4) # 8014014c <_DATA_LMA_START+0x601281b4>
    1e40:	14270783          	lb	a5,322(a4)
    1e44:	f807e793          	ori	a5,a5,-128
    1e48:	0ff7f793          	andi	a5,a5,255
    1e4c:	14f70123          	sb	a5,322(a4)
    1e50:	2000c097          	auipc	ra,0x2000c
    1e54:	570080e7          	jalr	1392(ra) # 2000e3c0 <main_loop>
    1e58:	148481a3          	sb	s0,323(s1) # 80140143 <_DATA_LMA_START+0x601281ab>
    1e5c:	ff5ff06f          	j	1e50 <main+0x1e0>
    1e60:	4581                	c.li	a1,0
    1e62:	4539                	c.li	a0,14
    1e64:	c89ff0ef          	jal	ra,1aec <analog_write_reg8>
    1e68:	0c000593          	li	a1,192
    1e6c:	453d                	c.li	a0,15
    1e6e:	39bd                	c.jal	1aec <analog_write_reg8>
    1e70:	4581                	c.li	a1,0
    1e72:	4541                	c.li	a0,16
    1e74:	c79ff0ef          	jal	ra,1aec <analog_write_reg8>
    1e78:	4581                	c.li	a1,0
    1e7a:	4545                	c.li	a0,17
    1e7c:	c71ff0ef          	jal	ra,1aec <analog_write_reg8>
    1e80:	4581                	c.li	a1,0
    1e82:	4549                	c.li	a0,18
    1e84:	c69ff0ef          	jal	ra,1aec <analog_write_reg8>
    1e88:	4581                	c.li	a1,0
    1e8a:	454d                	c.li	a0,19
    1e8c:	c61ff0ef          	jal	ra,1aec <analog_write_reg8>
    1e90:	4581                	c.li	a1,0
    1e92:	4551                	c.li	a0,20
    1e94:	c59ff0ef          	jal	ra,1aec <analog_write_reg8>
    1e98:	4581                	c.li	a1,0
    1e9a:	4555                	c.li	a0,21
    1e9c:	c51ff0ef          	jal	ra,1aec <analog_write_reg8>
    1ea0:	4581                	c.li	a1,0
    1ea2:	4559                	c.li	a0,22
    1ea4:	c49ff0ef          	jal	ra,1aec <analog_write_reg8>
    1ea8:	4581                	c.li	a1,0
    1eaa:	455d                	c.li	a0,23
    1eac:	c41ff0ef          	jal	ra,1aec <analog_write_reg8>
    1eb0:	e99ff06f          	j	1d48 <main+0xd8>
    1eb4:	00000437          	lui	s0,0x0
    1eb8:	20007097          	auipc	ra,0x20007
    1ebc:	310080e7          	jalr	784(ra) # 200091c8 <blc_readFlashSize_autoConfigCustomFlashSector>
    1ec0:	17840413          	addi	s0,s0,376 # 178 <_AES_VMA_END>
    1ec4:	10042503          	lw	a0,256(s0)
    1ec8:	08050863          	beqz	a0,1f58 <main+0x2e8>
    1ecc:	9ac9c783          	lbu	a5,-1620(s3)
    1ed0:	000019b7          	lui	s3,0x1
    1ed4:	eb95                	c.bnez	a5,1f08 <main+0x298>
    1ed6:	b609a783          	lw	a5,-1184(s3) # b60 <flash_read_page>
    1eda:	0810                	c.addi4spn	a2,sp,16
    1edc:	4585                	c.li	a1,1
    1ede:	9782                	c.jalr	a5
    1ee0:	01014703          	lbu	a4,16(sp)
    1ee4:	0ff00793          	li	a5,255
    1ee8:	02f70063          	beq	a4,a5,1f08 <main+0x298>
    1eec:	08a00513          	li	a0,138
    1ef0:	d3dff0ef          	jal	ra,1c2c <analog_read_reg8>
    1ef4:	01010783          	lb	a5,16(sp)
    1ef8:	0c057593          	andi	a1,a0,192
    1efc:	03f7f793          	andi	a5,a5,63
    1f00:	08a00513          	li	a0,138
    1f04:	8ddd                	c.or	a1,a5
    1f06:	36dd                	c.jal	1aec <analog_write_reg8>
    1f08:	10c45783          	lhu	a5,268(s0)
    1f0c:	c802                	c.swsp	zero,16(sp)
    1f0e:	00011a23          	sh	zero,20(sp)
    1f12:	00010b23          	sb	zero,22(sp)
    1f16:	cf9d                	c.beqz	a5,1f54 <main+0x2e4>
    1f18:	10042503          	lw	a0,256(s0)
    1f1c:	b609a783          	lw	a5,-1184(s3)
    1f20:	0810                	c.addi4spn	a2,sp,16
    1f22:	459d                	c.li	a1,7
    1f24:	0c050513          	addi	a0,a0,192
    1f28:	9782                	c.jalr	a5
    1f2a:	01414703          	lbu	a4,20(sp)
    1f2e:	0ff00793          	li	a5,255
    1f32:	04f70363          	beq	a4,a5,1f78 <main+0x308>
    1f36:	01614783          	lbu	a5,22(sp)
    1f3a:	66c1                	c.lui	a3,0x10
    1f3c:	01515583          	lhu	a1,21(sp)
    1f40:	16fd                	c.addi	a3,-1
    1f42:	07a2                	c.slli	a5,0x8
    1f44:	01514603          	lbu	a2,21(sp)
    1f48:	02d58863          	beq	a1,a3,1f78 <main+0x308>
    1f4c:	1c0736db          	bfos	a3,a4,7,0
    1f50:	0006da63          	bgez	a3,1f64 <main+0x2f4>
    1f54:	ec0490e3          	bnez	s1,1e14 <main+0x1a4>
    1f58:	2000c097          	auipc	ra,0x2000c
    1f5c:	640080e7          	jalr	1600(ra) # 2000e598 <user_init_normal>
    1f60:	eb5ff06f          	j	1e14 <main+0x1a4>
    1f64:	8fd1                	c.or	a5,a2
    1f66:	3e878793          	addi	a5,a5,1000
    1f6a:	1731                	c.addi	a4,-20
    1f6c:	10f41423          	sh	a5,264(s0)
    1f70:	10e41523          	sh	a4,266(s0)
    1f74:	fe1ff06f          	j	1f54 <main+0x2e4>
    1f78:	00394783          	lbu	a5,3(s2)
    1f7c:	ffe1                	c.bnez	a5,1f54 <main+0x2e4>
    1f7e:	6741                	c.lui	a4,0x10
    1f80:	01015603          	lhu	a2,16(sp)
    1f84:	177d                	c.addi	a4,-1
    1f86:	01114683          	lbu	a3,17(sp)
    1f8a:	01014783          	lbu	a5,16(sp)
    1f8e:	fce603e3          	beq	a2,a4,1f54 <main+0x2e4>
    1f92:	97b6                	c.add	a5,a3
    1f94:	39878713          	addi	a4,a5,920
    1f98:	f8078793          	addi	a5,a5,-128
    1f9c:	10e41423          	sh	a4,264(s0)
    1fa0:	3c07a7db          	bfoz	a5,a5,15,0
    1fa4:	0fd00713          	li	a4,253
    1fa8:	faf776e3          	bgeu	a4,a5,1f54 <main+0x2e4>
    1fac:	49700793          	li	a5,1175
    1fb0:	10f41423          	sh	a5,264(s0)
    1fb4:	fa1ff06f          	j	1f54 <main+0x2e4>

00001fb8 <clock_cal_24m_rc>:
    1fb8:	1141                	c.addi	sp,-16
    1fba:	08000593          	li	a1,128
    1fbe:	0c800513          	li	a0,200
    1fc2:	c606                	c.swsp	ra,12(sp)
    1fc4:	b29ff0ef          	jal	ra,1aec <analog_write_reg8>
    1fc8:	04f00513          	li	a0,79
    1fcc:	c61ff0ef          	jal	ra,1c2c <analog_read_reg8>
    1fd0:	f8056593          	ori	a1,a0,-128
    1fd4:	0ff5f593          	andi	a1,a1,255
    1fd8:	04f00513          	li	a0,79
    1fdc:	b11ff0ef          	jal	ra,1aec <analog_write_reg8>
    1fe0:	45b9                	c.li	a1,14
    1fe2:	0c700513          	li	a0,199
    1fe6:	3619                	c.jal	1aec <analog_write_reg8>
    1fe8:	45bd                	c.li	a1,15
    1fea:	0c700513          	li	a0,199
    1fee:	3cfd                	c.jal	1aec <analog_write_reg8>
    1ff0:	0cf00513          	li	a0,207
    1ff4:	c39ff0ef          	jal	ra,1c2c <analog_read_reg8>
    1ff8:	be757c5b          	bbc	a0,7,1ff0 <clock_cal_24m_rc+0x38>
    1ffc:	0cb00513          	li	a0,203
    2000:	c2dff0ef          	jal	ra,1c2c <analog_read_reg8>
    2004:	85aa                	c.mv	a1,a0
    2006:	05200513          	li	a0,82
    200a:	34cd                	c.jal	1aec <analog_write_reg8>
    200c:	04f00513          	li	a0,79
    2010:	c1dff0ef          	jal	ra,1c2c <analog_read_reg8>
    2014:	07f57593          	andi	a1,a0,127
    2018:	04f00513          	li	a0,79
    201c:	ad1ff0ef          	jal	ra,1aec <analog_write_reg8>
    2020:	0c700513          	li	a0,199
    2024:	45b9                	c.li	a1,14
    2026:	34d9                	c.jal	1aec <analog_write_reg8>
    2028:	40b2                	c.lwsp	ra,12(sp)
    202a:	05200513          	li	a0,82
    202e:	0141                	c.addi	sp,16
    2030:	bfdff06f          	j	1c2c <analog_read_reg8>

00002034 <entry_irq63>:
    2034:	1141                	c.addi	sp,-16
    2036:	c632                	c.swsp	a2,12(sp)
    2038:	c436                	c.swsp	a3,8(sp)
    203a:	c23a                	c.swsp	a4,4(sp)
    203c:	c03e                	c.swsp	a5,0(sp)
    203e:	34102773          	csrr	a4,mepc
    2042:	300026f3          	csrr	a3,mstatus
    2046:	7c4027f3          	csrr	a5,mxstatus
    204a:	30046673          	csrrsi	a2,mstatus,8
    204e:	30047673          	csrrci	a2,mstatus,8
    2052:	30069073          	csrw	mstatus,a3
    2056:	34171073          	csrw	mepc,a4
    205a:	7c479073          	csrw	mxstatus,a5
    205e:	e42007b7          	lui	a5,0xe4200
    2062:	03f00713          	li	a4,63
    2066:	c3d8                	c.sw	a4,4(a5)
    2068:	0ff0000f          	fence
    206c:	4632                	c.lwsp	a2,12(sp)
    206e:	46a2                	c.lwsp	a3,8(sp)
    2070:	4712                	c.lwsp	a4,4(sp)
    2072:	4782                	c.lwsp	a5,0(sp)
    2074:	01010113          	addi	sp,sp,16
    2078:	30200073          	mret

0000207c <entry_irq62>:
    207c:	1141                	c.addi	sp,-16
    207e:	c632                	c.swsp	a2,12(sp)
    2080:	c436                	c.swsp	a3,8(sp)
    2082:	c23a                	c.swsp	a4,4(sp)
    2084:	c03e                	c.swsp	a5,0(sp)
    2086:	34102773          	csrr	a4,mepc
    208a:	300026f3          	csrr	a3,mstatus
    208e:	7c4027f3          	csrr	a5,mxstatus
    2092:	30046673          	csrrsi	a2,mstatus,8
    2096:	30047673          	csrrci	a2,mstatus,8
    209a:	30069073          	csrw	mstatus,a3
    209e:	34171073          	csrw	mepc,a4
    20a2:	7c479073          	csrw	mxstatus,a5
    20a6:	e42007b7          	lui	a5,0xe4200
    20aa:	03e00713          	li	a4,62
    20ae:	c3d8                	c.sw	a4,4(a5)
    20b0:	0ff0000f          	fence
    20b4:	4632                	c.lwsp	a2,12(sp)
    20b6:	46a2                	c.lwsp	a3,8(sp)
    20b8:	4712                	c.lwsp	a4,4(sp)
    20ba:	4782                	c.lwsp	a5,0(sp)
    20bc:	01010113          	addi	sp,sp,16
    20c0:	30200073          	mret

000020c4 <entry_irq61>:
    20c4:	1141                	c.addi	sp,-16
    20c6:	c632                	c.swsp	a2,12(sp)
    20c8:	c436                	c.swsp	a3,8(sp)
    20ca:	c23a                	c.swsp	a4,4(sp)
    20cc:	c03e                	c.swsp	a5,0(sp)
    20ce:	34102773          	csrr	a4,mepc
    20d2:	300026f3          	csrr	a3,mstatus
    20d6:	7c4027f3          	csrr	a5,mxstatus
    20da:	30046673          	csrrsi	a2,mstatus,8
    20de:	30047673          	csrrci	a2,mstatus,8
    20e2:	30069073          	csrw	mstatus,a3
    20e6:	34171073          	csrw	mepc,a4
    20ea:	7c479073          	csrw	mxstatus,a5
    20ee:	e42007b7          	lui	a5,0xe4200
    20f2:	03d00713          	li	a4,61
    20f6:	c3d8                	c.sw	a4,4(a5)
    20f8:	0ff0000f          	fence
    20fc:	4632                	c.lwsp	a2,12(sp)
    20fe:	46a2                	c.lwsp	a3,8(sp)
    2100:	4712                	c.lwsp	a4,4(sp)
    2102:	4782                	c.lwsp	a5,0(sp)
    2104:	01010113          	addi	sp,sp,16
    2108:	30200073          	mret

0000210c <entry_irq60>:
    210c:	1141                	c.addi	sp,-16
    210e:	c632                	c.swsp	a2,12(sp)
    2110:	c436                	c.swsp	a3,8(sp)
    2112:	c23a                	c.swsp	a4,4(sp)
    2114:	c03e                	c.swsp	a5,0(sp)
    2116:	34102773          	csrr	a4,mepc
    211a:	300026f3          	csrr	a3,mstatus
    211e:	7c4027f3          	csrr	a5,mxstatus
    2122:	30046673          	csrrsi	a2,mstatus,8
    2126:	30047673          	csrrci	a2,mstatus,8
    212a:	30069073          	csrw	mstatus,a3
    212e:	34171073          	csrw	mepc,a4
    2132:	7c479073          	csrw	mxstatus,a5
    2136:	e42007b7          	lui	a5,0xe4200
    213a:	03c00713          	li	a4,60
    213e:	c3d8                	c.sw	a4,4(a5)
    2140:	0ff0000f          	fence
    2144:	4632                	c.lwsp	a2,12(sp)
    2146:	46a2                	c.lwsp	a3,8(sp)
    2148:	4712                	c.lwsp	a4,4(sp)
    214a:	4782                	c.lwsp	a5,0(sp)
    214c:	01010113          	addi	sp,sp,16
    2150:	30200073          	mret

00002154 <entry_irq59>:
    2154:	1141                	c.addi	sp,-16
    2156:	c632                	c.swsp	a2,12(sp)
    2158:	c436                	c.swsp	a3,8(sp)
    215a:	c23a                	c.swsp	a4,4(sp)
    215c:	c03e                	c.swsp	a5,0(sp)
    215e:	34102773          	csrr	a4,mepc
    2162:	300026f3          	csrr	a3,mstatus
    2166:	7c4027f3          	csrr	a5,mxstatus
    216a:	30046673          	csrrsi	a2,mstatus,8
    216e:	30047673          	csrrci	a2,mstatus,8
    2172:	30069073          	csrw	mstatus,a3
    2176:	34171073          	csrw	mepc,a4
    217a:	7c479073          	csrw	mxstatus,a5
    217e:	e42007b7          	lui	a5,0xe4200
    2182:	03b00713          	li	a4,59
    2186:	c3d8                	c.sw	a4,4(a5)
    2188:	0ff0000f          	fence
    218c:	4632                	c.lwsp	a2,12(sp)
    218e:	46a2                	c.lwsp	a3,8(sp)
    2190:	4712                	c.lwsp	a4,4(sp)
    2192:	4782                	c.lwsp	a5,0(sp)
    2194:	01010113          	addi	sp,sp,16
    2198:	30200073          	mret

0000219c <entry_irq58>:
    219c:	1141                	c.addi	sp,-16
    219e:	c632                	c.swsp	a2,12(sp)
    21a0:	c436                	c.swsp	a3,8(sp)
    21a2:	c23a                	c.swsp	a4,4(sp)
    21a4:	c03e                	c.swsp	a5,0(sp)
    21a6:	34102773          	csrr	a4,mepc
    21aa:	300026f3          	csrr	a3,mstatus
    21ae:	7c4027f3          	csrr	a5,mxstatus
    21b2:	30046673          	csrrsi	a2,mstatus,8
    21b6:	30047673          	csrrci	a2,mstatus,8
    21ba:	30069073          	csrw	mstatus,a3
    21be:	34171073          	csrw	mepc,a4
    21c2:	7c479073          	csrw	mxstatus,a5
    21c6:	e42007b7          	lui	a5,0xe4200
    21ca:	03a00713          	li	a4,58
    21ce:	c3d8                	c.sw	a4,4(a5)
    21d0:	0ff0000f          	fence
    21d4:	4632                	c.lwsp	a2,12(sp)
    21d6:	46a2                	c.lwsp	a3,8(sp)
    21d8:	4712                	c.lwsp	a4,4(sp)
    21da:	4782                	c.lwsp	a5,0(sp)
    21dc:	01010113          	addi	sp,sp,16
    21e0:	30200073          	mret

000021e4 <entry_irq57>:
    21e4:	1141                	c.addi	sp,-16
    21e6:	c632                	c.swsp	a2,12(sp)
    21e8:	c436                	c.swsp	a3,8(sp)
    21ea:	c23a                	c.swsp	a4,4(sp)
    21ec:	c03e                	c.swsp	a5,0(sp)
    21ee:	34102773          	csrr	a4,mepc
    21f2:	300026f3          	csrr	a3,mstatus
    21f6:	7c4027f3          	csrr	a5,mxstatus
    21fa:	30046673          	csrrsi	a2,mstatus,8
    21fe:	30047673          	csrrci	a2,mstatus,8
    2202:	30069073          	csrw	mstatus,a3
    2206:	34171073          	csrw	mepc,a4
    220a:	7c479073          	csrw	mxstatus,a5
    220e:	e42007b7          	lui	a5,0xe4200
    2212:	03900713          	li	a4,57
    2216:	c3d8                	c.sw	a4,4(a5)
    2218:	0ff0000f          	fence
    221c:	4632                	c.lwsp	a2,12(sp)
    221e:	46a2                	c.lwsp	a3,8(sp)
    2220:	4712                	c.lwsp	a4,4(sp)
    2222:	4782                	c.lwsp	a5,0(sp)
    2224:	01010113          	addi	sp,sp,16
    2228:	30200073          	mret

0000222c <entry_irq56>:
    222c:	1141                	c.addi	sp,-16
    222e:	c632                	c.swsp	a2,12(sp)
    2230:	c436                	c.swsp	a3,8(sp)
    2232:	c23a                	c.swsp	a4,4(sp)
    2234:	c03e                	c.swsp	a5,0(sp)
    2236:	34102773          	csrr	a4,mepc
    223a:	300026f3          	csrr	a3,mstatus
    223e:	7c4027f3          	csrr	a5,mxstatus
    2242:	30046673          	csrrsi	a2,mstatus,8
    2246:	30047673          	csrrci	a2,mstatus,8
    224a:	30069073          	csrw	mstatus,a3
    224e:	34171073          	csrw	mepc,a4
    2252:	7c479073          	csrw	mxstatus,a5
    2256:	e42007b7          	lui	a5,0xe4200
    225a:	03800713          	li	a4,56
    225e:	c3d8                	c.sw	a4,4(a5)
    2260:	0ff0000f          	fence
    2264:	4632                	c.lwsp	a2,12(sp)
    2266:	46a2                	c.lwsp	a3,8(sp)
    2268:	4712                	c.lwsp	a4,4(sp)
    226a:	4782                	c.lwsp	a5,0(sp)
    226c:	01010113          	addi	sp,sp,16
    2270:	30200073          	mret

00002274 <entry_irq55>:
    2274:	1141                	c.addi	sp,-16
    2276:	c632                	c.swsp	a2,12(sp)
    2278:	c436                	c.swsp	a3,8(sp)
    227a:	c23a                	c.swsp	a4,4(sp)
    227c:	c03e                	c.swsp	a5,0(sp)
    227e:	34102773          	csrr	a4,mepc
    2282:	300026f3          	csrr	a3,mstatus
    2286:	7c4027f3          	csrr	a5,mxstatus
    228a:	30046673          	csrrsi	a2,mstatus,8
    228e:	30047673          	csrrci	a2,mstatus,8
    2292:	30069073          	csrw	mstatus,a3
    2296:	34171073          	csrw	mepc,a4
    229a:	7c479073          	csrw	mxstatus,a5
    229e:	e42007b7          	lui	a5,0xe4200
    22a2:	03700713          	li	a4,55
    22a6:	c3d8                	c.sw	a4,4(a5)
    22a8:	0ff0000f          	fence
    22ac:	4632                	c.lwsp	a2,12(sp)
    22ae:	46a2                	c.lwsp	a3,8(sp)
    22b0:	4712                	c.lwsp	a4,4(sp)
    22b2:	4782                	c.lwsp	a5,0(sp)
    22b4:	01010113          	addi	sp,sp,16
    22b8:	30200073          	mret

000022bc <entry_irq54>:
    22bc:	1141                	c.addi	sp,-16
    22be:	c632                	c.swsp	a2,12(sp)
    22c0:	c436                	c.swsp	a3,8(sp)
    22c2:	c23a                	c.swsp	a4,4(sp)
    22c4:	c03e                	c.swsp	a5,0(sp)
    22c6:	34102773          	csrr	a4,mepc
    22ca:	300026f3          	csrr	a3,mstatus
    22ce:	7c4027f3          	csrr	a5,mxstatus
    22d2:	30046673          	csrrsi	a2,mstatus,8
    22d6:	30047673          	csrrci	a2,mstatus,8
    22da:	30069073          	csrw	mstatus,a3
    22de:	34171073          	csrw	mepc,a4
    22e2:	7c479073          	csrw	mxstatus,a5
    22e6:	e42007b7          	lui	a5,0xe4200
    22ea:	03600713          	li	a4,54
    22ee:	c3d8                	c.sw	a4,4(a5)
    22f0:	0ff0000f          	fence
    22f4:	4632                	c.lwsp	a2,12(sp)
    22f6:	46a2                	c.lwsp	a3,8(sp)
    22f8:	4712                	c.lwsp	a4,4(sp)
    22fa:	4782                	c.lwsp	a5,0(sp)
    22fc:	01010113          	addi	sp,sp,16
    2300:	30200073          	mret

00002304 <entry_irq53>:
    2304:	1141                	c.addi	sp,-16
    2306:	c632                	c.swsp	a2,12(sp)
    2308:	c436                	c.swsp	a3,8(sp)
    230a:	c23a                	c.swsp	a4,4(sp)
    230c:	c03e                	c.swsp	a5,0(sp)
    230e:	34102773          	csrr	a4,mepc
    2312:	300026f3          	csrr	a3,mstatus
    2316:	7c4027f3          	csrr	a5,mxstatus
    231a:	30046673          	csrrsi	a2,mstatus,8
    231e:	30047673          	csrrci	a2,mstatus,8
    2322:	30069073          	csrw	mstatus,a3
    2326:	34171073          	csrw	mepc,a4
    232a:	7c479073          	csrw	mxstatus,a5
    232e:	e42007b7          	lui	a5,0xe4200
    2332:	03500713          	li	a4,53
    2336:	c3d8                	c.sw	a4,4(a5)
    2338:	0ff0000f          	fence
    233c:	4632                	c.lwsp	a2,12(sp)
    233e:	46a2                	c.lwsp	a3,8(sp)
    2340:	4712                	c.lwsp	a4,4(sp)
    2342:	4782                	c.lwsp	a5,0(sp)
    2344:	01010113          	addi	sp,sp,16
    2348:	30200073          	mret

0000234c <entry_irq52>:
    234c:	1141                	c.addi	sp,-16
    234e:	c632                	c.swsp	a2,12(sp)
    2350:	c436                	c.swsp	a3,8(sp)
    2352:	c23a                	c.swsp	a4,4(sp)
    2354:	c03e                	c.swsp	a5,0(sp)
    2356:	34102773          	csrr	a4,mepc
    235a:	300026f3          	csrr	a3,mstatus
    235e:	7c4027f3          	csrr	a5,mxstatus
    2362:	30046673          	csrrsi	a2,mstatus,8
    2366:	30047673          	csrrci	a2,mstatus,8
    236a:	30069073          	csrw	mstatus,a3
    236e:	34171073          	csrw	mepc,a4
    2372:	7c479073          	csrw	mxstatus,a5
    2376:	e42007b7          	lui	a5,0xe4200
    237a:	03400713          	li	a4,52
    237e:	c3d8                	c.sw	a4,4(a5)
    2380:	0ff0000f          	fence
    2384:	4632                	c.lwsp	a2,12(sp)
    2386:	46a2                	c.lwsp	a3,8(sp)
    2388:	4712                	c.lwsp	a4,4(sp)
    238a:	4782                	c.lwsp	a5,0(sp)
    238c:	01010113          	addi	sp,sp,16
    2390:	30200073          	mret

00002394 <entry_irq51>:
    2394:	1141                	c.addi	sp,-16
    2396:	c632                	c.swsp	a2,12(sp)
    2398:	c436                	c.swsp	a3,8(sp)
    239a:	c23a                	c.swsp	a4,4(sp)
    239c:	c03e                	c.swsp	a5,0(sp)
    239e:	34102773          	csrr	a4,mepc
    23a2:	300026f3          	csrr	a3,mstatus
    23a6:	7c4027f3          	csrr	a5,mxstatus
    23aa:	30046673          	csrrsi	a2,mstatus,8
    23ae:	30047673          	csrrci	a2,mstatus,8
    23b2:	30069073          	csrw	mstatus,a3
    23b6:	34171073          	csrw	mepc,a4
    23ba:	7c479073          	csrw	mxstatus,a5
    23be:	e42007b7          	lui	a5,0xe4200
    23c2:	03300713          	li	a4,51
    23c6:	c3d8                	c.sw	a4,4(a5)
    23c8:	0ff0000f          	fence
    23cc:	4632                	c.lwsp	a2,12(sp)
    23ce:	46a2                	c.lwsp	a3,8(sp)
    23d0:	4712                	c.lwsp	a4,4(sp)
    23d2:	4782                	c.lwsp	a5,0(sp)
    23d4:	01010113          	addi	sp,sp,16
    23d8:	30200073          	mret

000023dc <entry_irq50>:
    23dc:	1141                	c.addi	sp,-16
    23de:	c632                	c.swsp	a2,12(sp)
    23e0:	c436                	c.swsp	a3,8(sp)
    23e2:	c23a                	c.swsp	a4,4(sp)
    23e4:	c03e                	c.swsp	a5,0(sp)
    23e6:	34102773          	csrr	a4,mepc
    23ea:	300026f3          	csrr	a3,mstatus
    23ee:	7c4027f3          	csrr	a5,mxstatus
    23f2:	30046673          	csrrsi	a2,mstatus,8
    23f6:	30047673          	csrrci	a2,mstatus,8
    23fa:	30069073          	csrw	mstatus,a3
    23fe:	34171073          	csrw	mepc,a4
    2402:	7c479073          	csrw	mxstatus,a5
    2406:	e42007b7          	lui	a5,0xe4200
    240a:	03200713          	li	a4,50
    240e:	c3d8                	c.sw	a4,4(a5)
    2410:	0ff0000f          	fence
    2414:	4632                	c.lwsp	a2,12(sp)
    2416:	46a2                	c.lwsp	a3,8(sp)
    2418:	4712                	c.lwsp	a4,4(sp)
    241a:	4782                	c.lwsp	a5,0(sp)
    241c:	01010113          	addi	sp,sp,16
    2420:	30200073          	mret

00002424 <entry_irq49>:
    2424:	30200073          	mret

00002428 <entry_irq48>:
    2428:	30200073          	mret

0000242c <entry_irq47>:
    242c:	30200073          	mret

00002430 <entry_irq46>:
    2430:	1141                	c.addi	sp,-16
    2432:	c632                	c.swsp	a2,12(sp)
    2434:	c436                	c.swsp	a3,8(sp)
    2436:	c23a                	c.swsp	a4,4(sp)
    2438:	c03e                	c.swsp	a5,0(sp)
    243a:	34102773          	csrr	a4,mepc
    243e:	300026f3          	csrr	a3,mstatus
    2442:	7c4027f3          	csrr	a5,mxstatus
    2446:	30046673          	csrrsi	a2,mstatus,8
    244a:	30047673          	csrrci	a2,mstatus,8
    244e:	30069073          	csrw	mstatus,a3
    2452:	34171073          	csrw	mepc,a4
    2456:	7c479073          	csrw	mxstatus,a5
    245a:	e42007b7          	lui	a5,0xe4200
    245e:	02e00713          	li	a4,46
    2462:	c3d8                	c.sw	a4,4(a5)
    2464:	0ff0000f          	fence
    2468:	4632                	c.lwsp	a2,12(sp)
    246a:	46a2                	c.lwsp	a3,8(sp)
    246c:	4712                	c.lwsp	a4,4(sp)
    246e:	4782                	c.lwsp	a5,0(sp)
    2470:	01010113          	addi	sp,sp,16
    2474:	30200073          	mret

00002478 <entry_irq45>:
    2478:	30200073          	mret

0000247c <entry_irq44>:
    247c:	1141                	c.addi	sp,-16
    247e:	c632                	c.swsp	a2,12(sp)
    2480:	c436                	c.swsp	a3,8(sp)
    2482:	c23a                	c.swsp	a4,4(sp)
    2484:	c03e                	c.swsp	a5,0(sp)
    2486:	34102773          	csrr	a4,mepc
    248a:	300026f3          	csrr	a3,mstatus
    248e:	7c4027f3          	csrr	a5,mxstatus
    2492:	30046673          	csrrsi	a2,mstatus,8
    2496:	30047673          	csrrci	a2,mstatus,8
    249a:	30069073          	csrw	mstatus,a3
    249e:	34171073          	csrw	mepc,a4
    24a2:	7c479073          	csrw	mxstatus,a5
    24a6:	e42007b7          	lui	a5,0xe4200
    24aa:	02c00713          	li	a4,44
    24ae:	c3d8                	c.sw	a4,4(a5)
    24b0:	0ff0000f          	fence
    24b4:	4632                	c.lwsp	a2,12(sp)
    24b6:	46a2                	c.lwsp	a3,8(sp)
    24b8:	4712                	c.lwsp	a4,4(sp)
    24ba:	4782                	c.lwsp	a5,0(sp)
    24bc:	01010113          	addi	sp,sp,16
    24c0:	30200073          	mret

000024c4 <entry_irq43>:
    24c4:	1141                	c.addi	sp,-16
    24c6:	c632                	c.swsp	a2,12(sp)
    24c8:	c436                	c.swsp	a3,8(sp)
    24ca:	c23a                	c.swsp	a4,4(sp)
    24cc:	c03e                	c.swsp	a5,0(sp)
    24ce:	34102773          	csrr	a4,mepc
    24d2:	300026f3          	csrr	a3,mstatus
    24d6:	7c4027f3          	csrr	a5,mxstatus
    24da:	30046673          	csrrsi	a2,mstatus,8
    24de:	30047673          	csrrci	a2,mstatus,8
    24e2:	30069073          	csrw	mstatus,a3
    24e6:	34171073          	csrw	mepc,a4
    24ea:	7c479073          	csrw	mxstatus,a5
    24ee:	e42007b7          	lui	a5,0xe4200
    24f2:	02b00713          	li	a4,43
    24f6:	c3d8                	c.sw	a4,4(a5)
    24f8:	0ff0000f          	fence
    24fc:	4632                	c.lwsp	a2,12(sp)
    24fe:	46a2                	c.lwsp	a3,8(sp)
    2500:	4712                	c.lwsp	a4,4(sp)
    2502:	4782                	c.lwsp	a5,0(sp)
    2504:	01010113          	addi	sp,sp,16
    2508:	30200073          	mret

0000250c <entry_irq42>:
    250c:	1141                	c.addi	sp,-16
    250e:	c632                	c.swsp	a2,12(sp)
    2510:	c436                	c.swsp	a3,8(sp)
    2512:	c23a                	c.swsp	a4,4(sp)
    2514:	c03e                	c.swsp	a5,0(sp)
    2516:	34102773          	csrr	a4,mepc
    251a:	300026f3          	csrr	a3,mstatus
    251e:	7c4027f3          	csrr	a5,mxstatus
    2522:	30046673          	csrrsi	a2,mstatus,8
    2526:	30047673          	csrrci	a2,mstatus,8
    252a:	30069073          	csrw	mstatus,a3
    252e:	34171073          	csrw	mepc,a4
    2532:	7c479073          	csrw	mxstatus,a5
    2536:	e42007b7          	lui	a5,0xe4200
    253a:	02a00713          	li	a4,42
    253e:	c3d8                	c.sw	a4,4(a5)
    2540:	0ff0000f          	fence
    2544:	4632                	c.lwsp	a2,12(sp)
    2546:	46a2                	c.lwsp	a3,8(sp)
    2548:	4712                	c.lwsp	a4,4(sp)
    254a:	4782                	c.lwsp	a5,0(sp)
    254c:	01010113          	addi	sp,sp,16
    2550:	30200073          	mret

00002554 <entry_irq41>:
    2554:	30200073          	mret

00002558 <entry_irq40>:
    2558:	30200073          	mret

0000255c <entry_irq39>:
    255c:	30200073          	mret

00002560 <entry_irq38>:
    2560:	30200073          	mret

00002564 <entry_irq37>:
    2564:	1141                	c.addi	sp,-16
    2566:	c632                	c.swsp	a2,12(sp)
    2568:	c436                	c.swsp	a3,8(sp)
    256a:	c23a                	c.swsp	a4,4(sp)
    256c:	c03e                	c.swsp	a5,0(sp)
    256e:	34102773          	csrr	a4,mepc
    2572:	300026f3          	csrr	a3,mstatus
    2576:	7c4027f3          	csrr	a5,mxstatus
    257a:	30046673          	csrrsi	a2,mstatus,8
    257e:	30047673          	csrrci	a2,mstatus,8
    2582:	30069073          	csrw	mstatus,a3
    2586:	34171073          	csrw	mepc,a4
    258a:	7c479073          	csrw	mxstatus,a5
    258e:	e42007b7          	lui	a5,0xe4200
    2592:	02500713          	li	a4,37
    2596:	c3d8                	c.sw	a4,4(a5)
    2598:	0ff0000f          	fence
    259c:	4632                	c.lwsp	a2,12(sp)
    259e:	46a2                	c.lwsp	a3,8(sp)
    25a0:	4712                	c.lwsp	a4,4(sp)
    25a2:	4782                	c.lwsp	a5,0(sp)
    25a4:	01010113          	addi	sp,sp,16
    25a8:	30200073          	mret

000025ac <entry_irq36>:
    25ac:	1141                	c.addi	sp,-16
    25ae:	c632                	c.swsp	a2,12(sp)
    25b0:	c436                	c.swsp	a3,8(sp)
    25b2:	c23a                	c.swsp	a4,4(sp)
    25b4:	c03e                	c.swsp	a5,0(sp)
    25b6:	34102773          	csrr	a4,mepc
    25ba:	300026f3          	csrr	a3,mstatus
    25be:	7c4027f3          	csrr	a5,mxstatus
    25c2:	30046673          	csrrsi	a2,mstatus,8
    25c6:	30047673          	csrrci	a2,mstatus,8
    25ca:	30069073          	csrw	mstatus,a3
    25ce:	34171073          	csrw	mepc,a4
    25d2:	7c479073          	csrw	mxstatus,a5
    25d6:	e42007b7          	lui	a5,0xe4200
    25da:	02400713          	li	a4,36
    25de:	c3d8                	c.sw	a4,4(a5)
    25e0:	0ff0000f          	fence
    25e4:	4632                	c.lwsp	a2,12(sp)
    25e6:	46a2                	c.lwsp	a3,8(sp)
    25e8:	4712                	c.lwsp	a4,4(sp)
    25ea:	4782                	c.lwsp	a5,0(sp)
    25ec:	01010113          	addi	sp,sp,16
    25f0:	30200073          	mret

000025f4 <entry_irq35>:
    25f4:	1141                	c.addi	sp,-16
    25f6:	c632                	c.swsp	a2,12(sp)
    25f8:	c436                	c.swsp	a3,8(sp)
    25fa:	c23a                	c.swsp	a4,4(sp)
    25fc:	c03e                	c.swsp	a5,0(sp)
    25fe:	34102773          	csrr	a4,mepc
    2602:	300026f3          	csrr	a3,mstatus
    2606:	7c4027f3          	csrr	a5,mxstatus
    260a:	30046673          	csrrsi	a2,mstatus,8
    260e:	30047673          	csrrci	a2,mstatus,8
    2612:	30069073          	csrw	mstatus,a3
    2616:	34171073          	csrw	mepc,a4
    261a:	7c479073          	csrw	mxstatus,a5
    261e:	e42007b7          	lui	a5,0xe4200
    2622:	02300713          	li	a4,35
    2626:	c3d8                	c.sw	a4,4(a5)
    2628:	0ff0000f          	fence
    262c:	4632                	c.lwsp	a2,12(sp)
    262e:	46a2                	c.lwsp	a3,8(sp)
    2630:	4712                	c.lwsp	a4,4(sp)
    2632:	4782                	c.lwsp	a5,0(sp)
    2634:	01010113          	addi	sp,sp,16
    2638:	30200073          	mret

0000263c <entry_irq34>:
    263c:	1141                	c.addi	sp,-16
    263e:	c632                	c.swsp	a2,12(sp)
    2640:	c436                	c.swsp	a3,8(sp)
    2642:	c23a                	c.swsp	a4,4(sp)
    2644:	c03e                	c.swsp	a5,0(sp)
    2646:	34102773          	csrr	a4,mepc
    264a:	300026f3          	csrr	a3,mstatus
    264e:	7c4027f3          	csrr	a5,mxstatus
    2652:	30046673          	csrrsi	a2,mstatus,8
    2656:	30047673          	csrrci	a2,mstatus,8
    265a:	30069073          	csrw	mstatus,a3
    265e:	34171073          	csrw	mepc,a4
    2662:	7c479073          	csrw	mxstatus,a5
    2666:	e42007b7          	lui	a5,0xe4200
    266a:	02200713          	li	a4,34
    266e:	c3d8                	c.sw	a4,4(a5)
    2670:	0ff0000f          	fence
    2674:	4632                	c.lwsp	a2,12(sp)
    2676:	46a2                	c.lwsp	a3,8(sp)
    2678:	4712                	c.lwsp	a4,4(sp)
    267a:	4782                	c.lwsp	a5,0(sp)
    267c:	01010113          	addi	sp,sp,16
    2680:	30200073          	mret

00002684 <entry_irq33>:
    2684:	1141                	c.addi	sp,-16
    2686:	c632                	c.swsp	a2,12(sp)
    2688:	c436                	c.swsp	a3,8(sp)
    268a:	c23a                	c.swsp	a4,4(sp)
    268c:	c03e                	c.swsp	a5,0(sp)
    268e:	34102773          	csrr	a4,mepc
    2692:	300026f3          	csrr	a3,mstatus
    2696:	7c4027f3          	csrr	a5,mxstatus
    269a:	30046673          	csrrsi	a2,mstatus,8
    269e:	30047673          	csrrci	a2,mstatus,8
    26a2:	30069073          	csrw	mstatus,a3
    26a6:	34171073          	csrw	mepc,a4
    26aa:	7c479073          	csrw	mxstatus,a5
    26ae:	e42007b7          	lui	a5,0xe4200
    26b2:	02100713          	li	a4,33
    26b6:	c3d8                	c.sw	a4,4(a5)
    26b8:	0ff0000f          	fence
    26bc:	4632                	c.lwsp	a2,12(sp)
    26be:	46a2                	c.lwsp	a3,8(sp)
    26c0:	4712                	c.lwsp	a4,4(sp)
    26c2:	4782                	c.lwsp	a5,0(sp)
    26c4:	01010113          	addi	sp,sp,16
    26c8:	30200073          	mret

000026cc <entry_irq32>:
    26cc:	1141                	c.addi	sp,-16
    26ce:	c632                	c.swsp	a2,12(sp)
    26d0:	c436                	c.swsp	a3,8(sp)
    26d2:	c23a                	c.swsp	a4,4(sp)
    26d4:	c03e                	c.swsp	a5,0(sp)
    26d6:	34102773          	csrr	a4,mepc
    26da:	300026f3          	csrr	a3,mstatus
    26de:	7c4027f3          	csrr	a5,mxstatus
    26e2:	30046673          	csrrsi	a2,mstatus,8
    26e6:	30047673          	csrrci	a2,mstatus,8
    26ea:	30069073          	csrw	mstatus,a3
    26ee:	34171073          	csrw	mepc,a4
    26f2:	7c479073          	csrw	mxstatus,a5
    26f6:	e42007b7          	lui	a5,0xe4200
    26fa:	02000713          	li	a4,32
    26fe:	c3d8                	c.sw	a4,4(a5)
    2700:	0ff0000f          	fence
    2704:	4632                	c.lwsp	a2,12(sp)
    2706:	46a2                	c.lwsp	a3,8(sp)
    2708:	4712                	c.lwsp	a4,4(sp)
    270a:	4782                	c.lwsp	a5,0(sp)
    270c:	01010113          	addi	sp,sp,16
    2710:	30200073          	mret

00002714 <entry_irq31>:
    2714:	1141                	c.addi	sp,-16
    2716:	c632                	c.swsp	a2,12(sp)
    2718:	c436                	c.swsp	a3,8(sp)
    271a:	c23a                	c.swsp	a4,4(sp)
    271c:	c03e                	c.swsp	a5,0(sp)
    271e:	34102773          	csrr	a4,mepc
    2722:	300026f3          	csrr	a3,mstatus
    2726:	7c4027f3          	csrr	a5,mxstatus
    272a:	30046673          	csrrsi	a2,mstatus,8
    272e:	30047673          	csrrci	a2,mstatus,8
    2732:	30069073          	csrw	mstatus,a3
    2736:	34171073          	csrw	mepc,a4
    273a:	7c479073          	csrw	mxstatus,a5
    273e:	e42007b7          	lui	a5,0xe4200
    2742:	477d                	c.li	a4,31
    2744:	c3d8                	c.sw	a4,4(a5)
    2746:	0ff0000f          	fence
    274a:	4632                	c.lwsp	a2,12(sp)
    274c:	46a2                	c.lwsp	a3,8(sp)
    274e:	4712                	c.lwsp	a4,4(sp)
    2750:	4782                	c.lwsp	a5,0(sp)
    2752:	0141                	c.addi	sp,16
    2754:	30200073          	mret

00002758 <entry_irq30>:
    2758:	1141                	c.addi	sp,-16
    275a:	c632                	c.swsp	a2,12(sp)
    275c:	c436                	c.swsp	a3,8(sp)
    275e:	c23a                	c.swsp	a4,4(sp)
    2760:	c03e                	c.swsp	a5,0(sp)
    2762:	34102773          	csrr	a4,mepc
    2766:	300026f3          	csrr	a3,mstatus
    276a:	7c4027f3          	csrr	a5,mxstatus
    276e:	30046673          	csrrsi	a2,mstatus,8
    2772:	30047673          	csrrci	a2,mstatus,8
    2776:	30069073          	csrw	mstatus,a3
    277a:	34171073          	csrw	mepc,a4
    277e:	7c479073          	csrw	mxstatus,a5
    2782:	e42007b7          	lui	a5,0xe4200
    2786:	4779                	c.li	a4,30
    2788:	c3d8                	c.sw	a4,4(a5)
    278a:	0ff0000f          	fence
    278e:	4632                	c.lwsp	a2,12(sp)
    2790:	46a2                	c.lwsp	a3,8(sp)
    2792:	4712                	c.lwsp	a4,4(sp)
    2794:	4782                	c.lwsp	a5,0(sp)
    2796:	0141                	c.addi	sp,16
    2798:	30200073          	mret

0000279c <entry_irq29>:
    279c:	1141                	c.addi	sp,-16
    279e:	c632                	c.swsp	a2,12(sp)
    27a0:	c436                	c.swsp	a3,8(sp)
    27a2:	c23a                	c.swsp	a4,4(sp)
    27a4:	c03e                	c.swsp	a5,0(sp)
    27a6:	34102773          	csrr	a4,mepc
    27aa:	300026f3          	csrr	a3,mstatus
    27ae:	7c4027f3          	csrr	a5,mxstatus
    27b2:	30046673          	csrrsi	a2,mstatus,8
    27b6:	30047673          	csrrci	a2,mstatus,8
    27ba:	30069073          	csrw	mstatus,a3
    27be:	34171073          	csrw	mepc,a4
    27c2:	7c479073          	csrw	mxstatus,a5
    27c6:	e42007b7          	lui	a5,0xe4200
    27ca:	4775                	c.li	a4,29
    27cc:	c3d8                	c.sw	a4,4(a5)
    27ce:	0ff0000f          	fence
    27d2:	4632                	c.lwsp	a2,12(sp)
    27d4:	46a2                	c.lwsp	a3,8(sp)
    27d6:	4712                	c.lwsp	a4,4(sp)
    27d8:	4782                	c.lwsp	a5,0(sp)
    27da:	0141                	c.addi	sp,16
    27dc:	30200073          	mret

000027e0 <entry_irq28>:
    27e0:	1141                	c.addi	sp,-16
    27e2:	c632                	c.swsp	a2,12(sp)
    27e4:	c436                	c.swsp	a3,8(sp)
    27e6:	c23a                	c.swsp	a4,4(sp)
    27e8:	c03e                	c.swsp	a5,0(sp)
    27ea:	34102773          	csrr	a4,mepc
    27ee:	300026f3          	csrr	a3,mstatus
    27f2:	7c4027f3          	csrr	a5,mxstatus
    27f6:	30046673          	csrrsi	a2,mstatus,8
    27fa:	30047673          	csrrci	a2,mstatus,8
    27fe:	30069073          	csrw	mstatus,a3
    2802:	34171073          	csrw	mepc,a4
    2806:	7c479073          	csrw	mxstatus,a5
    280a:	e42007b7          	lui	a5,0xe4200
    280e:	4771                	c.li	a4,28
    2810:	c3d8                	c.sw	a4,4(a5)
    2812:	0ff0000f          	fence
    2816:	4632                	c.lwsp	a2,12(sp)
    2818:	46a2                	c.lwsp	a3,8(sp)
    281a:	4712                	c.lwsp	a4,4(sp)
    281c:	4782                	c.lwsp	a5,0(sp)
    281e:	0141                	c.addi	sp,16
    2820:	30200073          	mret

00002824 <entry_irq27>:
    2824:	1141                	c.addi	sp,-16
    2826:	c632                	c.swsp	a2,12(sp)
    2828:	c436                	c.swsp	a3,8(sp)
    282a:	c23a                	c.swsp	a4,4(sp)
    282c:	c03e                	c.swsp	a5,0(sp)
    282e:	34102773          	csrr	a4,mepc
    2832:	300026f3          	csrr	a3,mstatus
    2836:	7c4027f3          	csrr	a5,mxstatus
    283a:	30046673          	csrrsi	a2,mstatus,8
    283e:	30047673          	csrrci	a2,mstatus,8
    2842:	30069073          	csrw	mstatus,a3
    2846:	34171073          	csrw	mepc,a4
    284a:	7c479073          	csrw	mxstatus,a5
    284e:	e42007b7          	lui	a5,0xe4200
    2852:	476d                	c.li	a4,27
    2854:	c3d8                	c.sw	a4,4(a5)
    2856:	0ff0000f          	fence
    285a:	4632                	c.lwsp	a2,12(sp)
    285c:	46a2                	c.lwsp	a3,8(sp)
    285e:	4712                	c.lwsp	a4,4(sp)
    2860:	4782                	c.lwsp	a5,0(sp)
    2862:	0141                	c.addi	sp,16
    2864:	30200073          	mret

00002868 <entry_irq26>:
    2868:	1141                	c.addi	sp,-16
    286a:	c632                	c.swsp	a2,12(sp)
    286c:	c436                	c.swsp	a3,8(sp)
    286e:	c23a                	c.swsp	a4,4(sp)
    2870:	c03e                	c.swsp	a5,0(sp)
    2872:	34102773          	csrr	a4,mepc
    2876:	300026f3          	csrr	a3,mstatus
    287a:	7c4027f3          	csrr	a5,mxstatus
    287e:	30046673          	csrrsi	a2,mstatus,8
    2882:	30047673          	csrrci	a2,mstatus,8
    2886:	30069073          	csrw	mstatus,a3
    288a:	34171073          	csrw	mepc,a4
    288e:	7c479073          	csrw	mxstatus,a5
    2892:	e42007b7          	lui	a5,0xe4200
    2896:	4769                	c.li	a4,26
    2898:	c3d8                	c.sw	a4,4(a5)
    289a:	0ff0000f          	fence
    289e:	4632                	c.lwsp	a2,12(sp)
    28a0:	46a2                	c.lwsp	a3,8(sp)
    28a2:	4712                	c.lwsp	a4,4(sp)
    28a4:	4782                	c.lwsp	a5,0(sp)
    28a6:	0141                	c.addi	sp,16
    28a8:	30200073          	mret

000028ac <entry_irq25>:
    28ac:	1141                	c.addi	sp,-16
    28ae:	c632                	c.swsp	a2,12(sp)
    28b0:	c436                	c.swsp	a3,8(sp)
    28b2:	c23a                	c.swsp	a4,4(sp)
    28b4:	c03e                	c.swsp	a5,0(sp)
    28b6:	34102773          	csrr	a4,mepc
    28ba:	300026f3          	csrr	a3,mstatus
    28be:	7c4027f3          	csrr	a5,mxstatus
    28c2:	30046673          	csrrsi	a2,mstatus,8
    28c6:	30047673          	csrrci	a2,mstatus,8
    28ca:	30069073          	csrw	mstatus,a3
    28ce:	34171073          	csrw	mepc,a4
    28d2:	7c479073          	csrw	mxstatus,a5
    28d6:	e42007b7          	lui	a5,0xe4200
    28da:	4765                	c.li	a4,25
    28dc:	c3d8                	c.sw	a4,4(a5)
    28de:	0ff0000f          	fence
    28e2:	4632                	c.lwsp	a2,12(sp)
    28e4:	46a2                	c.lwsp	a3,8(sp)
    28e6:	4712                	c.lwsp	a4,4(sp)
    28e8:	4782                	c.lwsp	a5,0(sp)
    28ea:	0141                	c.addi	sp,16
    28ec:	30200073          	mret

000028f0 <entry_irq24>:
    28f0:	1141                	c.addi	sp,-16
    28f2:	c632                	c.swsp	a2,12(sp)
    28f4:	c436                	c.swsp	a3,8(sp)
    28f6:	c23a                	c.swsp	a4,4(sp)
    28f8:	c03e                	c.swsp	a5,0(sp)
    28fa:	34102773          	csrr	a4,mepc
    28fe:	300026f3          	csrr	a3,mstatus
    2902:	7c4027f3          	csrr	a5,mxstatus
    2906:	30046673          	csrrsi	a2,mstatus,8
    290a:	30047673          	csrrci	a2,mstatus,8
    290e:	30069073          	csrw	mstatus,a3
    2912:	34171073          	csrw	mepc,a4
    2916:	7c479073          	csrw	mxstatus,a5
    291a:	e42007b7          	lui	a5,0xe4200
    291e:	4761                	c.li	a4,24
    2920:	c3d8                	c.sw	a4,4(a5)
    2922:	0ff0000f          	fence
    2926:	4632                	c.lwsp	a2,12(sp)
    2928:	46a2                	c.lwsp	a3,8(sp)
    292a:	4712                	c.lwsp	a4,4(sp)
    292c:	4782                	c.lwsp	a5,0(sp)
    292e:	0141                	c.addi	sp,16
    2930:	30200073          	mret

00002934 <entry_irq23>:
    2934:	1141                	c.addi	sp,-16
    2936:	c632                	c.swsp	a2,12(sp)
    2938:	c436                	c.swsp	a3,8(sp)
    293a:	c23a                	c.swsp	a4,4(sp)
    293c:	c03e                	c.swsp	a5,0(sp)
    293e:	34102773          	csrr	a4,mepc
    2942:	300026f3          	csrr	a3,mstatus
    2946:	7c4027f3          	csrr	a5,mxstatus
    294a:	30046673          	csrrsi	a2,mstatus,8
    294e:	30047673          	csrrci	a2,mstatus,8
    2952:	30069073          	csrw	mstatus,a3
    2956:	34171073          	csrw	mepc,a4
    295a:	7c479073          	csrw	mxstatus,a5
    295e:	e42007b7          	lui	a5,0xe4200
    2962:	475d                	c.li	a4,23
    2964:	c3d8                	c.sw	a4,4(a5)
    2966:	0ff0000f          	fence
    296a:	4632                	c.lwsp	a2,12(sp)
    296c:	46a2                	c.lwsp	a3,8(sp)
    296e:	4712                	c.lwsp	a4,4(sp)
    2970:	4782                	c.lwsp	a5,0(sp)
    2972:	0141                	c.addi	sp,16
    2974:	30200073          	mret

00002978 <entry_irq22>:
    2978:	1141                	c.addi	sp,-16
    297a:	c632                	c.swsp	a2,12(sp)
    297c:	c436                	c.swsp	a3,8(sp)
    297e:	c23a                	c.swsp	a4,4(sp)
    2980:	c03e                	c.swsp	a5,0(sp)
    2982:	34102773          	csrr	a4,mepc
    2986:	300026f3          	csrr	a3,mstatus
    298a:	7c4027f3          	csrr	a5,mxstatus
    298e:	30046673          	csrrsi	a2,mstatus,8
    2992:	30047673          	csrrci	a2,mstatus,8
    2996:	30069073          	csrw	mstatus,a3
    299a:	34171073          	csrw	mepc,a4
    299e:	7c479073          	csrw	mxstatus,a5
    29a2:	e42007b7          	lui	a5,0xe4200
    29a6:	4759                	c.li	a4,22
    29a8:	c3d8                	c.sw	a4,4(a5)
    29aa:	0ff0000f          	fence
    29ae:	4632                	c.lwsp	a2,12(sp)
    29b0:	46a2                	c.lwsp	a3,8(sp)
    29b2:	4712                	c.lwsp	a4,4(sp)
    29b4:	4782                	c.lwsp	a5,0(sp)
    29b6:	0141                	c.addi	sp,16
    29b8:	30200073          	mret

000029bc <entry_irq21>:
    29bc:	1141                	c.addi	sp,-16
    29be:	c632                	c.swsp	a2,12(sp)
    29c0:	c436                	c.swsp	a3,8(sp)
    29c2:	c23a                	c.swsp	a4,4(sp)
    29c4:	c03e                	c.swsp	a5,0(sp)
    29c6:	34102773          	csrr	a4,mepc
    29ca:	300026f3          	csrr	a3,mstatus
    29ce:	7c4027f3          	csrr	a5,mxstatus
    29d2:	30046673          	csrrsi	a2,mstatus,8
    29d6:	30047673          	csrrci	a2,mstatus,8
    29da:	30069073          	csrw	mstatus,a3
    29de:	34171073          	csrw	mepc,a4
    29e2:	7c479073          	csrw	mxstatus,a5
    29e6:	e42007b7          	lui	a5,0xe4200
    29ea:	4755                	c.li	a4,21
    29ec:	c3d8                	c.sw	a4,4(a5)
    29ee:	0ff0000f          	fence
    29f2:	4632                	c.lwsp	a2,12(sp)
    29f4:	46a2                	c.lwsp	a3,8(sp)
    29f6:	4712                	c.lwsp	a4,4(sp)
    29f8:	4782                	c.lwsp	a5,0(sp)
    29fa:	0141                	c.addi	sp,16
    29fc:	30200073          	mret

00002a00 <entry_irq20>:
    2a00:	1141                	c.addi	sp,-16
    2a02:	c632                	c.swsp	a2,12(sp)
    2a04:	c436                	c.swsp	a3,8(sp)
    2a06:	c23a                	c.swsp	a4,4(sp)
    2a08:	c03e                	c.swsp	a5,0(sp)
    2a0a:	34102773          	csrr	a4,mepc
    2a0e:	300026f3          	csrr	a3,mstatus
    2a12:	7c4027f3          	csrr	a5,mxstatus
    2a16:	30046673          	csrrsi	a2,mstatus,8
    2a1a:	30047673          	csrrci	a2,mstatus,8
    2a1e:	30069073          	csrw	mstatus,a3
    2a22:	34171073          	csrw	mepc,a4
    2a26:	7c479073          	csrw	mxstatus,a5
    2a2a:	e42007b7          	lui	a5,0xe4200
    2a2e:	4751                	c.li	a4,20
    2a30:	c3d8                	c.sw	a4,4(a5)
    2a32:	0ff0000f          	fence
    2a36:	4632                	c.lwsp	a2,12(sp)
    2a38:	46a2                	c.lwsp	a3,8(sp)
    2a3a:	4712                	c.lwsp	a4,4(sp)
    2a3c:	4782                	c.lwsp	a5,0(sp)
    2a3e:	0141                	c.addi	sp,16
    2a40:	30200073          	mret

00002a44 <entry_irq19>:
    2a44:	1141                	c.addi	sp,-16
    2a46:	c632                	c.swsp	a2,12(sp)
    2a48:	c436                	c.swsp	a3,8(sp)
    2a4a:	c23a                	c.swsp	a4,4(sp)
    2a4c:	c03e                	c.swsp	a5,0(sp)
    2a4e:	34102773          	csrr	a4,mepc
    2a52:	300026f3          	csrr	a3,mstatus
    2a56:	7c4027f3          	csrr	a5,mxstatus
    2a5a:	30046673          	csrrsi	a2,mstatus,8
    2a5e:	30047673          	csrrci	a2,mstatus,8
    2a62:	30069073          	csrw	mstatus,a3
    2a66:	34171073          	csrw	mepc,a4
    2a6a:	7c479073          	csrw	mxstatus,a5
    2a6e:	e42007b7          	lui	a5,0xe4200
    2a72:	474d                	c.li	a4,19
    2a74:	c3d8                	c.sw	a4,4(a5)
    2a76:	0ff0000f          	fence
    2a7a:	4632                	c.lwsp	a2,12(sp)
    2a7c:	46a2                	c.lwsp	a3,8(sp)
    2a7e:	4712                	c.lwsp	a4,4(sp)
    2a80:	4782                	c.lwsp	a5,0(sp)
    2a82:	0141                	c.addi	sp,16
    2a84:	30200073          	mret

00002a88 <entry_irq18>:
    2a88:	1141                	c.addi	sp,-16
    2a8a:	c632                	c.swsp	a2,12(sp)
    2a8c:	c436                	c.swsp	a3,8(sp)
    2a8e:	c23a                	c.swsp	a4,4(sp)
    2a90:	c03e                	c.swsp	a5,0(sp)
    2a92:	34102773          	csrr	a4,mepc
    2a96:	300026f3          	csrr	a3,mstatus
    2a9a:	7c4027f3          	csrr	a5,mxstatus
    2a9e:	30046673          	csrrsi	a2,mstatus,8
    2aa2:	30047673          	csrrci	a2,mstatus,8
    2aa6:	30069073          	csrw	mstatus,a3
    2aaa:	34171073          	csrw	mepc,a4
    2aae:	7c479073          	csrw	mxstatus,a5
    2ab2:	e42007b7          	lui	a5,0xe4200
    2ab6:	4749                	c.li	a4,18
    2ab8:	c3d8                	c.sw	a4,4(a5)
    2aba:	0ff0000f          	fence
    2abe:	4632                	c.lwsp	a2,12(sp)
    2ac0:	46a2                	c.lwsp	a3,8(sp)
    2ac2:	4712                	c.lwsp	a4,4(sp)
    2ac4:	4782                	c.lwsp	a5,0(sp)
    2ac6:	0141                	c.addi	sp,16
    2ac8:	30200073          	mret

00002acc <entry_irq17>:
    2acc:	1141                	c.addi	sp,-16
    2ace:	c632                	c.swsp	a2,12(sp)
    2ad0:	c436                	c.swsp	a3,8(sp)
    2ad2:	c23a                	c.swsp	a4,4(sp)
    2ad4:	c03e                	c.swsp	a5,0(sp)
    2ad6:	34102773          	csrr	a4,mepc
    2ada:	300026f3          	csrr	a3,mstatus
    2ade:	7c4027f3          	csrr	a5,mxstatus
    2ae2:	30046673          	csrrsi	a2,mstatus,8
    2ae6:	30047673          	csrrci	a2,mstatus,8
    2aea:	30069073          	csrw	mstatus,a3
    2aee:	34171073          	csrw	mepc,a4
    2af2:	7c479073          	csrw	mxstatus,a5
    2af6:	e42007b7          	lui	a5,0xe4200
    2afa:	4745                	c.li	a4,17
    2afc:	c3d8                	c.sw	a4,4(a5)
    2afe:	0ff0000f          	fence
    2b02:	4632                	c.lwsp	a2,12(sp)
    2b04:	46a2                	c.lwsp	a3,8(sp)
    2b06:	4712                	c.lwsp	a4,4(sp)
    2b08:	4782                	c.lwsp	a5,0(sp)
    2b0a:	0141                	c.addi	sp,16
    2b0c:	30200073          	mret

00002b10 <entry_irq16>:
    2b10:	1141                	c.addi	sp,-16
    2b12:	c632                	c.swsp	a2,12(sp)
    2b14:	c436                	c.swsp	a3,8(sp)
    2b16:	c23a                	c.swsp	a4,4(sp)
    2b18:	c03e                	c.swsp	a5,0(sp)
    2b1a:	34102773          	csrr	a4,mepc
    2b1e:	300026f3          	csrr	a3,mstatus
    2b22:	7c4027f3          	csrr	a5,mxstatus
    2b26:	30046673          	csrrsi	a2,mstatus,8
    2b2a:	30047673          	csrrci	a2,mstatus,8
    2b2e:	30069073          	csrw	mstatus,a3
    2b32:	34171073          	csrw	mepc,a4
    2b36:	7c479073          	csrw	mxstatus,a5
    2b3a:	e42007b7          	lui	a5,0xe4200
    2b3e:	4741                	c.li	a4,16
    2b40:	c3d8                	c.sw	a4,4(a5)
    2b42:	0ff0000f          	fence
    2b46:	4632                	c.lwsp	a2,12(sp)
    2b48:	46a2                	c.lwsp	a3,8(sp)
    2b4a:	4712                	c.lwsp	a4,4(sp)
    2b4c:	4782                	c.lwsp	a5,0(sp)
    2b4e:	0141                	c.addi	sp,16
    2b50:	30200073          	mret

00002b54 <entry_irq15>:
    2b54:	7135                	c.addi16sp	sp,-160
    2b56:	cf06                	c.swsp	ra,156(sp)
    2b58:	cd16                	c.swsp	t0,152(sp)
    2b5a:	cb1a                	c.swsp	t1,148(sp)
    2b5c:	c91e                	c.swsp	t2,144(sp)
    2b5e:	c722                	c.swsp	s0,140(sp)
    2b60:	c526                	c.swsp	s1,136(sp)
    2b62:	c32a                	c.swsp	a0,132(sp)
    2b64:	c12e                	c.swsp	a1,128(sp)
    2b66:	deb2                	c.swsp	a2,124(sp)
    2b68:	dcb6                	c.swsp	a3,120(sp)
    2b6a:	daba                	c.swsp	a4,116(sp)
    2b6c:	d8be                	c.swsp	a5,112(sp)
    2b6e:	d6c2                	c.swsp	a6,108(sp)
    2b70:	d4c6                	c.swsp	a7,104(sp)
    2b72:	d2ca                	c.swsp	s2,100(sp)
    2b74:	d0f2                	c.swsp	t3,96(sp)
    2b76:	cef6                	c.swsp	t4,92(sp)
    2b78:	ccfa                	c.swsp	t5,88(sp)
    2b7a:	cafe                	c.swsp	t6,84(sp)
    2b7c:	e682                	c.fswsp	ft0,76(sp)
    2b7e:	e486                	c.fswsp	ft1,72(sp)
    2b80:	e28a                	c.fswsp	ft2,68(sp)
    2b82:	e08e                	c.fswsp	ft3,64(sp)
    2b84:	fe12                	c.fswsp	ft4,60(sp)
    2b86:	fc16                	c.fswsp	ft5,56(sp)
    2b88:	fa1a                	c.fswsp	ft6,52(sp)
    2b8a:	f81e                	c.fswsp	ft7,48(sp)
    2b8c:	f62a                	c.fswsp	fa0,44(sp)
    2b8e:	f42e                	c.fswsp	fa1,40(sp)
    2b90:	f232                	c.fswsp	fa2,36(sp)
    2b92:	f036                	c.fswsp	fa3,32(sp)
    2b94:	ee3a                	c.fswsp	fa4,28(sp)
    2b96:	ec3e                	c.fswsp	fa5,24(sp)
    2b98:	ea42                	c.fswsp	fa6,20(sp)
    2b9a:	e846                	c.fswsp	fa7,16(sp)
    2b9c:	e672                	c.fswsp	ft8,12(sp)
    2b9e:	e476                	c.fswsp	ft9,8(sp)
    2ba0:	e27a                	c.fswsp	ft10,4(sp)
    2ba2:	e07e                	c.fswsp	ft11,0(sp)
    2ba4:	341024f3          	csrr	s1,mepc
    2ba8:	30002973          	csrr	s2,mstatus
    2bac:	7c402473          	csrr	s0,mxstatus
    2bb0:	300467f3          	csrrsi	a5,mstatus,8
    2bb4:	931fe0ef          	jal	ra,14e4 <rf_irq_handler>
    2bb8:	300477f3          	csrrci	a5,mstatus,8
    2bbc:	30091073          	csrw	mstatus,s2
    2bc0:	34149073          	csrw	mepc,s1
    2bc4:	7c441073          	csrw	mxstatus,s0
    2bc8:	e42007b7          	lui	a5,0xe4200
    2bcc:	473d                	c.li	a4,15
    2bce:	c3d8                	c.sw	a4,4(a5)
    2bd0:	0ff0000f          	fence
    2bd4:	443a                	c.lwsp	s0,140(sp)
    2bd6:	40fa                	c.lwsp	ra,156(sp)
    2bd8:	42ea                	c.lwsp	t0,152(sp)
    2bda:	435a                	c.lwsp	t1,148(sp)
    2bdc:	43ca                	c.lwsp	t2,144(sp)
    2bde:	44aa                	c.lwsp	s1,136(sp)
    2be0:	451a                	c.lwsp	a0,132(sp)
    2be2:	458a                	c.lwsp	a1,128(sp)
    2be4:	5676                	c.lwsp	a2,124(sp)
    2be6:	56e6                	c.lwsp	a3,120(sp)
    2be8:	5756                	c.lwsp	a4,116(sp)
    2bea:	57c6                	c.lwsp	a5,112(sp)
    2bec:	5836                	c.lwsp	a6,108(sp)
    2bee:	58a6                	c.lwsp	a7,104(sp)
    2bf0:	5916                	c.lwsp	s2,100(sp)
    2bf2:	5e06                	c.lwsp	t3,96(sp)
    2bf4:	4ef6                	c.lwsp	t4,92(sp)
    2bf6:	4f66                	c.lwsp	t5,88(sp)
    2bf8:	4fd6                	c.lwsp	t6,84(sp)
    2bfa:	6036                	c.flwsp	ft0,76(sp)
    2bfc:	60a6                	c.flwsp	ft1,72(sp)
    2bfe:	6116                	c.flwsp	ft2,68(sp)
    2c00:	6186                	c.flwsp	ft3,64(sp)
    2c02:	7272                	c.flwsp	ft4,60(sp)
    2c04:	72e2                	c.flwsp	ft5,56(sp)
    2c06:	7352                	c.flwsp	ft6,52(sp)
    2c08:	73c2                	c.flwsp	ft7,48(sp)
    2c0a:	7532                	c.flwsp	fa0,44(sp)
    2c0c:	75a2                	c.flwsp	fa1,40(sp)
    2c0e:	7612                	c.flwsp	fa2,36(sp)
    2c10:	7682                	c.flwsp	fa3,32(sp)
    2c12:	6772                	c.flwsp	fa4,28(sp)
    2c14:	67e2                	c.flwsp	fa5,24(sp)
    2c16:	6852                	c.flwsp	fa6,20(sp)
    2c18:	68c2                	c.flwsp	fa7,16(sp)
    2c1a:	6e32                	c.flwsp	ft8,12(sp)
    2c1c:	6ea2                	c.flwsp	ft9,8(sp)
    2c1e:	6f12                	c.flwsp	ft10,4(sp)
    2c20:	6f82                	c.flwsp	ft11,0(sp)
    2c22:	610d                	c.addi16sp	sp,160
    2c24:	30200073          	mret

00002c28 <entry_irq14>:
    2c28:	1141                	c.addi	sp,-16
    2c2a:	c632                	c.swsp	a2,12(sp)
    2c2c:	c436                	c.swsp	a3,8(sp)
    2c2e:	c23a                	c.swsp	a4,4(sp)
    2c30:	c03e                	c.swsp	a5,0(sp)
    2c32:	34102773          	csrr	a4,mepc
    2c36:	300026f3          	csrr	a3,mstatus
    2c3a:	7c4027f3          	csrr	a5,mxstatus
    2c3e:	30046673          	csrrsi	a2,mstatus,8
    2c42:	30047673          	csrrci	a2,mstatus,8
    2c46:	30069073          	csrw	mstatus,a3
    2c4a:	34171073          	csrw	mepc,a4
    2c4e:	7c479073          	csrw	mxstatus,a5
    2c52:	e42007b7          	lui	a5,0xe4200
    2c56:	4739                	c.li	a4,14
    2c58:	c3d8                	c.sw	a4,4(a5)
    2c5a:	0ff0000f          	fence
    2c5e:	4632                	c.lwsp	a2,12(sp)
    2c60:	46a2                	c.lwsp	a3,8(sp)
    2c62:	4712                	c.lwsp	a4,4(sp)
    2c64:	4782                	c.lwsp	a5,0(sp)
    2c66:	0141                	c.addi	sp,16
    2c68:	30200073          	mret

00002c6c <entry_irq13>:
    2c6c:	1141                	c.addi	sp,-16
    2c6e:	c632                	c.swsp	a2,12(sp)
    2c70:	c436                	c.swsp	a3,8(sp)
    2c72:	c23a                	c.swsp	a4,4(sp)
    2c74:	c03e                	c.swsp	a5,0(sp)
    2c76:	34102773          	csrr	a4,mepc
    2c7a:	300026f3          	csrr	a3,mstatus
    2c7e:	7c4027f3          	csrr	a5,mxstatus
    2c82:	30046673          	csrrsi	a2,mstatus,8
    2c86:	30047673          	csrrci	a2,mstatus,8
    2c8a:	30069073          	csrw	mstatus,a3
    2c8e:	34171073          	csrw	mepc,a4
    2c92:	7c479073          	csrw	mxstatus,a5
    2c96:	e42007b7          	lui	a5,0xe4200
    2c9a:	4735                	c.li	a4,13
    2c9c:	c3d8                	c.sw	a4,4(a5)
    2c9e:	0ff0000f          	fence
    2ca2:	4632                	c.lwsp	a2,12(sp)
    2ca4:	46a2                	c.lwsp	a3,8(sp)
    2ca6:	4712                	c.lwsp	a4,4(sp)
    2ca8:	4782                	c.lwsp	a5,0(sp)
    2caa:	0141                	c.addi	sp,16
    2cac:	30200073          	mret

00002cb0 <entry_irq12>:
    2cb0:	1141                	c.addi	sp,-16
    2cb2:	c632                	c.swsp	a2,12(sp)
    2cb4:	c436                	c.swsp	a3,8(sp)
    2cb6:	c23a                	c.swsp	a4,4(sp)
    2cb8:	c03e                	c.swsp	a5,0(sp)
    2cba:	34102773          	csrr	a4,mepc
    2cbe:	300026f3          	csrr	a3,mstatus
    2cc2:	7c4027f3          	csrr	a5,mxstatus
    2cc6:	30046673          	csrrsi	a2,mstatus,8
    2cca:	30047673          	csrrci	a2,mstatus,8
    2cce:	30069073          	csrw	mstatus,a3
    2cd2:	34171073          	csrw	mepc,a4
    2cd6:	7c479073          	csrw	mxstatus,a5
    2cda:	e42007b7          	lui	a5,0xe4200
    2cde:	4731                	c.li	a4,12
    2ce0:	c3d8                	c.sw	a4,4(a5)
    2ce2:	0ff0000f          	fence
    2ce6:	4632                	c.lwsp	a2,12(sp)
    2ce8:	46a2                	c.lwsp	a3,8(sp)
    2cea:	4712                	c.lwsp	a4,4(sp)
    2cec:	4782                	c.lwsp	a5,0(sp)
    2cee:	0141                	c.addi	sp,16
    2cf0:	30200073          	mret

00002cf4 <entry_irq11>:
    2cf4:	1141                	c.addi	sp,-16
    2cf6:	c632                	c.swsp	a2,12(sp)
    2cf8:	c436                	c.swsp	a3,8(sp)
    2cfa:	c23a                	c.swsp	a4,4(sp)
    2cfc:	c03e                	c.swsp	a5,0(sp)
    2cfe:	34102773          	csrr	a4,mepc
    2d02:	300026f3          	csrr	a3,mstatus
    2d06:	7c4027f3          	csrr	a5,mxstatus
    2d0a:	30046673          	csrrsi	a2,mstatus,8
    2d0e:	30047673          	csrrci	a2,mstatus,8
    2d12:	30069073          	csrw	mstatus,a3
    2d16:	34171073          	csrw	mepc,a4
    2d1a:	7c479073          	csrw	mxstatus,a5
    2d1e:	e42007b7          	lui	a5,0xe4200
    2d22:	472d                	c.li	a4,11
    2d24:	c3d8                	c.sw	a4,4(a5)
    2d26:	0ff0000f          	fence
    2d2a:	4632                	c.lwsp	a2,12(sp)
    2d2c:	46a2                	c.lwsp	a3,8(sp)
    2d2e:	4712                	c.lwsp	a4,4(sp)
    2d30:	4782                	c.lwsp	a5,0(sp)
    2d32:	0141                	c.addi	sp,16
    2d34:	30200073          	mret

00002d38 <entry_irq10>:
    2d38:	1141                	c.addi	sp,-16
    2d3a:	c632                	c.swsp	a2,12(sp)
    2d3c:	c436                	c.swsp	a3,8(sp)
    2d3e:	c23a                	c.swsp	a4,4(sp)
    2d40:	c03e                	c.swsp	a5,0(sp)
    2d42:	34102773          	csrr	a4,mepc
    2d46:	300026f3          	csrr	a3,mstatus
    2d4a:	7c4027f3          	csrr	a5,mxstatus
    2d4e:	30046673          	csrrsi	a2,mstatus,8
    2d52:	30047673          	csrrci	a2,mstatus,8
    2d56:	30069073          	csrw	mstatus,a3
    2d5a:	34171073          	csrw	mepc,a4
    2d5e:	7c479073          	csrw	mxstatus,a5
    2d62:	e42007b7          	lui	a5,0xe4200
    2d66:	4729                	c.li	a4,10
    2d68:	c3d8                	c.sw	a4,4(a5)
    2d6a:	0ff0000f          	fence
    2d6e:	4632                	c.lwsp	a2,12(sp)
    2d70:	46a2                	c.lwsp	a3,8(sp)
    2d72:	4712                	c.lwsp	a4,4(sp)
    2d74:	4782                	c.lwsp	a5,0(sp)
    2d76:	0141                	c.addi	sp,16
    2d78:	30200073          	mret

00002d7c <entry_irq9>:
    2d7c:	1141                	c.addi	sp,-16
    2d7e:	c632                	c.swsp	a2,12(sp)
    2d80:	c436                	c.swsp	a3,8(sp)
    2d82:	c23a                	c.swsp	a4,4(sp)
    2d84:	c03e                	c.swsp	a5,0(sp)
    2d86:	34102773          	csrr	a4,mepc
    2d8a:	300026f3          	csrr	a3,mstatus
    2d8e:	7c4027f3          	csrr	a5,mxstatus
    2d92:	30046673          	csrrsi	a2,mstatus,8
    2d96:	30047673          	csrrci	a2,mstatus,8
    2d9a:	30069073          	csrw	mstatus,a3
    2d9e:	34171073          	csrw	mepc,a4
    2da2:	7c479073          	csrw	mxstatus,a5
    2da6:	e42007b7          	lui	a5,0xe4200
    2daa:	4725                	c.li	a4,9
    2dac:	c3d8                	c.sw	a4,4(a5)
    2dae:	0ff0000f          	fence
    2db2:	4632                	c.lwsp	a2,12(sp)
    2db4:	46a2                	c.lwsp	a3,8(sp)
    2db6:	4712                	c.lwsp	a4,4(sp)
    2db8:	4782                	c.lwsp	a5,0(sp)
    2dba:	0141                	c.addi	sp,16
    2dbc:	30200073          	mret

00002dc0 <entry_irq8>:
    2dc0:	1141                	c.addi	sp,-16
    2dc2:	c632                	c.swsp	a2,12(sp)
    2dc4:	c436                	c.swsp	a3,8(sp)
    2dc6:	c23a                	c.swsp	a4,4(sp)
    2dc8:	c03e                	c.swsp	a5,0(sp)
    2dca:	34102773          	csrr	a4,mepc
    2dce:	300026f3          	csrr	a3,mstatus
    2dd2:	7c4027f3          	csrr	a5,mxstatus
    2dd6:	30046673          	csrrsi	a2,mstatus,8
    2dda:	30047673          	csrrci	a2,mstatus,8
    2dde:	30069073          	csrw	mstatus,a3
    2de2:	34171073          	csrw	mepc,a4
    2de6:	7c479073          	csrw	mxstatus,a5
    2dea:	e42007b7          	lui	a5,0xe4200
    2dee:	4721                	c.li	a4,8
    2df0:	c3d8                	c.sw	a4,4(a5)
    2df2:	0ff0000f          	fence
    2df6:	4632                	c.lwsp	a2,12(sp)
    2df8:	46a2                	c.lwsp	a3,8(sp)
    2dfa:	4712                	c.lwsp	a4,4(sp)
    2dfc:	4782                	c.lwsp	a5,0(sp)
    2dfe:	0141                	c.addi	sp,16
    2e00:	30200073          	mret

00002e04 <entry_irq7>:
    2e04:	1141                	c.addi	sp,-16
    2e06:	c632                	c.swsp	a2,12(sp)
    2e08:	c436                	c.swsp	a3,8(sp)
    2e0a:	c23a                	c.swsp	a4,4(sp)
    2e0c:	c03e                	c.swsp	a5,0(sp)
    2e0e:	34102773          	csrr	a4,mepc
    2e12:	300026f3          	csrr	a3,mstatus
    2e16:	7c4027f3          	csrr	a5,mxstatus
    2e1a:	30046673          	csrrsi	a2,mstatus,8
    2e1e:	30047673          	csrrci	a2,mstatus,8
    2e22:	30069073          	csrw	mstatus,a3
    2e26:	34171073          	csrw	mepc,a4
    2e2a:	7c479073          	csrw	mxstatus,a5
    2e2e:	e42007b7          	lui	a5,0xe4200
    2e32:	471d                	c.li	a4,7
    2e34:	c3d8                	c.sw	a4,4(a5)
    2e36:	0ff0000f          	fence
    2e3a:	4632                	c.lwsp	a2,12(sp)
    2e3c:	46a2                	c.lwsp	a3,8(sp)
    2e3e:	4712                	c.lwsp	a4,4(sp)
    2e40:	4782                	c.lwsp	a5,0(sp)
    2e42:	0141                	c.addi	sp,16
    2e44:	30200073          	mret

00002e48 <entry_irq6>:
    2e48:	1141                	c.addi	sp,-16
    2e4a:	c632                	c.swsp	a2,12(sp)
    2e4c:	c436                	c.swsp	a3,8(sp)
    2e4e:	c23a                	c.swsp	a4,4(sp)
    2e50:	c03e                	c.swsp	a5,0(sp)
    2e52:	34102773          	csrr	a4,mepc
    2e56:	300026f3          	csrr	a3,mstatus
    2e5a:	7c4027f3          	csrr	a5,mxstatus
    2e5e:	30046673          	csrrsi	a2,mstatus,8
    2e62:	30047673          	csrrci	a2,mstatus,8
    2e66:	30069073          	csrw	mstatus,a3
    2e6a:	34171073          	csrw	mepc,a4
    2e6e:	7c479073          	csrw	mxstatus,a5
    2e72:	e42007b7          	lui	a5,0xe4200
    2e76:	4719                	c.li	a4,6
    2e78:	c3d8                	c.sw	a4,4(a5)
    2e7a:	0ff0000f          	fence
    2e7e:	4632                	c.lwsp	a2,12(sp)
    2e80:	46a2                	c.lwsp	a3,8(sp)
    2e82:	4712                	c.lwsp	a4,4(sp)
    2e84:	4782                	c.lwsp	a5,0(sp)
    2e86:	0141                	c.addi	sp,16
    2e88:	30200073          	mret

00002e8c <entry_irq5>:
    2e8c:	1141                	c.addi	sp,-16
    2e8e:	c632                	c.swsp	a2,12(sp)
    2e90:	c436                	c.swsp	a3,8(sp)
    2e92:	c23a                	c.swsp	a4,4(sp)
    2e94:	c03e                	c.swsp	a5,0(sp)
    2e96:	34102773          	csrr	a4,mepc
    2e9a:	300026f3          	csrr	a3,mstatus
    2e9e:	7c4027f3          	csrr	a5,mxstatus
    2ea2:	30046673          	csrrsi	a2,mstatus,8
    2ea6:	30047673          	csrrci	a2,mstatus,8
    2eaa:	30069073          	csrw	mstatus,a3
    2eae:	34171073          	csrw	mepc,a4
    2eb2:	7c479073          	csrw	mxstatus,a5
    2eb6:	e42007b7          	lui	a5,0xe4200
    2eba:	4715                	c.li	a4,5
    2ebc:	c3d8                	c.sw	a4,4(a5)
    2ebe:	0ff0000f          	fence
    2ec2:	4632                	c.lwsp	a2,12(sp)
    2ec4:	46a2                	c.lwsp	a3,8(sp)
    2ec6:	4712                	c.lwsp	a4,4(sp)
    2ec8:	4782                	c.lwsp	a5,0(sp)
    2eca:	0141                	c.addi	sp,16
    2ecc:	30200073          	mret

00002ed0 <entry_irq4>:
    2ed0:	1141                	c.addi	sp,-16
    2ed2:	c632                	c.swsp	a2,12(sp)
    2ed4:	c436                	c.swsp	a3,8(sp)
    2ed6:	c23a                	c.swsp	a4,4(sp)
    2ed8:	c03e                	c.swsp	a5,0(sp)
    2eda:	34102773          	csrr	a4,mepc
    2ede:	300026f3          	csrr	a3,mstatus
    2ee2:	7c4027f3          	csrr	a5,mxstatus
    2ee6:	30046673          	csrrsi	a2,mstatus,8
    2eea:	30047673          	csrrci	a2,mstatus,8
    2eee:	30069073          	csrw	mstatus,a3
    2ef2:	34171073          	csrw	mepc,a4
    2ef6:	7c479073          	csrw	mxstatus,a5
    2efa:	e42007b7          	lui	a5,0xe4200
    2efe:	4711                	c.li	a4,4
    2f00:	c3d8                	c.sw	a4,4(a5)
    2f02:	0ff0000f          	fence
    2f06:	4632                	c.lwsp	a2,12(sp)
    2f08:	46a2                	c.lwsp	a3,8(sp)
    2f0a:	4712                	c.lwsp	a4,4(sp)
    2f0c:	4782                	c.lwsp	a5,0(sp)
    2f0e:	0141                	c.addi	sp,16
    2f10:	30200073          	mret

00002f14 <entry_irq3>:
    2f14:	1141                	c.addi	sp,-16
    2f16:	c632                	c.swsp	a2,12(sp)
    2f18:	c436                	c.swsp	a3,8(sp)
    2f1a:	c23a                	c.swsp	a4,4(sp)
    2f1c:	c03e                	c.swsp	a5,0(sp)
    2f1e:	34102773          	csrr	a4,mepc
    2f22:	300026f3          	csrr	a3,mstatus
    2f26:	7c4027f3          	csrr	a5,mxstatus
    2f2a:	30046673          	csrrsi	a2,mstatus,8
    2f2e:	30047673          	csrrci	a2,mstatus,8
    2f32:	30069073          	csrw	mstatus,a3
    2f36:	34171073          	csrw	mepc,a4
    2f3a:	7c479073          	csrw	mxstatus,a5
    2f3e:	e42007b7          	lui	a5,0xe4200
    2f42:	470d                	c.li	a4,3
    2f44:	c3d8                	c.sw	a4,4(a5)
    2f46:	0ff0000f          	fence
    2f4a:	4632                	c.lwsp	a2,12(sp)
    2f4c:	46a2                	c.lwsp	a3,8(sp)
    2f4e:	4712                	c.lwsp	a4,4(sp)
    2f50:	4782                	c.lwsp	a5,0(sp)
    2f52:	0141                	c.addi	sp,16
    2f54:	30200073          	mret

00002f58 <entry_irq2>:
    2f58:	1141                	c.addi	sp,-16
    2f5a:	c632                	c.swsp	a2,12(sp)
    2f5c:	c436                	c.swsp	a3,8(sp)
    2f5e:	c23a                	c.swsp	a4,4(sp)
    2f60:	c03e                	c.swsp	a5,0(sp)
    2f62:	34102773          	csrr	a4,mepc
    2f66:	300026f3          	csrr	a3,mstatus
    2f6a:	7c4027f3          	csrr	a5,mxstatus
    2f6e:	30046673          	csrrsi	a2,mstatus,8
    2f72:	30047673          	csrrci	a2,mstatus,8
    2f76:	30069073          	csrw	mstatus,a3
    2f7a:	34171073          	csrw	mepc,a4
    2f7e:	7c479073          	csrw	mxstatus,a5
    2f82:	e42007b7          	lui	a5,0xe4200
    2f86:	4709                	c.li	a4,2
    2f88:	c3d8                	c.sw	a4,4(a5)
    2f8a:	0ff0000f          	fence
    2f8e:	4632                	c.lwsp	a2,12(sp)
    2f90:	46a2                	c.lwsp	a3,8(sp)
    2f92:	4712                	c.lwsp	a4,4(sp)
    2f94:	4782                	c.lwsp	a5,0(sp)
    2f96:	0141                	c.addi	sp,16
    2f98:	30200073          	mret

00002f9c <entry_irq1>:
    2f9c:	7135                	c.addi16sp	sp,-160
    2f9e:	cf06                	c.swsp	ra,156(sp)
    2fa0:	cd16                	c.swsp	t0,152(sp)
    2fa2:	cb1a                	c.swsp	t1,148(sp)
    2fa4:	c91e                	c.swsp	t2,144(sp)
    2fa6:	c722                	c.swsp	s0,140(sp)
    2fa8:	c526                	c.swsp	s1,136(sp)
    2faa:	c32a                	c.swsp	a0,132(sp)
    2fac:	c12e                	c.swsp	a1,128(sp)
    2fae:	deb2                	c.swsp	a2,124(sp)
    2fb0:	dcb6                	c.swsp	a3,120(sp)
    2fb2:	daba                	c.swsp	a4,116(sp)
    2fb4:	d8be                	c.swsp	a5,112(sp)
    2fb6:	d6c2                	c.swsp	a6,108(sp)
    2fb8:	d4c6                	c.swsp	a7,104(sp)
    2fba:	d2ca                	c.swsp	s2,100(sp)
    2fbc:	d0f2                	c.swsp	t3,96(sp)
    2fbe:	cef6                	c.swsp	t4,92(sp)
    2fc0:	ccfa                	c.swsp	t5,88(sp)
    2fc2:	cafe                	c.swsp	t6,84(sp)
    2fc4:	e682                	c.fswsp	ft0,76(sp)
    2fc6:	e486                	c.fswsp	ft1,72(sp)
    2fc8:	e28a                	c.fswsp	ft2,68(sp)
    2fca:	e08e                	c.fswsp	ft3,64(sp)
    2fcc:	fe12                	c.fswsp	ft4,60(sp)
    2fce:	fc16                	c.fswsp	ft5,56(sp)
    2fd0:	fa1a                	c.fswsp	ft6,52(sp)
    2fd2:	f81e                	c.fswsp	ft7,48(sp)
    2fd4:	f62a                	c.fswsp	fa0,44(sp)
    2fd6:	f42e                	c.fswsp	fa1,40(sp)
    2fd8:	f232                	c.fswsp	fa2,36(sp)
    2fda:	f036                	c.fswsp	fa3,32(sp)
    2fdc:	ee3a                	c.fswsp	fa4,28(sp)
    2fde:	ec3e                	c.fswsp	fa5,24(sp)
    2fe0:	ea42                	c.fswsp	fa6,20(sp)
    2fe2:	e846                	c.fswsp	fa7,16(sp)
    2fe4:	e672                	c.fswsp	ft8,12(sp)
    2fe6:	e476                	c.fswsp	ft9,8(sp)
    2fe8:	e27a                	c.fswsp	ft10,4(sp)
    2fea:	e07e                	c.fswsp	ft11,0(sp)
    2fec:	341024f3          	csrr	s1,mepc
    2ff0:	30002973          	csrr	s2,mstatus
    2ff4:	7c402473          	csrr	s0,mxstatus
    2ff8:	300467f3          	csrrsi	a5,mstatus,8
    2ffc:	ce4fe0ef          	jal	ra,14e0 <stimer_irq_handler>
    3000:	300477f3          	csrrci	a5,mstatus,8
    3004:	30091073          	csrw	mstatus,s2
    3008:	34149073          	csrw	mepc,s1
    300c:	7c441073          	csrw	mxstatus,s0
    3010:	e42007b7          	lui	a5,0xe4200
    3014:	4705                	c.li	a4,1
    3016:	c3d8                	c.sw	a4,4(a5)
    3018:	0ff0000f          	fence
    301c:	443a                	c.lwsp	s0,140(sp)
    301e:	40fa                	c.lwsp	ra,156(sp)
    3020:	42ea                	c.lwsp	t0,152(sp)
    3022:	435a                	c.lwsp	t1,148(sp)
    3024:	43ca                	c.lwsp	t2,144(sp)
    3026:	44aa                	c.lwsp	s1,136(sp)
    3028:	451a                	c.lwsp	a0,132(sp)
    302a:	458a                	c.lwsp	a1,128(sp)
    302c:	5676                	c.lwsp	a2,124(sp)
    302e:	56e6                	c.lwsp	a3,120(sp)
    3030:	5756                	c.lwsp	a4,116(sp)
    3032:	57c6                	c.lwsp	a5,112(sp)
    3034:	5836                	c.lwsp	a6,108(sp)
    3036:	58a6                	c.lwsp	a7,104(sp)
    3038:	5916                	c.lwsp	s2,100(sp)
    303a:	5e06                	c.lwsp	t3,96(sp)
    303c:	4ef6                	c.lwsp	t4,92(sp)
    303e:	4f66                	c.lwsp	t5,88(sp)
    3040:	4fd6                	c.lwsp	t6,84(sp)
    3042:	6036                	c.flwsp	ft0,76(sp)
    3044:	60a6                	c.flwsp	ft1,72(sp)
    3046:	6116                	c.flwsp	ft2,68(sp)
    3048:	6186                	c.flwsp	ft3,64(sp)
    304a:	7272                	c.flwsp	ft4,60(sp)
    304c:	72e2                	c.flwsp	ft5,56(sp)
    304e:	7352                	c.flwsp	ft6,52(sp)
    3050:	73c2                	c.flwsp	ft7,48(sp)
    3052:	7532                	c.flwsp	fa0,44(sp)
    3054:	75a2                	c.flwsp	fa1,40(sp)
    3056:	7612                	c.flwsp	fa2,36(sp)
    3058:	7682                	c.flwsp	fa3,32(sp)
    305a:	6772                	c.flwsp	fa4,28(sp)
    305c:	67e2                	c.flwsp	fa5,24(sp)
    305e:	6852                	c.flwsp	fa6,20(sp)
    3060:	68c2                	c.flwsp	fa7,16(sp)
    3062:	6e32                	c.flwsp	ft8,12(sp)
    3064:	6ea2                	c.flwsp	ft9,8(sp)
    3066:	6f12                	c.flwsp	ft10,4(sp)
    3068:	6f82                	c.flwsp	ft11,0(sp)
    306a:	610d                	c.addi16sp	sp,160
    306c:	30200073          	mret

00003070 <trap_entry>:
    3070:	1101                	c.addi	sp,-32
    3072:	ce36                	c.swsp	a3,28(sp)
    3074:	cc3a                	c.swsp	a4,24(sp)
    3076:	ca3e                	c.swsp	a5,20(sp)
    3078:	34202773          	csrr	a4,mcause
    307c:	a2efc3ab          	swgp	a4,-1500 # 80224 <mcause>
    3080:	341026f3          	csrr	a3,mepc
    3084:	6741                	c.lui	a4,0x10
    3086:	1779                	c.addi	a4,-2
    3088:	a2dfc5ab          	swgp	a3,-1496 # 80228 <mepc>
    308c:	c602                	c.swsp	zero,12(sp)
    308e:	47b2                	c.lwsp	a5,12(sp)
    3090:	fef76ee3          	bltu	a4,a5,308c <trap_entry+0x1c>
    3094:	0001                	c.nop
    3096:	47b2                	c.lwsp	a5,12(sp)
    3098:	0785                	c.addi	a5,1
    309a:	c63e                	c.swsp	a5,12(sp)
    309c:	47b2                	c.lwsp	a5,12(sp)
    309e:	fef77be3          	bgeu	a4,a5,3094 <trap_entry+0x24>
    30a2:	b7ed                	c.j	308c <trap_entry+0x1c>
    30a4:	0001                	c.nop
	...

000030a8 <blt_reset_conn_phy_param.constprop.17>:
    30a8:	000007b7          	lui	a5,0x0
    30ac:	73c78793          	addi	a5,a5,1852 # 73c <blt_conn_phy>
    30b0:	4685                	c.li	a3,1
    30b2:	00f7c703          	lbu	a4,15(a5)
    30b6:	00d780a3          	sb	a3,1(a5)
    30ba:	e319                	c.bnez	a4,30c0 <blt_reset_conn_phy_param.constprop.17+0x18>
    30bc:	00800713          	li	a4,8
    30c0:	00e781a3          	sb	a4,3(a5)
    30c4:	0007a223          	sw	zero,4(a5)
    30c8:	4501                	c.li	a0,0
    30ca:	8082                	c.jr	ra

000030cc <smemset.constprop.15>:
    30cc:	00a585b3          	add	a1,a1,a0
    30d0:	0505                	c.addi	a0,1
    30d2:	fe050fa3          	sb	zero,-1(a0)
    30d6:	fea59de3          	bne	a1,a0,30d0 <smemset.constprop.15+0x4>
    30da:	8082                	c.jr	ra

000030dc <blt_ll_searchAddr_in_WhiteList>:
    30dc:	00000737          	lui	a4,0x0
    30e0:	73c70713          	addi	a4,a4,1852 # 73c <blt_conn_phy>
    30e4:	13874603          	lbu	a2,312(a4)
    30e8:	c635                	c.beqz	a2,3154 <blt_ll_searchAddr_in_WhiteList+0x78>
    30ea:	11870893          	addi	a7,a4,280
    30ee:	87c6                	c.mv	a5,a7
    30f0:	4701                	c.li	a4,0
    30f2:	a029                	c.j	30fc <blt_ll_searchAddr_in_WhiteList+0x20>
    30f4:	0705                	c.addi	a4,1
    30f6:	07a1                	c.addi	a5,8
    30f8:	04c75e63          	bge	a4,a2,3154 <blt_ll_searchAddr_in_WhiteList+0x78>
    30fc:	0007c683          	lbu	a3,0(a5)
    3100:	fea69ae3          	bne	a3,a0,30f4 <blt_ll_searchAddr_in_WhiteList+0x18>
    3104:	0017c803          	lbu	a6,1(a5)
    3108:	0005c683          	lbu	a3,0(a1)
    310c:	fed814e3          	bne	a6,a3,30f4 <blt_ll_searchAddr_in_WhiteList+0x18>
    3110:	0027c803          	lbu	a6,2(a5)
    3114:	0015c683          	lbu	a3,1(a1)
    3118:	fcd81ee3          	bne	a6,a3,30f4 <blt_ll_searchAddr_in_WhiteList+0x18>
    311c:	0037c803          	lbu	a6,3(a5)
    3120:	0025c683          	lbu	a3,2(a1)
    3124:	fcd818e3          	bne	a6,a3,30f4 <blt_ll_searchAddr_in_WhiteList+0x18>
    3128:	0047c803          	lbu	a6,4(a5)
    312c:	0035c683          	lbu	a3,3(a1)
    3130:	fcd812e3          	bne	a6,a3,30f4 <blt_ll_searchAddr_in_WhiteList+0x18>
    3134:	0057c803          	lbu	a6,5(a5)
    3138:	0045c683          	lbu	a3,4(a1)
    313c:	fad81ce3          	bne	a6,a3,30f4 <blt_ll_searchAddr_in_WhiteList+0x18>
    3140:	0067c803          	lbu	a6,6(a5)
    3144:	0055c683          	lbu	a3,5(a1)
    3148:	fad816e3          	bne	a6,a3,30f4 <blt_ll_searchAddr_in_WhiteList+0x18>
    314c:	0ee8855b          	lea.d	a0,a7,a4
    3150:	00008067          	ret
    3154:	4501                	c.li	a0,0
    3156:	8082                	c.jr	ra

00003158 <blt_terminate_proc>:
    3158:	1141                	c.addi	sp,-16
    315a:	c422                	c.swsp	s0,8(sp)
    315c:	00000437          	lui	s0,0x0
    3160:	c606                	c.swsp	ra,12(sp)
    3162:	73c40413          	addi	s0,s0,1852 # 73c <blt_conn_phy>
    3166:	14b44783          	lbu	a5,331(s0)
    316a:	0647d95b          	beqc	a5,4,31dc <blt_terminate_proc+0x84>
    316e:	0027d55b          	beqc	a5,2,3178 <blt_terminate_proc+0x20>
    3172:	47a1                	c.li	a5,8
    3174:	14f404a3          	sb	a5,329(s0)
    3178:	1a442783          	lw	a5,420(s0)
    317c:	21442703          	lw	a4,532(s0)
    3180:	0107e793          	ori	a5,a5,16
    3184:	1af42223          	sw	a5,420(s0)
    3188:	001b07b7          	lui	a5,0x1b0
    318c:	07ed                	c.addi	a5,27
    318e:	1af42423          	sw	a5,424(s0)
    3192:	57fd                	c.li	a5,-1
    3194:	1a041ca3          	sh	zero,441(s0)
    3198:	1a040da3          	sb	zero,443(s0)
    319c:	14040423          	sb	zero,328(s0)
    31a0:	14041523          	sh	zero,330(s0)
    31a4:	1c040323          	sb	zero,454(s0)
    31a8:	16042e23          	sw	zero,380(s0)
    31ac:	14f41723          	sh	a5,334(s0)
    31b0:	1a040ea3          	sb	zero,445(s0)
    31b4:	18042023          	sw	zero,384(s0)
    31b8:	cb11                	c.beqz	a4,31cc <blt_terminate_proc+0x74>
    31ba:	0d440783          	lb	a5,212(s0)
    31be:	01000537          	lui	a0,0x1000
    31c2:	0ff7f793          	andi	a5,a5,255
    31c6:	8d5d                	c.or	a0,a5
    31c8:	000700e7          	jalr	a4
    31cc:	12040fa3          	sb	zero,319(s0)
    31d0:	20040d23          	sb	zero,538(s0)
    31d4:	40b2                	c.lwsp	ra,12(sp)
    31d6:	4422                	c.lwsp	s0,8(sp)
    31d8:	0141                	c.addi	sp,16
    31da:	8082                	c.jr	ra
    31dc:	02200793          	li	a5,34
    31e0:	14f404a3          	sb	a5,329(s0)
    31e4:	f95ff06f          	j	3178 <blt_terminate_proc+0x20>

000031e8 <blt_terminate_pending_proc>:
    31e8:	000007b7          	lui	a5,0x0
    31ec:	73c78793          	addi	a5,a5,1852 # 73c <blt_conn_phy>
    31f0:	1487c703          	lbu	a4,328(a5)
    31f4:	cb11                	c.beqz	a4,3208 <blt_terminate_pending_proc+0x20>
    31f6:	0705                	c.addi	a4,1
    31f8:	0ff77713          	andi	a4,a4,255
    31fc:	14e78423          	sb	a4,328(a5)
    3200:	00200693          	li	a3,2
    3204:	06e6e063          	bltu	a3,a4,3264 <blt_terminate_pending_proc+0x7c>
    3208:	14a7c703          	lbu	a4,330(a5)
    320c:	0017545b          	beqc	a4,1,3214 <blt_terminate_pending_proc+0x2c>
    3210:	00008067          	ret
    3214:	801006b7          	lui	a3,0x80100
    3218:	50068703          	lb	a4,1280(a3) # 80100500 <_DATA_LMA_START+0x600e8568>
    321c:	50168683          	lb	a3,1281(a3)
    3220:	8f15                	c.sub	a4,a3
    3222:	8b7d                	c.andi	a4,31
    3224:	00071863          	bnez	a4,3234 <blt_terminate_pending_proc+0x4c>
    3228:	24f7c683          	lbu	a3,591(a5)
    322c:	24e7c703          	lbu	a4,590(a5)
    3230:	02e68063          	beq	a3,a4,3250 <blt_terminate_pending_proc+0x68>
    3234:	80140737          	lui	a4,0x80140
    3238:	20072683          	lw	a3,512(a4) # 80140200 <_DATA_LMA_START+0x60128268>
    323c:	1887a703          	lw	a4,392(a5)
    3240:	40e686b3          	sub	a3,a3,a4
    3244:	007a1737          	lui	a4,0x7a1
    3248:	20070713          	addi	a4,a4,512 # 7a1200 <FLASH_SIZE+0x6a1200>
    324c:	fcd772e3          	bgeu	a4,a3,3210 <blt_terminate_pending_proc+0x28>
    3250:	25b78703          	lb	a4,603(a5)
    3254:	20000693          	li	a3,512
    3258:	14d79523          	sh	a3,330(a5)
    325c:	14e784a3          	sb	a4,329(a5)
    3260:	00008067          	ret
    3264:	14d785a3          	sb	a3,331(a5)
    3268:	00008067          	ret

0000326c <bls_ll_setNewConnection_timing>:
    326c:	000007b7          	lui	a5,0x0
    3270:	8d0d                	c.sub	a0,a1
    3272:	73c78793          	addi	a5,a5,1852 # 73c <blt_conn_phy>
    3276:	4685                	c.li	a3,1
    3278:	6715                	c.lui	a4,0x5
    327a:	e2070713          	addi	a4,a4,-480 # 4e20 <aes_ccmAuthTran.constprop.14+0x98>
    327e:	14d782a3          	sb	a3,325(a5)
    3282:	3c05255b          	bfoz	a0,a0,15,0
    3286:	480d                	c.li	a6,3
    3288:	02e585b3          	mul	a1,a1,a4
    328c:	04a86a63          	bltu	a6,a0,32e0 <bls_ll_setNewConnection_timing+0x74>
    3290:	6705                	c.lui	a4,0x1
    3292:	00150813          	addi	a6,a0,1 # 1000001 <FLASH_SIZE+0xf00001>
    3296:	fa070713          	addi	a4,a4,-96 # fa0 <scan_pri_chn_rx_fifo+0xd8>
    329a:	6889                	c.lui	a7,0x2
    329c:	02e80733          	mul	a4,a6,a4
    32a0:	f4088893          	addi	a7,a7,-192 # 1f40 <main+0x2d0>
    32a4:	00b00333          	add	t1,zero,a1
    32a8:	c518137f          	maddr32	t1,a6,a7
    32ac:	20d78d23          	sb	a3,538(a5)
    32b0:	1667a823          	sw	t1,368(a5)
    32b4:	16e7ae23          	sw	a4,380(a5)
    32b8:	e215                	c.bnez	a2,32dc <bls_ll_setNewConnection_timing+0x70>
    32ba:	4709                	c.li	a4,2
    32bc:	02a76e63          	bltu	a4,a0,32f8 <bls_ll_setNewConnection_timing+0x8c>
    32c0:	00156e5b          	bnec	a0,1,32dc <bls_ll_setNewConnection_timing+0x70>
    32c4:	6709                	c.lui	a4,0x2
    32c6:	f4070713          	addi	a4,a4,-192 # 1f40 <main+0x2d0>
    32ca:	95ba                	c.add	a1,a4
    32cc:	6705                	c.lui	a4,0x1
    32ce:	fa070713          	addi	a4,a4,-96 # fa0 <scan_pri_chn_rx_fifo+0xd8>
    32d2:	16e7ae23          	sw	a4,380(a5)
    32d6:	16b7a823          	sw	a1,368(a5)
    32da:	8082                	c.jr	ra
    32dc:	00008067          	ret
    32e0:	6741                	c.lui	a4,0x10
    32e2:	a0070713          	addi	a4,a4,-1536 # fa00 <_RAMCODE_VMA_END+0x95fe>
    32e6:	66a1                	c.lui	a3,0x8
    32e8:	972e                	c.add	a4,a1
    32ea:	d0068693          	addi	a3,a3,-768 # 7d00 <_RAMCODE_VMA_END+0x18fe>
    32ee:	16d7ae23          	sw	a3,380(a5)
    32f2:	16e7a823          	sw	a4,368(a5)
    32f6:	b7c9                	c.j	32b8 <bls_ll_setNewConnection_timing+0x4c>
    32f8:	6719                	c.lui	a4,0x6
    32fa:	dc070713          	addi	a4,a4,-576 # 5dc0 <blt_sdk_main_loop+0xd8>
    32fe:	95ba                	c.add	a1,a4
    3300:	670d                	c.lui	a4,0x3
    3302:	ee070713          	addi	a4,a4,-288 # 2ee0 <entry_irq4+0x10>
    3306:	16e7ae23          	sw	a4,380(a5)
    330a:	4705                	c.li	a4,1
    330c:	16b7a823          	sw	a1,368(a5)
    3310:	20e78d23          	sb	a4,538(a5)
    3314:	00008067          	ret

00003318 <blt_brx_timing_update>:
    3318:	000007b7          	lui	a5,0x0
    331c:	73c78793          	addi	a5,a5,1852 # 73c <blt_conn_phy>
    3320:	25c78703          	lb	a4,604(a5)
    3324:	0625dc5b          	beqc	a1,2,339c <blt_brx_timing_update+0x84>
    3328:	25d78683          	lb	a3,605(a5)
    332c:	1407c603          	lbu	a2,320(a5)
    3330:	24078f23          	sb	zero,606(a5)
    3334:	00c6d863          	bge	a3,a2,3344 <blt_brx_timing_update+0x2c>
    3338:	0685                	c.addi	a3,1
    333a:	1c06b65b          	bfos	a2,a3,7,0
    333e:	86b2                	c.mv	a3,a2
    3340:	24c78ea3          	sb	a2,605(a5)
    3344:	4605                	c.li	a2,1
    3346:	04e65363          	bge	a2,a4,338c <blt_brx_timing_update+0x74>
    334a:	2687a603          	lw	a2,616(a5)
    334e:	1779                	c.addi	a4,-2
    3350:	24e78e23          	sb	a4,604(a5)
    3354:	26c7a703          	lw	a4,620(a5)
    3358:	15c7a503          	lw	a0,348(a5)
    335c:	1687a583          	lw	a1,360(a5)
    3360:	c4c6977f          	maddr32	a4,a3,a2
    3364:	1847a603          	lw	a2,388(a5)
    3368:	6689                	c.lui	a3,0x2
    336a:	f4068693          	addi	a3,a3,-192 # 1f40 <main+0x2d0>
    336e:	16e7ae23          	sw	a4,380(a5)
    3372:	9736                	c.add	a4,a3
    3374:	952e                	c.add	a0,a1
    3376:	0706                	c.slli	a4,0x1
    3378:	14a7ae23          	sw	a0,348(a5)
    337c:	16e7a823          	sw	a4,368(a5)
    3380:	26c7a023          	sw	a2,608(a5)
    3384:	20078da3          	sb	zero,539(a5)
    3388:	00008067          	ret
    338c:	6719                	c.lui	a4,0x6
    338e:	dc070713          	addi	a4,a4,-576 # 5dc0 <blt_sdk_main_loop+0xd8>
    3392:	863a                	c.mv	a2,a4
    3394:	26e7a423          	sw	a4,616(a5)
    3398:	fbdff06f          	j	3354 <blt_brx_timing_update+0x3c>
    339c:	24078ea3          	sb	zero,605(a5)
    33a0:	00500693          	li	a3,5
    33a4:	0ae6d063          	bge	a3,a4,3444 <blt_brx_timing_update+0x12c>
    33a8:	26c7a703          	lw	a4,620(a5)
    33ac:	26e7a423          	sw	a4,616(a5)
    33b0:	25e7c683          	lbu	a3,606(a5)
    33b4:	1c06b65b          	bfos	a2,a3,7,0
    33b8:	00064663          	bltz	a2,33c4 <blt_brx_timing_update+0xac>
    33bc:	00168693          	addi	a3,a3,1
    33c0:	24d78f23          	sb	a3,606(a5)
    33c4:	2717c683          	lbu	a3,625(a5)
    33c8:	1847a603          	lw	a2,388(a5)
    33cc:	1687a583          	lw	a1,360(a5)
    33d0:	dec1                	c.beqz	a3,3368 <blt_brx_timing_update+0x50>
    33d2:	25e7c803          	lbu	a6,606(a5)
    33d6:	4685                	c.li	a3,1
    33d8:	f906f8e3          	bgeu	a3,a6,3368 <blt_brx_timing_update+0x50>
    33dc:	21b7c683          	lbu	a3,539(a5)
    33e0:	f6c1                	c.bnez	a3,3368 <blt_brx_timing_update+0x50>
    33e2:	2607a683          	lw	a3,608(a5)
    33e6:	40d60833          	sub	a6,a2,a3
    33ea:	001876b7          	lui	a3,0x187
    33ee:	a0068693          	addi	a3,a3,-1536 # 186a00 <FLASH_SIZE+0x86a00>
    33f2:	f706dbe3          	bge	a3,a6,3368 <blt_brx_timing_update+0x50>
    33f6:	2647ae03          	lw	t3,612(a5)
    33fa:	6691                	c.lui	a3,0x4
    33fc:	030e0eb3          	mul	t4,t3,a6
    3400:	fff68313          	addi	t1,a3,-1 # 3fff <irq_scan_rx_primary_channel+0x6f>
    3404:	15c7a683          	lw	a3,348(a5)
    3408:	40d506b3          	sub	a3,a0,a3
    340c:	41fed893          	srai	a7,t4,0x1f
    3410:	0068f8b3          	and	a7,a7,t1
    3414:	98f6                	c.add	a7,t4
    3416:	40e8d893          	srai	a7,a7,0xe
    341a:	96c6                	c.add	a3,a7
    341c:	06ba                	c.slli	a3,0xe
    341e:	0306c6b3          	div	a3,a3,a6
    3422:	41c686b3          	sub	a3,a3,t3
    3426:	8685                	c.srai	a3,0x1
    3428:	96f2                	c.add	a3,t3
    342a:	02d58833          	mul	a6,a1,a3
    342e:	26d7a223          	sw	a3,612(a5)
    3432:	41f85693          	srai	a3,a6,0x1f
    3436:	0066f6b3          	and	a3,a3,t1
    343a:	96c2                	c.add	a3,a6
    343c:	86b9                	c.srai	a3,0xe
    343e:	16d7a023          	sw	a3,352(a5)
    3442:	b71d                	c.j	3368 <blt_brx_timing_update+0x50>
    3444:	0705                	c.addi	a4,1
    3446:	24e78e23          	sb	a4,604(a5)
    344a:	2687a703          	lw	a4,616(a5)
    344e:	b78d                	c.j	33b0 <blt_brx_timing_update+0x98>

00003450 <blt_brx_timing_update_init>:
    3450:	000007b7          	lui	a5,0x0
    3454:	73c78793          	addi	a5,a5,1852 # 73c <blt_conn_phy>
    3458:	15c7a683          	lw	a3,348(a5)
    345c:	1687a583          	lw	a1,360(a5)
    3460:	80141637          	lui	a2,0x80141
    3464:	96ae                	c.add	a3,a1
    3466:	a0360703          	lb	a4,-1533(a2) # 80140a03 <_DATA_LMA_START+0x60128a6b>
    346a:	14d7ae23          	sw	a3,348(a5)
    346e:	6699                	c.lui	a3,0x6
    3470:	dc068693          	addi	a3,a3,-576 # 5dc0 <blt_sdk_main_loop+0xd8>
    3474:	0fe77713          	andi	a4,a4,254
    3478:	24079e23          	sh	zero,604(a5)
    347c:	24078f23          	sb	zero,606(a5)
    3480:	2607a223          	sw	zero,612(a5)
    3484:	26d7a423          	sw	a3,616(a5)
    3488:	1607a023          	sw	zero,352(a5)
    348c:	a0e601a3          	sb	a4,-1533(a2)
    3490:	00008067          	ret

00003494 <blt_set_fsmTimeout_intLevel>:
    3494:	479d                	c.li	a5,7
    3496:	02a7e163          	bltu	a5,a0,34b8 <blt_set_fsmTimeout_intLevel+0x24>
    349a:	000007b7          	lui	a5,0x0
    349e:	73c78793          	addi	a5,a5,1852 # 73c <blt_conn_phy>
    34a2:	4705                	c.li	a4,1
    34a4:	14e78023          	sb	a4,320(a5)
    34a8:	157d                	c.addi	a0,-1
    34aa:	4e200713          	li	a4,1250
    34ae:	02e50533          	mul	a0,a0,a4
    34b2:	1aa7a023          	sw	a0,416(a5)
    34b6:	8082                	c.jr	ra
    34b8:	04f00793          	li	a5,79
    34bc:	02a7f863          	bgeu	a5,a0,34ec <blt_set_fsmTimeout_intLevel+0x58>
    34c0:	000007b7          	lui	a5,0x0
    34c4:	73c78793          	addi	a5,a5,1852 # 73c <blt_conn_phy>
    34c8:	00300713          	li	a4,3
    34cc:	14e78023          	sb	a4,320(a5)
    34d0:	4741                	c.li	a4,16
    34d2:	fca77be3          	bgeu	a4,a0,34a8 <blt_set_fsmTimeout_intLevel+0x14>
    34d6:	02000713          	li	a4,32
    34da:	02a77163          	bgeu	a4,a0,34fc <blt_set_fsmTimeout_intLevel+0x68>
    34de:	27100713          	li	a4,625
    34e2:	02e50533          	mul	a0,a0,a4
    34e6:	1aa7a023          	sw	a0,416(a5)
    34ea:	8082                	c.jr	ra
    34ec:	000007b7          	lui	a5,0x0
    34f0:	73c78793          	addi	a5,a5,1852 # 73c <blt_conn_phy>
    34f4:	4709                	c.li	a4,2
    34f6:	14e78023          	sb	a4,320(a5)
    34fa:	bfd9                	c.j	34d0 <blt_set_fsmTimeout_intLevel+0x3c>
    34fc:	1571                	c.addi	a0,-4
    34fe:	4e200713          	li	a4,1250
    3502:	02e50533          	mul	a0,a0,a4
    3506:	1aa7a023          	sw	a0,416(a5)
    350a:	8082                	c.jr	ra

0000350c <blc_calc_remapping_table>:
    350c:	00000837          	lui	a6,0x0
    3510:	73c80813          	addi	a6,a6,1852 # 73c <blt_conn_phy>
    3514:	4581                	c.li	a1,0
    3516:	4601                	c.li	a2,0
    3518:	00000793          	li	a5,0
    351c:	26080a23          	sb	zero,628(a6)
    3520:	4037d713          	srai	a4,a5,0x3
    3524:	972a                	c.add	a4,a0
    3526:	00074703          	lbu	a4,0(a4)
    352a:	0077f693          	andi	a3,a5,7
    352e:	40d75733          	sra	a4,a4,a3
    3532:	00160693          	addi	a3,a2,1
    3536:	0007755b          	bbc	a4,0,3540 <blc_calc_remapping_table+0x34>
    353a:	0ff6f613          	andi	a2,a3,255
    353e:	4585                	c.li	a1,1
    3540:	0785                	c.addi	a5,1
    3542:	bc57efdb          	bnec	a5,37,3520 <blc_calc_remapping_table+0x14>
    3546:	e199                	c.bnez	a1,354c <blc_calc_remapping_table+0x40>
    3548:	4501                	c.li	a0,0
    354a:	8082                	c.jr	ra
    354c:	26c80a23          	sb	a2,628(a6)
    3550:	ff9ff06f          	j	3548 <blc_calc_remapping_table+0x3c>

00003554 <blt_ll_channelTable_calc>:
    3554:	7179                	c.addi16sp	sp,-48
    3556:	4781                	c.li	a5,0
    3558:	00000693          	li	a3,0
    355c:	4037d713          	srai	a4,a5,0x3
    3560:	972a                	c.add	a4,a0
    3562:	00074703          	lbu	a4,0(a4)
    3566:	0077f813          	andi	a6,a5,7
    356a:	41075733          	sra	a4,a4,a6
    356e:	00168813          	addi	a6,a3,1
    3572:	0007795b          	bbc	a4,0,3584 <blt_ll_channelTable_calc+0x30>
    3576:	1818                	c.addi4spn	a4,sp,48
    3578:	00d70733          	add	a4,a4,a3
    357c:	0ff87693          	andi	a3,a6,255
    3580:	fcf70c23          	sb	a5,-40(a4)
    3584:	0785                	c.addi	a5,1
    3586:	bc57ebdb          	bnec	a5,37,355c <blt_ll_channelTable_calc+0x8>
    358a:	02560313          	addi	t1,a2,37
    358e:	4701                	c.li	a4,0
    3590:	02400893          	li	a7,36
    3594:	0100006f          	j	35a4 <blt_ll_channelTable_calc+0x50>
    3598:	00e60023          	sb	a4,0(a2)
    359c:	00160613          	addi	a2,a2,1
    35a0:	04c30a63          	beq	t1,a2,35f4 <blt_ll_channelTable_calc+0xa0>
    35a4:	00b70733          	add	a4,a4,a1
    35a8:	0ff77713          	andi	a4,a4,255
    35ac:	00e8f663          	bgeu	a7,a4,35b8 <blt_ll_channelTable_calc+0x64>
    35b0:	fdb70713          	addi	a4,a4,-37
    35b4:	0ff77713          	andi	a4,a4,255
    35b8:	00375793          	srli	a5,a4,0x3
    35bc:	97aa                	c.add	a5,a0
    35be:	0007c783          	lbu	a5,0(a5)
    35c2:	00777813          	andi	a6,a4,7
    35c6:	4107d7b3          	sra	a5,a5,a6
    35ca:	fc07f75b          	bbs	a5,0,3598 <blt_ll_channelTable_calc+0x44>
    35ce:	87ba                	c.mv	a5,a4
    35d0:	00d76863          	bltu	a4,a3,35e0 <blt_ll_channelTable_calc+0x8c>
    35d4:	40d787b3          	sub	a5,a5,a3
    35d8:	0ff7f793          	andi	a5,a5,255
    35dc:	fed7fce3          	bgeu	a5,a3,35d4 <blt_ll_channelTable_calc+0x80>
    35e0:	03010f13          	addi	t5,sp,48
    35e4:	97fa                	c.add	a5,t5
    35e6:	fd878783          	lb	a5,-40(a5)
    35ea:	0605                	c.addi	a2,1
    35ec:	fef60fa3          	sb	a5,-1(a2)
    35f0:	fac31ae3          	bne	t1,a2,35a4 <blt_ll_channelTable_calc+0x50>
    35f4:	6145                	c.addi16sp	sp,48
    35f6:	8082                	c.jr	ra

000035f8 <bls_ll_setAdvEnable>:
    35f8:	000007b7          	lui	a5,0x0
    35fc:	73c78793          	addi	a5,a5,1852 # 73c <blt_conn_phy>
    3600:	0df78703          	lb	a4,223(a5)
    3604:	4c17705b          	bbs	a4,1,36c4 <bls_ll_setAdvEnable+0xcc>
    3608:	0ff57613          	andi	a2,a0,255
    360c:	0785745b          	bbc	a0,24,3674 <bls_ll_setAdvEnable+0x7c>
    3610:	80100737          	lui	a4,0x80100
    3614:	f8000693          	li	a3,-128
    3618:	50d700a3          	sb	a3,1281(a4) # 80100501 <_DATA_LMA_START+0x600e8569>
    361c:	80141737          	lui	a4,0x80141
    3620:	a0071e23          	sh	zero,-1508(a4) # 80140a1c <_DATA_LMA_START+0x60128a84>
    3624:	56fd                	c.li	a3,-1
    3626:	801405b7          	lui	a1,0x80140
    362a:	a2d71023          	sh	a3,-1504(a4)
    362e:	66a1                	c.lui	a3,0x8
    3630:	2005a703          	lw	a4,512(a1) # 80140200 <_DATA_LMA_START+0x60128268>
    3634:	d0068693          	addi	a3,a3,-768 # 7d00 <_RAMCODE_VMA_END+0x18fe>
    3638:	9736                	c.add	a4,a3
    363a:	26e7ac23          	sw	a4,632(a5)
    363e:	0e578703          	lb	a4,229(a5)
    3642:	0ff77713          	andi	a4,a4,255
    3646:	ce39                	c.beqz	a2,36a4 <bls_ll_setAdvEnable+0xac>
    3648:	00175a5b          	beqc	a4,1,365c <bls_ll_setAdvEnable+0x64>
    364c:	00100713          	li	a4,1
    3650:	0ee782a3          	sb	a4,229(a5)
    3654:	2005a703          	lw	a4,512(a1)
    3658:	28e7a823          	sw	a4,656(a5)
    365c:	0df78703          	lb	a4,223(a5)
    3660:	4501                	c.li	a0,0
    3662:	0ff77713          	andi	a4,a4,255
    3666:	00176713          	ori	a4,a4,1
    366a:	0ce78fa3          	sb	a4,223(a5)
    366e:	0cc78a23          	sb	a2,212(a5)
    3672:	8082                	c.jr	ra
    3674:	0e578703          	lb	a4,229(a5)
    3678:	0ff77713          	andi	a4,a4,255
    367c:	db51                	c.beqz	a4,3610 <bls_ll_setAdvEnable+0x18>
    367e:	0e578703          	lb	a4,229(a5)
    3682:	0ff77713          	andi	a4,a4,255
    3686:	b817555b          	beqc	a4,1,3610 <bls_ll_setAdvEnable+0x18>
    368a:	0df78703          	lb	a4,223(a5)
    368e:	4501                	c.li	a0,0
    3690:	0ff77713          	andi	a4,a4,255
    3694:	00176713          	ori	a4,a4,1
    3698:	0ce78fa3          	sb	a4,223(a5)
    369c:	0cc78a23          	sb	a2,212(a5)
    36a0:	00008067          	ret
    36a4:	df45                	c.beqz	a4,365c <bls_ll_setAdvEnable+0x64>
    36a6:	0e0782a3          	sb	zero,229(a5)
    36aa:	0df78703          	lb	a4,223(a5)
    36ae:	4501                	c.li	a0,0
    36b0:	0ff77713          	andi	a4,a4,255
    36b4:	00176713          	ori	a4,a4,1
    36b8:	0ce78fa3          	sb	a4,223(a5)
    36bc:	0cc78a23          	sb	a2,212(a5)
    36c0:	00008067          	ret
    36c4:	4531                	c.li	a0,12
    36c6:	8082                	c.jr	ra

000036c8 <irq_ll_system_timer>:
    36c8:	000007b7          	lui	a5,0x0
    36cc:	73c78793          	addi	a5,a5,1852 # 73c <blt_conn_phy>
    36d0:	0e578703          	lb	a4,229(a5)
    36d4:	0ff77713          	andi	a4,a4,255
    36d8:	0087545b          	beqc	a4,8,36e0 <irq_ll_system_timer+0x18>
    36dc:	00008067          	ret
    36e0:	2947a303          	lw	t1,660(a5)
    36e4:	fe030ce3          	beqz	t1,36dc <irq_ll_system_timer+0x14>
    36e8:	00030067          	jr	t1

000036ec <blt_event_callback_func>:
    36ec:	000007b7          	lui	a5,0x0
    36f0:	73c78793          	addi	a5,a5,1852 # 73c <blt_conn_phy>
    36f4:	2c07a683          	lw	a3,704(a5)
    36f8:	872a                	c.mv	a4,a0
    36fa:	ca89                	c.beqz	a3,370c <blt_event_callback_func+0x20>
    36fc:	4785                	c.li	a5,1
    36fe:	00a797b3          	sll	a5,a5,a0
    3702:	8ff5                	c.and	a5,a3
    3704:	00079c63          	bnez	a5,371c <blt_event_callback_func+0x30>
    3708:	00008067          	ret
    370c:	0ca787db          	lea.w	a5,a5,a0
    3710:	2c47a303          	lw	t1,708(a5)
    3714:	fe030ae3          	beqz	t1,3708 <blt_event_callback_func+0x1c>
    3718:	00030067          	jr	t1
    371c:	01000537          	lui	a0,0x1000
    3720:	00e56533          	or	a0,a0,a4
    3724:	2000c317          	auipc	t1,0x2000c
    3728:	62c30067          	jr	1580(t1) # 2000fd50 <blc_hci_send_event>

0000372c <rf_set_rxmode>:
    372c:	801417b7          	lui	a5,0x80141
    3730:	04500713          	li	a4,69
    3734:	a0e78123          	sb	a4,-1534(a5) # 80140a02 <_DATA_LMA_START+0x60128a6a>
    3738:	c2078703          	lb	a4,-992(a5)
    373c:	0ff77713          	andi	a4,a4,255
    3740:	00876713          	ori	a4,a4,8
    3744:	c2e78023          	sb	a4,-992(a5)
    3748:	a0278703          	lb	a4,-1534(a5)
    374c:	0ff77713          	andi	a4,a4,255
    3750:	02076713          	ori	a4,a4,32
    3754:	a0e78123          	sb	a4,-1534(a5)
    3758:	82878703          	lb	a4,-2008(a5)
    375c:	0ff77713          	andi	a4,a4,255
    3760:	00176713          	ori	a4,a4,1
    3764:	82e78423          	sb	a4,-2008(a5)
    3768:	00008067          	ret

0000376c <pm_tim_recover_32k_rc>:
    376c:	000007b7          	lui	a5,0x0
    3770:	73c78793          	addi	a5,a5,1852 # 73c <blt_conn_phy>
    3774:	3187a703          	lw	a4,792(a5)
    3778:	3447c603          	lbu	a2,836(a5)
    377c:	3147a583          	lw	a1,788(a5)
    3780:	40e50733          	sub	a4,a0,a4
    3784:	3407a683          	lw	a3,832(a5)
    3788:	ee01                	c.bnez	a2,37a0 <pm_tim_recover_32k_rc+0x34>
    378a:	02d70633          	mul	a2,a4,a3
    378e:	32a7a823          	sw	a0,816(a5)
    3792:	32e7a623          	sw	a4,812(a5)
    3796:	00465693          	srli	a3,a2,0x4
    379a:	95b6                	c.add	a1,a3
    379c:	852e                	c.mv	a0,a1
    379e:	8082                	c.jr	ra
    37a0:	00475613          	srli	a2,a4,0x4
    37a4:	c4d615ff          	maddr32	a1,a2,a3
    37a8:	32a7a823          	sw	a0,816(a5)
    37ac:	32e7a623          	sw	a4,812(a5)
    37b0:	852e                	c.mv	a0,a1
    37b2:	8082                	c.jr	ra

000037b4 <pm_get_32k_rc_calib>:
    37b4:	801407b7          	lui	a5,0x80140
    37b8:	2147a703          	lw	a4,532(a5) # 80140214 <_DATA_LMA_START+0x6012827c>
    37bc:	df75                	c.beqz	a4,37b8 <pm_get_32k_rc_calib+0x4>
    37be:	2147a503          	lw	a0,532(a5)
    37c2:	000007b7          	lui	a5,0x0
    37c6:	73c78793          	addi	a5,a5,1852 # 73c <blt_conn_phy>
    37ca:	3287a703          	lw	a4,808(a5)
    37ce:	32a7ac23          	sw	a0,824(a5)
    37d2:	0512                	c.slli	a0,0x4
    37d4:	cb11                	c.beqz	a4,37e8 <pm_get_32k_rc_calib+0x34>
    37d6:	33c7c603          	lbu	a2,828(a5)
    37da:	4691                	c.li	a3,4
    37dc:	8d19                	c.sub	a0,a4
    37de:	8e91                	c.sub	a3,a2
    37e0:	40d55533          	sra	a0,a0,a3
    37e4:	00e50533          	add	a0,a0,a4
    37e8:	32a7a423          	sw	a0,808(a5)
    37ec:	31c7a783          	lw	a5,796(a5)
    37f0:	8511                	c.srai	a0,0x4
    37f2:	02f507b3          	mul	a5,a0,a5
    37f6:	87c9                	c.srai	a5,0x12
    37f8:	953e                	c.add	a0,a5
    37fa:	8082                	c.jr	ra

000037fc <pm_update_32k_rc_sleep_tick>:
    37fc:	000007b7          	lui	a5,0x0
    3800:	73c78793          	addi	a5,a5,1852 # 73c <blt_conn_phy>
    3804:	3307a703          	lw	a4,816(a5)
    3808:	33c7c683          	lbu	a3,828(a5)
    380c:	40e50733          	sub	a4,a0,a4
    3810:	32e7aa23          	sw	a4,820(a5)
    3814:	e681                	c.bnez	a3,381c <pm_update_32k_rc_sleep_tick+0x20>
    3816:	3147a703          	lw	a4,788(a5)
    381a:	eb19                	c.bnez	a4,3830 <pm_update_32k_rc_sleep_tick+0x34>
    381c:	0015e593          	ori	a1,a1,1
    3820:	32078e23          	sb	zero,828(a5)
    3824:	30a7ac23          	sw	a0,792(a5)
    3828:	30b7aa23          	sw	a1,788(a5)
    382c:	00008067          	ret
    3830:	3187a703          	lw	a4,792(a5)
    3834:	6691                	c.lui	a3,0x4
    3836:	40e50733          	sub	a4,a0,a4
    383a:	6c07275b          	bfoz	a4,a4,27,0
    383e:	e8068693          	addi	a3,a3,-384 # 3e80 <bls_ll_procRxPacket.constprop.18+0x1a4>
    3842:	fee6f5e3          	bgeu	a3,a4,382c <pm_update_32k_rc_sleep_tick+0x30>
    3846:	0015e593          	ori	a1,a1,1
    384a:	32078e23          	sb	zero,828(a5)
    384e:	30a7ac23          	sw	a0,792(a5)
    3852:	30b7aa23          	sw	a1,788(a5)
    3856:	bfd9                	c.j	382c <pm_update_32k_rc_sleep_tick+0x30>

00003858 <smp_quickResolvPrivateAddr>:
    3858:	30002873          	csrr	a6,mstatus
    385c:	00887813          	andi	a6,a6,8
    3860:	00080463          	beqz	a6,3868 <smp_quickResolvPrivateAddr+0x10>
    3864:	300477f3          	csrrci	a5,mstatus,8
    3868:	411c                	c.lw	a5,0(a0)
    386a:	80160637          	lui	a2,0x80160
    386e:	0af62a23          	sw	a5,180(a2) # 801600b4 <_DATA_LMA_START+0x6014811c>
    3872:	415c                	c.lw	a5,4(a0)
    3874:	00000737          	lui	a4,0x0
    3878:	0af62c23          	sw	a5,184(a2)
    387c:	451c                	c.lw	a5,8(a0)
    387e:	15870713          	addi	a4,a4,344 # 158 <_RETENTION_RESET_VMA_END>
    3882:	0af62e23          	sw	a5,188(a2)
    3886:	455c                	c.lw	a5,12(a0)
    3888:	0cf62023          	sw	a5,192(a2)
    388c:	0045c783          	lbu	a5,4(a1)
    3890:	0055c683          	lbu	a3,5(a1)
    3894:	0035c503          	lbu	a0,3(a1)
    3898:	06c2                	c.slli	a3,0x10
    389a:	07a2                	c.slli	a5,0x8
    389c:	8fd5                	c.or	a5,a3
    389e:	8fc9                	c.or	a5,a0
    38a0:	c31c                	c.sw	a5,0(a4)
    38a2:	0ce62223          	sw	a4,196(a2)
    38a6:	00072223          	sw	zero,4(a4)
    38aa:	00072423          	sw	zero,8(a4)
    38ae:	00072623          	sw	zero,12(a4)
    38b2:	4785                	c.li	a5,1
    38b4:	801606b7          	lui	a3,0x80160
    38b8:	0af62823          	sw	a5,176(a2)
    38bc:	0b06a783          	lw	a5,176(a3) # 801600b0 <_DATA_LMA_START+0x60148118>
    38c0:	fe07fe5b          	bbs	a5,0,38bc <smp_quickResolvPrivateAddr+0x64>
    38c4:	00080463          	beqz	a6,38cc <smp_quickResolvPrivateAddr+0x74>
    38c8:	30082873          	csrrs	a6,mstatus,a6
    38cc:	0015c503          	lbu	a0,1(a1)
    38d0:	0025c683          	lbu	a3,2(a1)
    38d4:	0005c603          	lbu	a2,0(a1)
    38d8:	06c2                	c.slli	a3,0x10
    38da:	4b1c                	c.lw	a5,16(a4)
    38dc:	0522                	c.slli	a0,0x8
    38de:	8d55                	c.or	a0,a3
    38e0:	8d51                	c.or	a0,a2
    38e2:	5c07a7db          	bfoz	a5,a5,23,0
    38e6:	8d1d                	c.sub	a0,a5
    38e8:	00153513          	seqz	a0,a0
    38ec:	00008067          	ret

000038f0 <blt_ll_searchAddr_in_ResolvingList>:
    38f0:	1101                	c.addi	sp,-32
    38f2:	ce06                	c.swsp	ra,28(sp)
    38f4:	cc22                	c.swsp	s0,24(sp)
    38f6:	ca26                	c.swsp	s1,20(sp)
    38f8:	c84a                	c.swsp	s2,16(sp)
    38fa:	c64e                	c.swsp	s3,12(sp)
    38fc:	c452                	c.swsp	s4,8(sp)
    38fe:	04156f5b          	bnec	a0,1,395c <blt_ll_searchAddr_in_ResolvingList+0x6c>
    3902:	00558783          	lb	a5,5(a1)
    3906:	0c07f793          	andi	a5,a5,192
    390a:	4407e95b          	bnec	a5,64,395c <blt_ll_searchAddr_in_ResolvingList+0x6c>
    390e:	00000937          	lui	s2,0x0
    3912:	73c90913          	addi	s2,s2,1852 # 73c <blt_conn_phy>
    3916:	37994783          	lbu	a5,889(s2)
    391a:	c3a9                	c.beqz	a5,395c <blt_ll_searchAddr_in_ResolvingList+0x6c>
    391c:	37894783          	lbu	a5,888(s2)
    3920:	cf95                	c.beqz	a5,395c <blt_ll_searchAddr_in_ResolvingList+0x6c>
    3922:	89ae                	c.mv	s3,a1
    3924:	35090413          	addi	s0,s2,848
    3928:	4481                	c.li	s1,0
    392a:	a039                	c.j	3938 <blt_ll_searchAddr_in_ResolvingList+0x48>
    392c:	37894783          	lbu	a5,888(s2)
    3930:	01840413          	addi	s0,s0,24
    3934:	02f4d463          	bge	s1,a5,395c <blt_ll_searchAddr_in_ResolvingList+0x6c>
    3938:	8522                	c.mv	a0,s0
    393a:	85ce                	c.mv	a1,s3
    393c:	0485                	c.addi	s1,1
    393e:	8a22                	c.mv	s4,s0
    3940:	f19ff0ef          	jal	ra,3858 <smp_quickResolvPrivateAddr>
    3944:	fe0504e3          	beqz	a0,392c <blt_ll_searchAddr_in_ResolvingList+0x3c>
    3948:	40f2                	c.lwsp	ra,28(sp)
    394a:	4462                	c.lwsp	s0,24(sp)
    394c:	8552                	c.mv	a0,s4
    394e:	44d2                	c.lwsp	s1,20(sp)
    3950:	4942                	c.lwsp	s2,16(sp)
    3952:	49b2                	c.lwsp	s3,12(sp)
    3954:	4a22                	c.lwsp	s4,8(sp)
    3956:	6105                	c.addi16sp	sp,32
    3958:	00008067          	ret
    395c:	4a01                	c.li	s4,0
    395e:	b7ed                	c.j	3948 <blt_ll_searchAddr_in_ResolvingList+0x58>

00003960 <ll_searchAddr_in_WhiteList_and_ResolvingList>:
    3960:	1141                	c.addi	sp,-16
    3962:	c422                	c.swsp	s0,8(sp)
    3964:	c226                	c.swsp	s1,4(sp)
    3966:	c606                	c.swsp	ra,12(sp)
    3968:	842a                	c.mv	s0,a0
    396a:	84ae                	c.mv	s1,a1
    396c:	f70ff0ef          	jal	ra,30dc <blt_ll_searchAddr_in_WhiteList>
    3970:	c511                	c.beqz	a0,397c <ll_searchAddr_in_WhiteList_and_ResolvingList+0x1c>
    3972:	40b2                	c.lwsp	ra,12(sp)
    3974:	4422                	c.lwsp	s0,8(sp)
    3976:	4492                	c.lwsp	s1,4(sp)
    3978:	0141                	c.addi	sp,16
    397a:	8082                	c.jr	ra
    397c:	8522                	c.mv	a0,s0
    397e:	4422                	c.lwsp	s0,8(sp)
    3980:	40b2                	c.lwsp	ra,12(sp)
    3982:	85a6                	c.mv	a1,s1
    3984:	4492                	c.lwsp	s1,4(sp)
    3986:	0141                	c.addi	sp,16
    3988:	f69ff06f          	j	38f0 <blt_ll_searchAddr_in_ResolvingList>

0000398c <blt_ll_getRealTxFifoNumber>:
    398c:	300027f3          	csrr	a5,mstatus
    3990:	8ba1                	c.andi	a5,8
    3992:	cb8d                	c.beqz	a5,39c4 <blt_ll_getRealTxFifoNumber+0x38>
    3994:	30047773          	csrrci	a4,mstatus,8
    3998:	000006b7          	lui	a3,0x0
    399c:	80100637          	lui	a2,0x80100
    39a0:	73c68693          	addi	a3,a3,1852 # 73c <blt_conn_phy>
    39a4:	50060703          	lb	a4,1280(a2) # 80100500 <_DATA_LMA_START+0x600e8568>
    39a8:	24e68503          	lb	a0,590(a3)
    39ac:	50160603          	lb	a2,1281(a2)
    39b0:	24f68683          	lb	a3,591(a3)
    39b4:	8f11                	c.sub	a4,a2
    39b6:	8d15                	c.sub	a0,a3
    39b8:	8b7d                	c.andi	a4,31
    39ba:	897d                	c.andi	a0,31
    39bc:	953a                	c.add	a0,a4
    39be:	3007a7f3          	csrrs	a5,mstatus,a5
    39c2:	8082                	c.jr	ra
    39c4:	00000737          	lui	a4,0x0
    39c8:	801006b7          	lui	a3,0x80100
    39cc:	73c70713          	addi	a4,a4,1852 # 73c <blt_conn_phy>
    39d0:	50068783          	lb	a5,1280(a3) # 80100500 <_DATA_LMA_START+0x600e8568>
    39d4:	24e70503          	lb	a0,590(a4)
    39d8:	50168683          	lb	a3,1281(a3)
    39dc:	24f70703          	lb	a4,591(a4)
    39e0:	8f95                	c.sub	a5,a3
    39e2:	8d19                	c.sub	a0,a4
    39e4:	8bfd                	c.andi	a5,31
    39e6:	897d                	c.andi	a0,31
    39e8:	953e                	c.add	a0,a5
    39ea:	8082                	c.jr	ra

000039ec <blc_ll_getTxFifoNumber>:
    39ec:	300027f3          	csrr	a5,mstatus
    39f0:	8ba1                	c.andi	a5,8
    39f2:	cf9d                	c.beqz	a5,3a30 <blc_ll_getTxFifoNumber+0x44>
    39f4:	30047773          	csrrci	a4,mstatus,8
    39f8:	000006b7          	lui	a3,0x0
    39fc:	80100637          	lui	a2,0x80100
    3a00:	73c68693          	addi	a3,a3,1852 # 73c <blt_conn_phy>
    3a04:	50060703          	lb	a4,1280(a2) # 80100500 <_DATA_LMA_START+0x600e8568>
    3a08:	24e68503          	lb	a0,590(a3)
    3a0c:	50160603          	lb	a2,1281(a2)
    3a10:	24f68683          	lb	a3,591(a3)
    3a14:	8f11                	c.sub	a4,a2
    3a16:	8d15                	c.sub	a0,a3
    3a18:	8b7d                	c.andi	a4,31
    3a1a:	897d                	c.andi	a0,31
    3a1c:	953a                	c.add	a0,a4
    3a1e:	e709                	c.bnez	a4,3a28 <blc_ll_getTxFifoNumber+0x3c>
    3a20:	00150513          	addi	a0,a0,1 # 1000001 <FLASH_SIZE+0xf00001>
    3a24:	0ff57513          	andi	a0,a0,255
    3a28:	3007a7f3          	csrrs	a5,mstatus,a5
    3a2c:	00008067          	ret
    3a30:	00000737          	lui	a4,0x0
    3a34:	801006b7          	lui	a3,0x80100
    3a38:	73c70713          	addi	a4,a4,1852 # 73c <blt_conn_phy>
    3a3c:	50068783          	lb	a5,1280(a3) # 80100500 <_DATA_LMA_START+0x600e8568>
    3a40:	24e70503          	lb	a0,590(a4)
    3a44:	50168683          	lb	a3,1281(a3)
    3a48:	24f70703          	lb	a4,591(a4)
    3a4c:	8f95                	c.sub	a5,a3
    3a4e:	8d19                	c.sub	a0,a4
    3a50:	8bfd                	c.andi	a5,31
    3a52:	897d                	c.andi	a0,31
    3a54:	953e                	c.add	a0,a5
    3a56:	c399                	c.beqz	a5,3a5c <blc_ll_getTxFifoNumber+0x70>
    3a58:	00008067          	ret
    3a5c:	0505                	c.addi	a0,1
    3a5e:	0ff57513          	andi	a0,a0,255
    3a62:	8082                	c.jr	ra

00003a64 <pm_wait_bbpll_done>:
    3a64:	1101                	c.addi	sp,-32
    3a66:	08100513          	li	a0,129
    3a6a:	cc22                	c.swsp	s0,24(sp)
    3a6c:	ca26                	c.swsp	s1,20(sp)
    3a6e:	c84a                	c.swsp	s2,16(sp)
    3a70:	00112e23          	sw	ra,28(sp)
    3a74:	9b8fe0ef          	jal	ra,1c2c <analog_read_reg8>
    3a78:	04056593          	ori	a1,a0,64
    3a7c:	892a                	c.mv	s2,a0
    3a7e:	0ff5f593          	andi	a1,a1,255
    3a82:	08100513          	li	a0,129
    3a86:	0bf97913          	andi	s2,s2,191
    3a8a:	4481                	c.li	s1,0
    3a8c:	01d00413          	li	s0,29
    3a90:	85cfe0ef          	jal	ra,1aec <analog_write_reg8>
    3a94:	000107a3          	sb	zero,15(sp)
    3a98:	00f10783          	lb	a5,15(sp)
    3a9c:	0ff7f793          	andi	a5,a5,255
    3aa0:	02f46063          	bltu	s0,a5,3ac0 <pm_wait_bbpll_done+0x5c>
    3aa4:	0001                	c.nop
    3aa6:	00f10783          	lb	a5,15(sp)
    3aaa:	0785                	c.addi	a5,1
    3aac:	0ff7f793          	andi	a5,a5,255
    3ab0:	00f107a3          	sb	a5,15(sp)
    3ab4:	00f10783          	lb	a5,15(sp)
    3ab8:	0ff7f793          	andi	a5,a5,255
    3abc:	fef474e3          	bgeu	s0,a5,3aa4 <pm_wait_bbpll_done+0x40>
    3ac0:	08800513          	li	a0,136
    3ac4:	968fe0ef          	jal	ra,1c2c <analog_read_reg8>
    3ac8:	4255765b          	bbs	a0,5,3af4 <pm_wait_bbpll_done+0x90>
    3acc:	cc95                	c.beqz	s1,3b08 <pm_wait_bbpll_done+0xa4>
    3ace:	0414d55b          	beqc	s1,1,3b18 <pm_wait_bbpll_done+0xb4>
    3ad2:	85ca                	c.mv	a1,s2
    3ad4:	08100513          	li	a0,129
    3ad8:	814fe0ef          	jal	ra,1aec <analog_write_reg8>
    3adc:	0024d65b          	beqc	s1,2,3ae8 <pm_wait_bbpll_done+0x84>
    3ae0:	0485                	c.addi	s1,1
    3ae2:	0ff4f493          	andi	s1,s1,255
    3ae6:	b77d                	c.j	3a94 <pm_wait_bbpll_done+0x30>
    3ae8:	40f2                	c.lwsp	ra,28(sp)
    3aea:	4462                	c.lwsp	s0,24(sp)
    3aec:	44d2                	c.lwsp	s1,20(sp)
    3aee:	4942                	c.lwsp	s2,16(sp)
    3af0:	6105                	c.addi16sp	sp,32
    3af2:	8082                	c.jr	ra
    3af4:	4462                	c.lwsp	s0,24(sp)
    3af6:	40f2                	c.lwsp	ra,28(sp)
    3af8:	44d2                	c.lwsp	s1,20(sp)
    3afa:	85ca                	c.mv	a1,s2
    3afc:	4942                	c.lwsp	s2,16(sp)
    3afe:	08100513          	li	a0,129
    3b02:	6105                	c.addi16sp	sp,32
    3b04:	fe9fd06f          	j	1aec <analog_write_reg8>
    3b08:	04600593          	li	a1,70
    3b0c:	00100513          	li	a0,1
    3b10:	fddfd0ef          	jal	ra,1aec <analog_write_reg8>
    3b14:	fcdff06f          	j	3ae0 <pm_wait_bbpll_done+0x7c>
    3b18:	04300593          	li	a1,67
    3b1c:	00100513          	li	a0,1
    3b20:	fcdfd0ef          	jal	ra,1aec <analog_write_reg8>
    3b24:	fbdff06f          	j	3ae0 <pm_wait_bbpll_done+0x7c>

00003b28 <pm_sleep_start>:
    3b28:	1101                	c.addi	sp,-32
    3b2a:	a3ffa72b          	lwgp	a4,-1476 # 8023c <g_chip_version>
    3b2e:	000016b7          	lui	a3,0x1
    3b32:	ce06                	c.swsp	ra,28(sp)
    3b34:	00812c23          	sw	s0,24(sp)
    3b38:	0ff00793          	li	a5,255
    3b3c:	ab66c583          	lbu	a1,-1354(a3) # ab6 <g_pm_suspend_power_cfg>
    3b40:	18f70663          	beq	a4,a5,3ccc <pm_sleep_start+0x1a4>
    3b44:	07d00513          	li	a0,125
    3b48:	fa5fd0ef          	jal	ra,1aec <analog_write_reg8>
    3b4c:	801406b7          	lui	a3,0x80140
    3b50:	10268783          	lb	a5,258(a3) # 80140102 <_DATA_LMA_START+0x6012816a>
    3b54:	fe07fe5b          	bbs	a5,0,3b50 <pm_sleep_start+0x28>
    3b58:	10168783          	lb	a5,257(a3)
    3b5c:	80140737          	lui	a4,0x80140
    3b60:	0ff7f793          	andi	a5,a5,255
    3b64:	0107e793          	ori	a5,a5,16
    3b68:	10f680a3          	sb	a5,257(a3)
    3b6c:	32870783          	lb	a5,808(a4) # 80140328 <_DATA_LMA_START+0x60128390>
    3b70:	be37fe5b          	bbc	a5,3,3b6c <pm_sleep_start+0x44>
    3b74:	10170783          	lb	a5,257(a4)
    3b78:	80140437          	lui	s0,0x80140
    3b7c:	0fd7f793          	andi	a5,a5,253
    3b80:	10f700a3          	sb	a5,257(a4)
    3b84:	10170783          	lb	a5,257(a4)
    3b88:	0ef7f793          	andi	a5,a5,239
    3b8c:	10f700a3          	sb	a5,257(a4)
    3b90:	fb900793          	li	a5,-71
    3b94:	10f70023          	sb	a5,256(a4)
    3b98:	10240783          	lb	a5,258(s0) # 80140102 <_DATA_LMA_START+0x6012816a>
    3b9c:	fe07fe5b          	bbs	a5,0,3b98 <pm_sleep_start+0x70>
    3ba0:	10140783          	lb	a5,257(s0)
    3ba4:	00b00513          	li	a0,11
    3ba8:	0ff7f793          	andi	a5,a5,255
    3bac:	0107e793          	ori	a5,a5,16
    3bb0:	10f400a3          	sb	a5,257(s0)
    3bb4:	320404a3          	sb	zero,809(s0)
    3bb8:	874fe0ef          	jal	ra,1c2c <analog_read_reg8>
    3bbc:	0fc57593          	andi	a1,a0,252
    3bc0:	00b00513          	li	a0,11
    3bc4:	f29fd0ef          	jal	ra,1aec <analog_write_reg8>
    3bc8:	08100513          	li	a0,129
    3bcc:	860fe0ef          	jal	ra,1c2c <analog_read_reg8>
    3bd0:	f8056593          	ori	a1,a0,-128
    3bd4:	0ff5f593          	andi	a1,a1,255
    3bd8:	08100513          	li	a0,129
    3bdc:	f11fd0ef          	jal	ra,1aec <analog_write_reg8>
    3be0:	f8000793          	li	a5,-128
    3be4:	1ef407a3          	sb	a5,495(s0)
    3be8:	c402                	c.swsp	zero,8(sp)
    3bea:	4722                	c.lwsp	a4,8(sp)
    3bec:	03f00793          	li	a5,63
    3bf0:	00e7ec63          	bltu	a5,a4,3c08 <pm_sleep_start+0xe0>
    3bf4:	03f00713          	li	a4,63
    3bf8:	0001                	c.nop
    3bfa:	47a2                	c.lwsp	a5,8(sp)
    3bfc:	0785                	c.addi	a5,1
    3bfe:	c43e                	c.swsp	a5,8(sp)
    3c00:	00812783          	lw	a5,8(sp)
    3c04:	fef77ae3          	bgeu	a4,a5,3bf8 <pm_sleep_start+0xd0>
    3c08:	08100513          	li	a0,129
    3c0c:	820fe0ef          	jal	ra,1c2c <analog_read_reg8>
    3c10:	07f57593          	andi	a1,a0,127
    3c14:	08100513          	li	a0,129
    3c18:	ed5fd0ef          	jal	ra,1aec <analog_write_reg8>
    3c1c:	00b00513          	li	a0,11
    3c20:	80cfe0ef          	jal	ra,1c2c <analog_read_reg8>
    3c24:	00356593          	ori	a1,a0,3
    3c28:	0ff5f593          	andi	a1,a1,255
    3c2c:	00b00513          	li	a0,11
    3c30:	ebdfd0ef          	jal	ra,1aec <analog_write_reg8>
    3c34:	08000593          	li	a1,128
    3c38:	07d00513          	li	a0,125
    3c3c:	eb1fd0ef          	jal	ra,1aec <analog_write_reg8>
    3c40:	c602                	c.swsp	zero,12(sp)
    3c42:	4732                	c.lwsp	a4,12(sp)
    3c44:	12b00793          	li	a5,299
    3c48:	00e7ec63          	bltu	a5,a4,3c60 <pm_sleep_start+0x138>
    3c4c:	12b00713          	li	a4,299
    3c50:	0001                	c.nop
    3c52:	47b2                	c.lwsp	a5,12(sp)
    3c54:	0785                	c.addi	a5,1
    3c56:	c63e                	c.swsp	a5,12(sp)
    3c58:	00c12783          	lw	a5,12(sp)
    3c5c:	fef77ae3          	bgeu	a4,a5,3c50 <pm_sleep_start+0x128>
    3c60:	08800513          	li	a0,136
    3c64:	fc9fd0ef          	jal	ra,1c2c <analog_read_reg8>
    3c68:	be757c5b          	bbc	a0,7,3c60 <pm_sleep_start+0x138>
    3c6c:	08800513          	li	a0,136
    3c70:	fbdfd0ef          	jal	ra,1c2c <analog_read_reg8>
    3c74:	be757c5b          	bbc	a0,7,3c6c <pm_sleep_start+0x144>
    3c78:	08800513          	li	a0,136
    3c7c:	fb1fd0ef          	jal	ra,1c2c <analog_read_reg8>
    3c80:	be757c5b          	bbc	a0,7,3c78 <pm_sleep_start+0x150>
    3c84:	de1ff0ef          	jal	ra,3a64 <pm_wait_bbpll_done>
    3c88:	801407b7          	lui	a5,0x80140
    3c8c:	03f00713          	li	a4,63
    3c90:	32e784a3          	sb	a4,809(a5) # 80140329 <_DATA_LMA_START+0x60128391>
    3c94:	10178683          	lb	a3,257(a5)
    3c98:	80140737          	lui	a4,0x80140
    3c9c:	0ef6f693          	andi	a3,a3,239
    3ca0:	10d780a3          	sb	a3,257(a5)
    3ca4:	fab00693          	li	a3,-85
    3ca8:	10d78023          	sb	a3,256(a5)
    3cac:	10270783          	lb	a5,258(a4) # 80140102 <_DATA_LMA_START+0x6012816a>
    3cb0:	fe07fe5b          	bbs	a5,0,3cac <pm_sleep_start+0x184>
    3cb4:	10170783          	lb	a5,257(a4)
    3cb8:	0ff7f793          	andi	a5,a5,255
    3cbc:	0107e793          	ori	a5,a5,16
    3cc0:	10f700a3          	sb	a5,257(a4)
    3cc4:	40f2                	c.lwsp	ra,28(sp)
    3cc6:	4462                	c.lwsp	s0,24(sp)
    3cc8:	6105                	c.addi16sp	sp,32
    3cca:	8082                	c.jr	ra
    3ccc:	0fe5f593          	andi	a1,a1,254
    3cd0:	07d00513          	li	a0,125
    3cd4:	e19fd0ef          	jal	ra,1aec <analog_write_reg8>
    3cd8:	e75ff06f          	j	3b4c <pm_sleep_start+0x24>

00003cdc <bls_ll_procRxPacket.constprop.18>:
    3cdc:	1141                	c.addi	sp,-16
    3cde:	c422                	c.swsp	s0,8(sp)
    3ce0:	00000437          	lui	s0,0x0
    3ce4:	73c40413          	addi	s0,s0,1852 # 73c <blt_conn_phy>
    3ce8:	c606                	c.swsp	ra,12(sp)
    3cea:	c226                	c.swsp	s1,4(sp)
    3cec:	38144703          	lbu	a4,897(s0)
    3cf0:	801406b7          	lui	a3,0x80140
    3cf4:	ffa70793          	addi	a5,a4,-6
    3cf8:	2006a483          	lw	s1,512(a3) # 80140200 <_DATA_LMA_START+0x60128268>
    3cfc:	0ff7f793          	andi	a5,a5,255
    3d00:	46fd                	c.li	a3,31
    3d02:	08f6e563          	bltu	a3,a5,3d8c <bls_ll_procRxPacket.constprop.18+0xb0>
    3d06:	3e840793          	addi	a5,s0,1000
    3d0a:	000a0637          	lui	a2,0xa0
    3d0e:	3c144683          	lbu	a3,961(s0)
    3d12:	00c7f563          	bgeu	a5,a2,3d1c <bls_ll_procRxPacket.constprop.18+0x40>
    3d16:	c0180637          	lui	a2,0xc0180
    3d1a:	97b2                	c.add	a5,a2
    3d1c:	41344603          	lbu	a2,1043(s0)
    3d20:	801005b7          	lui	a1,0x80100
    3d24:	44f5a423          	sw	a5,1096(a1) # 80100448 <_DATA_LMA_START+0x600e84b0>
    3d28:	0c061463          	bnez	a2,3df0 <bls_ll_procRxPacket.constprop.18+0x114>
    3d2c:	6705                	c.lui	a4,0x1
    3d2e:	801416b7          	lui	a3,0x80141
    3d32:	80140637          	lui	a2,0x80140
    3d36:	2bf70713          	addi	a4,a4,703 # 12bf <blt_buff_ll_rx+0xbb>
    3d3a:	a039                	c.j	3d48 <bls_ll_procRxPacket.constprop.18+0x6c>
    3d3c:	20062783          	lw	a5,512(a2) # 80140200 <_DATA_LMA_START+0x60128268>
    3d40:	409787b3          	sub	a5,a5,s1
    3d44:	00f76663          	bltu	a4,a5,3d50 <bls_ll_procRxPacket.constprop.18+0x74>
    3d48:	a2069783          	lh	a5,-1504(a3) # 80140a20 <_DATA_LMA_START+0x60128a88>
    3d4c:	be07f85b          	bbc	a5,0,3d3c <bls_ll_procRxPacket.constprop.18+0x60>
    3d50:	38144783          	lbu	a5,897(s0)
    3d54:	04c7d85b          	beqc	a5,12,3da4 <bls_ll_procRxPacket.constprop.18+0xc8>
    3d58:	801417b7          	lui	a5,0x80141
    3d5c:	00100713          	li	a4,1
    3d60:	a2e79023          	sh	a4,-1504(a5) # 80140a20 <_DATA_LMA_START+0x60128a88>
    3d64:	83178783          	lb	a5,-1999(a5)
    3d68:	38144703          	lbu	a4,897(s0)
    3d6c:	0ff7f793          	andi	a5,a5,255
    3d70:	00e7ee63          	bltu	a5,a4,3d8c <bls_ll_procRxPacket.constprop.18+0xb0>
    3d74:	00870733          	add	a4,a4,s0
    3d78:	38c70783          	lb	a5,908(a4)
    3d7c:	4007f85b          	bbs	a5,0,3d8c <bls_ll_procRxPacket.constprop.18+0xb0>
    3d80:	38845703          	lhu	a4,904(s0)
    3d84:	3c245783          	lhu	a5,962(s0)
    3d88:	08f70063          	beq	a4,a5,3e08 <bls_ll_procRxPacket.constprop.18+0x12c>
    3d8c:	801417b7          	lui	a5,0x80141
    3d90:	f8000713          	li	a4,-128
    3d94:	a0e78023          	sb	a4,-1536(a5) # 80140a00 <_DATA_LMA_START+0x60128a68>
    3d98:	40b2                	c.lwsp	ra,12(sp)
    3d9a:	4422                	c.lwsp	s0,8(sp)
    3d9c:	4492                	c.lwsp	s1,4(sp)
    3d9e:	0141                	c.addi	sp,16
    3da0:	00008067          	ret
    3da4:	801417b7          	lui	a5,0x80141
    3da8:	04e00713          	li	a4,78
    3dac:	a0e79223          	sh	a4,-1532(a5) # 80140a04 <_DATA_LMA_START+0x60128a6c>
    3db0:	6685                	c.lui	a3,0x1
    3db2:	8507a703          	lw	a4,-1968(a5)
    3db6:	94068693          	addi	a3,a3,-1728 # 940 <blttcon+0x48>
    3dba:	9736                	c.add	a4,a3
    3dbc:	a0e7ac23          	sw	a4,-1512(a5)
    3dc0:	f8500693          	li	a3,-123
    3dc4:	41442703          	lw	a4,1044(s0)
    3dc8:	a0d78023          	sb	a3,-1536(a5)
    3dcc:	d751                	c.beqz	a4,3d58 <bls_ll_procRxPacket.constprop.18+0x7c>
    3dce:	4505                	c.li	a0,1
    3dd0:	9702                	c.jalr	a4
    3dd2:	801417b7          	lui	a5,0x80141
    3dd6:	4705                	c.li	a4,1
    3dd8:	a2e79023          	sh	a4,-1504(a5) # 80140a20 <_DATA_LMA_START+0x60128a88>
    3ddc:	83178783          	lb	a5,-1999(a5)
    3de0:	38144703          	lbu	a4,897(s0)
    3de4:	0ff7f793          	andi	a5,a5,255
    3de8:	fae7e2e3          	bltu	a5,a4,3d8c <bls_ll_procRxPacket.constprop.18+0xb0>
    3dec:	f89ff06f          	j	3d74 <bls_ll_procRxPacket.constprop.18+0x98>
    3df0:	00e68633          	add	a2,a3,a4
    3df4:	03560613          	addi	a2,a2,53
    3df8:	061e                	c.slli	a2,0x7
    3dfa:	962a                	c.add	a2,a0
    3dfc:	4581                	c.li	a1,0
    3dfe:	4505                	c.li	a0,1
    3e00:	949fd0ef          	jal	ra,1748 <cpu_stall_WakeUp_By_RF_SystemTick>
    3e04:	f29ff06f          	j	3d2c <bls_ll_procRxPacket.constprop.18+0x50>
    3e08:	38a45703          	lhu	a4,906(s0)
    3e0c:	3c445783          	lhu	a5,964(s0)
    3e10:	f6f71ee3          	bne	a4,a5,3d8c <bls_ll_procRxPacket.constprop.18+0xb0>
    3e14:	38c45703          	lhu	a4,908(s0)
    3e18:	3c645783          	lhu	a5,966(s0)
    3e1c:	f6f718e3          	bne	a4,a5,3d8c <bls_ll_procRxPacket.constprop.18+0xb0>
    3e20:	38040783          	lb	a5,896(s0)
    3e24:	8bbd                	c.andi	a5,15
    3e26:	0e37d75b          	beqc	a5,3,3f14 <bls_ll_procRxPacket.constprop.18+0x238>
    3e2a:	b657e15b          	bnec	a5,5,3d8c <bls_ll_procRxPacket.constprop.18+0xb0>
    3e2e:	3c040783          	lb	a5,960(s0)
    3e32:	8bbd                	c.andi	a5,15
    3e34:	1217d65b          	beqc	a5,1,3f60 <bls_ll_procRxPacket.constprop.18+0x284>
    3e38:	3c040783          	lb	a5,960(s0)
    3e3c:	8bbd                	c.andi	a5,15
    3e3e:	f7b9                	c.bnez	a5,3d8c <bls_ll_procRxPacket.constprop.18+0xb0>
    3e40:	801417b7          	lui	a5,0x80141
    3e44:	f8000713          	li	a4,-128
    3e48:	39845683          	lhu	a3,920(s0)
    3e4c:	a0e78023          	sb	a4,-1536(a5) # 80140a00 <_DATA_LMA_START+0x60128a68>
    3e50:	801407b7          	lui	a5,0x80140
    3e54:	2007a603          	lw	a2,512(a5) # 80140200 <_DATA_LMA_START+0x60128268>
    3e58:	ffa68713          	addi	a4,a3,-6
    3e5c:	6785                	c.lui	a5,0x1
    3e5e:	40c42c23          	sw	a2,1048(s0)
    3e62:	3c07275b          	bfoz	a4,a4,15,0
    3e66:	c7a78613          	addi	a2,a5,-902 # c7a <g_pm_multi_addr+0x2>
    3e6a:	f2e661e3          	bltu	a2,a4,3d8c <bls_ll_procRxPacket.constprop.18+0xb0>
    3e6e:	39544603          	lbu	a2,917(s0)
    3e72:	459d                	c.li	a1,7
    3e74:	fff60713          	addi	a4,a2,-1
    3e78:	0ff77713          	andi	a4,a4,255
    3e7c:	f0e5e8e3          	bltu	a1,a4,3d8c <bls_ll_procRxPacket.constprop.18+0xb0>
    3e80:	f0d676e3          	bgeu	a2,a3,3d8c <bls_ll_procRxPacket.constprop.18+0xb0>
    3e84:	39c45703          	lhu	a4,924(s0)
    3e88:	c7678793          	addi	a5,a5,-906
    3e8c:	ff670613          	addi	a2,a4,-10
    3e90:	3c06265b          	bfoz	a2,a2,15,0
    3e94:	eec7ece3          	bltu	a5,a2,3d8c <bls_ll_procRxPacket.constprop.18+0xb0>
    3e98:	3a340783          	lb	a5,931(s0)
    3e9c:	462d                	c.li	a2,11
    3e9e:	8bfd                	c.andi	a5,31
    3ea0:	17ed                	c.addi	a5,-5
    3ea2:	0ff7f793          	andi	a5,a5,255
    3ea6:	eef663e3          	bltu	a2,a5,3d8c <bls_ll_procRxPacket.constprop.18+0xb0>
    3eaa:	39e44783          	lbu	a5,926(s0)
    3eae:	ef99                	c.bnez	a5,3ecc <bls_ll_procRxPacket.constprop.18+0x1f0>
    3eb0:	39f44783          	lbu	a5,927(s0)
    3eb4:	ef81                	c.bnez	a5,3ecc <bls_ll_procRxPacket.constprop.18+0x1f0>
    3eb6:	3a044783          	lbu	a5,928(s0)
    3eba:	eb89                	c.bnez	a5,3ecc <bls_ll_procRxPacket.constprop.18+0x1f0>
    3ebc:	3a144783          	lbu	a5,929(s0)
    3ec0:	00079663          	bnez	a5,3ecc <bls_ll_procRxPacket.constprop.18+0x1f0>
    3ec4:	3a244783          	lbu	a5,930(s0)
    3ec8:	ec0782e3          	beqz	a5,3d8c <bls_ll_procRxPacket.constprop.18+0xb0>
    3ecc:	39a45603          	lhu	a2,922(s0)
    3ed0:	00060863          	beqz	a2,3ee0 <bls_ll_procRxPacket.constprop.18+0x204>
    3ed4:	00371793          	slli	a5,a4,0x3
    3ed8:	02d7c7b3          	div	a5,a5,a3
    3edc:	eac7c8e3          	blt	a5,a2,3d8c <bls_ll_procRxPacket.constprop.18+0xb0>
    3ee0:	27e44783          	lbu	a5,638(s0)
    3ee4:	aa27d45b          	beqc	a5,2,3d8c <bls_ll_procRxPacket.constprop.18+0xb0>
    3ee8:	3c040783          	lb	a5,960(s0)
    3eec:	00f7f793          	andi	a5,a5,15
    3ef0:	0017d65b          	beqc	a5,1,3efc <bls_ll_procRxPacket.constprop.18+0x220>
    3ef4:	27f40783          	lb	a5,639(s0)
    3ef8:	4817f25b          	bbs	a5,1,3f7c <bls_ll_procRxPacket.constprop.18+0x2a0>
    3efc:	41c42783          	lw	a5,1052(s0)
    3f00:	c791                	c.beqz	a5,3f0c <bls_ll_procRxPacket.constprop.18+0x230>
    3f02:	4581                	c.li	a1,0
    3f04:	37c40513          	addi	a0,s0,892
    3f08:	000780e7          	jalr	a5
    3f0c:	4789                	c.li	a5,2
    3f0e:	0cf40b23          	sb	a5,214(s0)
    3f12:	bdad                	c.j	3d8c <bls_ll_procRxPacket.constprop.18+0xb0>
    3f14:	3c040783          	lb	a5,960(s0)
    3f18:	8bbd                	c.andi	a5,15
    3f1a:	a617d95b          	beqc	a5,1,3d8c <bls_ll_procRxPacket.constprop.18+0xb0>
    3f1e:	27f40783          	lb	a5,639(s0)
    3f22:	0007fb5b          	bbc	a5,0,3f38 <bls_ll_procRxPacket.constprop.18+0x25c>
    3f26:	38042503          	lw	a0,896(s0)
    3f2a:	38240593          	addi	a1,s0,898
    3f2e:	1865255b          	bfoz	a0,a0,6,6
    3f32:	343d                	c.jal	3960 <ll_searchAddr_in_WhiteList_and_ResolvingList>
    3f34:	e4050ce3          	beqz	a0,3d8c <bls_ll_procRxPacket.constprop.18+0xb0>
    3f38:	3ed44503          	lbu	a0,1005(s0)
    3f3c:	00351513          	slli	a0,a0,0x3
    3f40:	0d650513          	addi	a0,a0,214
    3f44:	8bdfd0ef          	jal	ra,1800 <delay_us>
    3f48:	2a442783          	lw	a5,676(s0)
    3f4c:	4601                	c.li	a2,0
    3f4e:	4581                	c.li	a1,0
    3f50:	4509                	c.li	a0,2
    3f52:	9782                	c.jalr	a5
    3f54:	0ea40783          	lb	a5,234(s0)
    3f58:	0ff7f793          	andi	a5,a5,255
    3f5c:	dbc5                	c.beqz	a5,3f0c <bls_ll_procRxPacket.constprop.18+0x230>
    3f5e:	b53d                	c.j	3d8c <bls_ll_procRxPacket.constprop.18+0xb0>
    3f60:	00600613          	li	a2,6
    3f64:	3c840593          	addi	a1,s0,968
    3f68:	38240513          	addi	a0,s0,898
    3f6c:	20010097          	auipc	ra,0x20010
    3f70:	77c080e7          	jalr	1916(ra) # 200146e8 <memcmp>
    3f74:	ec0512e3          	bnez	a0,3e38 <bls_ll_procRxPacket.constprop.18+0x15c>
    3f78:	ec9ff06f          	j	3e40 <bls_ll_procRxPacket.constprop.18+0x164>
    3f7c:	38042503          	lw	a0,896(s0)
    3f80:	38240593          	addi	a1,s0,898
    3f84:	1865255b          	bfoz	a0,a0,6,6
    3f88:	9d9ff0ef          	jal	ra,3960 <ll_searchAddr_in_WhiteList_and_ResolvingList>
    3f8c:	f925                	c.bnez	a0,3efc <bls_ll_procRxPacket.constprop.18+0x220>
    3f8e:	bbfd                	c.j	3d8c <bls_ll_procRxPacket.constprop.18+0xb0>

00003f90 <irq_scan_rx_primary_channel>:
    3f90:	1101                	c.addi	sp,-32
    3f92:	c84a                	c.swsp	s2,16(sp)
    3f94:	80141937          	lui	s2,0x80141
    3f98:	ce06                	c.swsp	ra,28(sp)
    3f9a:	cc22                	c.swsp	s0,24(sp)
    3f9c:	ca26                	c.swsp	s1,20(sp)
    3f9e:	c64e                	c.swsp	s3,12(sp)
    3fa0:	84090783          	lb	a5,-1984(s2) # 80140840 <_DATA_LMA_START+0x601288a8>
    3fa4:	0817a7db          	bfoz	a5,a5,2,1
    3fa8:	cf81                	c.beqz	a5,3fc0 <irq_scan_rx_primary_channel+0x30>
    3faa:	4785                	c.li	a5,1
    3fac:	a2f91023          	sh	a5,-1504(s2)
    3fb0:	40f2                	c.lwsp	ra,28(sp)
    3fb2:	4462                	c.lwsp	s0,24(sp)
    3fb4:	44d2                	c.lwsp	s1,20(sp)
    3fb6:	4942                	c.lwsp	s2,16(sp)
    3fb8:	49b2                	c.lwsp	s3,12(sp)
    3fba:	4501                	c.li	a0,0
    3fbc:	6105                	c.addi16sp	sp,32
    3fbe:	8082                	c.jr	ra
    3fc0:	00000437          	lui	s0,0x0
    3fc4:	73c40413          	addi	s0,s0,1852 # 73c <blt_conn_phy>
    3fc8:	4ee44683          	lbu	a3,1262(s0)
    3fcc:	4f042483          	lw	s1,1264(s0)
    3fd0:	00168713          	addi	a4,a3,1
    3fd4:	0ff77713          	andi	a4,a4,255
    3fd8:	188727db          	bfoz	a5,a4,6,8
    3fdc:	97a6                	c.add	a5,s1
    3fde:	4fc44583          	lbu	a1,1276(s0)
    3fe2:	1886a6db          	bfoz	a3,a3,6,8
    3fe6:	853e                	c.mv	a0,a5
    3fe8:	00d484b3          	add	s1,s1,a3
    3fec:	4ee40723          	sb	a4,1262(s0)
    3ff0:	50f42023          	sw	a5,1280(s0)
    3ff4:	f0cfd0ef          	jal	ra,1700 <ble_rf_set_rx_dma>
    3ff8:	00100793          	li	a5,1
    3ffc:	a2f91023          	sh	a5,-1504(s2)
    4000:	00048123          	sb	zero,2(s1)
    4004:	83190783          	lb	a5,-1999(s2)
    4008:	0054c703          	lbu	a4,5(s1)
    400c:	0ff7f793          	andi	a5,a5,255
    4010:	0ae7ec63          	bltu	a5,a4,40c8 <irq_scan_rx_primary_channel+0x138>
    4014:	00e487b3          	add	a5,s1,a4
    4018:	01078683          	lb	a3,16(a5)
    401c:	4ee44783          	lbu	a5,1262(s0)
    4020:	0206f85b          	bbc	a3,0,4050 <irq_scan_rx_primary_channel+0xc0>
    4024:	4fc44583          	lbu	a1,1276(s0)
    4028:	17fd                	c.addi	a5,-1
    402a:	8526                	c.mv	a0,s1
    402c:	4ef40723          	sb	a5,1262(s0)
    4030:	50942023          	sw	s1,1280(s0)
    4034:	eccfd0ef          	jal	ra,1700 <ble_rf_set_rx_dma>
    4038:	4785                	c.li	a5,1
    403a:	00f48023          	sb	a5,0(s1)
    403e:	40f2                	c.lwsp	ra,28(sp)
    4040:	4462                	c.lwsp	s0,24(sp)
    4042:	44d2                	c.lwsp	s1,20(sp)
    4044:	4942                	c.lwsp	s2,16(sp)
    4046:	49b2                	c.lwsp	s3,12(sp)
    4048:	4501                	c.li	a0,0
    404a:	6105                	c.addi16sp	sp,32
    404c:	00008067          	ret
    4050:	1769                	c.addi	a4,-6
    4052:	0ff77713          	andi	a4,a4,255
    4056:	46fd                	c.li	a3,31
    4058:	fce6e6e3          	bltu	a3,a4,4024 <irq_scan_rx_primary_channel+0x94>
    405c:	4ef40703          	lb	a4,1263(s0)
    4060:	4ec44683          	lbu	a3,1260(s0)
    4064:	40e78733          	sub	a4,a5,a4
    4068:	03f77713          	andi	a4,a4,63
    406c:	fad77ce3          	bgeu	a4,a3,4024 <irq_scan_rx_primary_channel+0x94>
    4070:	00448703          	lb	a4,4(s1)
    4074:	4905                	c.li	s2,1
    4076:	8b3d                	c.andi	a4,15
    4078:	00e91933          	sll	s2,s2,a4
    407c:	04797713          	andi	a4,s2,71
    4080:	d355                	c.beqz	a4,4024 <irq_scan_rx_primary_channel+0x94>
    4082:	0044c503          	lbu	a0,4(s1)
    4086:	4f644783          	lbu	a5,1270(s0)
    408a:	00755993          	srli	s3,a0,0x7
    408e:	e3a9                	c.bnez	a5,40d0 <irq_scan_rx_primary_channel+0x140>
    4090:	ba29645b          	bnec	s2,2,4038 <irq_scan_rx_primary_channel+0xa8>
    4094:	9c5f978b          	addigp	a5,-1596 # 801c4 <pkt_scan_req>
    4098:	0047a703          	lw	a4,4(a5)
    409c:	1867275b          	bfoz	a4,a4,6,6
    40a0:	02e99463          	bne	s3,a4,40c8 <irq_scan_rx_primary_channel+0x138>
    40a4:	00c4d683          	lhu	a3,12(s1)
    40a8:	0067d703          	lhu	a4,6(a5)
    40ac:	00e69e63          	bne	a3,a4,40c8 <irq_scan_rx_primary_channel+0x138>
    40b0:	00e4d683          	lhu	a3,14(s1)
    40b4:	0087d703          	lhu	a4,8(a5)
    40b8:	00e69863          	bne	a3,a4,40c8 <irq_scan_rx_primary_channel+0x138>
    40bc:	0104d703          	lhu	a4,16(s1)
    40c0:	00a7d783          	lhu	a5,10(a5)
    40c4:	f6f70ae3          	beq	a4,a5,4038 <irq_scan_rx_primary_channel+0xa8>
    40c8:	4ee44783          	lbu	a5,1262(s0)
    40cc:	f59ff06f          	j	4024 <irq_scan_rx_primary_channel+0x94>
    40d0:	00648593          	addi	a1,s1,6
    40d4:	1865255b          	bfoz	a0,a0,6,6
    40d8:	889ff0ef          	jal	ra,3960 <ll_searchAddr_in_WhiteList_and_ResolvingList>
    40dc:	f955                	c.bnez	a0,4090 <irq_scan_rx_primary_channel+0x100>
    40de:	4ee44783          	lbu	a5,1262(s0)
    40e2:	b789                	c.j	4024 <irq_scan_rx_primary_channel+0x94>

000040e4 <irq_blc_ll_rx>:
    40e4:	1141                	c.addi	sp,-16
    40e6:	c422                	c.swsp	s0,8(sp)
    40e8:	00000437          	lui	s0,0x0
    40ec:	73c40413          	addi	s0,s0,1852 # 73c <blt_conn_phy>
    40f0:	c606                	c.swsp	ra,12(sp)
    40f2:	c226                	c.swsp	s1,4(sp)
    40f4:	51244703          	lbu	a4,1298(s0)
    40f8:	51842483          	lw	s1,1304(s0)
    40fc:	51144603          	lbu	a2,1297(s0)
    4100:	50c45683          	lhu	a3,1292(s0)
    4104:	00170793          	addi	a5,a4,1
    4108:	0ff7f793          	andi	a5,a5,255
    410c:	00c7f5b3          	and	a1,a5,a2
    4110:	8526                	c.mv	a0,s1
    4112:	c4d5957f          	maddr32	a0,a1,a3
    4116:	8f71                	c.and	a4,a2
    4118:	0ea42c23          	sw	a0,248(s0)
    411c:	0f842503          	lw	a0,248(s0)
    4120:	0eb40583          	lb	a1,235(s0)
    4124:	c4d714ff          	maddr32	s1,a4,a3
    4128:	0ff5f593          	andi	a1,a1,255
    412c:	50f40923          	sb	a5,1298(s0)
    4130:	dd0fd0ef          	jal	ra,1700 <ble_rf_set_rx_dma>
    4134:	801417b7          	lui	a5,0x80141
    4138:	00100713          	li	a4,1
    413c:	a2e79023          	sh	a4,-1504(a5) # 80140a20 <_DATA_LMA_START+0x60128a88>
    4140:	801407b7          	lui	a5,0x80140
    4144:	2007a583          	lw	a1,512(a5) # 80140200 <_DATA_LMA_START+0x60128268>
    4148:	00048123          	sb	zero,2(s1)
    414c:	0e640783          	lb	a5,230(s0)
    4150:	0ff7f793          	andi	a5,a5,255
    4154:	1057d65b          	beqc	a5,5,4260 <irq_blc_ll_rx+0x17c>
    4158:	801417b7          	lui	a5,0x80141
    415c:	83178783          	lb	a5,-1999(a5) # 80140831 <_DATA_LMA_START+0x60128899>
    4160:	0054c703          	lbu	a4,5(s1)
    4164:	0ff7f793          	andi	a5,a5,255
    4168:	00e7e863          	bltu	a5,a4,4178 <irq_blc_ll_rx+0x94>
    416c:	00970733          	add	a4,a4,s1
    4170:	01070783          	lb	a5,16(a4)
    4174:	0207fc5b          	bbc	a5,0,41ac <irq_blc_ll_rx+0xc8>
    4178:	1c040783          	lb	a5,448(s0)
    417c:	00178793          	addi	a5,a5,1
    4180:	1cf40023          	sb	a5,448(s0)
    4184:	51240783          	lb	a5,1298(s0)
    4188:	0e942c23          	sw	s1,248(s0)
    418c:	17fd                	c.addi	a5,-1
    418e:	50f40923          	sb	a5,1298(s0)
    4192:	0f842503          	lw	a0,248(s0)
    4196:	0eb40583          	lb	a1,235(s0)
    419a:	4422                	c.lwsp	s0,8(sp)
    419c:	40b2                	c.lwsp	ra,12(sp)
    419e:	4492                	c.lwsp	s1,4(sp)
    41a0:	0ff5f593          	andi	a1,a1,255
    41a4:	01010113          	addi	sp,sp,16
    41a8:	d58fd06f          	j	1700 <ble_rf_set_rx_dma>
    41ac:	0e540783          	lb	a5,229(s0)
    41b0:	00000513          	li	a0,0
    41b4:	0ff7f793          	andi	a5,a5,255
    41b8:	0647d45b          	beqc	a5,4,4220 <irq_blc_ll_rx+0x13c>
    41bc:	0e540783          	lb	a5,229(s0)
    41c0:	0ff7f793          	andi	a5,a5,255
    41c4:	0487ee5b          	bnec	a5,8,4220 <irq_blc_ll_rx+0x13c>
    41c8:	0e640783          	lb	a5,230(s0)
    41cc:	0ff7f793          	andi	a5,a5,255
    41d0:	0057d85b          	beqc	a5,5,41e0 <irq_blc_ll_rx+0xfc>
    41d4:	0e640783          	lb	a5,230(s0)
    41d8:	0ff7f793          	andi	a5,a5,255
    41dc:	0437e25b          	bnec	a5,3,4220 <irq_blc_ll_rx+0x13c>
    41e0:	51c42703          	lw	a4,1308(s0)
    41e4:	4501                	c.li	a0,0
    41e6:	cf0d                	c.beqz	a4,4220 <irq_blc_ll_rx+0x13c>
    41e8:	0dc40783          	lb	a5,220(s0)
    41ec:	0ff7f793          	andi	a5,a5,255
    41f0:	0c078463          	beqz	a5,42b8 <irq_blc_ll_rx+0x1d4>
    41f4:	0dc40783          	lb	a5,220(s0)
    41f8:	1c044683          	lbu	a3,448(s0)
    41fc:	0ff7f793          	andi	a5,a5,255
    4200:	0af6ec63          	bltu	a3,a5,42b8 <irq_blc_ll_rx+0x1d4>
    4204:	1a442783          	lw	a5,420(s0)
    4208:	00100693          	li	a3,1
    420c:	0407e793          	ori	a5,a5,64
    4210:	0cd40ea3          	sb	a3,221(s0)
    4214:	1af42223          	sw	a5,420(s0)
    4218:	8526                	c.mv	a0,s1
    421a:	9702                	c.jalr	a4
    421c:	0ff57513          	andi	a0,a0,255
    4220:	0c040ea3          	sb	zero,221(s0)
    4224:	0d840703          	lb	a4,216(s0)
    4228:	0054c783          	lbu	a5,5(s1)
    422c:	0ff77713          	andi	a4,a4,255
    4230:	97a6                	c.add	a5,s1
    4232:	00f7c683          	lbu	a3,15(a5)
    4236:	cf39                	c.beqz	a4,4294 <irq_blc_ll_rx+0x1b0>
    4238:	0d840783          	lb	a5,216(s0)
    423c:	0ff7f793          	andi	a5,a5,255
    4240:	97b6                	c.add	a5,a3
    4242:	8385                	c.srli	a5,0x1
    4244:	0cf40c23          	sb	a5,216(s0)
    4248:	1c040783          	lb	a5,448(s0)
    424c:	0785                	c.addi	a5,1
    424e:	1cf40023          	sb	a5,448(s0)
    4252:	d90d                	c.beqz	a0,4184 <irq_blc_ll_rx+0xa0>
    4254:	40b2                	c.lwsp	ra,12(sp)
    4256:	4422                	c.lwsp	s0,8(sp)
    4258:	4492                	c.lwsp	s1,4(sp)
    425a:	0141                	c.addi	sp,16
    425c:	00008067          	ret
    4260:	00144783          	lbu	a5,1(s0)
    4264:	0437d65b          	beqc	a5,3,42b0 <irq_blc_ll_rx+0x1cc>
    4268:	1bb44783          	lbu	a5,443(s0)
    426c:	cb85                	c.beqz	a5,429c <irq_blc_ll_rx+0x1b8>
    426e:	80100737          	lui	a4,0x80100
    4272:	50070683          	lb	a3,1280(a4) # 80100500 <_DATA_LMA_START+0x600e8568>
    4276:	50170703          	lb	a4,1281(a4)
    427a:	0ff6f693          	andi	a3,a3,255
    427e:	0ff77713          	andi	a4,a4,255
    4282:	00e68d63          	beq	a3,a4,429c <irq_blc_ll_rx+0x1b8>
    4286:	6705                	c.lui	a4,0x1
    4288:	83470713          	addi	a4,a4,-1996 # 834 <bltParam+0x24>
    428c:	0ef707db          	lea.d	a5,a4,a5
    4290:	0792                	c.slli	a5,0x4
    4292:	a809                	c.j	42a4 <irq_blc_ll_rx+0x1c0>
    4294:	0cd40c23          	sb	a3,216(s0)
    4298:	fb1ff06f          	j	4248 <irq_blc_ll_rx+0x164>
    429c:	000087b7          	lui	a5,0x8
    42a0:	34078793          	addi	a5,a5,832 # 8340 <_RAMCODE_VMA_END+0x1f3e>
    42a4:	97ae                	c.add	a5,a1
    42a6:	80140737          	lui	a4,0x80140
    42aa:	20f72223          	sw	a5,516(a4) # 80140204 <_DATA_LMA_START+0x6012826c>
    42ae:	b56d                	c.j	4158 <irq_blc_ll_rx+0x74>
    42b0:	67d5                	c.lui	a5,0x15
    42b2:	b4078793          	addi	a5,a5,-1216 # 14b40 <_RAMCODE_VMA_END+0xe73e>
    42b6:	b7fd                	c.j	42a4 <irq_blc_ll_rx+0x1c0>
    42b8:	51240783          	lb	a5,1298(s0)
    42bc:	51340603          	lb	a2,1299(s0)
    42c0:	51044683          	lbu	a3,1296(s0)
    42c4:	8f91                	c.sub	a5,a2
    42c6:	03f7f793          	andi	a5,a5,63
    42ca:	f4d7e7e3          	bltu	a5,a3,4218 <irq_blc_ll_rx+0x134>
    42ce:	bf1d                	c.j	4204 <irq_blc_ll_rx+0x120>

000042d0 <blt_setScan_enter_manaul_rx>:
    42d0:	1141                	c.addi	sp,-16
    42d2:	c422                	c.swsp	s0,8(sp)
    42d4:	00000437          	lui	s0,0x0
    42d8:	73c40413          	addi	s0,s0,1852 # 73c <blt_conn_phy>
    42dc:	c606                	c.swsp	ra,12(sp)
    42de:	c226                	c.swsp	s1,4(sp)
    42e0:	4709                	c.li	a4,2
    42e2:	52042783          	lw	a5,1312(s0)
    42e6:	0ee40323          	sb	a4,230(s0)
    42ea:	cb89                	c.beqz	a5,42fc <blt_setScan_enter_manaul_rx+0x2c>
    42ec:	01044703          	lbu	a4,16(s0)
    42f0:	0017565b          	beqc	a4,1,42fc <blt_setScan_enter_manaul_rx+0x2c>
    42f4:	4589                	c.li	a1,2
    42f6:	4505                	c.li	a0,1
    42f8:	000780e7          	jalr	a5
    42fc:	801406b7          	lui	a3,0x80140
    4300:	50442783          	lw	a5,1284(s0)
    4304:	2006a703          	lw	a4,512(a3) # 80140200 <_DATA_LMA_START+0x60128268>
    4308:	50842603          	lw	a2,1288(s0)
    430c:	8f1d                	c.sub	a4,a5
    430e:	4fd44783          	lbu	a5,1277(s0)
    4312:	00e67f63          	bgeu	a2,a4,4330 <blt_setScan_enter_manaul_rx+0x60>
    4316:	2006a703          	lw	a4,512(a3)
    431a:	0785                	c.addi	a5,1
    431c:	50e42223          	sw	a4,1284(s0)
    4320:	0ff7f793          	andi	a5,a5,255
    4324:	4709                	c.li	a4,2
    4326:	06f77b63          	bgeu	a4,a5,439c <blt_setScan_enter_manaul_rx+0xcc>
    432a:	4781                	c.li	a5,0
    432c:	4e040ea3          	sb	zero,1277(s0)
    4330:	008787b3          	add	a5,a5,s0
    4334:	801414b7          	lui	s1,0x80141
    4338:	5247c503          	lbu	a0,1316(a5)
    433c:	02900793          	li	a5,41
    4340:	a0f48b23          	sb	a5,-1514(s1) # 80140a16 <_DATA_LMA_START+0x60128a7e>
    4344:	f8000793          	li	a5,-128
    4348:	82f48423          	sb	a5,-2008(s1)
    434c:	1c05355b          	bfos	a0,a0,7,0
    4350:	04500793          	li	a5,69
    4354:	a0f48123          	sb	a5,-1534(s1)
    4358:	990fd0ef          	jal	ra,14e8 <rf_set_ble_channel>
    435c:	d6be97b7          	lui	a5,0xd6be9
    4360:	98e78793          	addi	a5,a5,-1650 # d6be898e <_DATA_LMA_START+0xb6bd09f6>
    4364:	80f4a423          	sw	a5,-2040(s1)
    4368:	005557b7          	lui	a5,0x555
    436c:	4fc44583          	lbu	a1,1276(s0)
    4370:	50042503          	lw	a0,1280(s0)
    4374:	55578793          	addi	a5,a5,1365 # 555555 <FLASH_SIZE+0x455555>
    4378:	82f4a223          	sw	a5,-2012(s1)
    437c:	02500793          	li	a5,37
    4380:	82f488a3          	sb	a5,-1999(s1)
    4384:	b7cfd0ef          	jal	ra,1700 <ble_rf_set_rx_dma>
    4388:	57fd                	c.li	a5,-1
    438a:	a2f49023          	sh	a5,-1504(s1)
    438e:	4422                	c.lwsp	s0,8(sp)
    4390:	40b2                	c.lwsp	ra,12(sp)
    4392:	4492                	c.lwsp	s1,4(sp)
    4394:	01010113          	addi	sp,sp,16
    4398:	b94ff06f          	j	372c <rf_set_rxmode>
    439c:	4ef40ea3          	sb	a5,1277(s0)
    43a0:	f91ff06f          	j	4330 <blt_setScan_enter_manaul_rx+0x60>

000043a4 <blt_ll_start_common>:
    43a4:	1141                	c.addi	sp,-16
    43a6:	c422                	c.swsp	s0,8(sp)
    43a8:	c606                	c.swsp	ra,12(sp)
    43aa:	c226                	c.swsp	s1,4(sp)
    43ac:	801417b7          	lui	a5,0x80141
    43b0:	47700713          	li	a4,1143
    43b4:	a0e79e23          	sh	a4,-1508(a5) # 80140a1c <_DATA_LMA_START+0x60128a84>
    43b8:	577d                	c.li	a4,-1
    43ba:	a2e79023          	sh	a4,-1504(a5)
    43be:	00a54783          	lbu	a5,10(a0)
    43c2:	00051223          	sh	zero,4(a0)
    43c6:	00050323          	sb	zero,6(a0)
    43ca:	842a                	c.mv	s0,a0
    43cc:	cba5                	c.beqz	a5,443c <blt_ll_start_common+0x98>
    43ce:	000004b7          	lui	s1,0x0
    43d2:	73c48493          	addi	s1,s1,1852 # 73c <blt_conn_phy>
    43d6:	01a55603          	lhu	a2,26(a0)
    43da:	01c55583          	lhu	a1,28(a0)
    43de:	5284a783          	lw	a5,1320(s1)
    43e2:	0539                	c.addi	a0,14
    43e4:	000780e7          	jalr	a5
    43e8:	00a40623          	sb	a0,12(s0)
    43ec:	1c05355b          	bfos	a0,a0,7,0
    43f0:	8f8fd0ef          	jal	ra,14e8 <rf_set_ble_channel>
    43f4:	1a84d783          	lhu	a5,424(s1)
    43f8:	80141737          	lui	a4,0x80141
    43fc:	0791                	c.addi	a5,4
    43fe:	0ff7f793          	andi	a5,a5,255
    4402:	82f708a3          	sb	a5,-1999(a4) # 80140831 <_DATA_LMA_START+0x60128899>
    4406:	52c4a783          	lw	a5,1324(s1)
    440a:	c399                	c.beqz	a5,4410 <blt_ll_start_common+0x6c>
    440c:	000780e7          	jalr	a5
    4410:	541c                	c.lw	a5,40(s0)
    4412:	80141737          	lui	a4,0x80141
    4416:	80f72423          	sw	a5,-2040(a4) # 80140808 <_DATA_LMA_START+0x60128870>
    441a:	c2570783          	lb	a5,-987(a4)
    441e:	4501                	c.li	a0,0
    4420:	0ff7f793          	andi	a5,a5,255
    4424:	0017e793          	ori	a5,a5,1
    4428:	c2f702a3          	sb	a5,-987(a4)
    442c:	545c                	c.lw	a5,44(s0)
    442e:	82f72223          	sw	a5,-2012(a4)
    4432:	40b2                	c.lwsp	ra,12(sp)
    4434:	4422                	c.lwsp	s0,8(sp)
    4436:	4492                	c.lwsp	s1,4(sp)
    4438:	0141                	c.addi	sp,16
    443a:	8082                	c.jr	ra
    443c:	00b54783          	lbu	a5,11(a0)
    4440:	000004b7          	lui	s1,0x0
    4444:	97aa                	c.add	a5,a0
    4446:	0307c503          	lbu	a0,48(a5)
    444a:	73c48493          	addi	s1,s1,1852 # 73c <blt_conn_phy>
    444e:	00a40623          	sb	a0,12(s0)
    4452:	bf69                	c.j	43ec <blt_ll_start_common+0x48>

00004454 <cpu_sleep_wakeup_32k_rc_ram>:
    4454:	7179                	c.addi16sp	sp,-48
    4456:	d422                	c.swsp	s0,40(sp)
    4458:	d226                	c.swsp	s1,36(sp)
    445a:	ce4e                	c.swsp	s3,28(sp)
    445c:	cc52                	c.swsp	s4,24(sp)
    445e:	ca56                	c.swsp	s5,20(sp)
    4460:	c266                	c.swsp	s9,4(sp)
    4462:	c06a                	c.swsp	s10,0(sp)
    4464:	d606                	c.swsp	ra,44(sp)
    4466:	8d2e                	c.mv	s10,a1
    4468:	d04a                	c.swsp	s2,32(sp)
    446a:	c85a                	c.swsp	s6,16(sp)
    446c:	c65e                	c.swsp	s7,12(sp)
    446e:	c462                	c.swsp	s8,8(sp)
    4470:	89aa                	c.mv	s3,a0
    4472:	8ab2                	c.mv	s5,a2
    4474:	b40ff0ef          	jal	ra,37b4 <pm_get_32k_rc_calib>
    4478:	801407b7          	lui	a5,0x80140
    447c:	00000437          	lui	s0,0x0
    4480:	73c40413          	addi	s0,s0,1852 # 73c <blt_conn_phy>
    4484:	2007a483          	lw	s1,512(a5) # 80140200 <_DATA_LMA_START+0x60128268>
    4488:	020d7a13          	andi	s4,s10,32
    448c:	34a42023          	sw	a0,832(s0)
    4490:	00a00cb3          	add	s9,zero,a0
    4494:	020a0063          	beqz	s4,44b4 <cpu_sleep_wakeup_32k_rc_ram+0x60>
    4498:	409a84b3          	sub	s1,s5,s1
    449c:	e0000737          	lui	a4,0xe0000
    44a0:	34976a63          	bltu	a4,s1,47f4 <cpu_sleep_wakeup_32k_rc_ram+0x3a0>
    44a4:	9e9f970b          	addigp	a4,-1560 # 801e8 <g_pm_early_wakeup_time_us>
    44a8:	00671703          	lh	a4,6(a4) # e0000006 <_DATA_LMA_START+0xbffe806e>
    44ac:	1137275b          	bfoz	a4,a4,4,19
    44b0:	34e4ea63          	bltu	s1,a4,4804 <cpu_sleep_wakeup_32k_rc_ram+0x3b0>
    44b4:	300024f3          	csrr	s1,mstatus
    44b8:	88a1                	c.andi	s1,8
    44ba:	e88d                	c.bnez	s1,44ec <cpu_sleep_wakeup_32k_rc_ram+0x98>
    44bc:	53042783          	lw	a5,1328(s0)
    44c0:	cb95                	c.beqz	a5,44f4 <cpu_sleep_wakeup_32k_rc_ram+0xa0>
    44c2:	9782                	c.jalr	a5
    44c4:	e905                	c.bnez	a0,44f4 <cpu_sleep_wakeup_32k_rc_ram+0xa0>
    44c6:	4521                	c.li	a0,8
    44c8:	00048463          	beqz	s1,44d0 <cpu_sleep_wakeup_32k_rc_ram+0x7c>
    44cc:	3004a4f3          	csrrs	s1,mstatus,s1
    44d0:	50b2                	c.lwsp	ra,44(sp)
    44d2:	5422                	c.lwsp	s0,40(sp)
    44d4:	5492                	c.lwsp	s1,36(sp)
    44d6:	5902                	c.lwsp	s2,32(sp)
    44d8:	49f2                	c.lwsp	s3,28(sp)
    44da:	4a62                	c.lwsp	s4,24(sp)
    44dc:	4ad2                	c.lwsp	s5,20(sp)
    44de:	4b42                	c.lwsp	s6,16(sp)
    44e0:	4bb2                	c.lwsp	s7,12(sp)
    44e2:	4c22                	c.lwsp	s8,8(sp)
    44e4:	4c92                	c.lwsp	s9,4(sp)
    44e6:	4d02                	c.lwsp	s10,0(sp)
    44e8:	6145                	c.addi16sp	sp,48
    44ea:	8082                	c.jr	ra
    44ec:	300477f3          	csrrci	a5,mstatus,8
    44f0:	fcdff06f          	j	44bc <cpu_sleep_wakeup_32k_rc_ram+0x68>
    44f4:	80140937          	lui	s2,0x80140
    44f8:	1e890b03          	lb	s6,488(s2) # 801401e8 <_DATA_LMA_START+0x60128250>
    44fc:	00f9fc13          	andi	s8,s3,15
    4500:	08fb7793          	andi	a5,s6,143
    4504:	1ef90423          	sb	a5,488(s2)
    4508:	1d890b83          	lb	s7,472(s2)
    450c:	0f8bf793          	andi	a5,s7,248
    4510:	1cf90c23          	sb	a5,472(s2)
    4514:	20890783          	lb	a5,520(s2)
    4518:	0fe7f793          	andi	a5,a5,254
    451c:	20f90423          	sb	a5,520(s2)
    4520:	00100793          	li	a5,1
    4524:	20f90c23          	sb	a5,536(s2)
    4528:	20a90783          	lb	a5,522(s2)
    452c:	0f77f793          	andi	a5,a5,247
    4530:	20f90523          	sb	a5,522(s2)
    4534:	d88fd0ef          	jal	ra,1abc <clock_get_32k_tick>
    4538:	4789                	c.li	a5,2
    453a:	20f905a3          	sb	a5,523(s2)
    453e:	20092783          	lw	a5,512(s2)
    4542:	52a42a23          	sw	a0,1332(s0)
    4546:	85be                	c.mv	a1,a5
    4548:	52f42c23          	sw	a5,1336(s0)
    454c:	ab0ff0ef          	jal	ra,37fc <pm_update_32k_rc_sleep_tick>
    4550:	0ffd7593          	andi	a1,s10,255
    4554:	04b00513          	li	a0,75
    4558:	d94fd0ef          	jal	ra,1aec <analog_write_reg8>
    455c:	01f00593          	li	a1,31
    4560:	06400513          	li	a0,100
    4564:	d88fd0ef          	jal	ra,1aec <analog_write_reg8>
    4568:	0ff9f593          	andi	a1,s3,255
    456c:	07e00513          	li	a0,126
    4570:	d7cfd0ef          	jal	ra,1aec <analog_write_reg8>
    4574:	040d7793          	andi	a5,s10,64
    4578:	1c0c1263          	bnez	s8,473c <cpu_sleep_wakeup_32k_rc_ram+0x2e8>
    457c:	2f09dadb          	beqc	s3,48,4870 <cpu_sleep_wakeup_32k_rc_ram+0x41c>
    4580:	32078663          	beqz	a5,48ac <cpu_sleep_wakeup_32k_rc_ram+0x458>
    4584:	06000593          	li	a1,96
    4588:	04d00513          	li	a0,77
    458c:	d60fd0ef          	jal	ra,1aec <analog_write_reg8>
    4590:	00100593          	li	a1,1
    4594:	07f00513          	li	a0,127
    4598:	d54fd0ef          	jal	ra,1aec <analog_write_reg8>
    459c:	9e9f992b          	lhgp	s2,-1560 # 801e8 <g_pm_early_wakeup_time_us>
    45a0:	3c09295b          	bfoz	s2,s2,15,0
    45a4:	00491913          	slli	s2,s2,0x4
    45a8:	0e0d7d13          	andi	s10,s10,224
    45ac:	412a8933          	sub	s2,s5,s2
    45b0:	1c0d0263          	beqz	s10,4774 <cpu_sleep_wakeup_32k_rc_ram+0x320>
    45b4:	0ee00593          	li	a1,238
    45b8:	04c00513          	li	a0,76
    45bc:	d30fd0ef          	jal	ra,1aec <analog_write_reg8>
    45c0:	1d09d2db          	beqc	s3,48,4784 <cpu_sleep_wakeup_32k_rc_ram+0x330>
    45c4:	9f1f978b          	addigp	a5,-1552 # 801f0 <g_pm_r_delay_cycle>
    45c8:	00279583          	lh	a1,2(a5)
    45cc:	04000513          	li	a0,64
    45d0:	0ff5f593          	andi	a1,a1,255
    45d4:	d18fd0ef          	jal	ra,1aec <analog_write_reg8>
    45d8:	31442783          	lw	a5,788(s0)
    45dc:	40f907b3          	sub	a5,s2,a5
    45e0:	1c0a0063          	beqz	s4,47a0 <cpu_sleep_wakeup_32k_rc_ram+0x34c>
    45e4:	0ff00737          	lui	a4,0xff00
    45e8:	26f77863          	bgeu	a4,a5,4858 <cpu_sleep_wakeup_32k_rc_ram+0x404>
    45ec:	00100713          	li	a4,1
    45f0:	34e40223          	sb	a4,836(s0)
    45f4:	34042683          	lw	a3,832(s0)
    45f8:	31842583          	lw	a1,792(s0)
    45fc:	02d7d533          	divu	a0,a5,a3
    4600:	53442703          	lw	a4,1332(s0)
    4604:	40000637          	lui	a2,0x40000
    4608:	00370793          	addi	a5,a4,3 # ff00003 <FLASH_SIZE+0xfe00003>
    460c:	0512                	c.slli	a0,0x4
    460e:	952e                	c.add	a0,a1
    4610:	8f89                	c.sub	a5,a0
    4612:	02c7f163          	bgeu	a5,a2,4634 <cpu_sleep_wakeup_32k_rc_ram+0x1e0>
    4616:	53842783          	lw	a5,1336(s0)
    461a:	30e42c23          	sw	a4,792(s0)
    461e:	0017e793          	ori	a5,a5,1
    4622:	40f90533          	sub	a0,s2,a5
    4626:	02d55533          	divu	a0,a0,a3
    462a:	30f42a23          	sw	a5,788(s0)
    462e:	0512                	c.slli	a0,0x4
    4630:	00e50533          	add	a0,a0,a4
    4634:	c28fd0ef          	jal	ra,1a5c <clock_set_32k_tick>
    4638:	06400513          	li	a0,100
    463c:	df0fd0ef          	jal	ra,1c2c <analog_read_reg8>
    4640:	01f57513          	andi	a0,a0,31
    4644:	00051c63          	bnez	a0,465c <cpu_sleep_wakeup_32k_rc_ram+0x208>
    4648:	240c1a63          	bnez	s8,489c <cpu_sleep_wakeup_32k_rc_ram+0x448>
    464c:	cdcff0ef          	jal	ra,3b28 <pm_sleep_start>
    4650:	00100593          	li	a1,1
    4654:	07f00513          	li	a0,127
    4658:	c94fd0ef          	jal	ra,1aec <analog_write_reg8>
    465c:	0109e8db          	bnec	s3,48,466c <cpu_sleep_wakeup_32k_rc_ram+0x218>
    4660:	801407b7          	lui	a5,0x80140
    4664:	02000713          	li	a4,32
    4668:	1ee787a3          	sb	a4,495(a5) # 801401ef <_DATA_LMA_START+0x60128257>
    466c:	801407b7          	lui	a5,0x80140
    4670:	20878703          	lb	a4,520(a5) # 80140208 <_DATA_LMA_START+0x60128270>
    4674:	0ff77713          	andi	a4,a4,255
    4678:	00176713          	ori	a4,a4,1
    467c:	20e78423          	sb	a4,520(a5)
    4680:	00200713          	li	a4,2
    4684:	20e78c23          	sb	a4,536(a5)
    4688:	20a78703          	lb	a4,522(a5)
    468c:	0ff77713          	andi	a4,a4,255
    4690:	00c76713          	ori	a4,a4,12
    4694:	20e78523          	sb	a4,522(a5)
    4698:	c24fd0ef          	jal	ra,1abc <clock_get_32k_tick>
    469c:	34444783          	lbu	a5,836(s0)
    46a0:	0505                	c.addi	a0,1
    46a2:	18078b63          	beqz	a5,4838 <cpu_sleep_wakeup_32k_rc_ram+0x3e4>
    46a6:	53442703          	lw	a4,1332(s0)
    46aa:	53842783          	lw	a5,1336(s0)
    46ae:	34042683          	lw	a3,832(s0)
    46b2:	40e50733          	sub	a4,a0,a4
    46b6:	8311                	c.srli	a4,0x4
    46b8:	c4d717ff          	maddr32	a5,a4,a3
    46bc:	52f42c23          	sw	a5,1336(s0)
    46c0:	31842683          	lw	a3,792(s0)
    46c4:	00178793          	addi	a5,a5,1
    46c8:	40d506b3          	sub	a3,a0,a3
    46cc:	32d42623          	sw	a3,812(s0)
    46d0:	32a42823          	sw	a0,816(s0)
    46d4:	801406b7          	lui	a3,0x80140
    46d8:	80140737          	lui	a4,0x80140
    46dc:	20f6a023          	sw	a5,512(a3) # 80140200 <_DATA_LMA_START+0x60128268>
    46e0:	20b70783          	lb	a5,523(a4) # 8014020b <_DATA_LMA_START+0x60128273>
    46e4:	be77fe5b          	bbc	a5,7,46e0 <cpu_sleep_wakeup_32k_rc_ram+0x28c>
    46e8:	06400513          	li	a0,100
    46ec:	20070c23          	sb	zero,536(a4)
    46f0:	d3cfd0ef          	jal	ra,1c2c <analog_read_reg8>
    46f4:	00a00733          	add	a4,zero,a0
