
FrL_Network_Master.elf:     file format elf32-littleriscv
FrL_Network_Master.elf
architecture: riscv:rv32, flags 0x00000112:
EXEC_P, HAS_SYMS, D_PAGED
start address 0x20000000

Program Header:
    LOAD off    0x00001000 vaddr 0x20000000 paddr 0x20000000 align 2**12
         filesz 0x0000018a memsz 0x0000018a flags r-x
    LOAD off    0x00002000 vaddr 0x00000000 paddr 0x20000190 align 2**12
         filesz 0x00000154 memsz 0x00000178 flags rwx
    LOAD off    0x00002178 vaddr 0x00000178 paddr 0x200002e8 align 2**12
         filesz 0x0000100c memsz 0x0000100c flags rw-
    LOAD off    0x00003200 vaddr 0x00001200 paddr 0x200012f8 align 2**12
         filesz 0x00004102 memsz 0x00004102 flags r-x
    LOAD off    0x00007400 vaddr 0x20005400 paddr 0x20005400 align 2**12
         filesz 0x000044d8 memsz 0x000044d8 flags r-x
    LOAD off    0x0000c000 vaddr 0x00080000 paddr 0x200098d8 align 2**12
         filesz 0x0000004a memsz 0x000008a0 flags rw-
0x70000000 off    0x0003bf69 vaddr 0x00000000 paddr 0x00000000 align 2**0
         filesz 0x0000003b memsz 0x00000000 flags r--

Sections:
Idx Name          Size      VMA       LMA       File off  Algn
  0 .vectors      0000018a  20000000  20000000  00001000  2**2
                  CONTENTS, ALLOC, LOAD, READONLY, CODE
  1 .retention_reset 00000154  00000000  20000190  00002000  2**2
                  CONTENTS, ALLOC, LOAD, READONLY, CODE
  2 .aes_data     00000020  00000158  200002e8  00002154  2**2
                  ALLOC
  3 .retention_data 0000100c  00000178  200002e8  00002178  2**2
                  CONTENTS, ALLOC, LOAD, DATA
  4 .ram_code     00004102  00001200  200012f8  00003200  2**8
                  CONTENTS, ALLOC, LOAD, READONLY, CODE
  5 .text         00003bec  20005400  20005400  00007400  2**2
                  CONTENTS, ALLOC, LOAD, READONLY, CODE
  6 .rodata       000007d8  20008fec  20008fec  0000afec  2**2
                  CONTENTS, ALLOC, LOAD, READONLY, DATA
  7 .eh_frame     000000f8  200097e0  200097e0  0000b7e0  2**2
                  CONTENTS, ALLOC, LOAD, READONLY, DATA
  8 .data         0000004a  00080000  200098d8  0000c000  2**2
                  CONTENTS, ALLOC, LOAD, DATA
  9 .sbss         00000024  00080050  20009928  0000c04a  2**2
                  ALLOC
 10 .bss          0000082c  00080074  2000994c  0000c04a  2**2
                  ALLOC
 11 .debug_info   000127f6  00000000  00000000  0000c04a  2**0
                  CONTENTS, READONLY, DEBUGGING
 12 .debug_abbrev 00000d14  00000000  00000000  0001e840  2**0
                  CONTENTS, READONLY, DEBUGGING
 13 .debug_loc    00008da4  00000000  00000000  0001f554  2**0
                  CONTENTS, READONLY, DEBUGGING
 14 .debug_aranges 000005a8  00000000  00000000  000282f8  2**3
                  CONTENTS, READONLY, DEBUGGING
 15 .debug_ranges 000028e0  00000000  00000000  000288a0  2**3
                  CONTENTS, READONLY, DEBUGGING
 16 .debug_line   00008c2b  00000000  00000000  0002b180  2**0
                  CONTENTS, READONLY, DEBUGGING
 17 .debug_str    00008187  00000000  00000000  00033dab  2**0
                  CONTENTS, READONLY, DEBUGGING
 18 .comment      00000037  00000000  00000000  0003bf32  2**0
                  CONTENTS, READONLY
 19 .riscv.attributes 0000003b  00000000  00000000  0003bf69  2**0
                  CONTENTS, READONLY
 20 .debug_frame  000017e4  00000000  00000000  0003bfa4  2**2
                  CONTENTS, READONLY, DEBUGGING
SYMBOL TABLE:
20000000 l    d  .vectors	00000000 .vectors
00000000 l    d  .retention_reset	00000000 .retention_reset
00000158 l    d  .aes_data	00000000 .aes_data
00000178 l    d  .retention_data	00000000 .retention_data
00001200 l    d  .ram_code	00000000 .ram_code
20005400 l    d  .text	00000000 .text
20008fec l    d  .rodata	00000000 .rodata
200097e0 l    d  .eh_frame	00000000 .eh_frame
00080000 l    d  .data	00000000 .data
00080050 l    d  .sbss	00000000 .sbss
00080074 l    d  .bss	00000000 .bss
00000000 l    d  .debug_info	00000000 .debug_info
00000000 l    d  .debug_abbrev	00000000 .debug_abbrev
00000000 l    d  .debug_loc	00000000 .debug_loc
00000000 l    d  .debug_aranges	00000000 .debug_aranges
00000000 l    d  .debug_ranges	00000000 .debug_ranges
00000000 l    d  .debug_line	00000000 .debug_line
00000000 l    d  .debug_str	00000000 .debug_str
00000000 l    d  .comment	00000000 .comment
00000000 l    d  .riscv.attributes	00000000 .riscv.attributes
00000000 l    d  .debug_frame	00000000 .debug_frame
00000000 l    df *ABS*	00000000 ./boot/B91/cstartup_B91.o
20000028 l       .vectors	00000000 _START
20000030 l       .vectors	00000000 _SWS_USB_DIS
2000008e l       .vectors	00000000 _RETENTION_RESET_INIT
200000a6 l       .vectors	00000000 _RETENTION_RESET_BEGIN
200000b8 l       .vectors	00000000 _RETENTION_DATA_INIT
200000cc l       .vectors	00000000 _RETENTION_DATA_INIT_BEGIN
200000de l       .vectors	00000000 _RAMCODE_INIT
200000f6 l       .vectors	00000000 _RAMCODE_INIT_BEGIN
20000108 l       .vectors	00000000 _DATA_INIT
20000120 l       .vectors	00000000 _DATA_INIT_BEGIN
20000132 l       .vectors	00000000 _ZERO_BSS
20000146 l       .vectors	00000000 _ZERO_BSS_BEGIN
20000152 l       .vectors	00000000 _ZERO_AES
20000166 l       .vectors	00000000 _ZERO_AES_BEGIN
20000172 l       .vectors	00000000 _FILL_STK
20000172 l       .vectors	00000000 _MAIN_FUNC
20000188 l       .vectors	00000000 _END
00000022 l       .retention_reset	00000000 _ISTART
0000002a l       .retention_reset	00000000 _ISWS_USB_DIS
00000088 l       .retention_reset	00000000 _WAKEUP_FLASH
000000a2 l       .retention_reset	00000000 _MSPI_WAIT
000000bc l       .retention_reset	00000000 _WAIT_EFUSE_LOAD_FINISH
000000c2 l       .retention_reset	00000000 _MULTI_ADDRESS_BEGIN
000000d2 l       .retention_reset	00000000 _IDATA_INIT
000000ea l       .retention_reset	00000000 _IDATA_INIT_BEGIN
000000fc l       .retention_reset	00000000 _IZERO_BSS
00000110 l       .retention_reset	00000000 _IZERO_BSS_BEGIN
0000011c l       .retention_reset	00000000 _IZERO_AES
00000130 l       .retention_reset	00000000 _IZERO_AES_BEGIN
0000013c l       .retention_reset	00000000 _IFILL_STK
0000013c l       .retention_reset	00000000 _IMAIN_FUNC
00000152 l       .retention_reset	00000000 _IEND
00000040 l       *ABS*	00000000 irqno
00000000 l    df *ABS*	00000000 
00001200 l     F .ram_code	00000034 rf_set_power_level_index.constprop.37
00001234 l     F .ram_code	00000048 ble_rf_set_tx_dma.constprop.17
0000127c l     F .ram_code	0000005c rf_start_fsm.constprop.16
000012d8 l     F .ram_code	00000010 smemset.constprop.12
000012e8 l     F .ram_code	00000018 smemcpy
00001300 l     F .ram_code	000001b4 aes_ccmBaseTran.isra.0.constprop.13
000014b4 l     F .ram_code	000001bc aes_ccmAuthTran.constprop.11
00001670 l     F .ram_code	000000d4 aes_ll_ccm_decryption.constprop.9
200054a0 l     F .text	00000014 blc_hci_send_event
200054b8 l     F .text	00000148 blt_leg_scan_mainloop_task
00001744 l     F .ram_code	0000007c blt_ll_searchAddr_in_WhiteList
000017c0 l     F .ram_code	0000018c blt_ll_channel_conn_update
0000194c l     F .ram_code	000000d0 bls_ll_setAdvEnable
00001a1c l     F .ram_code	00000024 irq_ll_system_timer
00001a40 l     F .ram_code	00000040 blt_event_callback_func
00001a80 l     F .ram_code	0000004c trng_rand
00001acc l     F .ram_code	00000040 rf_set_rxmode
00001b0c l     F .ram_code	00000048 pm_tim_recover_32k_rc
00001b54 l     F .ram_code	00000048 pm_get_32k_rc_calib
00001b9c l     F .ram_code	0000005c pm_update_32k_rc_sleep_tick
00001bf8 l     F .ram_code	00000138 rf_set_ble_channel
00001d30 l     F .ram_code	0000001c ble_rx_dma_config
00001d4c l     F .ram_code	0000001c ble_tx_dma_config
00001d68 l     F .ram_code	00000050 blc_ll_initBasicMCU
00001db8 l     F .ram_code	00000048 ble_rf_set_rx_dma
00001e00 l     F .ram_code	000000cc blt_setScan_enter_manaul_rx
00001ecc l     F .ram_code	000001e8 irq_blc_ll_rx
000020b4 l     F .ram_code	000001a0 irq_blt_sdk_handler
20005600 l     F .text	00000048 generateRandomNum
00002254 l     F .ram_code	00000004 stimer_irq_handler
00002258 l     F .ram_code	00000004 rf_irq_handler
0000225c l     F .ram_code	00000024 delay_ms
20005648 l     F .text	00000068 pwm_kick_32k_pad.constprop.20
00002280 l     F .ram_code	0000001c delay_us
0000229c l     F .ram_code	00000044 flash_send_addr
000022e0 l     F .ram_code	0000004c flash_send_cmd
0000232c l     F .ram_code	00000168 flash_mspi_read_ram
200056b0 l     F .text	000000b2 blc_readFlashSize_autoConfigCustomFlashSector
00002494 l     F .ram_code	00000048 flash_wait_done
000024dc l     F .ram_code	000000c8 flash_mspi_write_ram.constprop.45
20005400 l     F .text	00000058 flash_page_program
20005458 l     F .text	0000002c flash_dread
000025a4 l     F .ram_code	00000060 clock_set_32k_tick
20005764 l     F .text	00000050 FL_QUEUE_GET
200057b4 l     F .text	00000058 FL_QUEUE_ADD
2000580c l     F .text	00000148 fl_rtc_timestamp_to_datetime
20005954 l     F .text	00000042 analog_read_reg32.constprop.48
00002604 l     F .ram_code	00000030 clock_get_32k_tick
00002634 l     F .ram_code	00000098 smp_quickResolvPrivateAddr
000026cc l     F .ram_code	00000070 blt_ll_searchAddr_in_ResolvingList
0000273c l     F .ram_code	0000002c ll_searchAddr_in_WhiteList_and_ResolvingList
00002768 l     F .ram_code	00000154 irq_scan_rx_primary_channel
000028bc l     F .ram_code	00000078 blc_ll_getTxFifoNumber
00002934 l     F .ram_code	00000094 cpu_stall_WakeUp_By_RF_SystemTick
000029c8 l     F .ram_code	0000003c analog_write_reg8
20005998 l     F .text	00000080 pwm_kick_32k_pad_times.constprop.19
00002a04 l     F .ram_code	00000104 rf_drv_ble_init
00002b08 l     F .ram_code	00000044 analog_read_reg8
00002b4c l     F .ram_code	00000140 clock_init.constprop.46
00002c8c l     F .ram_code	000000b4 pm_wait_bbpll_done
00002d40 l     F .ram_code	000001a4 pm_sleep_start
00002ee4 l     F .ram_code	0000046c cpu_sleep_wakeup_32k_rc_ram
20005484 l     F .text	0000001a cpu_sleep_wakeup_32k_rc
20005a1c l     F .text	000000da clock_cal_32k_rc
20005af8 l     F .text	000000d4 cpu_wakeup_no_deepretn_back_init
00003350 l     F .ram_code	0000008c clock_cal_24m_rc
000033dc l     F .ram_code	000003d0 blt_sdk_main_loop
000037ac l     F .ram_code	000000d8 dr_putchar
00003884 l     F .ram_code	00000254 sys_init.constprop.18
00003ad8 l     F .ram_code	000002b4 bls_ll_procRxPacket.constprop.14
20005bd0 l     F .text	000004c0 blt_send_adv
20006094 l     F .text	00000074 FL_QUEUE_FIND
2000610c l     F .text	00000050 blt_soft_timer_delete_by_index.part.0
20006160 l     F .text	00000096 blt_soft_timer_sort
200061f8 l     F .text	000000fa blt_soft_timer_process
200062f4 l     F .text	00000064 blt_soft_timer_add
20006358 l     F .text	0000034a fl_master_ProccesRSP_cbk
200066a4 l     F .text	0000048a fl_send_collection_req
20006b30 l     F .text	000000a6 fl_durationADV_timeout_proccess
20006bd8 l     F .text	00000b2c fl_adv_run
20007708 l     F .text	0000001a main_loop
20007724 l     F .text	0000015a fl_controller_event_callback
20007880 l     F .text	0000013a app_system_time_sync
200079bc l     F .text	0000081a user_init_normal
00000158 l     O .aes_data	00000020 aes_data_buff
00080074 l     O .bss	0000000a G_DEV_LIST
00080080 l     O .bss	00000410 g_data_array
00080490 l     O .bss	00000208 g_handle_master_array
00080698 l     O .bss	00000208 g_sending_array
00080000 l     O .data	00000012 pkt_scan_req
00000178 l     O .retention_data	0000002b pkt_adv
000001a4 l     O .retention_data	00000070 tbl_bondDevice
00000214 l     O .retention_data	00000028 blc_cyrpt_para
0000023c l     O .retention_data	00000004 blc_gap_event_handler
00000240 l     O .retention_data	00000004 gAttributes
00000244 l     O .retention_data	00000048 smp_param_own
0000028c l     O .retention_data	00000050 smp_param_peer
000002dc l     O .retention_data	00000018 blc_smpMng
000002f4 l     O .retention_data	0000002c bltParam
00000320 l     O .retention_data	00000001 smp_DistributeKeyInit
00000324 l     O .retention_data	00000001 smp_DistributeKeyResp
00000328 l     O .retention_data	00000004 smp_phase_record
0000032c l     O .retention_data	00000004 gap_eventMask
00000330 l     O .retention_data	00000004 blc_hci_event_handler
00000334 l     O .retention_data	00000008 scan_priRxFifo
0000033c l     O .retention_data	00000004 hci_le_eventMask
00000340 l     O .retention_data	00000022 ll_whiteList_tbl
00000364 l     O .retention_data	00000068 bltc
000003cc l     O .retention_data	00000058 blttcon
00000424 l     O .retention_data	00000004 blc_tlkEvent_pending
00000428 l     O .retention_data	00000010 blc_tlkEvent_data
00000438 l     O .retention_data	0000000c blt_conn_phy
00000444 l     O .retention_data	00000004 blt_advExpectTime
00000448 l     O .retention_data	00000018 blta
00000460 l     O .retention_data	00000004 ll_irq_systemTick_conn_cb
00000464 l     O .retention_data	00000004 hci_tlk_module_eventMask
00000468 l     O .retention_data	00000050 blt_event_func
000004b8 l     O .retention_data	00000004 g_rnd_m_w
000004bc l     O .retention_data	00000004 g_rnd_m_z
000004c0 l     O .retention_data	00000029 pmcd
000004ec l     O .retention_data	00000004 g_pm_tick_32k_calib
000004f0 l     O .retention_data	00000001 g_pm_long_suspend
000004f4 l     O .retention_data	00000004 ll_phy_switch_cb
000004f8 l     O .retention_data	00000010 bltPHYs
00000508 l     O .retention_data	00000018 blts
00000520 l     O .retention_data	00000003 blc_adv_channel
00000524 l     O .retention_data	00000010 blt_rxfifo
00000534 l     O .retention_data	00000014 bltData
00000548 l     O .retention_data	00000004 ll_irq_rx_data_cb
0000054c l     O .retention_data	00000004 ll_irq_scan_rx_pri_chn_cb
00000550 l     O .retention_data	00000004 blc_rf_pa_cb
00000554 l     O .retention_data	00000004 ll_irq_tx_cb
00000558 l     O .retention_data	00000010 blt_txfifo
00000568 l     O .retention_data	00000004 flash_sector_mac_address
0000056c l     O .retention_data	00000004 flash_sector_calibration
00000570 l     O .retention_data	00000032 ll_resolvingList_tbl
000005a4 l     O .retention_data	00000004 pm_get_32k_tick
000005a8 l     O .retention_data	00000001 g_pm_suspend_power_cfg
000005ac l     O .retention_data	00000004 func_before_suspend
000005b0 l     O .retention_data	00000004 g_pm_tick_32k_cur
000005b4 l     O .retention_data	00000004 g_pm_tick_cur
000005bc l     O .retention_data	00000004 blt_miscParam
000005c0 l     O .retention_data	00000006 adc_vref_cfg
000005c8 l     O .retention_data	00000004 blc_main_loop_phyTest_cb
000005cc l     O .retention_data	00000004 blc_main_loop_data_cb
000005d0 l     O .retention_data	00000004 ll_leg_scan_mlp_task_cb
000005d4 l     O .retention_data	00000004 blt_p_event_callback
000005d8 l     O .retention_data	00000004 ll_push_tx_fifo_handler
000005dc l     O .retention_data	00000004 blc_main_loop_post_cb
000005e0 l     O .retention_data	00000004 ll_host_main_loop_cb
000005e4 l     O .retention_data	00000004 blc_hci_rx_handler
000005e8 l     O .retention_data	00000004 blc_hci_tx_handler
000005ec l     O .retention_data	00000004 pm_check_32k_clk_stable
000005f0 l     O .retention_data	00000001 x_freertos_on
000005f4 l     O .retention_data	00000004 ll_module_pm_cb
000005f8 l     O .retention_data	00000030 bltPm
00000628 l     O .retention_data	00000004 ll_module_adv_cb
0000062c l     O .retention_data	00000004 ll_enter_pri_chn_scan_cb
00000630 l     O .retention_data	00000004 ll_module_advSlave_cb
00000634 l     O .retention_data	00000004 tick_rc24mCal
00000638 l     O .retention_data	00000004 pm_tim_recover
0000063c l     O .retention_data	00000004 cpu_sleep_wakeup
00000640 l     O .retention_data	00000040 adv_rx_buff
00000680 l     O .retention_data	0000002b pkt_scan_rsp
000006ab l     O .retention_data	00000001 adv_peak_current_opt
000006ac l     O .retention_data	00000004 ll_adv2conn_cb
000006b0 l     O .retention_data	00000004 advertise_prepare_handler
000006b4 l     O .retention_data	00000001 adv_decrease_time_opt
000006b8 l     O .retention_data	00000004 flash_write_page
000006bc l     O .retention_data	00000004 flash_read_page
000006c0 l     O .retention_data	00000024 mlDevMng
000006e4 l     O .retention_data	00000004 bond_device_flash_cfg_idx
000006e8 l     O .retention_data	00000004 smp_param_current_start_addr
000006ec l     O .retention_data	00000031 blt_timer
00000720 l     O .retention_data	0000001c smpResSignalPkt
0000073c l     O .retention_data	0000000b pkt_errRsp
00000748 l     O .retention_data	00000100 blt_buff_prepare_write
00000848 l     O .retention_data	00000009 pkt_mtu_rsp
00000854 l     O .retention_data	0000000c l2cap_buff
00001084 l     O .retention_data	00000100 blt_buff_ll_rx
00000f84 l     O .retention_data	00000100 blt_buff_att_tx
00000860 l     O .retention_data	00000010 smpOwnRand_const
00000870 l     O .retention_data	00000001 smpPkShftCnt
00000874 l     O .retention_data	00000004 func_smp_sc_pushPkt_proc
00000878 l     O .retention_data	00000010 smpOwnParingConfirm
00000888 l     O .retention_data	00000004 func_smp_sc_proc
0000088c l     O .retention_data	0000000a bltAtt
00000898 l     O .retention_data	00000004 pAppPrepareWriteBuff
0000089c l     O .retention_data	00000002 prepare_pkt_current_len
0000089e l     O .retention_data	00000002 pAppPrepareWrite_max_len
000008a0 l     O .retention_data	00000004 hid_reportmap_psrc
000008a4 l     O .retention_data	00000004 hid_reportmap_len
000008a8 l     O .retention_data	00000004 att_client_handler
000008ac l     O .retention_data	00000004 att_sig_hander
000008b0 l     O .retention_data	00000004 l2cap_connUpdateRsp_cb
000008b4 l     O .retention_data	00000004 RTC_OFFSET_TIME
000008b8 l     O .retention_data	00000001 SENDING_STATE
000008bc l     O .retention_data	0000000c bltMac
000008c8 l     O .retention_data	00000008 advData_backup
000008d0 l     O .retention_data	00000330 app_acl_txfifo
00000c00 l     O .retention_data	00000180 app_acl_rxfifo
00000d80 l     O .retention_data	00000200 scan_pri_chn_rx_fifo
00000f80 l     O .retention_data	00000001 g_plic_preempt_en
20008fec l     O .rodata	00000017 __FUNCTION__.12942
20009004 l     O .rodata	00000015 __FUNCTION__.12950
2000901c l     O .rodata	00000011 __FUNCTION__.12986
20009030 l     O .rodata	00000019 __FUNCTION__.12997
2000904c l     O .rodata	0000001d __FUNCTION__.13002
2000906c l     O .rodata	00000020 __FUNCTION__.13039
2000908c l     O .rodata	00000014 __FUNCTION__.13043
200090a0 l     O .rodata	00000013 __FUNCTION__.13086
200090b4 l     O .rodata	00000012 __FUNCTION__.13090
200090c8 l     O .rodata	00000014 __FUNCTION__.13124
200090dc l     O .rodata	0000000c __FUNCTION__.13148
200090e8 l     O .rodata	00000014 __FUNCTION__.13198
200090fc l     O .rodata	00000011 __FUNCTION__.13228
20009110 l     O .rodata	0000000b __FUNCTION__.13353
2000911c l     O .rodata	0000000c __FUNCTION__.9829
200091a0 l     O .rodata	0000000c days_in_month
00080050 l     O .sbss	00000004 g_chip_version
00080054 l     O .sbss	00000004 g_pm_status_info
00080058 l     O .sbss	00000001 g_single_tong_freqoffset
0008005c l     O .sbss	00000004 last_tick.12927
00080060 l     O .sbss	00000004 mcause
00080064 l     O .sbss	00000004 mepc
00080012 l     O .data	00000002 FmDebug
00080014 l     O .data	00000008 G_DATA_CONTAINER
0008001c l     O .data	00000008 G_HANDLE_MASTER_CONTAINER
00080024 l     O .data	00000008 G_QUEUE_SENDING
0008002c l     O .data	00000004 TXADDR
00080030 l     O .data	00000006 blt_tx_empty_packet
00080038 l     O .data	00000008 g_pm_early_wakeup_time_us
00080040 l     O .data	00000004 g_pm_r_delay_cycle
00080044 l     O .data	00000006 sys_clk
200097bc l     O .rodata	00000004 rf_rx_dma_config
200097c0 l     O .rodata	00000004 rf_tx_dma_config
00000000 l    df *ABS*	00000000 memcpy.c
00000000 l    df *ABS*	00000000 printf.c
00000000 l    df *ABS*	00000000 strrchr.c
00000000 l    df *ABS*	00000000 vprintf.c
20008462 l     F .text	00000038 __vprintf_help
00080068 l     O .sbss	00000004 __vprintf_buf
0008006c l     O .sbss	00000004 __vprintf_buf_len
00000000 l    df *ABS*	00000000 printf_impl.c
00000000 l    df *ABS*	00000000 printf_impl_float.c
00000000 l    df *ABS*	00000000 strcpy.c
00000000 l    df *ABS*	00000000 strnlen.c
00000000 l    df *ABS*	00000000 libgcc2.c
00000000 l    df *ABS*	00000000 libgcc2.c
00000000 l    df *ABS*	00000000 printf_data.c
000042ec g     F .ram_code	00000048 entry_irq55
00004ce4 g     F .ram_code	00000044 entry_irq13
20008e94 g     F .text	0000007c strcpy
00004bcc g     F .ram_code	000000d4 entry_irq15
20008f5c g     F .text	0000002e .hidden __ashldi3
0000489c g     F .ram_code	00000044 entry_irq27
00004184 g     F .ram_code	00000048 entry_irq60
00005014 g     F .ram_code	000000d4 entry_irq1
000043c4 g     F .ram_code	00000048 entry_irq52
00004454 g     F .ram_code	00000048 entry_irq50
000040f4 g     F .ram_code	00000048 entry_irq62
20008418 g     F .text	0000001e printf
00080800 g       .data	00000000 __global_pointer$
20008f94 g       .text	00000000 .hidden __riscv_save_8
00004214 g     F .ram_code	00000048 entry_irq58
20008fe0 g       .text	00000000 .hidden __riscv_restore_3
00001184 g       .retention_data	00000000 _RETENTION_DATA_VMA_END
20008fcc g       .text	00000000 .hidden __riscv_restore_10
20008f94 g       .text	00000000 .hidden __riscv_save_11
200084e4 g     F .text	0000004c __print_integral
00000000 g       .retention_reset	00000000 _RETENTION_RESET_VMA_START
00004db0 g     F .ram_code	00000044 entry_irq10
00004a34 g     F .ram_code	00000044 entry_irq21
00000158 g       .aes_data	00000000 _AES_VMA_START
000044a0 g     F .ram_code	00000004 entry_irq48
20008fe0 g       .text	00000000 .hidden __riscv_restore_2
00004e38 g     F .ram_code	00000044 entry_irq8
000046fc g     F .ram_code	00000048 entry_irq33
000808a0 g       .bss	00000000 _BSS_VMA_END
20008274 g     F .text	000000fa memcpy
20000190 g       *ABS*	00000000 _RETENTION_RESET_LMA_START
20008530 g     F .text	0000047c __printf_impl
00004d28 g     F .ram_code	00000044 entry_irq12
00004ca0 g     F .ram_code	00000044 entry_irq14
20008f8c g       .text	00000000 .hidden __riscv_save_12
00004fd0 g     F .ram_code	00000044 entry_irq2
0000440c g     F .ram_code	00000048 entry_irq51
20008fcc g       .text	00000000 .hidden __riscv_restore_11
00004858 g     F .ram_code	00000044 entry_irq28
0000453c g     F .ram_code	00000048 entry_irq43
20008fbc g       .text	00000000 .hidden __riscv_save_1
20008fe0 g       .text	00000000 .hidden __riscv_restore_0
00004a78 g     F .ram_code	00000044 entry_irq20
20008fa2 g       .text	00000000 .hidden __riscv_save_7
00080050 g       .sbss	00000000 _BSS_VMA_START
000040ac g     F .ram_code	00000048 entry_irq63
0008004a g       .data	00000000 _DATA_VMA_END
000044a8 g     F .ram_code	00000048 entry_irq46
0000478c g     F .ram_code	00000044 entry_irq31
00004b88 g     F .ram_code	00000044 entry_irq16
00100000 g       *ABS*	00000000 FLASH_SIZE
20008fd6 g       .text	00000000 .hidden __riscv_restore_5
00080000 g       .data	00000000 _DATA_VMA_START
0000437c g     F .ram_code	00000048 entry_irq53
00004d6c g     F .ram_code	00000044 entry_irq11
00000154 g       .retention_reset	00000000 _RETENTION_RESET_VMA_END
20008f12 g     F .text	00000018 strnlen
20008fd6 g       .text	00000000 .hidden __riscv_restore_6
20008436 g     F .text	0000002c strrchr
00004f04 g     F .ram_code	00000044 entry_irq5
000049ac g     F .ram_code	00000044 entry_irq23
000046b4 g     F .ram_code	00000048 entry_irq34
20008f2c g     F .text	0000002e .hidden __lshrdi3
00004624 g     F .ram_code	00000048 entry_irq36
20008f94 g       .text	00000000 .hidden __riscv_save_9
000044f4 g     F .ram_code	00000048 entry_irq44
2000849a g     F .text	0000004a vprintf
000044f0 g     F .ram_code	00000004 entry_irq45
000048e0 g     F .ram_code	00000044 entry_irq26
20008fa2 g       .text	00000000 .hidden __riscv_save_4
000045cc g     F .ram_code	00000004 entry_irq41
0000413c g     F .ram_code	00000048 entry_irq61
20000000 g       .vectors	00000000 BIN_BEGIN
20008fbc g       .text	00000000 .hidden __riscv_save_3
000045d8 g     F .ram_code	00000004 entry_irq38
00005200 g       .ram_code	00000000 __vectors
00009922 g       *ABS*	00000000 BIN_SIZE
200097a4 g     O .rodata	00000010 __digits
200012f8 g       *ABS*	00000000 _RAMCODE_LMA_START
00080070 g     O .sbss	00000004 __printf_count
000041cc g     F .ram_code	00000048 entry_irq59
20008224 g     F .text	0000004e memcmp
00004ec0 g     F .ram_code	00000044 entry_irq6
20008f94 g       .text	00000000 .hidden __riscv_save_10
200098d8 g       *ABS*	00000000 _DATA_LMA_START
200089cc g     F .text	00000090 __print_integral_poly
20000000 g       *ABS*	00000000 NDS_SAG_LMA_FLASH
20008fd6 g       .text	00000000 .hidden __riscv_restore_4
20008fcc g       .text	00000000 .hidden __riscv_restore_8
20008fa2 g       .text	00000000 .hidden __riscv_save_6
20000000  w      .vectors	00000000 _RELAX_END_
20008a5c g     F .text	00000404 __printf_float_impl
2000836e g     F .text	000000aa memset
20008fcc g       .text	00000000 .hidden __riscv_restore_9
20008fd6 g       .text	00000000 .hidden __riscv_restore_7
00003d8c g     F .ram_code	00000320 main
00004f8c g     F .ram_code	00000044 entry_irq3
000050e8 g     F .ram_code	00000034 trap_entry
00000178 g       .aes_data	00000000 _AES_VMA_END
000045d4 g     F .ram_code	00000004 entry_irq39
0000449c g     F .ram_code	00000004 entry_irq49
000005b8 g     O .retention_data	00000004 g_pm_multi_addr
0000425c g     F .ram_code	00000048 entry_irq57
000044a4 g     F .ram_code	00000004 entry_irq47
200002e8 g       *ABS*	00000000 _RETENTION_DATA_LMA_START
20000000 g     F .vectors	00000000 _RESET_ENTRY
00000178 g       .retention_data	00000000 _RETENTION_DATA_VMA_START
00004f48 g     F .ram_code	00000044 entry_irq4
000a0000 g       *ABS*	00000000 _STACK_TOP
000049f0 g     F .ram_code	00000044 entry_irq22
000047d0 g     F .ram_code	00000044 entry_irq30
00004584 g     F .ram_code	00000048 entry_irq42
00004968 g     F .ram_code	00000044 entry_irq24
20008fbc g       .text	00000000 .hidden __riscv_save_2
00005302 g       .ram_code	00000000 _RAMCODE_VMA_END
00000000  w      *ABS*	00000000 _ITB_BASE_
20008fa2 g       .text	00000000 .hidden __riscv_save_5
00004abc g     F .ram_code	00000044 entry_irq19
200081d8 g     F .text	0000004c _write
000808a0 g       .bss	00000000 _end
00004b44 g     F .ram_code	00000044 entry_irq17
00004df4 g     F .ram_code	00000044 entry_irq9
000042a4 g     F .ram_code	00000048 entry_irq56
0000466c g     F .ram_code	00000048 entry_irq35
000045dc g     F .ram_code	00000048 entry_irq37
00004334 g     F .ram_code	00000048 entry_irq54
000045d0 g     F .ram_code	00000004 entry_irq40
20008fc8 g       .text	00000000 .hidden __riscv_restore_12
00001200 g       .ram_code	00000000 _RAMCODE_VMA_START
20008fbc g       .text	00000000 .hidden __riscv_save_0
00004814 g     F .ram_code	00000044 entry_irq29
20008e60 g     F .text	00000030 strchr
20008fe0 g       .text	00000000 .hidden __riscv_restore_1
00004e7c g     F .ram_code	00000044 entry_irq7
00004744 g     F .ram_code	00000048 entry_irq32
00000000 g     F .retention_reset	00000000 _IRESET_ENTRY
00004b00 g     F .ram_code	00000044 entry_irq18
200089ac g     F .text	00000020 __int_to_poly
00004924 g     F .ram_code	00000044 entry_irq25



Disassembly of section .vectors:

20000000 <_RESET_ENTRY>:
20000000:	a025                	c.j	20000028 <_START>
	...
20000016:	0000                	unimp
20000018:	9922                	c.add	s2,s0
2000001a:	0000                	unimp
2000001c:	0000                	unimp
2000001e:	0000                	unimp
20000020:	544c4e4b          	fnmsub.h	ft8,fs8,ft4,fa0,rmm
20000024:	0000                	unimp
20000026:	          	sllw	a4,zero,zero

20000028 <_START>:
20000028:	e0080197          	auipc	gp,0xe0080
2000002c:	7d818193          	addi	gp,gp,2008 # 80800 <__global_pointer$>

20000030 <_SWS_USB_DIS>:
20000030:	801002b7          	lui	t0,0x80100
20000034:	70028293          	addi	t0,t0,1792 # 80100700 <_DATA_LMA_START+0x600f6e28>
20000038:	04000313          	li	t1,64
2000003c:	506280a3          	sb	t1,1281(t0)
20000040:	e00a0297          	auipc	t0,0xe00a0
20000044:	fc028293          	addi	t0,t0,-64 # a0000 <_STACK_TOP>
20000048:	8116                	c.mv	sp,t0
2000004a:	e0000297          	auipc	t0,0xe0000
2000004e:	fb628293          	addi	t0,t0,-74 # 0 <_ITB_BASE_>
20000052:	80029073          	csrw	uitb,t0
20000056:	6299                	c.lui	t0,0x6
20000058:	3002a2f3          	csrrs	t0,mstatus,t0
2000005c:	00301073          	fssr	zero
20000060:	e0005297          	auipc	t0,0xe0005
20000064:	1a028293          	addi	t0,t0,416 # 5200 <__vectors>
20000068:	30529073          	csrw	mtvec,t0
2000006c:	7d016073          	csrsi	mmisc_ctl,2
20000070:	e40002b7          	lui	t0,0xe4000
20000074:	430d                	c.li	t1,3
20000076:	0062a023          	sw	t1,0(t0) # e4000000 <_DATA_LMA_START+0xc3ff6728>
2000007a:	7ca022f3          	csrr	t0,mcache_ctl
2000007e:	0012e293          	ori	t0,t0,1
20000082:	0022e293          	ori	t0,t0,2
20000086:	7ca29073          	csrw	mcache_ctl,t0
2000008a:	0000100f          	fence.i

2000008e <_RETENTION_RESET_INIT>:
2000008e:	00000317          	auipc	t1,0x0
20000092:	10230313          	addi	t1,t1,258 # 20000190 <_RETENTION_RESET_LMA_START>
20000096:	e0000397          	auipc	t2,0xe0000
2000009a:	f6a38393          	addi	t2,t2,-150 # 0 <_ITB_BASE_>
2000009e:	e0000e17          	auipc	t3,0xe0000
200000a2:	0b6e0e13          	addi	t3,t3,182 # 154 <_RETENTION_RESET_VMA_END>

200000a6 <_RETENTION_RESET_BEGIN>:
200000a6:	01c3f963          	bgeu	t2,t3,200000b8 <_RETENTION_DATA_INIT>
200000aa:	00032283          	lw	t0,0(t1)
200000ae:	0053a023          	sw	t0,0(t2)
200000b2:	0311                	c.addi	t1,4
200000b4:	0391                	c.addi	t2,4
200000b6:	bfc5                	c.j	200000a6 <_RETENTION_RESET_BEGIN>

200000b8 <_RETENTION_DATA_INIT>:
200000b8:	00000317          	auipc	t1,0x0
200000bc:	23030313          	addi	t1,t1,560 # 200002e8 <_RETENTION_DATA_LMA_START>
200000c0:	17800393          	li	t2,376
200000c4:	e0001e17          	auipc	t3,0xe0001
200000c8:	0c0e0e13          	addi	t3,t3,192 # 1184 <_RETENTION_DATA_VMA_END>

200000cc <_RETENTION_DATA_INIT_BEGIN>:
200000cc:	01c3f963          	bgeu	t2,t3,200000de <_RAMCODE_INIT>
200000d0:	00032283          	lw	t0,0(t1)
200000d4:	0053a023          	sw	t0,0(t2)
200000d8:	0311                	c.addi	t1,4
200000da:	0391                	c.addi	t2,4
200000dc:	bfc5                	c.j	200000cc <_RETENTION_DATA_INIT_BEGIN>

200000de <_RAMCODE_INIT>:
200000de:	00001317          	auipc	t1,0x1
200000e2:	21a30313          	addi	t1,t1,538 # 200012f8 <_RAMCODE_LMA_START>
200000e6:	e0001397          	auipc	t2,0xe0001
200000ea:	11a38393          	addi	t2,t2,282 # 1200 <rf_set_power_level_index.constprop.37>
200000ee:	e0005e17          	auipc	t3,0xe0005
200000f2:	214e0e13          	addi	t3,t3,532 # 5302 <_RAMCODE_VMA_END>

200000f6 <_RAMCODE_INIT_BEGIN>:
200000f6:	01c3f963          	bgeu	t2,t3,20000108 <_DATA_INIT>
200000fa:	00032283          	lw	t0,0(t1)
200000fe:	0053a023          	sw	t0,0(t2)
20000102:	0311                	c.addi	t1,4
20000104:	0391                	c.addi	t2,4
20000106:	bfc5                	c.j	200000f6 <_RAMCODE_INIT_BEGIN>

20000108 <_DATA_INIT>:
20000108:	00009317          	auipc	t1,0x9
2000010c:	7d030313          	addi	t1,t1,2000 # 200098d8 <_DATA_LMA_START>
20000110:	e0080397          	auipc	t2,0xe0080
20000114:	ef038393          	addi	t2,t2,-272 # 80000 <_DATA_VMA_START>
20000118:	e0080e17          	auipc	t3,0xe0080
2000011c:	f32e0e13          	addi	t3,t3,-206 # 8004a <_DATA_VMA_END>

20000120 <_DATA_INIT_BEGIN>:
20000120:	01c3f963          	bgeu	t2,t3,20000132 <_ZERO_BSS>
20000124:	00032283          	lw	t0,0(t1)
20000128:	0053a023          	sw	t0,0(t2)
2000012c:	0311                	c.addi	t1,4
2000012e:	0391                	c.addi	t2,4
20000130:	bfc5                	c.j	20000120 <_DATA_INIT_BEGIN>

20000132 <_ZERO_BSS>:
20000132:	000002b7          	lui	t0,0x0
20000136:	e0080397          	auipc	t2,0xe0080
2000013a:	f1a38393          	addi	t2,t2,-230 # 80050 <_BSS_VMA_START>
2000013e:	e0080e17          	auipc	t3,0xe0080
20000142:	762e0e13          	addi	t3,t3,1890 # 808a0 <_BSS_VMA_END>

20000146 <_ZERO_BSS_BEGIN>:
20000146:	01c3f663          	bgeu	t2,t3,20000152 <_ZERO_AES>
2000014a:	0053a023          	sw	t0,0(t2)
2000014e:	0391                	c.addi	t2,4
20000150:	bfdd                	c.j	20000146 <_ZERO_BSS_BEGIN>

20000152 <_ZERO_AES>:
20000152:	000002b7          	lui	t0,0x0
20000156:	e0000397          	auipc	t2,0xe0000
2000015a:	00238393          	addi	t2,t2,2 # 158 <_AES_VMA_START>
2000015e:	e0000e17          	auipc	t3,0xe0000
20000162:	01ae0e13          	addi	t3,t3,26 # 178 <_AES_VMA_END>

20000166 <_ZERO_AES_BEGIN>:
20000166:	01c3f663          	bgeu	t2,t3,20000172 <_FILL_STK>
2000016a:	0053a023          	sw	t0,0(t2)
2000016e:	0391                	c.addi	t2,4
20000170:	bfdd                	c.j	20000166 <_ZERO_AES_BEGIN>

20000172 <_FILL_STK>:
20000172:	0001                	c.nop
20000174:	e0004297          	auipc	t0,0xe0004
20000178:	c1828293          	addi	t0,t0,-1000 # 3d8c <main>
2000017c:	9282                	c.jalr	t0
2000017e:	0001                	c.nop
20000180:	0001                	c.nop
20000182:	0001                	c.nop
20000184:	0001                	c.nop
20000186:	0001                	c.nop

20000188 <_END>:
20000188:	a001                	c.j	20000188 <_END>

Disassembly of section .retention_reset:

00000000 <_IRESET_ENTRY>:
   0:	a00d                	c.j	22 <_ISTART>
	...

00000022 <_ISTART>:
  22:	00080197          	auipc	gp,0x80
  26:	7de18193          	addi	gp,gp,2014 # 80800 <__global_pointer$>

0000002a <_ISWS_USB_DIS>:
  2a:	801002b7          	lui	t0,0x80100
  2e:	70028293          	addi	t0,t0,1792 # 80100700 <_DATA_LMA_START+0x600f6e28>
  32:	04000313          	li	t1,64
  36:	506280a3          	sb	t1,1281(t0)
  3a:	000a0297          	auipc	t0,0xa0
  3e:	fc628293          	addi	t0,t0,-58 # a0000 <_STACK_TOP>
  42:	8116                	c.mv	sp,t0
  44:	00000297          	auipc	t0,0x0
  48:	fbc28293          	addi	t0,t0,-68 # 0 <_IRESET_ENTRY>
  4c:	80029073          	csrw	uitb,t0
  50:	6299                	c.lui	t0,0x6
  52:	3002a2f3          	csrrs	t0,mstatus,t0
  56:	00301073          	fssr	zero
  5a:	00005297          	auipc	t0,0x5
  5e:	1a628293          	addi	t0,t0,422 # 5200 <__vectors>
  62:	30529073          	csrw	mtvec,t0
  66:	7d016073          	csrsi	mmisc_ctl,2
  6a:	e40002b7          	lui	t0,0xe4000
  6e:	430d                	c.li	t1,3
  70:	0062a023          	sw	t1,0(t0) # e4000000 <_DATA_LMA_START+0xc3ff6728>
  74:	7ca022f3          	csrr	t0,mcache_ctl
  78:	0012e293          	ori	t0,t0,1
  7c:	0022e293          	ori	t0,t0,2
  80:	7ca29073          	csrw	mcache_ctl,t0
  84:	0000100f          	fence.i

00000088 <_WAKEUP_FLASH>:
  88:	801402b7          	lui	t0,0x80140
  8c:	0ff00313          	li	t1,255
  90:	4381                	c.li	t2,0
  92:	0ab00e13          	li	t3,171
  96:	326284a3          	sb	t1,809(t0) # 80140329 <_DATA_LMA_START+0x60136a51>
  9a:	107280a3          	sb	t2,257(t0)
  9e:	11c28023          	sb	t3,256(t0)

000000a2 <_MSPI_WAIT>:
  a2:	801402b7          	lui	t0,0x80140
  a6:	10228383          	lb	t2,258(t0) # 80140102 <_DATA_LMA_START+0x6013682a>
  aa:	4e05                	c.li	t3,1
  ac:	4ec1                	c.li	t4,16
  ae:	fe7e0ae3          	beq	t3,t2,a2 <_MSPI_WAIT>
  b2:	11d280a3          	sb	t4,257(t0)
  b6:	4281                	c.li	t0,0
  b8:	0e200313          	li	t1,226

000000bc <_WAIT_EFUSE_LOAD_FINISH>:
  bc:	0285                	c.addi	t0,1
  be:	fe537fe3          	bgeu	t1,t0,bc <_WAIT_EFUSE_LOAD_FINISH>

000000c2 <_MULTI_ADDRESS_BEGIN>:
  c2:	801402b7          	lui	t0,0x80140
  c6:	5b800313          	li	t1,1464
  ca:	00032383          	lw	t2,0(t1)
  ce:	1072a223          	sw	t2,260(t0) # 80140104 <_DATA_LMA_START+0x6013682c>

000000d2 <_IDATA_INIT>:
  d2:	2000a317          	auipc	t1,0x2000a
  d6:	80630313          	addi	t1,t1,-2042 # 200098d8 <_DATA_LMA_START>
  da:	00080397          	auipc	t2,0x80
  de:	f2638393          	addi	t2,t2,-218 # 80000 <_DATA_VMA_START>
  e2:	00080e17          	auipc	t3,0x80
  e6:	f68e0e13          	addi	t3,t3,-152 # 8004a <_DATA_VMA_END>

000000ea <_IDATA_INIT_BEGIN>:
  ea:	01c3f963          	bgeu	t2,t3,fc <_IZERO_BSS>
  ee:	00032283          	lw	t0,0(t1)
  f2:	0053a023          	sw	t0,0(t2)
  f6:	0311                	c.addi	t1,4
  f8:	0391                	c.addi	t2,4
  fa:	bfc5                	c.j	ea <_IDATA_INIT_BEGIN>

000000fc <_IZERO_BSS>:
  fc:	000002b7          	lui	t0,0x0
 100:	00080397          	auipc	t2,0x80
 104:	f5038393          	addi	t2,t2,-176 # 80050 <_BSS_VMA_START>
 108:	00080e17          	auipc	t3,0x80
 10c:	798e0e13          	addi	t3,t3,1944 # 808a0 <_BSS_VMA_END>

00000110 <_IZERO_BSS_BEGIN>:
 110:	01c3f663          	bgeu	t2,t3,11c <_IZERO_AES>
 114:	0053a023          	sw	t0,0(t2)
 118:	0391                	c.addi	t2,4
 11a:	bfdd                	c.j	110 <_IZERO_BSS_BEGIN>

0000011c <_IZERO_AES>:
 11c:	000002b7          	lui	t0,0x0
 120:	00000397          	auipc	t2,0x0
 124:	03838393          	addi	t2,t2,56 # 158 <_AES_VMA_START>
 128:	00000e17          	auipc	t3,0x0
 12c:	050e0e13          	addi	t3,t3,80 # 178 <_AES_VMA_END>

00000130 <_IZERO_AES_BEGIN>:
 130:	01c3f663          	bgeu	t2,t3,13c <_IFILL_STK>
 134:	0053a023          	sw	t0,0(t2)
 138:	0391                	c.addi	t2,4
 13a:	bfdd                	c.j	130 <_IZERO_AES_BEGIN>

0000013c <_IFILL_STK>:
 13c:	0001                	c.nop
 13e:	00004297          	auipc	t0,0x4
 142:	c4e28293          	addi	t0,t0,-946 # 3d8c <main>
 146:	9282                	c.jalr	t0
 148:	0001                	c.nop
 14a:	0001                	c.nop
 14c:	0001                	c.nop
 14e:	0001                	c.nop
 150:	0001                	c.nop

00000152 <_IEND>:
 152:	a001                	c.j	152 <_IEND>

Disassembly of section .ram_code:

00001200 <rf_set_power_level_index.constprop.37>:
    1200:	801417b7          	lui	a5,0x80141
    1204:	e3c78703          	lb	a4,-452(a5) # 80140e3c <_DATA_LMA_START+0x60137564>
    1208:	0ff77713          	andi	a4,a4,255
    120c:	04076713          	ori	a4,a4,64
    1210:	e2e78e23          	sb	a4,-452(a5)
    1214:	e2678703          	lb	a4,-474(a5)
    1218:	07f77713          	andi	a4,a4,127
    121c:	e2e78323          	sb	a4,-474(a5)
    1220:	e2778703          	lb	a4,-473(a5)
    1224:	0e077713          	andi	a4,a4,224
    1228:	01276713          	ori	a4,a4,18
    122c:	e2e783a3          	sb	a4,-473(a5)
    1230:	00008067          	ret

00001234 <ble_rf_set_tx_dma.constprop.17>:
    1234:	80100737          	lui	a4,0x80100
    1238:	50c70783          	lb	a5,1292(a4) # 8010050c <_DATA_LMA_START+0x600f6c34>
    123c:	0ff7f793          	andi	a5,a5,255
    1240:	0057e793          	ori	a5,a5,5
    1244:	50f70623          	sb	a5,1292(a4)
    1248:	4e0709a3          	sb	zero,1267(a4)
    124c:	478d                	c.li	a5,3
    124e:	4ef70923          	sb	a5,1266(a4)
    1252:	82ffa7ab          	lwgp	a5,-2004 # 8002c <TXADDR>
    1256:	000a0737          	lui	a4,0xa0
    125a:	00e7f563          	bgeu	a5,a4,1264 <ble_rf_set_tx_dma.constprop.17+0x30>
    125e:	c0180737          	lui	a4,0xc0180
    1262:	97ba                	c.add	a5,a4
    1264:	80100737          	lui	a4,0x80100
    1268:	44f72423          	sw	a5,1096(a4) # 80100448 <_DATA_LMA_START+0x600f6b70>
    126c:	001417b7          	lui	a5,0x141
    1270:	88478793          	addi	a5,a5,-1916 # 140884 <FLASH_SIZE+0x40884>
    1274:	44f72623          	sw	a5,1100(a4)
    1278:	00008067          	ret

0000127c <rf_start_fsm.constprop.16>:
    127c:	08600793          	li	a5,134
    1280:	00f51a63          	bne	a0,a5,1294 <rf_start_fsm.constprop.16+0x18>
    1284:	100007b7          	lui	a5,0x10000
    1288:	80141737          	lui	a4,0x80141
    128c:	fff78793          	addi	a5,a5,-1 # fffffff <FLASH_SIZE+0xfefffff>
    1290:	a2f72423          	sw	a5,-1496(a4) # 80140a28 <_DATA_LMA_START+0x60137150>
    1294:	80141737          	lui	a4,0x80141
    1298:	a0b72c23          	sw	a1,-1512(a4) # 80140a18 <_DATA_LMA_START+0x60137140>
    129c:	a1670783          	lb	a5,-1514(a4)
    12a0:	0ff57513          	andi	a0,a0,255
    12a4:	0ff7f793          	andi	a5,a5,255
    12a8:	0047e793          	ori	a5,a5,4
    12ac:	a0f70b23          	sb	a5,-1514(a4)
    12b0:	000007b7          	lui	a5,0x0
    12b4:	a0a70023          	sb	a0,-1536(a4)
    12b8:	17878793          	addi	a5,a5,376 # 178 <_AES_VMA_END>
    12bc:	000a0737          	lui	a4,0xa0
    12c0:	00e7f663          	bgeu	a5,a4,12cc <rf_start_fsm.constprop.16+0x50>
    12c4:	c0180737          	lui	a4,0xc0180
    12c8:	00e787b3          	add	a5,a5,a4
    12cc:	80100737          	lui	a4,0x80100
    12d0:	44f72423          	sw	a5,1096(a4) # 80100448 <_DATA_LMA_START+0x600f6b70>
    12d4:	00008067          	ret

000012d8 <smemset.constprop.12>:
    12d8:	00a585b3          	add	a1,a1,a0
    12dc:	0505                	c.addi	a0,1
    12de:	fe050fa3          	sb	zero,-1(a0)
    12e2:	fea59de3          	bne	a1,a0,12dc <smemset.constprop.12+0x4>
    12e6:	8082                	c.jr	ra

000012e8 <smemcpy>:
    12e8:	ca11                	c.beqz	a2,12fc <smemcpy+0x14>
    12ea:	962e                	c.add	a2,a1
    12ec:	0585                	c.addi	a1,1
    12ee:	fff5c783          	lbu	a5,-1(a1)
    12f2:	0505                	c.addi	a0,1
    12f4:	fef50fa3          	sb	a5,-1(a0)
    12f8:	feb61ae3          	bne	a2,a1,12ec <smemcpy+0x4>
    12fc:	00008067          	ret

00001300 <aes_ccmBaseTran.isra.0.constprop.13>:
    1300:	7139                	c.addi16sp	sp,-64
    1302:	da26                	c.swsp	s1,52(sp)
    1304:	84ae                	c.mv	s1,a1
    1306:	000005b7          	lui	a1,0x0
    130a:	dc22                	c.swsp	s0,56(sp)
    130c:	d84a                	c.swsp	s2,48(sp)
    130e:	4785                	c.li	a5,1
    1310:	842a                	c.mv	s0,a0
    1312:	8932                	c.mv	s2,a2
    1314:	00110513          	addi	a0,sp,1
    1318:	4635                	c.li	a2,13
    131a:	22c58593          	addi	a1,a1,556 # 22c <blc_cyrpt_para+0x18>
    131e:	de06                	c.swsp	ra,60(sp)
    1320:	00f10023          	sb	a5,0(sp)
    1324:	fc5ff0ef          	jal	ra,12e8 <smemcpy>
    1328:	00000637          	lui	a2,0x0
    132c:	15860e93          	addi	t4,a2,344 # 158 <_AES_VMA_START>
    1330:	15860f13          	addi	t5,a2,344
    1334:	4681                	c.li	a3,0
    1336:	15860613          	addi	a2,a2,344
    133a:	4801                	c.li	a6,0
    133c:	0078                	c.addi4spn	a4,sp,12
    133e:	850a                	c.mv	a0,sp
    1340:	00011723          	sh	zero,14(sp)
    1344:	00174783          	lbu	a5,1(a4)
    1348:	00074583          	lbu	a1,0(a4)
    134c:	06a2                	c.slli	a3,0x8
    134e:	0106e6b3          	or	a3,a3,a6
    1352:	07c2                	c.slli	a5,0x10
    1354:	8fd5                	c.or	a5,a3
    1356:	01859693          	slli	a3,a1,0x18
    135a:	8fd5                	c.or	a5,a3
    135c:	c21c                	c.sw	a5,0(a2)
    135e:	0611                	c.addi	a2,4
    1360:	00a70863          	beq	a4,a0,1370 <aes_ccmBaseTran.isra.0.constprop.13+0x70>
    1364:	1771                	c.addi	a4,-4
    1366:	00374803          	lbu	a6,3(a4)
    136a:	00274683          	lbu	a3,2(a4)
    136e:	bfd9                	c.j	1344 <aes_ccmBaseTran.isra.0.constprop.13+0x44>
    1370:	801607b7          	lui	a5,0x80160
    1374:	0dd7a223          	sw	t4,196(a5) # 801600c4 <_DATA_LMA_START+0x601567ec>
    1378:	00100693          	li	a3,1
    137c:	80160737          	lui	a4,0x80160
    1380:	0ad7a823          	sw	a3,176(a5)
    1384:	0b072783          	lw	a5,176(a4) # 801600b0 <_DATA_LMA_START+0x601567d8>
    1388:	fe07fe5b          	bbs	a5,0,1384 <aes_ccmBaseTran.isra.0.constprop.13+0x84>
    138c:	0f7d                	c.addi	t5,31
    138e:	00fe8693          	addi	a3,t4,15
    1392:	081c                	c.addi4spn	a5,sp,16
    1394:	01e005b3          	add	a1,zero,t5
    1398:	00058703          	lb	a4,0(a1)
    139c:	0785                	c.addi	a5,1
    139e:	15fd                	c.addi	a1,-1
    13a0:	fee78fa3          	sb	a4,-1(a5)
    13a4:	feb69ae3          	bne	a3,a1,1398 <aes_ccmBaseTran.isra.0.constprop.13+0x98>
    13a8:	864a                	c.mv	a2,s2
    13aa:	00490813          	addi	a6,s2,4
    13ae:	872a                	c.mv	a4,a0
    13b0:	00060783          	lb	a5,0(a2)
    13b4:	01070683          	lb	a3,16(a4)
    13b8:	0605                	c.addi	a2,1
    13ba:	8fb5                	c.xor	a5,a3
    13bc:	fef60fa3          	sb	a5,-1(a2)
    13c0:	0705                	c.addi	a4,1
    13c2:	fec817e3          	bne	a6,a2,13b0 <aes_ccmBaseTran.isra.0.constprop.13+0xb0>
    13c6:	10000793          	li	a5,256
    13ca:	00f11723          	sh	a5,14(sp)
    13ce:	00f4f793          	andi	a5,s1,15
    13d2:	8826                	c.mv	a6,s1
    13d4:	cbe1                	c.beqz	a5,14a4 <aes_ccmBaseTran.isra.0.constprop.13+0x1a4>
    13d6:	98c1                	c.andi	s1,-16
    13d8:	01048493          	addi	s1,s1,16
    13dc:	3c04a4db          	bfoz	s1,s1,15,0
    13e0:	4681                	c.li	a3,0
    13e2:	4885                	c.li	a7,1
    13e4:	4301                	c.li	t1,0
    13e6:	ffc10e13          	addi	t3,sp,-4
    13ea:	02050513          	addi	a0,a0,32
    13ee:	80160637          	lui	a2,0x80160
    13f2:	4f85                	c.li	t6,1
    13f4:	0ff8f913          	andi	s2,a7,255
    13f8:	83f6                	c.mv	t2,t4
    13fa:	0078                	c.addi4spn	a4,sp,12
    13fc:	00174783          	lbu	a5,1(a4)
    1400:	00074283          	lbu	t0,0(a4)
    1404:	06a2                	c.slli	a3,0x8
    1406:	0126e6b3          	or	a3,a3,s2
    140a:	07c2                	c.slli	a5,0x10
    140c:	8fd5                	c.or	a5,a3
    140e:	01829693          	slli	a3,t0,0x18
    1412:	8fd5                	c.or	a5,a3
    1414:	00f3a023          	sw	a5,0(t2)
    1418:	1771                	c.addi	a4,-4
    141a:	0391                	c.addi	t2,4
    141c:	01c70863          	beq	a4,t3,142c <aes_ccmBaseTran.isra.0.constprop.13+0x12c>
    1420:	00374903          	lbu	s2,3(a4)
    1424:	00274683          	lbu	a3,2(a4)
    1428:	fd5ff06f          	j	13fc <aes_ccmBaseTran.isra.0.constprop.13+0xfc>
    142c:	0dd62223          	sw	t4,196(a2) # 801600c4 <_DATA_LMA_START+0x601567ec>
    1430:	0bf62823          	sw	t6,176(a2)
    1434:	0b062783          	lw	a5,176(a2)
    1438:	fe07fe5b          	bbs	a5,0,1434 <aes_ccmBaseTran.isra.0.constprop.13+0x134>
    143c:	0818                	c.addi4spn	a4,sp,16
    143e:	87fa                	c.mv	a5,t5
    1440:	00078683          	lb	a3,0(a5)
    1444:	0705                	c.addi	a4,1
    1446:	17fd                	c.addi	a5,-1
    1448:	fed70fa3          	sb	a3,-1(a4)
    144c:	fef59ae3          	bne	a1,a5,1440 <aes_ccmBaseTran.isra.0.constprop.13+0x140>
    1450:	006407b3          	add	a5,s0,t1
    1454:	0818                	c.addi4spn	a4,sp,16
    1456:	a829                	c.j	1470 <aes_ccmBaseTran.isra.0.constprop.13+0x170>
    1458:	00078683          	lb	a3,0(a5)
    145c:	00070283          	lb	t0,0(a4)
    1460:	0785                	c.addi	a5,1
    1462:	0056c6b3          	xor	a3,a3,t0
    1466:	0705                	c.addi	a4,1
    1468:	fed78fa3          	sb	a3,-1(a5)
    146c:	00e50663          	beq	a0,a4,1478 <aes_ccmBaseTran.isra.0.constprop.13+0x178>
    1470:	408786b3          	sub	a3,a5,s0
    1474:	ff06c2e3          	blt	a3,a6,1458 <aes_ccmBaseTran.isra.0.constprop.13+0x158>
    1478:	0885                	c.addi	a7,1
    147a:	3c08a8db          	bfoz	a7,a7,15,0
    147e:	0088d693          	srli	a3,a7,0x8
    1482:	0341                	c.addi	t1,16
    1484:	00d10723          	sb	a3,14(sp)
    1488:	011107a3          	sb	a7,15(sp)
    148c:	3c03235b          	bfoz	t1,t1,15,0
    1490:	f69362e3          	bltu	t1,s1,13f4 <aes_ccmBaseTran.isra.0.constprop.13+0xf4>
    1494:	50f2                	c.lwsp	ra,60(sp)
    1496:	5462                	c.lwsp	s0,56(sp)
    1498:	54d2                	c.lwsp	s1,52(sp)
    149a:	5942                	c.lwsp	s2,48(sp)
    149c:	4501                	c.li	a0,0
    149e:	6121                	c.addi16sp	sp,64
    14a0:	00008067          	ret
    14a4:	fc95                	c.bnez	s1,13e0 <aes_ccmBaseTran.isra.0.constprop.13+0xe0>
    14a6:	50f2                	c.lwsp	ra,60(sp)
    14a8:	5462                	c.lwsp	s0,56(sp)
    14aa:	54d2                	c.lwsp	s1,52(sp)
    14ac:	5942                	c.lwsp	s2,48(sp)
    14ae:	4501                	c.li	a0,0
    14b0:	6121                	c.addi16sp	sp,64
    14b2:	8082                	c.jr	ra

000014b4 <aes_ccmAuthTran.constprop.11>:
    14b4:	7119                	c.addi16sp	sp,-128
    14b6:	dca2                	c.swsp	s0,120(sp)
    14b8:	c22a                	c.swsp	a0,4(sp)
    14ba:	842e                	c.mv	s0,a1
    14bc:	0808                	c.addi4spn	a0,sp,16
    14be:	03000593          	li	a1,48
    14c2:	de86                	c.swsp	ra,124(sp)
    14c4:	c636                	c.swsp	a3,12(sp)
    14c6:	daa6                	c.swsp	s1,116(sp)
    14c8:	d8ca                	c.swsp	s2,112(sp)
    14ca:	84b2                	c.mv	s1,a2
    14cc:	d6ce                	c.swsp	s3,108(sp)
    14ce:	d4d2                	c.swsp	s4,104(sp)
    14d0:	d2d6                	c.swsp	s5,100(sp)
    14d2:	d0da                	c.swsp	s6,96(sp)
    14d4:	cede                	c.swsp	s7,92(sp)
    14d6:	cce2                	c.swsp	s8,88(sp)
    14d8:	cae6                	c.swsp	s9,84(sp)
    14da:	c8ea                	c.swsp	s10,80(sp)
    14dc:	c6ee                	c.swsp	s11,76(sp)
    14de:	3bed                	c.jal	12d8 <smemset.constprop.12>
    14e0:	000005b7          	lui	a1,0x0
    14e4:	04900793          	li	a5,73
    14e8:	4635                	c.li	a2,13
    14ea:	22c58593          	addi	a1,a1,556 # 22c <blc_cyrpt_para+0x18>
    14ee:	01110513          	addi	a0,sp,17
    14f2:	00f10823          	sb	a5,16(sp)
    14f6:	3bcd                	c.jal	12e8 <smemcpy>
    14f8:	10000793          	li	a5,256
    14fc:	85a6                	c.mv	a1,s1
    14fe:	4605                	c.li	a2,1
    1500:	03210513          	addi	a0,sp,50
    1504:	02f11823          	sh	a5,48(sp)
    1508:	00010f23          	sb	zero,30(sp)
    150c:	00810fa3          	sb	s0,31(sp)
    1510:	dd9ff0ef          	jal	ra,12e8 <smemcpy>
    1514:	45c1                	c.li	a1,16
    1516:	1008                	c.addi4spn	a0,sp,32
    1518:	dc1ff0ef          	jal	ra,12d8 <smemset.constprop.12>
    151c:	01040493          	addi	s1,s0,16
    1520:	00f47793          	andi	a5,s0,15
    1524:	3c04a4db          	bfoz	s1,s1,15,0
    1528:	c791                	c.beqz	a5,1534 <aes_ccmAuthTran.constprop.11+0x80>
    152a:	98c1                	c.andi	s1,-16
    152c:	01048493          	addi	s1,s1,16
    1530:	3c04a4db          	bfoz	s1,s1,15,0
    1534:	00000e37          	lui	t3,0x0
    1538:	00000937          	lui	s2,0x0
    153c:	00000cb7          	lui	s9,0x0
    1540:	04bd                	c.addi	s1,15
    1542:	158e0b93          	addi	s7,t3,344 # 158 <_AES_VMA_START>
    1546:	4b01                	c.li	s6,0
    1548:	4a81                	c.li	s5,0
    154a:	430d                	c.li	t1,3
    154c:	03010d13          	addi	s10,sp,48
    1550:	01c10c13          	addi	s8,sp,28
    1554:	17790913          	addi	s2,s2,375 # 177 <_AES_VMA_START+0x1f>
    1558:	167c8c93          	addi	s9,s9,359 # 167 <_AES_VMA_START+0xf>
    155c:	80160db7          	lui	s11,0x80160
    1560:	4985                	c.li	s3,1
    1562:	4a39                	c.li	s4,14
    1564:	1014                	c.addi4spn	a3,sp,32
    1566:	87b6                	c.mv	a5,a3
    1568:	00078703          	lb	a4,0(a5)
    156c:	ff078603          	lb	a2,-16(a5)
    1570:	0785                	c.addi	a5,1
    1572:	8f31                	c.xor	a4,a2
    1574:	fee78fa3          	sb	a4,-1(a5)
    1578:	fefd18e3          	bne	s10,a5,1568 <aes_ccmAuthTran.constprop.11+0xb4>
    157c:	855e                	c.mv	a0,s7
    157e:	1078                	c.addi4spn	a4,sp,44
    1580:	00274783          	lbu	a5,2(a4)
    1584:	00174583          	lbu	a1,1(a4)
    1588:	00374f03          	lbu	t5,3(a4)
    158c:	00074603          	lbu	a2,0(a4)
    1590:	07a2                	c.slli	a5,0x8
    1592:	05c2                	c.slli	a1,0x10
    1594:	8fcd                	c.or	a5,a1
    1596:	01e7e7b3          	or	a5,a5,t5
    159a:	0662                	c.slli	a2,0x18
    159c:	8fd1                	c.or	a5,a2
    159e:	c11c                	c.sw	a5,0(a0)
    15a0:	1771                	c.addi	a4,-4
    15a2:	0511                	c.addi	a0,4
    15a4:	fd871ee3          	bne	a4,s8,1580 <aes_ccmAuthTran.constprop.11+0xcc>
    15a8:	0d7da223          	sw	s7,196(s11) # 801600c4 <_DATA_LMA_START+0x601567ec>
    15ac:	0b3da823          	sw	s3,176(s11)
    15b0:	0b0da783          	lw	a5,176(s11)
    15b4:	fe07fe5b          	bbs	a5,0,15b0 <aes_ccmAuthTran.constprop.11+0xfc>
    15b8:	012007b3          	add	a5,zero,s2
    15bc:	00078703          	lb	a4,0(a5)
    15c0:	0685                	c.addi	a3,1
    15c2:	17fd                	c.addi	a5,-1
    15c4:	fee68fa3          	sb	a4,-1(a3)
    15c8:	fefc9ae3          	bne	s9,a5,15bc <aes_ccmAuthTran.constprop.11+0x108>
    15cc:	fff30793          	addi	a5,t1,-1
    15d0:	3c07a7db          	bfoz	a5,a5,15,0
    15d4:	06fa7c63          	bgeu	s4,a5,164c <aes_ccmAuthTran.constprop.11+0x198>
    15d8:	4512                	c.lwsp	a0,4(sp)
    15da:	004b1593          	slli	a1,s6,0x4
    15de:	95aa                	c.add	a1,a0
    15e0:	453d                	c.li	a0,15
    15e2:	04857963          	bgeu	a0,s0,1634 <aes_ccmAuthTran.constprop.11+0x180>
    15e6:	4641                	c.li	a2,16
    15e8:	0808                	c.addi4spn	a0,sp,16
    15ea:	39fd                	c.jal	12e8 <smemcpy>
    15ec:	001b0e93          	addi	t4,s6,1
    15f0:	ff040413          	addi	s0,s0,-16
    15f4:	0ffefb13          	andi	s6,t4,255
    15f8:	3c04245b          	bfoz	s0,s0,15,0
    15fc:	010a8813          	addi	a6,s5,16
    1600:	3c082adb          	bfoz	s5,a6,15,0
    1604:	4301                	c.li	t1,0
    1606:	f554dfe3          	bge	s1,s5,1564 <aes_ccmAuthTran.constprop.11+0xb0>
    160a:	4532                	c.lwsp	a0,12(sp)
    160c:	100c                	c.addi4spn	a1,sp,32
    160e:	4611                	c.li	a2,4
    1610:	cd9ff0ef          	jal	ra,12e8 <smemcpy>
    1614:	50f6                	c.lwsp	ra,124(sp)
    1616:	5466                	c.lwsp	s0,120(sp)
    1618:	54d6                	c.lwsp	s1,116(sp)
    161a:	5946                	c.lwsp	s2,112(sp)
    161c:	59b6                	c.lwsp	s3,108(sp)
    161e:	5a26                	c.lwsp	s4,104(sp)
    1620:	5a96                	c.lwsp	s5,100(sp)
    1622:	5b06                	c.lwsp	s6,96(sp)
    1624:	4bf6                	c.lwsp	s7,92(sp)
    1626:	4c66                	c.lwsp	s8,88(sp)
    1628:	4cd6                	c.lwsp	s9,84(sp)
    162a:	4d46                	c.lwsp	s10,80(sp)
    162c:	4db6                	c.lwsp	s11,76(sp)
    162e:	4501                	c.li	a0,0
    1630:	6109                	c.addi16sp	sp,128
    1632:	8082                	c.jr	ra
    1634:	0808                	c.addi4spn	a0,sp,16
    1636:	8622                	c.mv	a2,s0
    1638:	cb1ff0ef          	jal	ra,12e8 <smemcpy>
    163c:	0808                	c.addi4spn	a0,sp,16
    163e:	45c1                	c.li	a1,16
    1640:	8d81                	c.sub	a1,s0
    1642:	9522                	c.add	a0,s0
    1644:	c95ff0ef          	jal	ra,12d8 <smemset.constprop.12>
    1648:	fb5ff06f          	j	15fc <aes_ccmAuthTran.constprop.11+0x148>
    164c:	861a                	c.mv	a2,t1
    164e:	015d05b3          	add	a1,s10,s5
    1652:	0808                	c.addi4spn	a0,sp,16
    1654:	c41a                	c.swsp	t1,8(sp)
    1656:	3949                	c.jal	12e8 <smemcpy>
    1658:	4322                	c.lwsp	t1,8(sp)
    165a:	4541                	c.li	a0,16
    165c:	406505b3          	sub	a1,a0,t1
    1660:	0808                	c.addi4spn	a0,sp,16
    1662:	951a                	c.add	a0,t1
    1664:	c75ff0ef          	jal	ra,12d8 <smemset.constprop.12>
    1668:	00000b13          	li	s6,0
    166c:	f91ff06f          	j	15fc <aes_ccmAuthTran.constprop.11+0x148>

00001670 <aes_ll_ccm_decryption.constprop.9>:
    1670:	00154783          	lbu	a5,1(a0)
    1674:	4711                	c.li	a4,4
    1676:	0cf77563          	bgeu	a4,a5,1740 <aes_ll_ccm_decryption.constprop.9+0xd0>
    167a:	1101                	c.addi	sp,-32
    167c:	17f1                	c.addi	a5,-4
    167e:	00000637          	lui	a2,0x0
    1682:	ca26                	c.swsp	s1,20(sp)
    1684:	ce06                	c.swsp	ra,28(sp)
    1686:	cc22                	c.swsp	s0,24(sp)
    1688:	01212823          	sw	s2,16(sp)
    168c:	17860613          	addi	a2,a2,376 # 178 <_AES_VMA_END>
    1690:	00050703          	lb	a4,0(a0)
    1694:	0ff7f593          	andi	a1,a5,255
    1698:	00b500a3          	sb	a1,1(a0)
    169c:	0a062803          	lw	a6,160(a2)
    16a0:	00377793          	andi	a5,a4,3
    16a4:	00160337          	lui	t1,0x160
    16a8:	00180893          	addi	a7,a6,1
    16ac:	00250493          	addi	s1,a0,2
    16b0:	0b430693          	addi	a3,t1,180 # 1600b4 <FLASH_SIZE+0x600b4>
    16b4:	00f103a3          	sb	a5,7(sp)
    16b8:	0b060713          	addi	a4,a2,176
    16bc:	f8000793          	li	a5,-128
    16c0:	80000537          	lui	a0,0x80000
    16c4:	0c430313          	addi	t1,t1,196
    16c8:	0b162023          	sw	a7,160(a2)
    16cc:	0b062a23          	sw	a6,180(a2)
    16d0:	0af60c23          	sb	a5,184(a2)
    16d4:	00274783          	lbu	a5,2(a4)
    16d8:	00174883          	lbu	a7,1(a4)
    16dc:	00374603          	lbu	a2,3(a4)
    16e0:	00074803          	lbu	a6,0(a4)
    16e4:	07a2                	c.slli	a5,0x8
    16e6:	08c2                	c.slli	a7,0x10
    16e8:	0117e7b3          	or	a5,a5,a7
    16ec:	8fd1                	c.or	a5,a2
    16ee:	0862                	c.slli	a6,0x18
    16f0:	00a6e633          	or	a2,a3,a0
    16f4:	0107e7b3          	or	a5,a5,a6
    16f8:	c21c                	c.sw	a5,0(a2)
    16fa:	0691                	c.addi	a3,4
    16fc:	1771                	c.addi	a4,-4
    16fe:	fc669be3          	bne	a3,t1,16d4 <aes_ll_ccm_decryption.constprop.9+0x64>
    1702:	00b48433          	add	s0,s1,a1
    1706:	3c05a95b          	bfoz	s2,a1,15,0
    170a:	8622                	c.mv	a2,s0
    170c:	85ca                	c.mv	a1,s2
    170e:	8526                	c.mv	a0,s1
    1710:	bf1ff0ef          	jal	ra,1300 <aes_ccmBaseTran.isra.0.constprop.13>
    1714:	0034                	c.addi4spn	a3,sp,8
    1716:	00710613          	addi	a2,sp,7
    171a:	85ca                	c.mv	a1,s2
    171c:	8526                	c.mv	a0,s1
    171e:	3b59                	c.jal	14b4 <aes_ccmAuthTran.constprop.11>
    1720:	0068                	c.addi4spn	a0,sp,12
    1722:	85a2                	c.mv	a1,s0
    1724:	4611                	c.li	a2,4
    1726:	36c9                	c.jal	12e8 <smemcpy>
    1728:	4532                	c.lwsp	a0,12(sp)
    172a:	47a2                	c.lwsp	a5,8(sp)
    172c:	40f2                	c.lwsp	ra,28(sp)
    172e:	4462                	c.lwsp	s0,24(sp)
    1730:	8d1d                	c.sub	a0,a5
    1732:	44d2                	c.lwsp	s1,20(sp)
    1734:	4942                	c.lwsp	s2,16(sp)
    1736:	00a03533          	snez	a0,a0
    173a:	6105                	c.addi16sp	sp,32
    173c:	00008067          	ret
    1740:	4505                	c.li	a0,1
    1742:	8082                	c.jr	ra

00001744 <blt_ll_searchAddr_in_WhiteList>:
    1744:	00000737          	lui	a4,0x0
    1748:	17870713          	addi	a4,a4,376 # 178 <_AES_VMA_END>
    174c:	1e874603          	lbu	a2,488(a4)
    1750:	c635                	c.beqz	a2,17bc <blt_ll_searchAddr_in_WhiteList+0x78>
    1752:	1c870893          	addi	a7,a4,456
    1756:	87c6                	c.mv	a5,a7
    1758:	4701                	c.li	a4,0
    175a:	a029                	c.j	1764 <blt_ll_searchAddr_in_WhiteList+0x20>
    175c:	0705                	c.addi	a4,1
    175e:	07a1                	c.addi	a5,8
    1760:	04c75e63          	bge	a4,a2,17bc <blt_ll_searchAddr_in_WhiteList+0x78>
    1764:	0007c683          	lbu	a3,0(a5)
    1768:	fea69ae3          	bne	a3,a0,175c <blt_ll_searchAddr_in_WhiteList+0x18>
    176c:	0017c803          	lbu	a6,1(a5)
    1770:	0005c683          	lbu	a3,0(a1)
    1774:	fed814e3          	bne	a6,a3,175c <blt_ll_searchAddr_in_WhiteList+0x18>
    1778:	0027c803          	lbu	a6,2(a5)
    177c:	0015c683          	lbu	a3,1(a1)
    1780:	fcd81ee3          	bne	a6,a3,175c <blt_ll_searchAddr_in_WhiteList+0x18>
    1784:	0037c803          	lbu	a6,3(a5)
    1788:	0025c683          	lbu	a3,2(a1)
    178c:	fcd818e3          	bne	a6,a3,175c <blt_ll_searchAddr_in_WhiteList+0x18>
    1790:	0047c803          	lbu	a6,4(a5)
    1794:	0035c683          	lbu	a3,3(a1)
    1798:	fcd812e3          	bne	a6,a3,175c <blt_ll_searchAddr_in_WhiteList+0x18>
    179c:	0057c803          	lbu	a6,5(a5)
    17a0:	0045c683          	lbu	a3,4(a1)
    17a4:	fad81ce3          	bne	a6,a3,175c <blt_ll_searchAddr_in_WhiteList+0x18>
    17a8:	0067c803          	lbu	a6,6(a5)
    17ac:	0055c683          	lbu	a3,5(a1)
    17b0:	fad816e3          	bne	a6,a3,175c <blt_ll_searchAddr_in_WhiteList+0x18>
    17b4:	0ee8855b          	lea.d	a0,a7,a4
    17b8:	00008067          	ret
    17bc:	4501                	c.li	a0,0
    17be:	8082                	c.jr	ra

000017c0 <blt_ll_channel_conn_update>:
    17c0:	1141                	c.addi	sp,-16
    17c2:	c422                	c.swsp	s0,8(sp)
    17c4:	00000437          	lui	s0,0x0
    17c8:	17840413          	addi	s0,s0,376 # 178 <_AES_VMA_END>
    17cc:	c226                	c.swsp	s1,4(sp)
    17ce:	c606                	c.swsp	ra,12(sp)
    17d0:	c04a                	c.swsp	s2,0(sp)
    17d2:	0c244783          	lbu	a5,194(s0)
    17d6:	84aa                	c.mv	s1,a0
    17d8:	08079463          	bnez	a5,1860 <blt_ll_channel_conn_update+0xa0>
    17dc:	0024c783          	lbu	a5,2(s1)
    17e0:	4705                	c.li	a4,1
    17e2:	0a17d35b          	beqc	a5,1,1888 <blt_ll_channel_conn_update+0xc8>
    17e6:	e78d                	c.bnez	a5,1810 <blt_ll_channel_conn_update+0x50>
    17e8:	00c4d683          	lhu	a3,12(s1)
    17ec:	27041783          	lh	a5,624(s0)
    17f0:	26d41923          	sh	a3,626(s0)
    17f4:	40f687b3          	sub	a5,a3,a5
    17f8:	3c07b7db          	bfos	a5,a5,15,0
    17fc:	0cf04a63          	bgtz	a5,18d0 <blt_ll_channel_conn_update+0x110>
    1800:	00000513          	li	a0,0
    1804:	40b2                	c.lwsp	ra,12(sp)
    1806:	4422                	c.lwsp	s0,8(sp)
    1808:	4492                	c.lwsp	s1,4(sp)
    180a:	4902                	c.lwsp	s2,0(sp)
    180c:	0141                	c.addi	sp,16
    180e:	8082                	c.jr	ra
    1810:	bf87e85b          	bnec	a5,24,1800 <blt_ll_channel_conn_update+0x40>
    1814:	0064c783          	lbu	a5,6(s1)
    1818:	0054c603          	lbu	a2,5(s1)
    181c:	27041683          	lh	a3,624(s0)
    1820:	07a2                	c.slli	a5,0x8
    1822:	8fd1                	c.or	a5,a2
    1824:	40d786b3          	sub	a3,a5,a3
    1828:	3c06b6db          	bfos	a3,a3,15,0
    182c:	fcd05ae3          	blez	a3,1800 <blt_ll_channel_conn_update+0x40>
    1830:	00348683          	lb	a3,3(s1)
    1834:	00448583          	lb	a1,4(s1)
    1838:	460d                	c.li	a2,3
    183a:	8eed                	c.and	a3,a1
    183c:	1ee409a3          	sb	a4,499(s0)
    1840:	0ff6f693          	andi	a3,a3,255
    1844:	24c40aa3          	sb	a2,597(s0)
    1848:	26f41923          	sh	a5,626(s0)
    184c:	4e06f05b          	bbs	a3,0,192c <blt_ll_channel_conn_update+0x16c>
    1850:	4e16f25b          	bbs	a3,1,1934 <blt_ll_channel_conn_update+0x174>
    1854:	0e26f65b          	bbc	a3,2,1940 <blt_ll_channel_conn_update+0x180>
    1858:	2cc40123          	sb	a2,706(s0)
    185c:	fa5ff06f          	j	1800 <blt_ll_channel_conn_update+0x40>
    1860:	0a042903          	lw	s2,160(s0)
    1864:	24042783          	lw	a5,576(s0)
    1868:	0af42023          	sw	a5,160(s0)
    186c:	e05ff0ef          	jal	ra,1670 <aes_ll_ccm_decryption.constprop.9>
    1870:	0b242023          	sw	s2,160(s0)
    1874:	d525                	c.beqz	a0,17dc <blt_ll_channel_conn_update+0x1c>
    1876:	4785                	c.li	a5,1
    1878:	0cf401a3          	sb	a5,195(s0)
    187c:	40b2                	c.lwsp	ra,12(sp)
    187e:	4422                	c.lwsp	s0,8(sp)
    1880:	4492                	c.lwsp	s1,4(sp)
    1882:	4902                	c.lwsp	s2,0(sp)
    1884:	0141                	c.addi	sp,16
    1886:	8082                	c.jr	ra
    1888:	0084d683          	lhu	a3,8(s1)
    188c:	27041703          	lh	a4,624(s0)
    1890:	26d41923          	sh	a3,626(s0)
    1894:	40e68733          	sub	a4,a3,a4
    1898:	3c07375b          	bfos	a4,a4,15,0
    189c:	f6e052e3          	blez	a4,1800 <blt_ll_channel_conn_update+0x40>
    18a0:	26740513          	addi	a0,s0,615
    18a4:	00348593          	addi	a1,s1,3
    18a8:	4615                	c.li	a2,5
    18aa:	1ef409a3          	sb	a5,499(s0)
    18ae:	24f40aa3          	sb	a5,597(s0)
    18b2:	3c1d                	c.jal	12e8 <smemcpy>
    18b4:	2ac42783          	lw	a5,684(s0)
    18b8:	4501                	c.li	a0,0
    18ba:	4007e793          	ori	a5,a5,1024
    18be:	2af42623          	sw	a5,684(s0)
    18c2:	40b2                	c.lwsp	ra,12(sp)
    18c4:	4422                	c.lwsp	s0,8(sp)
    18c6:	4492                	c.lwsp	s1,4(sp)
    18c8:	4902                	c.lwsp	s2,0(sp)
    18ca:	0141                	c.addi	sp,16
    18cc:	00008067          	ret
    18d0:	00a49783          	lh	a5,10(s1)
    18d4:	00348303          	lb	t1,3(s1)
    18d8:	00449883          	lh	a7,4(s1)
    18dc:	00649803          	lh	a6,6(s1)
    18e0:	00849683          	lh	a3,8(s1)
    18e4:	2b040513          	addi	a0,s0,688
    18e8:	1ee409a3          	sb	a4,499(s0)
    18ec:	85a6                	c.mv	a1,s1
    18ee:	4709                	c.li	a4,2
    18f0:	4639                	c.li	a2,14
    18f2:	24e40aa3          	sb	a4,597(s0)
    18f6:	20f41323          	sh	a5,518(s0)
    18fa:	1e640b23          	sb	t1,502(s0)
    18fe:	21141023          	sh	a7,512(s0)
    1902:	21041123          	sh	a6,514(s0)
    1906:	20d41223          	sh	a3,516(s0)
    190a:	3af9                	c.jal	12e8 <smemcpy>
    190c:	2ac42783          	lw	a5,684(s0)
    1910:	6705                	c.lui	a4,0x1
    1912:	80070713          	addi	a4,a4,-2048 # 800 <blt_buff_prepare_write+0xb8>
    1916:	8fd9                	c.or	a5,a4
    1918:	2af42623          	sw	a5,684(s0)
    191c:	40b2                	c.lwsp	ra,12(sp)
    191e:	4422                	c.lwsp	s0,8(sp)
    1920:	4492                	c.lwsp	s1,4(sp)
    1922:	4902                	c.lwsp	s2,0(sp)
    1924:	4501                	c.li	a0,0
    1926:	0141                	c.addi	sp,16
    1928:	00008067          	ret
    192c:	2ce40123          	sb	a4,706(s0)
    1930:	4501                	c.li	a0,0
    1932:	bdc9                	c.j	1804 <blt_ll_channel_conn_update+0x44>
    1934:	4789                	c.li	a5,2
    1936:	2cf40123          	sb	a5,706(s0)
    193a:	4501                	c.li	a0,0
    193c:	ec9ff06f          	j	1804 <blt_ll_channel_conn_update+0x44>
    1940:	2c140783          	lb	a5,705(s0)
    1944:	4501                	c.li	a0,0
    1946:	2cf40123          	sb	a5,706(s0)
    194a:	bd6d                	c.j	1804 <blt_ll_channel_conn_update+0x44>

0000194c <bls_ll_setAdvEnable>:
    194c:	000007b7          	lui	a5,0x0
    1950:	17878793          	addi	a5,a5,376 # 178 <_AES_VMA_END>
    1954:	18778703          	lb	a4,391(a5)
    1958:	4c17705b          	bbs	a4,1,1a18 <bls_ll_setAdvEnable+0xcc>
    195c:	0ff57613          	andi	a2,a0,255
    1960:	0785745b          	bbc	a0,24,19c8 <bls_ll_setAdvEnable+0x7c>
    1964:	80100737          	lui	a4,0x80100
    1968:	f8000693          	li	a3,-128
    196c:	50d700a3          	sb	a3,1281(a4) # 80100501 <_DATA_LMA_START+0x600f6c29>
    1970:	80141737          	lui	a4,0x80141
    1974:	a0071e23          	sh	zero,-1508(a4) # 80140a1c <_DATA_LMA_START+0x60137144>
    1978:	56fd                	c.li	a3,-1
    197a:	801405b7          	lui	a1,0x80140
    197e:	a2d71023          	sh	a3,-1504(a4)
    1982:	66a1                	c.lui	a3,0x8
    1984:	2005a703          	lw	a4,512(a1) # 80140200 <_DATA_LMA_START+0x60136928>
    1988:	d0068693          	addi	a3,a3,-768 # 7d00 <_RAMCODE_VMA_END+0x29fe>
    198c:	9736                	c.add	a4,a3
    198e:	2ce7a623          	sw	a4,716(a5)
    1992:	18d78703          	lb	a4,397(a5)
    1996:	0ff77713          	andi	a4,a4,255
    199a:	ce39                	c.beqz	a2,19f8 <bls_ll_setAdvEnable+0xac>
    199c:	00175a5b          	beqc	a4,1,19b0 <bls_ll_setAdvEnable+0x64>
    19a0:	00100713          	li	a4,1
    19a4:	18e786a3          	sb	a4,397(a5)
    19a8:	2005a703          	lw	a4,512(a1)
    19ac:	2ee7a223          	sw	a4,740(a5)
    19b0:	18778703          	lb	a4,391(a5)
    19b4:	4501                	c.li	a0,0
    19b6:	0ff77713          	andi	a4,a4,255
    19ba:	00176713          	ori	a4,a4,1
    19be:	18e783a3          	sb	a4,391(a5)
    19c2:	16c78e23          	sb	a2,380(a5)
    19c6:	8082                	c.jr	ra
    19c8:	18d78703          	lb	a4,397(a5)
    19cc:	0ff77713          	andi	a4,a4,255
    19d0:	db51                	c.beqz	a4,1964 <bls_ll_setAdvEnable+0x18>
    19d2:	18d78703          	lb	a4,397(a5)
    19d6:	0ff77713          	andi	a4,a4,255
    19da:	b817555b          	beqc	a4,1,1964 <bls_ll_setAdvEnable+0x18>
    19de:	18778703          	lb	a4,391(a5)
    19e2:	4501                	c.li	a0,0
    19e4:	0ff77713          	andi	a4,a4,255
    19e8:	00176713          	ori	a4,a4,1
    19ec:	18e783a3          	sb	a4,391(a5)
    19f0:	16c78e23          	sb	a2,380(a5)
    19f4:	00008067          	ret
    19f8:	df45                	c.beqz	a4,19b0 <bls_ll_setAdvEnable+0x64>
    19fa:	180786a3          	sb	zero,397(a5)
    19fe:	18778703          	lb	a4,391(a5)
    1a02:	4501                	c.li	a0,0
    1a04:	0ff77713          	andi	a4,a4,255
    1a08:	00176713          	ori	a4,a4,1
    1a0c:	18e783a3          	sb	a4,391(a5)
    1a10:	16c78e23          	sb	a2,380(a5)
    1a14:	00008067          	ret
    1a18:	4531                	c.li	a0,12
    1a1a:	8082                	c.jr	ra

00001a1c <irq_ll_system_timer>:
    1a1c:	000007b7          	lui	a5,0x0
    1a20:	17878793          	addi	a5,a5,376 # 178 <_AES_VMA_END>
    1a24:	18d78703          	lb	a4,397(a5)
    1a28:	0ff77713          	andi	a4,a4,255
    1a2c:	0087545b          	beqc	a4,8,1a34 <irq_ll_system_timer+0x18>
    1a30:	00008067          	ret
    1a34:	2e87a303          	lw	t1,744(a5)
    1a38:	fe030ce3          	beqz	t1,1a30 <irq_ll_system_timer+0x14>
    1a3c:	00030067          	jr	t1

00001a40 <blt_event_callback_func>:
    1a40:	000007b7          	lui	a5,0x0
    1a44:	17878793          	addi	a5,a5,376 # 178 <_AES_VMA_END>
    1a48:	2ec7a683          	lw	a3,748(a5)
    1a4c:	872a                	c.mv	a4,a0
    1a4e:	ca89                	c.beqz	a3,1a60 <blt_event_callback_func+0x20>
    1a50:	4785                	c.li	a5,1
    1a52:	00a797b3          	sll	a5,a5,a0
    1a56:	8ff5                	c.and	a5,a3
    1a58:	00079c63          	bnez	a5,1a70 <blt_event_callback_func+0x30>
    1a5c:	00008067          	ret
    1a60:	0ca787db          	lea.w	a5,a5,a0
    1a64:	2f07a303          	lw	t1,752(a5)
    1a68:	fe030ae3          	beqz	t1,1a5c <blt_event_callback_func+0x1c>
    1a6c:	00030067          	jr	t1
    1a70:	01000537          	lui	a0,0x1000
    1a74:	00e56533          	or	a0,a0,a4
    1a78:	20004317          	auipc	t1,0x20004
    1a7c:	a2830067          	jr	-1496(t1) # 200054a0 <blc_hci_send_event>

00001a80 <trng_rand>:
    1a80:	000006b7          	lui	a3,0x0
    1a84:	17868693          	addi	a3,a3,376 # 178 <_AES_VMA_END>
    1a88:	3446a783          	lw	a5,836(a3)
    1a8c:	6641                	c.lui	a2,0x10
    1a8e:	167d                	c.addi	a2,-1
    1a90:	65a5                	c.lui	a1,0x9
    1a92:	3406a703          	lw	a4,832(a3)
    1a96:	00c7f533          	and	a0,a5,a2
    1a9a:	06958593          	addi	a1,a1,105 # 9069 <_RAMCODE_VMA_END+0x3d67>
    1a9e:	83c1                	c.srli	a5,0x10
    1aa0:	c4b517ff          	maddr32	a5,a0,a1
    1aa4:	6591                	c.lui	a1,0x4
    1aa6:	8e79                	c.and	a2,a4
    1aa8:	65058593          	addi	a1,a1,1616 # 4650 <entry_irq36+0x2c>
    1aac:	8341                	c.srli	a4,0x10
    1aae:	c4b6177f          	maddr32	a4,a2,a1
    1ab2:	80140637          	lui	a2,0x80140
    1ab6:	20062503          	lw	a0,512(a2) # 80140200 <_DATA_LMA_START+0x60136928>
    1aba:	01079613          	slli	a2,a5,0x10
    1abe:	963a                	c.add	a2,a4
    1ac0:	34e6a023          	sw	a4,832(a3)
    1ac4:	34f6a223          	sw	a5,836(a3)
    1ac8:	8d31                	c.xor	a0,a2
    1aca:	8082                	c.jr	ra

00001acc <rf_set_rxmode>:
    1acc:	801417b7          	lui	a5,0x80141
    1ad0:	04500713          	li	a4,69
    1ad4:	a0e78123          	sb	a4,-1534(a5) # 80140a02 <_DATA_LMA_START+0x6013712a>
    1ad8:	c2078703          	lb	a4,-992(a5)
    1adc:	0ff77713          	andi	a4,a4,255
    1ae0:	00876713          	ori	a4,a4,8
    1ae4:	c2e78023          	sb	a4,-992(a5)
    1ae8:	a0278703          	lb	a4,-1534(a5)
    1aec:	0ff77713          	andi	a4,a4,255
    1af0:	02076713          	ori	a4,a4,32
    1af4:	a0e78123          	sb	a4,-1534(a5)
    1af8:	82878703          	lb	a4,-2008(a5)
    1afc:	0ff77713          	andi	a4,a4,255
    1b00:	00176713          	ori	a4,a4,1
    1b04:	82e78423          	sb	a4,-2008(a5)
    1b08:	00008067          	ret

00001b0c <pm_tim_recover_32k_rc>:
    1b0c:	000007b7          	lui	a5,0x0
    1b10:	17878793          	addi	a5,a5,376 # 178 <_AES_VMA_END>
    1b14:	34c7a703          	lw	a4,844(a5)
    1b18:	3787c603          	lbu	a2,888(a5)
    1b1c:	3487a583          	lw	a1,840(a5)
    1b20:	40e50733          	sub	a4,a0,a4
    1b24:	3747a683          	lw	a3,884(a5)
    1b28:	ee01                	c.bnez	a2,1b40 <pm_tim_recover_32k_rc+0x34>
    1b2a:	02d70633          	mul	a2,a4,a3
    1b2e:	36a7a223          	sw	a0,868(a5)
    1b32:	36e7a023          	sw	a4,864(a5)
    1b36:	00465693          	srli	a3,a2,0x4
    1b3a:	95b6                	c.add	a1,a3
    1b3c:	852e                	c.mv	a0,a1
    1b3e:	8082                	c.jr	ra
    1b40:	00475613          	srli	a2,a4,0x4
    1b44:	c4d615ff          	maddr32	a1,a2,a3
    1b48:	36a7a223          	sw	a0,868(a5)
    1b4c:	36e7a023          	sw	a4,864(a5)
    1b50:	852e                	c.mv	a0,a1
    1b52:	8082                	c.jr	ra

00001b54 <pm_get_32k_rc_calib>:
    1b54:	801407b7          	lui	a5,0x80140
    1b58:	2147a703          	lw	a4,532(a5) # 80140214 <_DATA_LMA_START+0x6013693c>
    1b5c:	df75                	c.beqz	a4,1b58 <pm_get_32k_rc_calib+0x4>
    1b5e:	2147a503          	lw	a0,532(a5)
    1b62:	000007b7          	lui	a5,0x0
    1b66:	17878793          	addi	a5,a5,376 # 178 <_AES_VMA_END>
    1b6a:	35c7a703          	lw	a4,860(a5)
    1b6e:	36a7a623          	sw	a0,876(a5)
    1b72:	0512                	c.slli	a0,0x4
    1b74:	cb11                	c.beqz	a4,1b88 <pm_get_32k_rc_calib+0x34>
    1b76:	3707c603          	lbu	a2,880(a5)
    1b7a:	4691                	c.li	a3,4
    1b7c:	8d19                	c.sub	a0,a4
    1b7e:	8e91                	c.sub	a3,a2
    1b80:	40d55533          	sra	a0,a0,a3
    1b84:	00e50533          	add	a0,a0,a4
    1b88:	34a7ae23          	sw	a0,860(a5)
    1b8c:	3507a783          	lw	a5,848(a5)
    1b90:	8511                	c.srai	a0,0x4
    1b92:	02f507b3          	mul	a5,a0,a5
    1b96:	87c9                	c.srai	a5,0x12
    1b98:	953e                	c.add	a0,a5
    1b9a:	8082                	c.jr	ra

00001b9c <pm_update_32k_rc_sleep_tick>:
    1b9c:	000007b7          	lui	a5,0x0
    1ba0:	17878793          	addi	a5,a5,376 # 178 <_AES_VMA_END>
    1ba4:	3647a703          	lw	a4,868(a5)
    1ba8:	3707c683          	lbu	a3,880(a5)
    1bac:	40e50733          	sub	a4,a0,a4
    1bb0:	36e7a423          	sw	a4,872(a5)
    1bb4:	e681                	c.bnez	a3,1bbc <pm_update_32k_rc_sleep_tick+0x20>
    1bb6:	3487a703          	lw	a4,840(a5)
    1bba:	eb19                	c.bnez	a4,1bd0 <pm_update_32k_rc_sleep_tick+0x34>
    1bbc:	0015e593          	ori	a1,a1,1
    1bc0:	36078823          	sb	zero,880(a5)
    1bc4:	34a7a623          	sw	a0,844(a5)
    1bc8:	34b7a423          	sw	a1,840(a5)
    1bcc:	00008067          	ret
    1bd0:	34c7a703          	lw	a4,844(a5)
    1bd4:	6691                	c.lui	a3,0x4
    1bd6:	40e50733          	sub	a4,a0,a4
    1bda:	6c07275b          	bfoz	a4,a4,27,0
    1bde:	e8068693          	addi	a3,a3,-384 # 3e80 <main+0xf4>
    1be2:	fee6f5e3          	bgeu	a3,a4,1bcc <pm_update_32k_rc_sleep_tick+0x30>
    1be6:	0015e593          	ori	a1,a1,1
    1bea:	36078823          	sb	zero,880(a5)
    1bee:	34a7a623          	sw	a0,844(a5)
    1bf2:	34b7a423          	sw	a1,840(a5)
    1bf6:	bfd9                	c.j	1bcc <pm_update_32k_rc_sleep_tick+0x30>

00001bf8 <rf_set_ble_channel>:
    1bf8:	80141737          	lui	a4,0x80141
    1bfc:	0ff57793          	andi	a5,a0,255
    1c00:	80f706a3          	sb	a5,-2035(a4) # 8014080d <_DATA_LMA_START+0x60136f35>
    1c04:	4729                	c.li	a4,10
    1c06:	0aa75163          	bge	a4,a0,1ca8 <rf_set_ble_channel+0xb0>
    1c0a:	02400693          	li	a3,36
    1c0e:	02a6d363          	bge	a3,a0,1c34 <rf_set_ble_channel+0x3c>
    1c12:	105553db          	beqc	a0,37,1d18 <rf_set_ble_channel+0x120>
    1c16:	0e655bdb          	beqc	a0,38,1d0c <rf_set_ble_channel+0x114>
    1c1a:	107555db          	beqc	a0,39,1d24 <rf_set_ble_channel+0x12c>
    1c1e:	fcd78693          	addi	a3,a5,-51
    1c22:	0ff6f693          	andi	a3,a3,255
    1c26:	00d76b63          	bltu	a4,a3,1c3c <rf_set_ble_channel+0x44>
    1c2a:	fc378513          	addi	a0,a5,-61
    1c2e:	1c05355b          	bfos	a0,a0,7,0
    1c32:	a029                	c.j	1c3c <rf_set_ble_channel+0x44>
    1c34:	00378513          	addi	a0,a5,3
    1c38:	1c05355b          	bfos	a0,a0,7,0
    1c3c:	6785                	c.lui	a5,0x1
    1c3e:	96078713          	addi	a4,a5,-1696 # 960 <app_acl_txfifo+0x90>
    1c42:	0475355b          	bfos	a0,a0,1,7
    1c46:	953a                	c.add	a0,a4
    1c48:	9d778713          	addi	a4,a5,-1577
    1c4c:	00151813          	slli	a6,a0,0x1
    1c50:	02000693          	li	a3,32
    1c54:	06a77c63          	bgeu	a4,a0,1ccc <rf_set_ble_channel+0xd4>
    1c58:	801417b7          	lui	a5,0x80141
    1c5c:	e4478603          	lb	a2,-444(a5) # 80140e44 <_DATA_LMA_START+0x6013756c>
    1c60:	0ff67613          	andi	a2,a2,255
    1c64:	859fa70b          	lbugp	a4,-1960 # 80058 <g_single_tong_freqoffset>
    1c68:	00166613          	ori	a2,a2,1
    1c6c:	e4c78223          	sb	a2,-444(a5)
    1c70:	e4478583          	lb	a1,-444(a5)
    1c74:	9742                	c.add	a4,a6
    1c76:	0477265b          	bfoz	a2,a4,1,7
    1c7a:	8985                	c.andi	a1,1
    1c7c:	8e4d                	c.or	a2,a1
    1c7e:	e4c78223          	sb	a2,-444(a5)
    1c82:	e4578603          	lb	a2,-443(a5)
    1c86:	3877275b          	bfoz	a4,a4,14,7
    1c8a:	0c067613          	andi	a2,a2,192
    1c8e:	8f51                	c.or	a4,a2
    1c90:	e4e782a3          	sb	a4,-443(a5)
    1c94:	e2978703          	lb	a4,-471(a5)
    1c98:	03f77713          	andi	a4,a4,63
    1c9c:	8ed9                	c.or	a3,a4
    1c9e:	0ff6f693          	andi	a3,a3,255
    1ca2:	e2d784a3          	sb	a3,-471(a5)
    1ca6:	8082                	c.jr	ra
    1ca8:	00278513          	addi	a0,a5,2
    1cac:	1c05355b          	bfos	a0,a0,7,0
    1cb0:	6785                	c.lui	a5,0x1
    1cb2:	96078713          	addi	a4,a5,-1696 # 960 <app_acl_txfifo+0x90>
    1cb6:	0475355b          	bfos	a0,a0,1,7
    1cba:	953a                	c.add	a0,a4
    1cbc:	9d778713          	addi	a4,a5,-1577
    1cc0:	00151813          	slli	a6,a0,0x1
    1cc4:	02000693          	li	a3,32
    1cc8:	f8a768e3          	bltu	a4,a0,1c58 <rf_set_ble_channel+0x60>
    1ccc:	9be78713          	addi	a4,a5,-1602
    1cd0:	04000693          	li	a3,64
    1cd4:	f8a762e3          	bltu	a4,a0,1c58 <rf_set_ble_channel+0x60>
    1cd8:	9a078713          	addi	a4,a5,-1632
    1cdc:	06000693          	li	a3,96
    1ce0:	f6a76ce3          	bltu	a4,a0,1c58 <rf_set_ble_channel+0x60>
    1ce4:	98278713          	addi	a4,a5,-1662
    1ce8:	f8000693          	li	a3,-128
    1cec:	f6a766e3          	bltu	a4,a0,1c58 <rf_set_ble_channel+0x60>
    1cf0:	96478713          	addi	a4,a5,-1692
    1cf4:	fa000693          	li	a3,-96
    1cf8:	f6a760e3          	bltu	a4,a0,1c58 <rf_set_ble_channel+0x60>
    1cfc:	94b78793          	addi	a5,a5,-1717
    1d00:	5681                	c.li	a3,-32
    1d02:	f4a7fbe3          	bgeu	a5,a0,1c58 <rf_set_ble_channel+0x60>
    1d06:	fc000693          	li	a3,-64
    1d0a:	b7b9                	c.j	1c58 <rf_set_ble_channel+0x60>
    1d0c:	6705                	c.lui	a4,0x1
    1d0e:	2f470813          	addi	a6,a4,756 # 12f4 <smemcpy+0xc>
    1d12:	fa000693          	li	a3,-96
    1d16:	b789                	c.j	1c58 <rf_set_ble_channel+0x60>
    1d18:	6705                	c.lui	a4,0x1
    1d1a:	2c470813          	addi	a6,a4,708 # 12c4 <rf_start_fsm.constprop.16+0x48>
    1d1e:	fc000693          	li	a3,-64
    1d22:	bf1d                	c.j	1c58 <rf_set_ble_channel+0x60>
    1d24:	6705                	c.lui	a4,0x1
    1d26:	36070813          	addi	a6,a4,864 # 1360 <aes_ccmBaseTran.isra.0.constprop.13+0x60>
    1d2a:	06000693          	li	a3,96
    1d2e:	b72d                	c.j	1c58 <rf_set_ble_channel+0x60>

00001d30 <ble_rx_dma_config>:
    1d30:	801006b7          	lui	a3,0x80100
    1d34:	200097b7          	lui	a5,0x20009
    1d38:	4586a703          	lw	a4,1112(a3) # 80100458 <_DATA_LMA_START+0x600f6b80>
    1d3c:	7bc7a783          	lw	a5,1980(a5) # 200097bc <rf_rx_dma_config>
    1d40:	8b3d                	c.andi	a4,15
    1d42:	0792                	c.slli	a5,0x4
    1d44:	8fd9                	c.or	a5,a4
    1d46:	44f6ac23          	sw	a5,1112(a3)
    1d4a:	8082                	c.jr	ra

00001d4c <ble_tx_dma_config>:
    1d4c:	801006b7          	lui	a3,0x80100
    1d50:	200097b7          	lui	a5,0x20009
    1d54:	4446a703          	lw	a4,1092(a3) # 80100444 <_DATA_LMA_START+0x600f6b6c>
    1d58:	7c07a783          	lw	a5,1984(a5) # 200097c0 <rf_tx_dma_config>
    1d5c:	8b3d                	c.andi	a4,15
    1d5e:	0792                	c.slli	a5,0x4
    1d60:	8fd9                	c.or	a5,a4
    1d62:	44f6a223          	sw	a5,1092(a3)
    1d66:	8082                	c.jr	ra

00001d68 <blc_ll_initBasicMCU>:
    1d68:	1141                	c.addi	sp,-16
    1d6a:	80140737          	lui	a4,0x80140
    1d6e:	c606                	c.swsp	ra,12(sp)
    1d70:	20072783          	lw	a5,512(a4) # 80140200 <_DATA_LMA_START+0x60136928>
    1d74:	800006b7          	lui	a3,0x80000
    1d78:	97b6                	c.add	a5,a3
    1d7a:	20f72223          	sw	a5,516(a4)
    1d7e:	20870783          	lb	a5,520(a4)
    1d82:	e40026b7          	lui	a3,0xe4002
    1d86:	0ff7f793          	andi	a5,a5,255
    1d8a:	0017e793          	ori	a5,a5,1
    1d8e:	20f70423          	sb	a5,520(a4)
    1d92:	429c                	c.lw	a5,0(a3)
    1d94:	6621                	c.lui	a2,0x8
    1d96:	8fd1                	c.or	a5,a2
    1d98:	c29c                	c.sw	a5,0(a3)
    1d9a:	e4000737          	lui	a4,0xe4000
    1d9e:	4789                	c.li	a5,2
    1da0:	df5c                	c.sw	a5,60(a4)
    1da2:	c35c                	c.sw	a5,4(a4)
    1da4:	e42007b7          	lui	a5,0xe4200
    1da8:	0007a023          	sw	zero,0(a5) # e4200000 <_DATA_LMA_START+0xc41f6728>
    1dac:	fa1ff0ef          	jal	ra,1d4c <ble_tx_dma_config>
    1db0:	40b2                	c.lwsp	ra,12(sp)
    1db2:	0141                	c.addi	sp,16
    1db4:	f7dff06f          	j	1d30 <ble_rx_dma_config>

00001db8 <ble_rf_set_rx_dma>:
    1db8:	801007b7          	lui	a5,0x80100
    1dbc:	50c78703          	lb	a4,1292(a5) # 8010050c <_DATA_LMA_START+0x600f6c34>
    1dc0:	0511                	c.addi	a0,4
    1dc2:	0ff77713          	andi	a4,a4,255
    1dc6:	00676713          	ori	a4,a4,6
    1dca:	50e78623          	sb	a4,1292(a5)
    1dce:	500786a3          	sb	zero,1293(a5)
    1dd2:	00141737          	lui	a4,0x141
    1dd6:	4eb78b23          	sb	a1,1270(a5)
    1dda:	88070713          	addi	a4,a4,-1920 # 140880 <FLASH_SIZE+0x40880>
    1dde:	44e7ae23          	sw	a4,1116(a5)
    1de2:	000a07b7          	lui	a5,0xa0
    1de6:	00f57563          	bgeu	a0,a5,1df0 <ble_rf_set_rx_dma+0x38>
    1dea:	c01807b7          	lui	a5,0xc0180
    1dee:	953e                	c.add	a0,a5
    1df0:	801007b7          	lui	a5,0x80100
    1df4:	46a7a023          	sw	a0,1120(a5) # 80100460 <_DATA_LMA_START+0x600f6b88>
    1df8:	577d                	c.li	a4,-1
    1dfa:	46e7a223          	sw	a4,1124(a5)
    1dfe:	8082                	c.jr	ra

00001e00 <blt_setScan_enter_manaul_rx>:
    1e00:	1141                	c.addi	sp,-16
    1e02:	c422                	c.swsp	s0,8(sp)
    1e04:	00000437          	lui	s0,0x0
    1e08:	17840413          	addi	s0,s0,376 # 178 <_AES_VMA_END>
    1e0c:	c606                	c.swsp	ra,12(sp)
    1e0e:	c226                	c.swsp	s1,4(sp)
    1e10:	4709                	c.li	a4,2
    1e12:	37c42783          	lw	a5,892(s0)
    1e16:	18e40723          	sb	a4,398(s0)
    1e1a:	cb89                	c.beqz	a5,1e2c <blt_setScan_enter_manaul_rx+0x2c>
    1e1c:	38444703          	lbu	a4,900(s0)
    1e20:	0017565b          	beqc	a4,1,1e2c <blt_setScan_enter_manaul_rx+0x2c>
    1e24:	4589                	c.li	a1,2
    1e26:	4505                	c.li	a0,1
    1e28:	000780e7          	jalr	a5
    1e2c:	801406b7          	lui	a3,0x80140
    1e30:	3a042783          	lw	a5,928(s0)
    1e34:	2006a703          	lw	a4,512(a3) # 80140200 <_DATA_LMA_START+0x60136928>
    1e38:	3a442603          	lw	a2,932(s0)
    1e3c:	8f1d                	c.sub	a4,a5
    1e3e:	39944783          	lbu	a5,921(s0)
    1e42:	00e67f63          	bgeu	a2,a4,1e60 <blt_setScan_enter_manaul_rx+0x60>
    1e46:	2006a703          	lw	a4,512(a3)
    1e4a:	0785                	c.addi	a5,1
    1e4c:	3ae42023          	sw	a4,928(s0)
    1e50:	0ff7f793          	andi	a5,a5,255
    1e54:	4709                	c.li	a4,2
    1e56:	06f77763          	bgeu	a4,a5,1ec4 <blt_setScan_enter_manaul_rx+0xc4>
    1e5a:	4781                	c.li	a5,0
    1e5c:	38040ca3          	sb	zero,921(s0)
    1e60:	97a2                	c.add	a5,s0
    1e62:	801414b7          	lui	s1,0x80141
    1e66:	3a87c503          	lbu	a0,936(a5)
    1e6a:	02900793          	li	a5,41
    1e6e:	a0f48b23          	sb	a5,-1514(s1) # 80140a16 <_DATA_LMA_START+0x6013713e>
    1e72:	f8000793          	li	a5,-128
    1e76:	82f48423          	sb	a5,-2008(s1)
    1e7a:	1c05355b          	bfos	a0,a0,7,0
    1e7e:	04500793          	li	a5,69
    1e82:	a0f48123          	sb	a5,-1534(s1)
    1e86:	3b8d                	c.jal	1bf8 <rf_set_ble_channel>
    1e88:	d6be97b7          	lui	a5,0xd6be9
    1e8c:	98e78793          	addi	a5,a5,-1650 # d6be898e <_DATA_LMA_START+0xb6bdf0b6>
    1e90:	80f4a423          	sw	a5,-2040(s1)
    1e94:	005557b7          	lui	a5,0x555
    1e98:	39844583          	lbu	a1,920(s0)
    1e9c:	39c42503          	lw	a0,924(s0)
    1ea0:	55578793          	addi	a5,a5,1365 # 555555 <FLASH_SIZE+0x455555>
    1ea4:	82f4a223          	sw	a5,-2012(s1)
    1ea8:	02500793          	li	a5,37
    1eac:	82f488a3          	sb	a5,-1999(s1)
    1eb0:	f09ff0ef          	jal	ra,1db8 <ble_rf_set_rx_dma>
    1eb4:	57fd                	c.li	a5,-1
    1eb6:	a2f49023          	sh	a5,-1504(s1)
    1eba:	4422                	c.lwsp	s0,8(sp)
    1ebc:	40b2                	c.lwsp	ra,12(sp)
    1ebe:	4492                	c.lwsp	s1,4(sp)
    1ec0:	0141                	c.addi	sp,16
    1ec2:	b129                	c.j	1acc <rf_set_rxmode>
    1ec4:	38f40ca3          	sb	a5,921(s0)
    1ec8:	f99ff06f          	j	1e60 <blt_setScan_enter_manaul_rx+0x60>

00001ecc <irq_blc_ll_rx>:
    1ecc:	1141                	c.addi	sp,-16
    1ece:	c422                	c.swsp	s0,8(sp)
    1ed0:	00000437          	lui	s0,0x0
    1ed4:	17840413          	addi	s0,s0,376 # 178 <_AES_VMA_END>
    1ed8:	c606                	c.swsp	ra,12(sp)
    1eda:	c226                	c.swsp	s1,4(sp)
    1edc:	3b244703          	lbu	a4,946(s0)
    1ee0:	3b842483          	lw	s1,952(s0)
    1ee4:	3b144603          	lbu	a2,945(s0)
    1ee8:	3ac45683          	lhu	a3,940(s0)
    1eec:	00170793          	addi	a5,a4,1
    1ef0:	0ff7f793          	andi	a5,a5,255
    1ef4:	00c7f5b3          	and	a1,a5,a2
    1ef8:	8526                	c.mv	a0,s1
    1efa:	c4d5957f          	maddr32	a0,a1,a3
    1efe:	8f71                	c.and	a4,a2
    1f00:	1aa42023          	sw	a0,416(s0)
    1f04:	1a042503          	lw	a0,416(s0)
    1f08:	19340583          	lb	a1,403(s0)
    1f0c:	c4d714ff          	maddr32	s1,a4,a3
    1f10:	0ff5f593          	andi	a1,a1,255
    1f14:	3af40923          	sb	a5,946(s0)
    1f18:	ea1ff0ef          	jal	ra,1db8 <ble_rf_set_rx_dma>
    1f1c:	801417b7          	lui	a5,0x80141
    1f20:	00100713          	li	a4,1
    1f24:	a2e79023          	sh	a4,-1504(a5) # 80140a20 <_DATA_LMA_START+0x60137148>
    1f28:	801407b7          	lui	a5,0x80140
    1f2c:	2007a583          	lw	a1,512(a5) # 80140200 <_DATA_LMA_START+0x60136928>
    1f30:	00048123          	sb	zero,2(s1)
    1f34:	18e40783          	lb	a5,398(s0)
    1f38:	0ff7f793          	andi	a5,a5,255
    1f3c:	1057d45b          	beqc	a5,5,2044 <irq_blc_ll_rx+0x178>
    1f40:	801417b7          	lui	a5,0x80141
    1f44:	83178783          	lb	a5,-1999(a5) # 80140831 <_DATA_LMA_START+0x60136f59>
    1f48:	0054c703          	lbu	a4,5(s1)
    1f4c:	0ff7f793          	andi	a5,a5,255
    1f50:	00e7e863          	bltu	a5,a4,1f60 <irq_blc_ll_rx+0x94>
    1f54:	00970733          	add	a4,a4,s1
    1f58:	01070783          	lb	a5,16(a4)
    1f5c:	0207fa5b          	bbc	a5,0,1f90 <irq_blc_ll_rx+0xc4>
    1f60:	25840783          	lb	a5,600(s0)
    1f64:	00178793          	addi	a5,a5,1
    1f68:	24f40c23          	sb	a5,600(s0)
    1f6c:	3b240783          	lb	a5,946(s0)
    1f70:	1a942023          	sw	s1,416(s0)
    1f74:	17fd                	c.addi	a5,-1
    1f76:	3af40923          	sb	a5,946(s0)
    1f7a:	1a042503          	lw	a0,416(s0)
    1f7e:	19340583          	lb	a1,403(s0)
    1f82:	4422                	c.lwsp	s0,8(sp)
    1f84:	40b2                	c.lwsp	ra,12(sp)
    1f86:	4492                	c.lwsp	s1,4(sp)
    1f88:	0ff5f593          	andi	a1,a1,255
    1f8c:	0141                	c.addi	sp,16
    1f8e:	b52d                	c.j	1db8 <ble_rf_set_rx_dma>
    1f90:	18d40783          	lb	a5,397(s0)
    1f94:	00000513          	li	a0,0
    1f98:	0ff7f793          	andi	a5,a5,255
    1f9c:	0647d45b          	beqc	a5,4,2004 <irq_blc_ll_rx+0x138>
    1fa0:	18d40783          	lb	a5,397(s0)
    1fa4:	0ff7f793          	andi	a5,a5,255
    1fa8:	0487ee5b          	bnec	a5,8,2004 <irq_blc_ll_rx+0x138>
    1fac:	18e40783          	lb	a5,398(s0)
    1fb0:	0ff7f793          	andi	a5,a5,255
    1fb4:	0057d85b          	beqc	a5,5,1fc4 <irq_blc_ll_rx+0xf8>
    1fb8:	18e40783          	lb	a5,398(s0)
    1fbc:	0ff7f793          	andi	a5,a5,255
    1fc0:	0437e25b          	bnec	a5,3,2004 <irq_blc_ll_rx+0x138>
    1fc4:	3d042703          	lw	a4,976(s0)
    1fc8:	4501                	c.li	a0,0
    1fca:	cf0d                	c.beqz	a4,2004 <irq_blc_ll_rx+0x138>
    1fcc:	18440783          	lb	a5,388(s0)
    1fd0:	0ff7f793          	andi	a5,a5,255
    1fd4:	0c078463          	beqz	a5,209c <irq_blc_ll_rx+0x1d0>
    1fd8:	18440783          	lb	a5,388(s0)
    1fdc:	25844683          	lbu	a3,600(s0)
    1fe0:	0ff7f793          	andi	a5,a5,255
    1fe4:	0af6ec63          	bltu	a3,a5,209c <irq_blc_ll_rx+0x1d0>
    1fe8:	2ac42783          	lw	a5,684(s0)
    1fec:	00100693          	li	a3,1
    1ff0:	0407e793          	ori	a5,a5,64
    1ff4:	18d402a3          	sb	a3,389(s0)
    1ff8:	2af42623          	sw	a5,684(s0)
    1ffc:	8526                	c.mv	a0,s1
    1ffe:	9702                	c.jalr	a4
    2000:	0ff57513          	andi	a0,a0,255
    2004:	180402a3          	sb	zero,389(s0)
    2008:	18040703          	lb	a4,384(s0)
    200c:	0054c783          	lbu	a5,5(s1)
    2010:	0ff77713          	andi	a4,a4,255
    2014:	97a6                	c.add	a5,s1
    2016:	00f7c683          	lbu	a3,15(a5)
    201a:	cf39                	c.beqz	a4,2078 <irq_blc_ll_rx+0x1ac>
    201c:	18040783          	lb	a5,384(s0)
    2020:	0ff7f793          	andi	a5,a5,255
    2024:	97b6                	c.add	a5,a3
    2026:	8385                	c.srli	a5,0x1
    2028:	18f40023          	sb	a5,384(s0)
    202c:	25840783          	lb	a5,600(s0)
    2030:	0785                	c.addi	a5,1
    2032:	24f40c23          	sb	a5,600(s0)
    2036:	d91d                	c.beqz	a0,1f6c <irq_blc_ll_rx+0xa0>
    2038:	40b2                	c.lwsp	ra,12(sp)
    203a:	4422                	c.lwsp	s0,8(sp)
    203c:	4492                	c.lwsp	s1,4(sp)
    203e:	0141                	c.addi	sp,16
    2040:	00008067          	ret
    2044:	2c144783          	lbu	a5,705(s0)
    2048:	0437d65b          	beqc	a5,3,2094 <irq_blc_ll_rx+0x1c8>
    204c:	3cf44783          	lbu	a5,975(s0)
    2050:	cb85                	c.beqz	a5,2080 <irq_blc_ll_rx+0x1b4>
    2052:	80100737          	lui	a4,0x80100
    2056:	50070683          	lb	a3,1280(a4) # 80100500 <_DATA_LMA_START+0x600f6c28>
    205a:	50170703          	lb	a4,1281(a4)
    205e:	0ff6f693          	andi	a3,a3,255
    2062:	0ff77713          	andi	a4,a4,255
    2066:	00e68d63          	beq	a3,a4,2080 <irq_blc_ll_rx+0x1b4>
    206a:	6705                	c.lui	a4,0x1
    206c:	83470713          	addi	a4,a4,-1996 # 834 <blt_buff_prepare_write+0xec>
    2070:	0ef707db          	lea.d	a5,a4,a5
    2074:	0792                	c.slli	a5,0x4
    2076:	a809                	c.j	2088 <irq_blc_ll_rx+0x1bc>
    2078:	18d40023          	sb	a3,384(s0)
    207c:	fb1ff06f          	j	202c <irq_blc_ll_rx+0x160>
    2080:	000087b7          	lui	a5,0x8
    2084:	34078793          	addi	a5,a5,832 # 8340 <_RAMCODE_VMA_END+0x303e>
    2088:	97ae                	c.add	a5,a1
    208a:	80140737          	lui	a4,0x80140
    208e:	20f72223          	sw	a5,516(a4) # 80140204 <_DATA_LMA_START+0x6013692c>
    2092:	b57d                	c.j	1f40 <irq_blc_ll_rx+0x74>
    2094:	67d5                	c.lui	a5,0x15
    2096:	b4078793          	addi	a5,a5,-1216 # 14b40 <BIN_SIZE+0xb21e>
    209a:	b7fd                	c.j	2088 <irq_blc_ll_rx+0x1bc>
    209c:	3b240783          	lb	a5,946(s0)
    20a0:	3b340603          	lb	a2,947(s0)
    20a4:	3b044683          	lbu	a3,944(s0)
    20a8:	8f91                	c.sub	a5,a2
    20aa:	03f7f793          	andi	a5,a5,63
    20ae:	f4d7e7e3          	bltu	a5,a3,1ffc <irq_blc_ll_rx+0x130>
    20b2:	bf1d                	c.j	1fe8 <irq_blc_ll_rx+0x11c>

000020b4 <irq_blt_sdk_handler>:
    20b4:	1141                	c.addi	sp,-16
    20b6:	c422                	c.swsp	s0,8(sp)
    20b8:	00000437          	lui	s0,0x0
    20bc:	17840413          	addi	s0,s0,376 # 178 <_AES_VMA_END>
    20c0:	c606                	c.swsp	ra,12(sp)
    20c2:	c226                	c.swsp	s1,4(sp)
    20c4:	17e40783          	lb	a5,382(s0)
    20c8:	0ff7f793          	andi	a5,a5,255
    20cc:	efe1                	c.bnez	a5,21a4 <irq_blt_sdk_handler+0xf0>
    20ce:	801417b7          	lui	a5,0x80141
    20d2:	a2079483          	lh	s1,-1504(a5) # 80140a20 <_DATA_LMA_START+0x60137148>
    20d6:	3c04a4db          	bfoz	s1,s1,15,0
    20da:	0204f75b          	bbc	s1,0,2108 <irq_blt_sdk_handler+0x54>
    20de:	18e40783          	lb	a5,398(s0)
    20e2:	0ff7f793          	andi	a5,a5,255
    20e6:	1627e35b          	bnec	a5,2,224c <irq_blt_sdk_handler+0x198>
    20ea:	3d442783          	lw	a5,980(s0)
    20ee:	9782                	c.jalr	a5
    20f0:	3d842703          	lw	a4,984(s0)
    20f4:	00070a63          	beqz	a4,2108 <irq_blt_sdk_handler+0x54>
    20f8:	18e40783          	lb	a5,398(s0)
    20fc:	0ff7f793          	andi	a5,a5,255
    2100:	1257ec5b          	bnec	a5,5,2238 <irq_blt_sdk_handler+0x184>
    2104:	4505                	c.li	a0,1
    2106:	9702                	c.jalr	a4
    2108:	0414f25b          	bbc	s1,1,214c <irq_blt_sdk_handler+0x98>
    210c:	3d842703          	lw	a4,984(s0)
    2110:	801417b7          	lui	a5,0x80141
    2114:	4689                	c.li	a3,2
    2116:	a2d79023          	sh	a3,-1504(a5) # 80140a20 <_DATA_LMA_START+0x60137148>
    211a:	cb09                	c.beqz	a4,212c <irq_blt_sdk_handler+0x78>
    211c:	18e40783          	lb	a5,398(s0)
    2120:	0ff7f793          	andi	a5,a5,255
    2124:	1057e25b          	bnec	a5,5,2228 <irq_blt_sdk_handler+0x174>
    2128:	4509                	c.li	a0,2
    212a:	9702                	c.jalr	a4
    212c:	3dc42703          	lw	a4,988(s0)
    2130:	cb01                	c.beqz	a4,2140 <irq_blt_sdk_handler+0x8c>
    2132:	18240783          	lb	a5,386(s0)
    2136:	0ff7f793          	andi	a5,a5,255
    213a:	c399                	c.beqz	a5,2140 <irq_blt_sdk_handler+0x8c>
    213c:	000700e7          	jalr	a4
    2140:	18d40783          	lb	a5,397(s0)
    2144:	0ff7f793          	andi	a5,a5,255
    2148:	0887d45b          	beqc	a5,8,21d0 <irq_blt_sdk_handler+0x11c>
    214c:	4744f493          	andi	s1,s1,1140
    2150:	00048e63          	beqz	s1,216c <irq_blt_sdk_handler+0xb8>
    2154:	801417b7          	lui	a5,0x80141
    2158:	47400713          	li	a4,1140
    215c:	a2e79023          	sh	a4,-1504(a5) # 80140a20 <_DATA_LMA_START+0x60137148>
    2160:	18e40783          	lb	a5,398(s0)
    2164:	0ff7f793          	andi	a5,a5,255
    2168:	0a57d65b          	beqc	a5,5,2214 <irq_blt_sdk_handler+0x160>
    216c:	801407b7          	lui	a5,0x80140
    2170:	20978703          	lb	a4,521(a5) # 80140209 <_DATA_LMA_START+0x60136931>
    2174:	42077e5b          	bbs	a4,0,21b0 <irq_blt_sdk_handler+0xfc>
    2178:	80140737          	lui	a4,0x80140
    217c:	20472783          	lw	a5,516(a4) # 80140204 <_DATA_LMA_START+0x6013692c>
    2180:	20072603          	lw	a2,512(a4)
    2184:	400006b7          	lui	a3,0x40000
    2188:	40c787b3          	sub	a5,a5,a2
    218c:	00f6fc63          	bgeu	a3,a5,21a4 <irq_blt_sdk_handler+0xf0>
    2190:	18d40783          	lb	a5,397(s0)
    2194:	8bb9                	c.andi	a5,14
    2196:	c799                	c.beqz	a5,21a4 <irq_blt_sdk_handler+0xf0>
    2198:	20072783          	lw	a5,512(a4)
    219c:	7d078793          	addi	a5,a5,2000
    21a0:	20f72223          	sw	a5,516(a4)
    21a4:	40b2                	c.lwsp	ra,12(sp)
    21a6:	4422                	c.lwsp	s0,8(sp)
    21a8:	4492                	c.lwsp	s1,4(sp)
    21aa:	0141                	c.addi	sp,16
    21ac:	00008067          	ret
    21b0:	4705                	c.li	a4,1
    21b2:	20e784a3          	sb	a4,521(a5)
    21b6:	309d                	c.jal	1a1c <irq_ll_system_timer>
    21b8:	80140737          	lui	a4,0x80140
    21bc:	20472783          	lw	a5,516(a4) # 80140204 <_DATA_LMA_START+0x6013692c>
    21c0:	20072603          	lw	a2,512(a4)
    21c4:	400006b7          	lui	a3,0x40000
    21c8:	8f91                	c.sub	a5,a2
    21ca:	fcf6e3e3          	bltu	a3,a5,2190 <irq_blt_sdk_handler+0xdc>
    21ce:	bfd9                	c.j	21a4 <irq_blt_sdk_handler+0xf0>
    21d0:	3e640783          	lb	a5,998(s0)
    21d4:	3e740683          	lb	a3,999(s0)
    21d8:	8f95                	c.sub	a5,a3
    21da:	8bfd                	c.andi	a5,31
    21dc:	dba5                	c.beqz	a5,214c <irq_blt_sdk_handler+0x98>
    21de:	80100637          	lui	a2,0x80100
    21e2:	50060703          	lb	a4,1280(a2) # 80100500 <_DATA_LMA_START+0x600f6c28>
    21e6:	50160503          	lb	a0,1281(a2)
    21ea:	4585                	c.li	a1,1
    21ec:	8f09                	c.sub	a4,a0
    21ee:	8b7d                	c.andi	a4,31
    21f0:	177d                	c.addi	a4,-1
    21f2:	f4e5ede3          	bltu	a1,a4,214c <irq_blt_sdk_handler+0x98>
    21f6:	50060703          	lb	a4,1280(a2)
    21fa:	96be                	c.add	a3,a5
    21fc:	97ba                	c.add	a5,a4
    21fe:	3ed403a3          	sb	a3,999(s0)
    2202:	0ff7f793          	andi	a5,a5,255
    2206:	50f60023          	sb	a5,1280(a2)
    220a:	50160783          	lb	a5,1281(a2)
    220e:	50060783          	lb	a5,1280(a2)
    2212:	bf2d                	c.j	214c <irq_blt_sdk_handler+0x98>
    2214:	80140737          	lui	a4,0x80140
    2218:	20072783          	lw	a5,512(a4) # 80140200 <_DATA_LMA_START+0x60136928>
    221c:	0c878793          	addi	a5,a5,200
    2220:	20f72223          	sw	a5,516(a4)
    2224:	f49ff06f          	j	216c <irq_blt_sdk_handler+0xb8>
    2228:	18e40783          	lb	a5,398(s0)
    222c:	0ff7f793          	andi	a5,a5,255
    2230:	ae37ee5b          	bnec	a5,3,212c <irq_blt_sdk_handler+0x78>
    2234:	ef5ff06f          	j	2128 <irq_blt_sdk_handler+0x74>
    2238:	18e40783          	lb	a5,398(s0)
    223c:	0ff7f793          	andi	a5,a5,255
    2240:	ac37d25b          	beqc	a5,3,2104 <irq_blt_sdk_handler+0x50>
    2244:	b014f45b          	bbc	s1,1,214c <irq_blt_sdk_handler+0x98>
    2248:	ec5ff06f          	j	210c <irq_blt_sdk_handler+0x58>
    224c:	c81ff0ef          	jal	ra,1ecc <irq_blc_ll_rx>
    2250:	ea1ff06f          	j	20f0 <irq_blt_sdk_handler+0x3c>

00002254 <stimer_irq_handler>:
    2254:	e61ff06f          	j	20b4 <irq_blt_sdk_handler>

00002258 <rf_irq_handler>:
    2258:	e5dff06f          	j	20b4 <irq_blt_sdk_handler>

0000225c <delay_ms>:
    225c:	000047b7          	lui	a5,0x4
    2260:	e8078793          	addi	a5,a5,-384 # 3e80 <main+0xf4>
    2264:	02f50533          	mul	a0,a0,a5
    2268:	801407b7          	lui	a5,0x80140
    226c:	2007a683          	lw	a3,512(a5) # 80140200 <_DATA_LMA_START+0x60136928>
    2270:	80140737          	lui	a4,0x80140
    2274:	20072783          	lw	a5,512(a4) # 80140200 <_DATA_LMA_START+0x60136928>
    2278:	8f95                	c.sub	a5,a3
    227a:	fef57de3          	bgeu	a0,a5,2274 <delay_ms+0x18>
    227e:	8082                	c.jr	ra

00002280 <delay_us>:
    2280:	801407b7          	lui	a5,0x80140
    2284:	2007a683          	lw	a3,512(a5) # 80140200 <_DATA_LMA_START+0x60136928>
    2288:	00451513          	slli	a0,a0,0x4
    228c:	80140737          	lui	a4,0x80140
    2290:	20072783          	lw	a5,512(a4) # 80140200 <_DATA_LMA_START+0x60136928>
    2294:	8f95                	c.sub	a5,a3
    2296:	fef57de3          	bgeu	a0,a5,2290 <delay_us+0x10>
    229a:	8082                	c.jr	ra

0000229c <flash_send_addr>:
    229c:	5d05275b          	bfoz	a4,a0,23,16
    22a0:	801407b7          	lui	a5,0x80140
    22a4:	801406b7          	lui	a3,0x80140
    22a8:	10e78023          	sb	a4,256(a5) # 80140100 <_DATA_LMA_START+0x60136828>
    22ac:	10268783          	lb	a5,258(a3) # 80140102 <_DATA_LMA_START+0x6013682a>
    22b0:	fe07fe5b          	bbs	a5,0,22ac <flash_send_addr+0x10>
    22b4:	3c8527db          	bfoz	a5,a0,15,8
    22b8:	80140737          	lui	a4,0x80140
    22bc:	10f68023          	sb	a5,256(a3)
    22c0:	10270783          	lb	a5,258(a4) # 80140102 <_DATA_LMA_START+0x6013682a>
    22c4:	fe07fe5b          	bbs	a5,0,22c0 <flash_send_addr+0x24>
    22c8:	0ff57513          	andi	a0,a0,255
    22cc:	801406b7          	lui	a3,0x80140
    22d0:	10a70023          	sb	a0,256(a4)
    22d4:	10268783          	lb	a5,258(a3) # 80140102 <_DATA_LMA_START+0x6013682a>
    22d8:	fe07fe5b          	bbs	a5,0,22d4 <flash_send_addr+0x38>
    22dc:	00008067          	ret

000022e0 <flash_send_cmd>:
    22e0:	801407b7          	lui	a5,0x80140
    22e4:	10178703          	lb	a4,257(a5) # 80140101 <_DATA_LMA_START+0x60136829>
    22e8:	0ff77713          	andi	a4,a4,255
    22ec:	01076713          	ori	a4,a4,16
    22f0:	10e780a3          	sb	a4,257(a5)
    22f4:	0001                	c.nop
    22f6:	0001                	c.nop
    22f8:	0001                	c.nop
    22fa:	0001                	c.nop
    22fc:	0001                	c.nop
    22fe:	0001                	c.nop
    2300:	0001                	c.nop
    2302:	0001                	c.nop
    2304:	0001                	c.nop
    2306:	0001                	c.nop
    2308:	10178683          	lb	a3,257(a5)
    230c:	0ff57513          	andi	a0,a0,255
    2310:	0ef6f693          	andi	a3,a3,239
    2314:	10d780a3          	sb	a3,257(a5)
    2318:	80140737          	lui	a4,0x80140
    231c:	10a78023          	sb	a0,256(a5)
    2320:	10270783          	lb	a5,258(a4) # 80140102 <_DATA_LMA_START+0x6013682a>
    2324:	fe07fe5b          	bbs	a5,0,2320 <flash_send_cmd+0x40>
    2328:	00008067          	ret

0000232c <flash_mspi_read_ram>:
    232c:	1101                	c.addi	sp,-32
    232e:	cc22                	c.swsp	s0,24(sp)
    2330:	ca26                	c.swsp	s1,20(sp)
    2332:	c84a                	c.swsp	s2,16(sp)
    2334:	c64e                	c.swsp	s3,12(sp)
    2336:	c452                	c.swsp	s4,8(sp)
    2338:	c256                	c.swsp	s5,4(sp)
    233a:	ce06                	c.swsp	ra,28(sp)
    233c:	89aa                	c.mv	s3,a0
    233e:	843a                	c.mv	s0,a4
    2340:	84be                	c.mv	s1,a5
    2342:	4705                	c.li	a4,1
    2344:	e42007b7          	lui	a5,0xe4200
    2348:	8a2e                	c.mv	s4,a1
    234a:	8ab2                	c.mv	s5,a2
    234c:	8936                	c.mv	s2,a3
    234e:	80140537          	lui	a0,0x80140
    2352:	c398                	c.sw	a4,0(a5)
    2354:	10250703          	lb	a4,258(a0) # 80140102 <_DATA_LMA_START+0x6013682a>
    2358:	fe077e5b          	bbs	a4,0,2354 <flash_mspi_read_ram+0x28>
    235c:	10150783          	lb	a5,257(a0)
    2360:	80140837          	lui	a6,0x80140
    2364:	0ff7f793          	andi	a5,a5,255
    2368:	0107e793          	ori	a5,a5,16
    236c:	10f500a3          	sb	a5,257(a0)
    2370:	32880703          	lb	a4,808(a6) # 80140328 <_DATA_LMA_START+0x60136a50>
    2374:	be377e5b          	bbc	a4,3,2370 <flash_mspi_read_ram+0x44>
    2378:	10180783          	lb	a5,257(a6)
    237c:	854e                	c.mv	a0,s3
    237e:	0fd7f793          	andi	a5,a5,253
    2382:	10f800a3          	sb	a5,257(a6)
    2386:	10180783          	lb	a5,257(a6)
    238a:	0f37f793          	andi	a5,a5,243
    238e:	10f800a3          	sb	a5,257(a6)
    2392:	37b9                	c.jal	22e0 <flash_send_cmd>
    2394:	0e0a9c63          	bnez	s5,248c <flash_mspi_read_ram+0x160>
    2398:	00000713          	li	a4,0
    239c:	801405b7          	lui	a1,0x80140
    23a0:	01277c63          	bgeu	a4,s2,23b8 <flash_mspi_read_ram+0x8c>
    23a4:	00100713          	li	a4,1
    23a8:	10058023          	sb	zero,256(a1) # 80140100 <_DATA_LMA_START+0x60136828>
    23ac:	10258603          	lb	a2,258(a1)
    23b0:	fe067e5b          	bbs	a2,0,23ac <flash_mspi_read_ram+0x80>
    23b4:	ff2768e3          	bltu	a4,s2,23a4 <flash_mspi_read_ram+0x78>
    23b8:	01b9ecdb          	bnec	s3,59,23d0 <flash_mspi_read_ram+0xa4>
    23bc:	80140737          	lui	a4,0x80140
    23c0:	10170783          	lb	a5,257(a4) # 80140101 <_DATA_LMA_START+0x60136829>
    23c4:	0f37f793          	andi	a5,a5,243
    23c8:	0047e793          	ori	a5,a5,4
    23cc:	10f700a3          	sb	a5,257(a4)
    23d0:	80140737          	lui	a4,0x80140
    23d4:	10170783          	lb	a5,257(a4) # 80140101 <_DATA_LMA_START+0x60136829>
    23d8:	801406b7          	lui	a3,0x80140
    23dc:	0ff7f793          	andi	a5,a5,255
    23e0:	0027e793          	ori	a5,a5,2
    23e4:	10f700a3          	sb	a5,257(a4)
    23e8:	10070023          	sb	zero,256(a4)
    23ec:	10268703          	lb	a4,258(a3) # 80140102 <_DATA_LMA_START+0x6013682a>
    23f0:	fe077e5b          	bbs	a4,0,23ec <flash_mspi_read_ram+0xc0>
    23f4:	10168703          	lb	a4,257(a3)
    23f8:	801407b7          	lui	a5,0x80140
    23fc:	0ff77713          	andi	a4,a4,255
    2400:	00176713          	ori	a4,a4,1
    2404:	10e680a3          	sb	a4,257(a3)
    2408:	10278703          	lb	a4,258(a5) # 80140102 <_DATA_LMA_START+0x6013682a>
    240c:	fe077e5b          	bbs	a4,0,2408 <flash_mspi_read_ram+0xdc>
    2410:	02048263          	beqz	s1,2434 <flash_mspi_read_ram+0x108>
    2414:	00940733          	add	a4,s0,s1
    2418:	801406b7          	lui	a3,0x80140
    241c:	10068783          	lb	a5,256(a3) # 80140100 <_DATA_LMA_START+0x60136828>
    2420:	00140413          	addi	s0,s0,1
    2424:	fef40fa3          	sb	a5,-1(s0)
    2428:	10268783          	lb	a5,258(a3)
    242c:	fe07fe5b          	bbs	a5,0,2428 <flash_mspi_read_ram+0xfc>
    2430:	fee416e3          	bne	s0,a4,241c <flash_mspi_read_ram+0xf0>
    2434:	801407b7          	lui	a5,0x80140
    2438:	10178703          	lb	a4,257(a5) # 80140101 <_DATA_LMA_START+0x60136829>
    243c:	0fe77713          	andi	a4,a4,254
    2440:	10e780a3          	sb	a4,257(a5)
    2444:	01b9e8db          	bnec	s3,59,2454 <flash_mspi_read_ram+0x128>
    2448:	10178703          	lb	a4,257(a5)
    244c:	0f377713          	andi	a4,a4,243
    2450:	10e780a3          	sb	a4,257(a5)
    2454:	80140737          	lui	a4,0x80140
    2458:	10170783          	lb	a5,257(a4) # 80140101 <_DATA_LMA_START+0x60136829>
    245c:	0ff7f793          	andi	a5,a5,255
    2460:	0107e793          	ori	a5,a5,16
    2464:	10f700a3          	sb	a5,257(a4)
    2468:	0001                	c.nop
    246a:	0001                	c.nop
    246c:	0001                	c.nop
    246e:	0001                	c.nop
    2470:	0001                	c.nop
    2472:	e42007b7          	lui	a5,0xe4200
    2476:	0007a023          	sw	zero,0(a5) # e4200000 <_DATA_LMA_START+0xc41f6728>
    247a:	40f2                	c.lwsp	ra,28(sp)
    247c:	4462                	c.lwsp	s0,24(sp)
    247e:	44d2                	c.lwsp	s1,20(sp)
    2480:	4942                	c.lwsp	s2,16(sp)
    2482:	49b2                	c.lwsp	s3,12(sp)
    2484:	4a22                	c.lwsp	s4,8(sp)
    2486:	4a92                	c.lwsp	s5,4(sp)
    2488:	6105                	c.addi16sp	sp,32
    248a:	8082                	c.jr	ra
    248c:	8552                	c.mv	a0,s4
    248e:	3539                	c.jal	229c <flash_send_addr>
    2490:	f09ff06f          	j	2398 <flash_mspi_read_ram+0x6c>

00002494 <flash_wait_done>:
    2494:	1141                	c.addi	sp,-16
    2496:	4515                	c.li	a0,5
    2498:	c606                	c.swsp	ra,12(sp)
    249a:	3599                	c.jal	22e0 <flash_send_cmd>
    249c:	009896b7          	lui	a3,0x989
    24a0:	68068693          	addi	a3,a3,1664 # 989680 <FLASH_SIZE+0x889680>
    24a4:	80140737          	lui	a4,0x80140
    24a8:	10070023          	sb	zero,256(a4) # 80140100 <_DATA_LMA_START+0x60136828>
    24ac:	10270783          	lb	a5,258(a4)
    24b0:	fe07fe5b          	bbs	a5,0,24ac <flash_wait_done+0x18>
    24b4:	10070783          	lb	a5,256(a4)
    24b8:	0007f45b          	bbc	a5,0,24c0 <flash_wait_done+0x2c>
    24bc:	16fd                	c.addi	a3,-1
    24be:	f6ed                	c.bnez	a3,24a8 <flash_wait_done+0x14>
    24c0:	80140737          	lui	a4,0x80140
    24c4:	10170783          	lb	a5,257(a4) # 80140101 <_DATA_LMA_START+0x60136829>
    24c8:	0ff7f793          	andi	a5,a5,255
    24cc:	0107e793          	ori	a5,a5,16
    24d0:	10f700a3          	sb	a5,257(a4)
    24d4:	40b2                	c.lwsp	ra,12(sp)
    24d6:	0141                	c.addi	sp,16
    24d8:	00008067          	ret

000024dc <flash_mspi_write_ram.constprop.45>:
    24dc:	1141                	c.addi	sp,-16
    24de:	c422                	c.swsp	s0,8(sp)
    24e0:	c226                	c.swsp	s1,4(sp)
    24e2:	c04a                	c.swsp	s2,0(sp)
    24e4:	c606                	c.swsp	ra,12(sp)
    24e6:	e42007b7          	lui	a5,0xe4200
    24ea:	4705                	c.li	a4,1
    24ec:	84aa                	c.mv	s1,a0
    24ee:	892e                	c.mv	s2,a1
    24f0:	8432                	c.mv	s0,a2
    24f2:	801406b7          	lui	a3,0x80140
    24f6:	c398                	c.sw	a4,0(a5)
    24f8:	10268783          	lb	a5,258(a3) # 80140102 <_DATA_LMA_START+0x6013682a>
    24fc:	fe07fe5b          	bbs	a5,0,24f8 <flash_mspi_write_ram.constprop.45+0x1c>
    2500:	10168783          	lb	a5,257(a3)
    2504:	80140737          	lui	a4,0x80140
    2508:	0ff7f793          	andi	a5,a5,255
    250c:	0107e793          	ori	a5,a5,16
    2510:	10f680a3          	sb	a5,257(a3)
    2514:	32870783          	lb	a5,808(a4) # 80140328 <_DATA_LMA_START+0x60136a50>
    2518:	be37fe5b          	bbc	a5,3,2514 <flash_mspi_write_ram.constprop.45+0x38>
    251c:	10170783          	lb	a5,257(a4)
    2520:	4519                	c.li	a0,6
    2522:	0fd7f793          	andi	a5,a5,253
    2526:	10f700a3          	sb	a5,257(a4)
    252a:	10170783          	lb	a5,257(a4)
    252e:	0f37f793          	andi	a5,a5,243
    2532:	10f700a3          	sb	a5,257(a4)
    2536:	336d                	c.jal	22e0 <flash_send_cmd>
    2538:	00200513          	li	a0,2
    253c:	da5ff0ef          	jal	ra,22e0 <flash_send_cmd>
    2540:	00900533          	add	a0,zero,s1
    2544:	d59ff0ef          	jal	ra,229c <flash_send_addr>
    2548:	c015                	c.beqz	s0,256c <flash_mspi_write_ram.constprop.45+0x90>
    254a:	85ca                	c.mv	a1,s2
    254c:	00890633          	add	a2,s2,s0
    2550:	80140737          	lui	a4,0x80140
    2554:	0005c783          	lbu	a5,0(a1)
    2558:	10f70023          	sb	a5,256(a4) # 80140100 <_DATA_LMA_START+0x60136828>
    255c:	10270783          	lb	a5,258(a4)
    2560:	fe07fe5b          	bbs	a5,0,255c <flash_mspi_write_ram.constprop.45+0x80>
    2564:	00158593          	addi	a1,a1,1
    2568:	feb616e3          	bne	a2,a1,2554 <flash_mspi_write_ram.constprop.45+0x78>
    256c:	80140737          	lui	a4,0x80140
    2570:	10170783          	lb	a5,257(a4) # 80140101 <_DATA_LMA_START+0x60136829>
    2574:	0ff7f793          	andi	a5,a5,255
    2578:	0107e793          	ori	a5,a5,16
    257c:	10f700a3          	sb	a5,257(a4)
    2580:	f15ff0ef          	jal	ra,2494 <flash_wait_done>
    2584:	0001                	c.nop
    2586:	0001                	c.nop
    2588:	0001                	c.nop
    258a:	0001                	c.nop
    258c:	0001                	c.nop
    258e:	e42007b7          	lui	a5,0xe4200
    2592:	0007a023          	sw	zero,0(a5) # e4200000 <_DATA_LMA_START+0xc41f6728>
    2596:	40b2                	c.lwsp	ra,12(sp)
    2598:	4422                	c.lwsp	s0,8(sp)
    259a:	4492                	c.lwsp	s1,4(sp)
    259c:	4902                	c.lwsp	s2,0(sp)
    259e:	0141                	c.addi	sp,16
    25a0:	00008067          	ret

000025a4 <clock_set_32k_tick>:
    25a4:	801406b7          	lui	a3,0x80140
    25a8:	20a68703          	lb	a4,522(a3) # 8014020a <_DATA_LMA_START+0x60136932>
    25ac:	801407b7          	lui	a5,0x80140
    25b0:	0ff77713          	andi	a4,a4,255
    25b4:	00176713          	ori	a4,a4,1
    25b8:	20e68523          	sb	a4,522(a3)
    25bc:	20b78703          	lb	a4,523(a5) # 8014020b <_DATA_LMA_START+0x60136933>
    25c0:	20b78693          	addi	a3,a5,523
    25c4:	fe677c5b          	bbs	a4,6,25bc <clock_set_32k_tick+0x18>
    25c8:	20a7a623          	sw	a0,524(a5)
    25cc:	47a1                	c.li	a5,8
    25ce:	00f68023          	sb	a5,0(a3)
    25d2:	0001                	c.nop
    25d4:	0001                	c.nop
    25d6:	0001                	c.nop
    25d8:	0001                	c.nop
    25da:	0001                	c.nop
    25dc:	0001                	c.nop
    25de:	0001                	c.nop
    25e0:	0001                	c.nop
    25e2:	0001                	c.nop
    25e4:	0001                	c.nop
    25e6:	0001                	c.nop
    25e8:	0001                	c.nop
    25ea:	0001                	c.nop
    25ec:	0001                	c.nop
    25ee:	0001                	c.nop
    25f0:	00000013          	nop
    25f4:	80140737          	lui	a4,0x80140
    25f8:	20b70783          	lb	a5,523(a4) # 8014020b <_DATA_LMA_START+0x60136933>
    25fc:	fe37fe5b          	bbs	a5,3,25f8 <clock_set_32k_tick+0x54>
    2600:	00008067          	ret

00002604 <clock_get_32k_tick>:
    2604:	1141                	c.addi	sp,-16
    2606:	c422                	c.swsp	s0,8(sp)
    2608:	00112623          	sw	ra,12(sp)
    260c:	20003097          	auipc	ra,0x20003
    2610:	348080e7          	jalr	840(ra) # 20005954 <analog_read_reg32.constprop.48>
    2614:	00a00433          	add	s0,zero,a0
    2618:	20003097          	auipc	ra,0x20003
    261c:	33c080e7          	jalr	828(ra) # 20005954 <analog_read_reg32.constprop.48>
    2620:	40850733          	sub	a4,a0,s0
    2624:	842a                	c.mv	s0,a0
    2626:	be17695b          	bnec	a4,1,2618 <clock_get_32k_tick+0x14>
    262a:	40b2                	c.lwsp	ra,12(sp)
    262c:	4422                	c.lwsp	s0,8(sp)
    262e:	0141                	c.addi	sp,16
    2630:	00008067          	ret

00002634 <smp_quickResolvPrivateAddr>:
    2634:	30002873          	csrr	a6,mstatus
    2638:	00887813          	andi	a6,a6,8
    263c:	00080463          	beqz	a6,2644 <smp_quickResolvPrivateAddr+0x10>
    2640:	300477f3          	csrrci	a5,mstatus,8
    2644:	411c                	c.lw	a5,0(a0)
    2646:	80160637          	lui	a2,0x80160
    264a:	0af62a23          	sw	a5,180(a2) # 801600b4 <_DATA_LMA_START+0x601567dc>
    264e:	415c                	c.lw	a5,4(a0)
    2650:	00000737          	lui	a4,0x0
    2654:	0af62c23          	sw	a5,184(a2)
    2658:	451c                	c.lw	a5,8(a0)
    265a:	15870713          	addi	a4,a4,344 # 158 <_AES_VMA_START>
    265e:	0af62e23          	sw	a5,188(a2)
    2662:	455c                	c.lw	a5,12(a0)
    2664:	0cf62023          	sw	a5,192(a2)
    2668:	0045c783          	lbu	a5,4(a1)
    266c:	0055c683          	lbu	a3,5(a1)
    2670:	0035c503          	lbu	a0,3(a1)
    2674:	06c2                	c.slli	a3,0x10
    2676:	07a2                	c.slli	a5,0x8
    2678:	8fd5                	c.or	a5,a3
    267a:	8fc9                	c.or	a5,a0
    267c:	c31c                	c.sw	a5,0(a4)
    267e:	0ce62223          	sw	a4,196(a2)
    2682:	00072223          	sw	zero,4(a4)
    2686:	00072423          	sw	zero,8(a4)
    268a:	00072623          	sw	zero,12(a4)
    268e:	4785                	c.li	a5,1
    2690:	801606b7          	lui	a3,0x80160
    2694:	0af62823          	sw	a5,176(a2)
    2698:	0b06a783          	lw	a5,176(a3) # 801600b0 <_DATA_LMA_START+0x601567d8>
    269c:	fe07fe5b          	bbs	a5,0,2698 <smp_quickResolvPrivateAddr+0x64>
    26a0:	00080463          	beqz	a6,26a8 <smp_quickResolvPrivateAddr+0x74>
    26a4:	30082873          	csrrs	a6,mstatus,a6
    26a8:	0015c503          	lbu	a0,1(a1)
    26ac:	0025c683          	lbu	a3,2(a1)
    26b0:	0005c603          	lbu	a2,0(a1)
    26b4:	06c2                	c.slli	a3,0x10
    26b6:	4b1c                	c.lw	a5,16(a4)
    26b8:	0522                	c.slli	a0,0x8
    26ba:	8d55                	c.or	a0,a3
    26bc:	8d51                	c.or	a0,a2
    26be:	5c07a7db          	bfoz	a5,a5,23,0
    26c2:	8d1d                	c.sub	a0,a5
    26c4:	00153513          	seqz	a0,a0
    26c8:	00008067          	ret

000026cc <blt_ll_searchAddr_in_ResolvingList>:
    26cc:	1101                	c.addi	sp,-32
    26ce:	ce06                	c.swsp	ra,28(sp)
    26d0:	cc22                	c.swsp	s0,24(sp)
    26d2:	ca26                	c.swsp	s1,20(sp)
    26d4:	c84a                	c.swsp	s2,16(sp)
    26d6:	c64e                	c.swsp	s3,12(sp)
    26d8:	c452                	c.swsp	s4,8(sp)
    26da:	04156f5b          	bnec	a0,1,2738 <blt_ll_searchAddr_in_ResolvingList+0x6c>
    26de:	00558783          	lb	a5,5(a1)
    26e2:	0c07f793          	andi	a5,a5,192
    26e6:	4407e95b          	bnec	a5,64,2738 <blt_ll_searchAddr_in_ResolvingList+0x6c>
    26ea:	00000937          	lui	s2,0x0
    26ee:	17890913          	addi	s2,s2,376 # 178 <_AES_VMA_END>
    26f2:	42994783          	lbu	a5,1065(s2)
    26f6:	c3a9                	c.beqz	a5,2738 <blt_ll_searchAddr_in_ResolvingList+0x6c>
    26f8:	42894783          	lbu	a5,1064(s2)
    26fc:	cf95                	c.beqz	a5,2738 <blt_ll_searchAddr_in_ResolvingList+0x6c>
    26fe:	89ae                	c.mv	s3,a1
    2700:	40090413          	addi	s0,s2,1024
    2704:	4481                	c.li	s1,0
    2706:	a039                	c.j	2714 <blt_ll_searchAddr_in_ResolvingList+0x48>
    2708:	42894783          	lbu	a5,1064(s2)
    270c:	01840413          	addi	s0,s0,24
    2710:	02f4d463          	bge	s1,a5,2738 <blt_ll_searchAddr_in_ResolvingList+0x6c>
    2714:	8522                	c.mv	a0,s0
    2716:	85ce                	c.mv	a1,s3
    2718:	0485                	c.addi	s1,1
    271a:	8a22                	c.mv	s4,s0
    271c:	f19ff0ef          	jal	ra,2634 <smp_quickResolvPrivateAddr>
    2720:	fe0504e3          	beqz	a0,2708 <blt_ll_searchAddr_in_ResolvingList+0x3c>
    2724:	40f2                	c.lwsp	ra,28(sp)
    2726:	4462                	c.lwsp	s0,24(sp)
    2728:	8552                	c.mv	a0,s4
    272a:	44d2                	c.lwsp	s1,20(sp)
    272c:	4942                	c.lwsp	s2,16(sp)
    272e:	49b2                	c.lwsp	s3,12(sp)
    2730:	4a22                	c.lwsp	s4,8(sp)
    2732:	6105                	c.addi16sp	sp,32
    2734:	00008067          	ret
    2738:	4a01                	c.li	s4,0
    273a:	b7ed                	c.j	2724 <blt_ll_searchAddr_in_ResolvingList+0x58>

0000273c <ll_searchAddr_in_WhiteList_and_ResolvingList>:
    273c:	1141                	c.addi	sp,-16
    273e:	c422                	c.swsp	s0,8(sp)
    2740:	c226                	c.swsp	s1,4(sp)
    2742:	c606                	c.swsp	ra,12(sp)
    2744:	842a                	c.mv	s0,a0
    2746:	84ae                	c.mv	s1,a1
    2748:	ffdfe0ef          	jal	ra,1744 <blt_ll_searchAddr_in_WhiteList>
    274c:	c511                	c.beqz	a0,2758 <ll_searchAddr_in_WhiteList_and_ResolvingList+0x1c>
    274e:	40b2                	c.lwsp	ra,12(sp)
    2750:	4422                	c.lwsp	s0,8(sp)
    2752:	4492                	c.lwsp	s1,4(sp)
    2754:	0141                	c.addi	sp,16
    2756:	8082                	c.jr	ra
    2758:	8522                	c.mv	a0,s0
    275a:	4422                	c.lwsp	s0,8(sp)
    275c:	40b2                	c.lwsp	ra,12(sp)
    275e:	85a6                	c.mv	a1,s1
    2760:	4492                	c.lwsp	s1,4(sp)
    2762:	0141                	c.addi	sp,16
    2764:	f69ff06f          	j	26cc <blt_ll_searchAddr_in_ResolvingList>

00002768 <irq_scan_rx_primary_channel>:
    2768:	1101                	c.addi	sp,-32
    276a:	c84a                	c.swsp	s2,16(sp)
    276c:	80141937          	lui	s2,0x80141
    2770:	ce06                	c.swsp	ra,28(sp)
    2772:	cc22                	c.swsp	s0,24(sp)
    2774:	ca26                	c.swsp	s1,20(sp)
    2776:	c64e                	c.swsp	s3,12(sp)
    2778:	84090783          	lb	a5,-1984(s2) # 80140840 <_DATA_LMA_START+0x60136f68>
    277c:	0817a7db          	bfoz	a5,a5,2,1
    2780:	cf81                	c.beqz	a5,2798 <irq_scan_rx_primary_channel+0x30>
    2782:	4785                	c.li	a5,1
    2784:	a2f91023          	sh	a5,-1504(s2)
    2788:	40f2                	c.lwsp	ra,28(sp)
    278a:	4462                	c.lwsp	s0,24(sp)
    278c:	44d2                	c.lwsp	s1,20(sp)
    278e:	4942                	c.lwsp	s2,16(sp)
    2790:	49b2                	c.lwsp	s3,12(sp)
    2792:	4501                	c.li	a0,0
    2794:	6105                	c.addi16sp	sp,32
    2796:	8082                	c.jr	ra
    2798:	00000437          	lui	s0,0x0
    279c:	17840413          	addi	s0,s0,376 # 178 <_AES_VMA_END>
    27a0:	1be44683          	lbu	a3,446(s0)
    27a4:	1c042483          	lw	s1,448(s0)
    27a8:	00168713          	addi	a4,a3,1
    27ac:	0ff77713          	andi	a4,a4,255
    27b0:	188727db          	bfoz	a5,a4,6,8
    27b4:	97a6                	c.add	a5,s1
    27b6:	39844583          	lbu	a1,920(s0)
    27ba:	1886a6db          	bfoz	a3,a3,6,8
    27be:	853e                	c.mv	a0,a5
    27c0:	00d484b3          	add	s1,s1,a3
    27c4:	1ae40f23          	sb	a4,446(s0)
    27c8:	38f42e23          	sw	a5,924(s0)
    27cc:	decff0ef          	jal	ra,1db8 <ble_rf_set_rx_dma>
    27d0:	00100793          	li	a5,1
    27d4:	a2f91023          	sh	a5,-1504(s2)
    27d8:	00048123          	sb	zero,2(s1)
    27dc:	83190783          	lb	a5,-1999(s2)
    27e0:	0054c703          	lbu	a4,5(s1)
    27e4:	0ff7f793          	andi	a5,a5,255
    27e8:	0ae7ec63          	bltu	a5,a4,28a0 <irq_scan_rx_primary_channel+0x138>
    27ec:	00e487b3          	add	a5,s1,a4
    27f0:	01078683          	lb	a3,16(a5)
    27f4:	1be44783          	lbu	a5,446(s0)
    27f8:	0206f85b          	bbc	a3,0,2828 <irq_scan_rx_primary_channel+0xc0>
    27fc:	39844583          	lbu	a1,920(s0)
    2800:	17fd                	c.addi	a5,-1
    2802:	8526                	c.mv	a0,s1
    2804:	1af40f23          	sb	a5,446(s0)
    2808:	38942e23          	sw	s1,924(s0)
    280c:	dacff0ef          	jal	ra,1db8 <ble_rf_set_rx_dma>
    2810:	4785                	c.li	a5,1
    2812:	00f48023          	sb	a5,0(s1)
    2816:	40f2                	c.lwsp	ra,28(sp)
    2818:	4462                	c.lwsp	s0,24(sp)
    281a:	44d2                	c.lwsp	s1,20(sp)
    281c:	4942                	c.lwsp	s2,16(sp)
    281e:	49b2                	c.lwsp	s3,12(sp)
    2820:	4501                	c.li	a0,0
    2822:	6105                	c.addi16sp	sp,32
    2824:	00008067          	ret
    2828:	1769                	c.addi	a4,-6
    282a:	0ff77713          	andi	a4,a4,255
    282e:	46fd                	c.li	a3,31
    2830:	fce6e6e3          	bltu	a3,a4,27fc <irq_scan_rx_primary_channel+0x94>
    2834:	1bf40703          	lb	a4,447(s0)
    2838:	1bc44683          	lbu	a3,444(s0)
    283c:	40e78733          	sub	a4,a5,a4
    2840:	03f77713          	andi	a4,a4,63
    2844:	fad77ce3          	bgeu	a4,a3,27fc <irq_scan_rx_primary_channel+0x94>
    2848:	00448703          	lb	a4,4(s1)
    284c:	4905                	c.li	s2,1
    284e:	8b3d                	c.andi	a4,15
    2850:	00e91933          	sll	s2,s2,a4
    2854:	04797713          	andi	a4,s2,71
    2858:	d355                	c.beqz	a4,27fc <irq_scan_rx_primary_channel+0x94>
    285a:	0044c503          	lbu	a0,4(s1)
    285e:	39244783          	lbu	a5,914(s0)
    2862:	00755993          	srli	s3,a0,0x7
    2866:	e3a9                	c.bnez	a5,28a8 <irq_scan_rx_primary_channel+0x140>
    2868:	ba29645b          	bnec	s2,2,2810 <irq_scan_rx_primary_channel+0xa8>
    286c:	801f978b          	addigp	a5,-2048 # 80000 <_DATA_VMA_START>
    2870:	0047a703          	lw	a4,4(a5)
    2874:	1867275b          	bfoz	a4,a4,6,6
    2878:	02e99463          	bne	s3,a4,28a0 <irq_scan_rx_primary_channel+0x138>
    287c:	00c4d683          	lhu	a3,12(s1)
    2880:	0067d703          	lhu	a4,6(a5)
    2884:	00e69e63          	bne	a3,a4,28a0 <irq_scan_rx_primary_channel+0x138>
    2888:	00e4d683          	lhu	a3,14(s1)
    288c:	0087d703          	lhu	a4,8(a5)
    2890:	00e69863          	bne	a3,a4,28a0 <irq_scan_rx_primary_channel+0x138>
    2894:	0104d703          	lhu	a4,16(s1)
    2898:	00a7d783          	lhu	a5,10(a5)
    289c:	f6f70ae3          	beq	a4,a5,2810 <irq_scan_rx_primary_channel+0xa8>
    28a0:	1be44783          	lbu	a5,446(s0)
    28a4:	f59ff06f          	j	27fc <irq_scan_rx_primary_channel+0x94>
    28a8:	00648593          	addi	a1,s1,6
    28ac:	1865255b          	bfoz	a0,a0,6,6
    28b0:	e8dff0ef          	jal	ra,273c <ll_searchAddr_in_WhiteList_and_ResolvingList>
    28b4:	f955                	c.bnez	a0,2868 <irq_scan_rx_primary_channel+0x100>
    28b6:	1be44783          	lbu	a5,446(s0)
    28ba:	b789                	c.j	27fc <irq_scan_rx_primary_channel+0x94>

000028bc <blc_ll_getTxFifoNumber>:
    28bc:	300027f3          	csrr	a5,mstatus
    28c0:	8ba1                	c.andi	a5,8
    28c2:	cf9d                	c.beqz	a5,2900 <blc_ll_getTxFifoNumber+0x44>
    28c4:	30047773          	csrrci	a4,mstatus,8
    28c8:	000006b7          	lui	a3,0x0
    28cc:	80100637          	lui	a2,0x80100
    28d0:	17868693          	addi	a3,a3,376 # 178 <_AES_VMA_END>
    28d4:	50060703          	lb	a4,1280(a2) # 80100500 <_DATA_LMA_START+0x600f6c28>
    28d8:	3e668503          	lb	a0,998(a3)
    28dc:	50160603          	lb	a2,1281(a2)
    28e0:	3e768683          	lb	a3,999(a3)
    28e4:	8f11                	c.sub	a4,a2
    28e6:	8d15                	c.sub	a0,a3
    28e8:	8b7d                	c.andi	a4,31
    28ea:	897d                	c.andi	a0,31
    28ec:	953a                	c.add	a0,a4
    28ee:	e709                	c.bnez	a4,28f8 <blc_ll_getTxFifoNumber+0x3c>
    28f0:	00150513          	addi	a0,a0,1
    28f4:	0ff57513          	andi	a0,a0,255
    28f8:	3007a7f3          	csrrs	a5,mstatus,a5
    28fc:	00008067          	ret
    2900:	00000737          	lui	a4,0x0
    2904:	801006b7          	lui	a3,0x80100
    2908:	17870713          	addi	a4,a4,376 # 178 <_AES_VMA_END>
    290c:	50068783          	lb	a5,1280(a3) # 80100500 <_DATA_LMA_START+0x600f6c28>
    2910:	3e670503          	lb	a0,998(a4)
    2914:	50168683          	lb	a3,1281(a3)
    2918:	3e770703          	lb	a4,999(a4)
    291c:	8f95                	c.sub	a5,a3
    291e:	8d19                	c.sub	a0,a4
    2920:	8bfd                	c.andi	a5,31
    2922:	897d                	c.andi	a0,31
    2924:	953e                	c.add	a0,a5
    2926:	c399                	c.beqz	a5,292c <blc_ll_getTxFifoNumber+0x70>
    2928:	00008067          	ret
    292c:	0505                	c.addi	a0,1
    292e:	0ff57513          	andi	a0,a0,255
    2932:	8082                	c.jr	ra

00002934 <cpu_stall_WakeUp_By_RF_SystemTick>:
    2934:	300027f3          	csrr	a5,mstatus
    2938:	8ba1                	c.andi	a5,8
    293a:	c399                	c.beqz	a5,2940 <cpu_stall_WakeUp_By_RF_SystemTick+0xc>
    293c:	30047773          	csrrci	a4,mstatus,8
    2940:	e4002737          	lui	a4,0xe4002
    2944:	801418b7          	lui	a7,0x80141
    2948:	80140837          	lui	a6,0x80140
    294c:	a1c89e03          	lh	t3,-1508(a7) # 80140a1c <_DATA_LMA_START+0x60137144>
    2950:	20880e83          	lb	t4,520(a6) # 80140208 <_DATA_LMA_START+0x60136930>
    2954:	00072303          	lw	t1,0(a4) # e4002000 <_DATA_LMA_START+0xc3ff8728>
    2958:	4314                	c.lw	a3,0(a4)
    295a:	6f11                	c.lui	t5,0x4
    295c:	0026e693          	ori	a3,a3,2
    2960:	c314                	c.sw	a3,0(a4)
    2962:	4314                	c.lw	a3,0(a4)
    2964:	01e6e6b3          	or	a3,a3,t5
    2968:	00d72023          	sw	a3,0(a4)
    296c:	a0b89e23          	sh	a1,-1508(a7)
    2970:	00057c5b          	bbc	a0,0,2988 <cpu_stall_WakeUp_By_RF_SystemTick+0x54>
    2974:	20c82223          	sw	a2,516(a6)
    2978:	20880703          	lb	a4,520(a6)
    297c:	0ff77713          	andi	a4,a4,255
    2980:	00176713          	ori	a4,a4,1
    2984:	20e80423          	sb	a4,520(a6)
    2988:	10500073          	wfi
    298c:	80141837          	lui	a6,0x80141
    2990:	577d                	c.li	a4,-1
    2992:	a2e81023          	sh	a4,-1504(a6) # 80140a20 <_DATA_LMA_START+0x60137148>
    2996:	80140537          	lui	a0,0x80140
    299a:	e4002737          	lui	a4,0xe4002
    299e:	4685                	c.li	a3,1
    29a0:	20d504a3          	sb	a3,521(a0) # 80140209 <_DATA_LMA_START+0x60136931>
    29a4:	75f1                	c.lui	a1,0xffffc
    29a6:	4310                	c.lw	a2,0(a4)
    29a8:	15f5                	c.addi	a1,-3
    29aa:	8e6d                	c.and	a2,a1
    29ac:	c310                	c.sw	a2,0(a4)
    29ae:	4314                	c.lw	a3,0(a4)
    29b0:	0066e6b3          	or	a3,a3,t1
    29b4:	c314                	c.sw	a3,0(a4)
    29b6:	a1c81e23          	sh	t3,-1508(a6)
    29ba:	21d50423          	sb	t4,520(a0)
    29be:	c399                	c.beqz	a5,29c4 <cpu_stall_WakeUp_By_RF_SystemTick+0x90>
    29c0:	3007a7f3          	csrrs	a5,mstatus,a5
    29c4:	4501                	c.li	a0,0
    29c6:	8082                	c.jr	ra

000029c8 <analog_write_reg8>:
    29c8:	30002673          	csrr	a2,mstatus
    29cc:	8a21                	c.andi	a2,8
    29ce:	c219                	c.beqz	a2,29d4 <analog_write_reg8+0xc>
    29d0:	300477f3          	csrrci	a5,mstatus,8
    29d4:	80140737          	lui	a4,0x80140
    29d8:	18a70023          	sb	a0,384(a4) # 80140180 <_DATA_LMA_START+0x601368a8>
    29dc:	18b70223          	sb	a1,388(a4)
    29e0:	06000693          	li	a3,96
    29e4:	801407b7          	lui	a5,0x80140
    29e8:	18d70123          	sb	a3,386(a4)
    29ec:	18278703          	lb	a4,386(a5) # 80140182 <_DATA_LMA_START+0x601368aa>
    29f0:	fe777e5b          	bbs	a4,7,29ec <analog_write_reg8+0x24>
    29f4:	18078123          	sb	zero,386(a5)
    29f8:	00060463          	beqz	a2,2a00 <analog_write_reg8+0x38>
    29fc:	30062673          	csrrs	a2,mstatus,a2
    2a00:	00008067          	ret

00002a04 <rf_drv_ble_init>:
    2a04:	1141                	c.addi	sp,-16
    2a06:	6789                	c.lui	a5,0x2
    2a08:	c422                	c.swsp	s0,8(sp)
    2a0a:	c226                	c.swsp	s1,4(sp)
    2a0c:	80141437          	lui	s0,0x80141
    2a10:	c04a                	c.swsp	s2,0(sp)
    2a12:	c606                	c.swsp	ra,12(sp)
    2a14:	99b78793          	addi	a5,a5,-1637 # 199b <bls_ll_setAdvEnable+0x4f>
    2a18:	ecf41923          	sh	a5,-302(s0) # 80140ed2 <_DATA_LMA_START+0x601375fa>
    2a1c:	6905                	c.lui	s2,0x1
    2a1e:	47b9                	c.li	a5,14
    2a20:	c6f40da3          	sb	a5,-901(s0)
    2a24:	90e90793          	addi	a5,s2,-1778 # 90e <app_acl_txfifo+0x3e>
    2a28:	e4f41523          	sh	a5,-438(s0)
    2a2c:	080c17b7          	lui	a5,0x80c1
    2a30:	649d                	c.lui	s1,0x7
    2a32:	90e78793          	addi	a5,a5,-1778 # 80c090e <FLASH_SIZE+0x7fc090e>
    2a36:	e4f42a23          	sw	a5,-428(s0)
    2a3a:	35048793          	addi	a5,s1,848 # 7350 <_RAMCODE_VMA_END+0x204e>
    2a3e:	c6f41b23          	sh	a5,-906(s0)
    2a42:	6799                	c.lui	a5,0x6
    2a44:	58678793          	addi	a5,a5,1414 # 6586 <_RAMCODE_VMA_END+0x1284>
    2a48:	4591                	c.li	a1,4
    2a4a:	08b00513          	li	a0,139
    2a4e:	82f41d23          	sh	a5,-1990(s0)
    2a52:	3f9d                	c.jal	29c8 <analog_write_reg8>
    2a54:	06100793          	li	a5,97
    2a58:	e2f40ea3          	sb	a5,-451(s0)
    2a5c:	232017b7          	lui	a5,0x23201
    2a60:	a1678793          	addi	a5,a5,-1514 # 23200a16 <_DATA_LMA_START+0x31f713e>
    2a64:	e2f42023          	sw	a5,-480(s0)
    2a68:	f8400793          	li	a5,-124
    2a6c:	c2f40023          	sb	a5,-992(s0)
    2a70:	c2040123          	sb	zero,-990(s0)
    2a74:	4785                	c.li	a5,1
    2a76:	c4f406a3          	sb	a5,-947(s0)
    2a7a:	4779                	c.li	a4,30
    2a7c:	c4e40723          	sb	a4,-946(s0)
    2a80:	eb790913          	addi	s2,s2,-329
    2a84:	c3241b23          	sh	s2,-970(s0)
    2a88:	1c448493          	addi	s1,s1,452
    2a8c:	c2941c23          	sh	s1,-968(s0)
    2a90:	c6f409a3          	sb	a5,-909(s0)
    2a94:	03800793          	li	a5,56
    2a98:	c6f40ca3          	sb	a5,-903(s0)
    2a9c:	6795                	c.lui	a5,0x5
    2a9e:	c8040d23          	sb	zero,-870(s0)
    2aa2:	b3978793          	addi	a5,a5,-1223 # 4b39 <entry_irq18+0x39>
    2aa6:	ccf41123          	sh	a5,-830(s0)
    2aaa:	796e67b7          	lui	a5,0x796e6
    2aae:	25678793          	addi	a5,a5,598 # 796e6256 <_DATA_LMA_START+0x596dc97e>
    2ab2:	ccf42223          	sw	a5,-828(s0)
    2ab6:	444617b7          	lui	a5,0x44461
    2aba:	81f78793          	addi	a5,a5,-2017 # 4446081f <_DATA_LMA_START+0x24456f47>
    2abe:	80f42023          	sw	a5,-2048(s0)
    2ac2:	4f500793          	li	a5,1269
    2ac6:	80f41223          	sh	a5,-2044(s0)
    2aca:	80042423          	sw	zero,-2040(s0)
    2ace:	47fd                	c.li	a5,31
    2ad0:	c4f40723          	sb	a5,-946(s0)
    2ad4:	03600793          	li	a5,54
    2ad8:	82f40823          	sb	a5,-2000(s0)
    2adc:	a0040323          	sb	zero,-1530(s0)
    2ae0:	05000793          	li	a5,80
    2ae4:	a0f40623          	sb	a5,-1524(s0)
    2ae8:	a0040723          	sb	zero,-1522(s0)
    2aec:	a0040823          	sb	zero,-1520(s0)
    2af0:	c2040783          	lb	a5,-992(s0)
    2af4:	0bf7f793          	andi	a5,a5,191
    2af8:	c2f40023          	sb	a5,-992(s0)
    2afc:	40b2                	c.lwsp	ra,12(sp)
    2afe:	4422                	c.lwsp	s0,8(sp)
    2b00:	4492                	c.lwsp	s1,4(sp)
    2b02:	4902                	c.lwsp	s2,0(sp)
    2b04:	0141                	c.addi	sp,16
    2b06:	8082                	c.jr	ra

00002b08 <analog_read_reg8>:
    2b08:	300026f3          	csrr	a3,mstatus
    2b0c:	8aa1                	c.andi	a3,8
    2b0e:	c299                	c.beqz	a3,2b14 <analog_read_reg8+0xc>
    2b10:	300477f3          	csrrci	a5,mstatus,8
    2b14:	801407b7          	lui	a5,0x80140
    2b18:	18a78023          	sb	a0,384(a5) # 80140180 <_DATA_LMA_START+0x601368a8>
    2b1c:	00100713          	li	a4,1
    2b20:	18e781a3          	sb	a4,387(a5)
    2b24:	04000613          	li	a2,64
    2b28:	80140737          	lui	a4,0x80140
    2b2c:	18c78123          	sb	a2,386(a5)
    2b30:	18270783          	lb	a5,386(a4) # 80140182 <_DATA_LMA_START+0x601368aa>
    2b34:	fe77fe5b          	bbs	a5,7,2b30 <analog_read_reg8+0x28>
    2b38:	18470503          	lb	a0,388(a4)
    2b3c:	0ff57513          	andi	a0,a0,255
    2b40:	00068463          	beqz	a3,2b48 <analog_read_reg8+0x40>
    2b44:	3006a6f3          	csrrs	a3,mstatus,a3
    2b48:	00008067          	ret

00002b4c <clock_init.constprop.46>:
    2b4c:	1141                	c.addi	sp,-16
    2b4e:	08000513          	li	a0,128
    2b52:	c606                	c.swsp	ra,12(sp)
    2b54:	c422                	c.swsp	s0,8(sp)
    2b56:	3f4d                	c.jal	2b08 <analog_read_reg8>
    2b58:	0e057593          	andi	a1,a0,224
    2b5c:	0105e593          	ori	a1,a1,16
    2b60:	08000513          	li	a0,128
    2b64:	e65ff0ef          	jal	ra,29c8 <analog_write_reg8>
    2b68:	00900513          	li	a0,9
    2b6c:	f9dff0ef          	jal	ra,2b08 <analog_read_reg8>
    2b70:	0f357593          	andi	a1,a0,243
    2b74:	0085e593          	ori	a1,a1,8
    2b78:	4525                	c.li	a0,9
    2b7a:	35b9                	c.jal	29c8 <analog_write_reg8>
    2b7c:	0c000793          	li	a5,192
    2b80:	845f940b          	addigp	s0,-1980 # 80044 <sys_clk>
    2b84:	00f41023          	sh	a5,0(s0)
    2b88:	4711                	c.li	a4,4
    2b8a:	801407b7          	lui	a5,0x80140
    2b8e:	08100513          	li	a0,129
    2b92:	1ee78da3          	sb	a4,507(a5) # 801401fb <_DATA_LMA_START+0x60136923>
    2b96:	3f8d                	c.jal	2b08 <analog_read_reg8>
    2b98:	04056593          	ori	a1,a0,64
    2b9c:	0ff5f593          	andi	a1,a1,255
    2ba0:	08100513          	li	a0,129
    2ba4:	e25ff0ef          	jal	ra,29c8 <analog_write_reg8>
    2ba8:	08800513          	li	a0,136
    2bac:	f5dff0ef          	jal	ra,2b08 <analog_read_reg8>
    2bb0:	be557c5b          	bbc	a0,5,2ba8 <clock_init.constprop.46+0x5c>
    2bb4:	08100513          	li	a0,129
    2bb8:	f51ff0ef          	jal	ra,2b08 <analog_read_reg8>
    2bbc:	0bf57593          	andi	a1,a0,191
    2bc0:	08100513          	li	a0,129
    2bc4:	e05ff0ef          	jal	ra,29c8 <analog_write_reg8>
    2bc8:	80140737          	lui	a4,0x80140
    2bcc:	10270783          	lb	a5,258(a4) # 80140102 <_DATA_LMA_START+0x6013682a>
    2bd0:	fe07fe5b          	bbs	a5,0,2bcc <clock_init.constprop.46+0x80>
    2bd4:	10170683          	lb	a3,257(a4)
    2bd8:	801407b7          	lui	a5,0x80140
    2bdc:	0ff6f693          	andi	a3,a3,255
    2be0:	0106e693          	ori	a3,a3,16
    2be4:	10d700a3          	sb	a3,257(a4)
    2be8:	32878703          	lb	a4,808(a5) # 80140328 <_DATA_LMA_START+0x60136a50>
    2bec:	be377e5b          	bbc	a4,3,2be8 <clock_init.constprop.46+0x9c>
    2bf0:	1e978703          	lb	a4,489(a5)
    2bf4:	aaaab637          	lui	a2,0xaaaab
    2bf8:	8b3d                	c.andi	a4,15
    2bfa:	04076713          	ori	a4,a4,64
    2bfe:	1ee784a3          	sb	a4,489(a5)
    2c02:	1e878703          	lb	a4,488(a5)
    2c06:	aab60613          	addi	a2,a2,-1365 # aaaaaaab <_DATA_LMA_START+0x8aaa11d3>
    2c0a:	f8076713          	ori	a4,a4,-128
    2c0e:	0ff77713          	andi	a4,a4,255
    2c12:	1ee78423          	sb	a4,488(a5)
    2c16:	1e878703          	lb	a4,488(a5)
    2c1a:	f8076713          	ori	a4,a4,-128
    2c1e:	0ff77713          	andi	a4,a4,255
    2c22:	1ee78423          	sb	a4,488(a5)
    2c26:	1d878703          	lb	a4,472(a5)
    2c2a:	00045683          	lhu	a3,0(s0)
    2c2e:	0fb77713          	andi	a4,a4,251
    2c32:	1ce78c23          	sb	a4,472(a5)
    2c36:	1d878703          	lb	a4,472(a5)
    2c3a:	8289                	c.srli	a3,0x2
    2c3c:	00d402a3          	sb	a3,5(s0)
    2c40:	0fc77713          	andi	a4,a4,252
    2c44:	1ce78c23          	sb	a4,472(a5)
    2c48:	1e878703          	lb	a4,488(a5)
    2c4c:	0f077713          	andi	a4,a4,240
    2c50:	00c76713          	ori	a4,a4,12
    2c54:	1ee78423          	sb	a4,488(a5)
    2c58:	00045703          	lhu	a4,0(s0)
    2c5c:	1e878683          	lb	a3,488(a5)
    2c60:	02c73733          	mulhu	a4,a4,a2
    2c64:	08f6f693          	andi	a3,a3,143
    2c68:	0206e693          	ori	a3,a3,32
    2c6c:	1ed78423          	sb	a3,488(a5)
    2c70:	00375793          	srli	a5,a4,0x3
    2c74:	00f40123          	sb	a5,2(s0)
    2c78:	0ff7f793          	andi	a5,a5,255
    2c7c:	00f401a3          	sb	a5,3(s0)
    2c80:	00f40223          	sb	a5,4(s0)
    2c84:	40b2                	c.lwsp	ra,12(sp)
    2c86:	4422                	c.lwsp	s0,8(sp)
    2c88:	0141                	c.addi	sp,16
    2c8a:	8082                	c.jr	ra

00002c8c <pm_wait_bbpll_done>:
    2c8c:	1101                	c.addi	sp,-32
    2c8e:	08100513          	li	a0,129
    2c92:	cc22                	c.swsp	s0,24(sp)
    2c94:	ca26                	c.swsp	s1,20(sp)
    2c96:	c84a                	c.swsp	s2,16(sp)
    2c98:	ce06                	c.swsp	ra,28(sp)
    2c9a:	35bd                	c.jal	2b08 <analog_read_reg8>
    2c9c:	04056593          	ori	a1,a0,64
    2ca0:	892a                	c.mv	s2,a0
    2ca2:	0ff5f593          	andi	a1,a1,255
    2ca6:	08100513          	li	a0,129
    2caa:	0bf97913          	andi	s2,s2,191
    2cae:	4481                	c.li	s1,0
    2cb0:	4475                	c.li	s0,29
    2cb2:	3b19                	c.jal	29c8 <analog_write_reg8>
    2cb4:	000107a3          	sb	zero,15(sp)
    2cb8:	00f10783          	lb	a5,15(sp)
    2cbc:	0ff7f793          	andi	a5,a5,255
    2cc0:	02f46063          	bltu	s0,a5,2ce0 <pm_wait_bbpll_done+0x54>
    2cc4:	0001                	c.nop
    2cc6:	00f10783          	lb	a5,15(sp)
    2cca:	0785                	c.addi	a5,1
    2ccc:	0ff7f793          	andi	a5,a5,255
    2cd0:	00f107a3          	sb	a5,15(sp)
    2cd4:	00f10783          	lb	a5,15(sp)
    2cd8:	0ff7f793          	andi	a5,a5,255
    2cdc:	fef474e3          	bgeu	s0,a5,2cc4 <pm_wait_bbpll_done+0x38>
    2ce0:	08800513          	li	a0,136
    2ce4:	e25ff0ef          	jal	ra,2b08 <analog_read_reg8>
    2ce8:	4255765b          	bbs	a0,5,2d14 <pm_wait_bbpll_done+0x88>
    2cec:	cc95                	c.beqz	s1,2d28 <pm_wait_bbpll_done+0x9c>
    2cee:	0414d35b          	beqc	s1,1,2d34 <pm_wait_bbpll_done+0xa8>
    2cf2:	85ca                	c.mv	a1,s2
    2cf4:	08100513          	li	a0,129
    2cf8:	cd1ff0ef          	jal	ra,29c8 <analog_write_reg8>
    2cfc:	0024d65b          	beqc	s1,2,2d08 <pm_wait_bbpll_done+0x7c>
    2d00:	0485                	c.addi	s1,1
    2d02:	0ff4f493          	andi	s1,s1,255
    2d06:	b77d                	c.j	2cb4 <pm_wait_bbpll_done+0x28>
    2d08:	40f2                	c.lwsp	ra,28(sp)
    2d0a:	4462                	c.lwsp	s0,24(sp)
    2d0c:	44d2                	c.lwsp	s1,20(sp)
    2d0e:	4942                	c.lwsp	s2,16(sp)
    2d10:	6105                	c.addi16sp	sp,32
    2d12:	8082                	c.jr	ra
    2d14:	4462                	c.lwsp	s0,24(sp)
    2d16:	40f2                	c.lwsp	ra,28(sp)
    2d18:	44d2                	c.lwsp	s1,20(sp)
    2d1a:	85ca                	c.mv	a1,s2
    2d1c:	4942                	c.lwsp	s2,16(sp)
    2d1e:	08100513          	li	a0,129
    2d22:	6105                	c.addi16sp	sp,32
    2d24:	ca5ff06f          	j	29c8 <analog_write_reg8>
    2d28:	04600593          	li	a1,70
    2d2c:	4505                	c.li	a0,1
    2d2e:	3969                	c.jal	29c8 <analog_write_reg8>
    2d30:	fd1ff06f          	j	2d00 <pm_wait_bbpll_done+0x74>
    2d34:	04300593          	li	a1,67
    2d38:	4505                	c.li	a0,1
    2d3a:	3179                	c.jal	29c8 <analog_write_reg8>
    2d3c:	fc5ff06f          	j	2d00 <pm_wait_bbpll_done+0x74>

00002d40 <pm_sleep_start>:
    2d40:	1101                	c.addi	sp,-32
    2d42:	853fa72b          	lwgp	a4,-1968 # 80050 <_BSS_VMA_START>
    2d46:	000006b7          	lui	a3,0x0
    2d4a:	ce06                	c.swsp	ra,28(sp)
    2d4c:	cc22                	c.swsp	s0,24(sp)
    2d4e:	0ff00793          	li	a5,255
    2d52:	5a86c583          	lbu	a1,1448(a3) # 5a8 <g_pm_suspend_power_cfg>
    2d56:	16f70f63          	beq	a4,a5,2ed4 <pm_sleep_start+0x194>
    2d5a:	07d00513          	li	a0,125
    2d5e:	31ad                	c.jal	29c8 <analog_write_reg8>
    2d60:	801406b7          	lui	a3,0x80140
    2d64:	10268783          	lb	a5,258(a3) # 80140102 <_DATA_LMA_START+0x6013682a>
    2d68:	fe07fe5b          	bbs	a5,0,2d64 <pm_sleep_start+0x24>
    2d6c:	10168783          	lb	a5,257(a3)
    2d70:	80140737          	lui	a4,0x80140
    2d74:	0ff7f793          	andi	a5,a5,255
    2d78:	0107e793          	ori	a5,a5,16
    2d7c:	10f680a3          	sb	a5,257(a3)
    2d80:	32870783          	lb	a5,808(a4) # 80140328 <_DATA_LMA_START+0x60136a50>
    2d84:	be37fe5b          	bbc	a5,3,2d80 <pm_sleep_start+0x40>
    2d88:	10170783          	lb	a5,257(a4)
    2d8c:	80140437          	lui	s0,0x80140
    2d90:	0fd7f793          	andi	a5,a5,253
    2d94:	10f700a3          	sb	a5,257(a4)
    2d98:	10170783          	lb	a5,257(a4)
    2d9c:	0ef7f793          	andi	a5,a5,239
    2da0:	10f700a3          	sb	a5,257(a4)
    2da4:	fb900793          	li	a5,-71
    2da8:	10f70023          	sb	a5,256(a4)
    2dac:	10240783          	lb	a5,258(s0) # 80140102 <_DATA_LMA_START+0x6013682a>
    2db0:	fe07fe5b          	bbs	a5,0,2dac <pm_sleep_start+0x6c>
    2db4:	10140783          	lb	a5,257(s0)
    2db8:	452d                	c.li	a0,11
    2dba:	0ff7f793          	andi	a5,a5,255
    2dbe:	0107e793          	ori	a5,a5,16
    2dc2:	10f400a3          	sb	a5,257(s0)
    2dc6:	320404a3          	sb	zero,809(s0)
    2dca:	3b3d                	c.jal	2b08 <analog_read_reg8>
    2dcc:	0fc57593          	andi	a1,a0,252
    2dd0:	452d                	c.li	a0,11
    2dd2:	3edd                	c.jal	29c8 <analog_write_reg8>
    2dd4:	08100513          	li	a0,129
    2dd8:	d31ff0ef          	jal	ra,2b08 <analog_read_reg8>
    2ddc:	f8056593          	ori	a1,a0,-128
    2de0:	0ff5f593          	andi	a1,a1,255
    2de4:	08100513          	li	a0,129
    2de8:	be1ff0ef          	jal	ra,29c8 <analog_write_reg8>
    2dec:	f8000793          	li	a5,-128
    2df0:	1ef407a3          	sb	a5,495(s0)
    2df4:	c402                	c.swsp	zero,8(sp)
    2df6:	4722                	c.lwsp	a4,8(sp)
    2df8:	03f00793          	li	a5,63
    2dfc:	00e7ec63          	bltu	a5,a4,2e14 <pm_sleep_start+0xd4>
    2e00:	03f00713          	li	a4,63
    2e04:	0001                	c.nop
    2e06:	47a2                	c.lwsp	a5,8(sp)
    2e08:	0785                	c.addi	a5,1
    2e0a:	c43e                	c.swsp	a5,8(sp)
    2e0c:	00812783          	lw	a5,8(sp)
    2e10:	fef77ae3          	bgeu	a4,a5,2e04 <pm_sleep_start+0xc4>
    2e14:	08100513          	li	a0,129
    2e18:	cf1ff0ef          	jal	ra,2b08 <analog_read_reg8>
    2e1c:	07f57593          	andi	a1,a0,127
    2e20:	08100513          	li	a0,129
    2e24:	ba5ff0ef          	jal	ra,29c8 <analog_write_reg8>
    2e28:	00b00513          	li	a0,11
    2e2c:	cddff0ef          	jal	ra,2b08 <analog_read_reg8>
    2e30:	00356593          	ori	a1,a0,3
    2e34:	0ff5f593          	andi	a1,a1,255
    2e38:	452d                	c.li	a0,11
    2e3a:	3679                	c.jal	29c8 <analog_write_reg8>
    2e3c:	08000593          	li	a1,128
    2e40:	07d00513          	li	a0,125
    2e44:	b85ff0ef          	jal	ra,29c8 <analog_write_reg8>
    2e48:	c602                	c.swsp	zero,12(sp)
    2e4a:	4732                	c.lwsp	a4,12(sp)
    2e4c:	12b00793          	li	a5,299
    2e50:	00e7ec63          	bltu	a5,a4,2e68 <pm_sleep_start+0x128>
    2e54:	12b00713          	li	a4,299
    2e58:	0001                	c.nop
    2e5a:	47b2                	c.lwsp	a5,12(sp)
    2e5c:	0785                	c.addi	a5,1
    2e5e:	c63e                	c.swsp	a5,12(sp)
    2e60:	00c12783          	lw	a5,12(sp)
    2e64:	fef77ae3          	bgeu	a4,a5,2e58 <pm_sleep_start+0x118>
    2e68:	08800513          	li	a0,136
    2e6c:	c9dff0ef          	jal	ra,2b08 <analog_read_reg8>
    2e70:	be757c5b          	bbc	a0,7,2e68 <pm_sleep_start+0x128>
    2e74:	08800513          	li	a0,136
    2e78:	c91ff0ef          	jal	ra,2b08 <analog_read_reg8>
    2e7c:	be757c5b          	bbc	a0,7,2e74 <pm_sleep_start+0x134>
    2e80:	08800513          	li	a0,136
    2e84:	c85ff0ef          	jal	ra,2b08 <analog_read_reg8>
    2e88:	be757c5b          	bbc	a0,7,2e80 <pm_sleep_start+0x140>
    2e8c:	e01ff0ef          	jal	ra,2c8c <pm_wait_bbpll_done>
    2e90:	801407b7          	lui	a5,0x80140
    2e94:	03f00713          	li	a4,63
    2e98:	32e784a3          	sb	a4,809(a5) # 80140329 <_DATA_LMA_START+0x60136a51>
    2e9c:	10178683          	lb	a3,257(a5)
    2ea0:	80140737          	lui	a4,0x80140
    2ea4:	0ef6f693          	andi	a3,a3,239
    2ea8:	10d780a3          	sb	a3,257(a5)
    2eac:	fab00693          	li	a3,-85
    2eb0:	10d78023          	sb	a3,256(a5)
    2eb4:	10270783          	lb	a5,258(a4) # 80140102 <_DATA_LMA_START+0x6013682a>
    2eb8:	fe07fe5b          	bbs	a5,0,2eb4 <pm_sleep_start+0x174>
    2ebc:	10170783          	lb	a5,257(a4)
    2ec0:	0ff7f793          	andi	a5,a5,255
    2ec4:	0107e793          	ori	a5,a5,16
    2ec8:	10f700a3          	sb	a5,257(a4)
    2ecc:	40f2                	c.lwsp	ra,28(sp)
    2ece:	4462                	c.lwsp	s0,24(sp)
    2ed0:	6105                	c.addi16sp	sp,32
    2ed2:	8082                	c.jr	ra
    2ed4:	0fe5f593          	andi	a1,a1,254
    2ed8:	07d00513          	li	a0,125
    2edc:	aedff0ef          	jal	ra,29c8 <analog_write_reg8>
    2ee0:	e81ff06f          	j	2d60 <pm_sleep_start+0x20>

00002ee4 <cpu_sleep_wakeup_32k_rc_ram>:
    2ee4:	7179                	c.addi16sp	sp,-48
    2ee6:	d422                	c.swsp	s0,40(sp)
    2ee8:	d226                	c.swsp	s1,36(sp)
    2eea:	ce4e                	c.swsp	s3,28(sp)
    2eec:	cc52                	c.swsp	s4,24(sp)
    2eee:	ca56                	c.swsp	s5,20(sp)
    2ef0:	c266                	c.swsp	s9,4(sp)
    2ef2:	c06a                	c.swsp	s10,0(sp)
    2ef4:	d606                	c.swsp	ra,44(sp)
    2ef6:	8d2e                	c.mv	s10,a1
    2ef8:	d04a                	c.swsp	s2,32(sp)
    2efa:	c85a                	c.swsp	s6,16(sp)
    2efc:	c65e                	c.swsp	s7,12(sp)
    2efe:	c462                	c.swsp	s8,8(sp)
    2f00:	89aa                	c.mv	s3,a0
    2f02:	8ab2                	c.mv	s5,a2
    2f04:	c51fe0ef          	jal	ra,1b54 <pm_get_32k_rc_calib>
    2f08:	801407b7          	lui	a5,0x80140
    2f0c:	00000437          	lui	s0,0x0
    2f10:	17840413          	addi	s0,s0,376 # 178 <_AES_VMA_END>
    2f14:	2007a483          	lw	s1,512(a5) # 80140200 <_DATA_LMA_START+0x60136928>
    2f18:	020d7a13          	andi	s4,s10,32
    2f1c:	36a42a23          	sw	a0,884(s0)
    2f20:	00a00cb3          	add	s9,zero,a0
    2f24:	020a0063          	beqz	s4,2f44 <cpu_sleep_wakeup_32k_rc_ram+0x60>
    2f28:	409a84b3          	sub	s1,s5,s1
    2f2c:	e0000737          	lui	a4,0xe0000
    2f30:	34976463          	bltu	a4,s1,3278 <cpu_sleep_wakeup_32k_rc_ram+0x394>
    2f34:	839f970b          	addigp	a4,-1992 # 80038 <g_pm_early_wakeup_time_us>
    2f38:	00671703          	lh	a4,6(a4) # e0000006 <_DATA_LMA_START+0xbfff672e>
    2f3c:	1137275b          	bfoz	a4,a4,4,19
    2f40:	34e4e463          	bltu	s1,a4,3288 <cpu_sleep_wakeup_32k_rc_ram+0x3a4>
    2f44:	300024f3          	csrr	s1,mstatus
    2f48:	88a1                	c.andi	s1,8
    2f4a:	e88d                	c.bnez	s1,2f7c <cpu_sleep_wakeup_32k_rc_ram+0x98>
    2f4c:	43442783          	lw	a5,1076(s0)
    2f50:	cb95                	c.beqz	a5,2f84 <cpu_sleep_wakeup_32k_rc_ram+0xa0>
    2f52:	9782                	c.jalr	a5
    2f54:	e905                	c.bnez	a0,2f84 <cpu_sleep_wakeup_32k_rc_ram+0xa0>
    2f56:	4521                	c.li	a0,8
    2f58:	00048463          	beqz	s1,2f60 <cpu_sleep_wakeup_32k_rc_ram+0x7c>
    2f5c:	3004a4f3          	csrrs	s1,mstatus,s1
    2f60:	50b2                	c.lwsp	ra,44(sp)
    2f62:	5422                	c.lwsp	s0,40(sp)
    2f64:	5492                	c.lwsp	s1,36(sp)
    2f66:	5902                	c.lwsp	s2,32(sp)
    2f68:	49f2                	c.lwsp	s3,28(sp)
    2f6a:	4a62                	c.lwsp	s4,24(sp)
    2f6c:	4ad2                	c.lwsp	s5,20(sp)
    2f6e:	4b42                	c.lwsp	s6,16(sp)
    2f70:	4bb2                	c.lwsp	s7,12(sp)
    2f72:	4c22                	c.lwsp	s8,8(sp)
    2f74:	4c92                	c.lwsp	s9,4(sp)
    2f76:	4d02                	c.lwsp	s10,0(sp)
    2f78:	6145                	c.addi16sp	sp,48
    2f7a:	8082                	c.jr	ra
    2f7c:	300477f3          	csrrci	a5,mstatus,8
    2f80:	fcdff06f          	j	2f4c <cpu_sleep_wakeup_32k_rc_ram+0x68>
    2f84:	80140937          	lui	s2,0x80140
    2f88:	1e890b03          	lb	s6,488(s2) # 801401e8 <_DATA_LMA_START+0x60136910>
    2f8c:	00f9fc13          	andi	s8,s3,15
    2f90:	08fb7793          	andi	a5,s6,143
    2f94:	1ef90423          	sb	a5,488(s2)
    2f98:	1d890b83          	lb	s7,472(s2)
    2f9c:	0f8bf793          	andi	a5,s7,248
    2fa0:	1cf90c23          	sb	a5,472(s2)
    2fa4:	20890783          	lb	a5,520(s2)
    2fa8:	0fe7f793          	andi	a5,a5,254
    2fac:	20f90423          	sb	a5,520(s2)
    2fb0:	00100793          	li	a5,1
    2fb4:	20f90c23          	sb	a5,536(s2)
    2fb8:	20a90783          	lb	a5,522(s2)
    2fbc:	0f77f793          	andi	a5,a5,247
    2fc0:	20f90523          	sb	a5,522(s2)
    2fc4:	e40ff0ef          	jal	ra,2604 <clock_get_32k_tick>
    2fc8:	4789                	c.li	a5,2
    2fca:	20f905a3          	sb	a5,523(s2)
    2fce:	20092783          	lw	a5,512(s2)
    2fd2:	42a42c23          	sw	a0,1080(s0)
    2fd6:	85be                	c.mv	a1,a5
    2fd8:	42f42e23          	sw	a5,1084(s0)
    2fdc:	bc1fe0ef          	jal	ra,1b9c <pm_update_32k_rc_sleep_tick>
    2fe0:	0ffd7593          	andi	a1,s10,255
    2fe4:	04b00513          	li	a0,75
    2fe8:	9e1ff0ef          	jal	ra,29c8 <analog_write_reg8>
    2fec:	45fd                	c.li	a1,31
    2fee:	06400513          	li	a0,100
    2ff2:	3ad9                	c.jal	29c8 <analog_write_reg8>
    2ff4:	0ff9f593          	andi	a1,s3,255
    2ff8:	07e00513          	li	a0,126
    2ffc:	9cdff0ef          	jal	ra,29c8 <analog_write_reg8>
    3000:	040d7793          	andi	a5,s10,64
    3004:	1a0c1e63          	bnez	s8,31c0 <cpu_sleep_wakeup_32k_rc_ram+0x2dc>
    3008:	2f09d6db          	beqc	s3,48,32f4 <cpu_sleep_wakeup_32k_rc_ram+0x410>
    300c:	32078263          	beqz	a5,3330 <cpu_sleep_wakeup_32k_rc_ram+0x44c>
    3010:	06000593          	li	a1,96
    3014:	04d00513          	li	a0,77
    3018:	9b1ff0ef          	jal	ra,29c8 <analog_write_reg8>
    301c:	4585                	c.li	a1,1
    301e:	07f00513          	li	a0,127
    3022:	325d                	c.jal	29c8 <analog_write_reg8>
    3024:	839f992b          	lhgp	s2,-1992 # 80038 <g_pm_early_wakeup_time_us>
    3028:	3c09295b          	bfoz	s2,s2,15,0
    302c:	00491913          	slli	s2,s2,0x4
    3030:	0e0d7d13          	andi	s10,s10,224
    3034:	412a8933          	sub	s2,s5,s2
    3038:	1c0d0063          	beqz	s10,31f8 <cpu_sleep_wakeup_32k_rc_ram+0x314>
    303c:	0ee00593          	li	a1,238
    3040:	04c00513          	li	a0,76
    3044:	985ff0ef          	jal	ra,29c8 <analog_write_reg8>
    3048:	1d09d0db          	beqc	s3,48,3208 <cpu_sleep_wakeup_32k_rc_ram+0x324>
    304c:	841f978b          	addigp	a5,-1984 # 80040 <g_pm_r_delay_cycle>
    3050:	00279583          	lh	a1,2(a5)
    3054:	04000513          	li	a0,64
    3058:	0ff5f593          	andi	a1,a1,255
    305c:	96dff0ef          	jal	ra,29c8 <analog_write_reg8>
    3060:	34842783          	lw	a5,840(s0)
    3064:	40f907b3          	sub	a5,s2,a5
    3068:	1a0a0e63          	beqz	s4,3224 <cpu_sleep_wakeup_32k_rc_ram+0x340>
    306c:	0ff00737          	lui	a4,0xff00
    3070:	26f77663          	bgeu	a4,a5,32dc <cpu_sleep_wakeup_32k_rc_ram+0x3f8>
    3074:	00100713          	li	a4,1
    3078:	36e40c23          	sb	a4,888(s0)
    307c:	37442683          	lw	a3,884(s0)
    3080:	34c42583          	lw	a1,844(s0)
    3084:	02d7d533          	divu	a0,a5,a3
    3088:	43842703          	lw	a4,1080(s0)
    308c:	40000637          	lui	a2,0x40000
    3090:	00370793          	addi	a5,a4,3 # ff00003 <FLASH_SIZE+0xfe00003>
    3094:	0512                	c.slli	a0,0x4
    3096:	952e                	c.add	a0,a1
    3098:	8f89                	c.sub	a5,a0
    309a:	02c7f163          	bgeu	a5,a2,30bc <cpu_sleep_wakeup_32k_rc_ram+0x1d8>
    309e:	43c42783          	lw	a5,1084(s0)
    30a2:	34e42623          	sw	a4,844(s0)
    30a6:	0017e793          	ori	a5,a5,1
    30aa:	40f90533          	sub	a0,s2,a5
    30ae:	02d55533          	divu	a0,a0,a3
    30b2:	34f42423          	sw	a5,840(s0)
    30b6:	0512                	c.slli	a0,0x4
    30b8:	00e50533          	add	a0,a0,a4
    30bc:	ce8ff0ef          	jal	ra,25a4 <clock_set_32k_tick>
    30c0:	06400513          	li	a0,100
    30c4:	a45ff0ef          	jal	ra,2b08 <analog_read_reg8>
    30c8:	01f57513          	andi	a0,a0,31
    30cc:	00051a63          	bnez	a0,30e0 <cpu_sleep_wakeup_32k_rc_ram+0x1fc>
    30d0:	240c1863          	bnez	s8,3320 <cpu_sleep_wakeup_32k_rc_ram+0x43c>
    30d4:	c6dff0ef          	jal	ra,2d40 <pm_sleep_start>
    30d8:	4585                	c.li	a1,1
    30da:	07f00513          	li	a0,127
    30de:	30ed                	c.jal	29c8 <analog_write_reg8>
    30e0:	0109e8db          	bnec	s3,48,30f0 <cpu_sleep_wakeup_32k_rc_ram+0x20c>
    30e4:	801407b7          	lui	a5,0x80140
    30e8:	02000713          	li	a4,32
    30ec:	1ee787a3          	sb	a4,495(a5) # 801401ef <_DATA_LMA_START+0x60136917>
    30f0:	801407b7          	lui	a5,0x80140
    30f4:	20878703          	lb	a4,520(a5) # 80140208 <_DATA_LMA_START+0x60136930>
    30f8:	0ff77713          	andi	a4,a4,255
    30fc:	00176713          	ori	a4,a4,1
    3100:	20e78423          	sb	a4,520(a5)
    3104:	00200713          	li	a4,2
    3108:	20e78c23          	sb	a4,536(a5)
    310c:	20a78703          	lb	a4,522(a5)
    3110:	0ff77713          	andi	a4,a4,255
    3114:	00c76713          	ori	a4,a4,12
    3118:	20e78523          	sb	a4,522(a5)
    311c:	ce8ff0ef          	jal	ra,2604 <clock_get_32k_tick>
    3120:	37844783          	lbu	a5,888(s0)
    3124:	0505                	c.addi	a0,1
    3126:	18078b63          	beqz	a5,32bc <cpu_sleep_wakeup_32k_rc_ram+0x3d8>
    312a:	43842703          	lw	a4,1080(s0)
    312e:	43c42783          	lw	a5,1084(s0)
    3132:	37442683          	lw	a3,884(s0)
    3136:	40e50733          	sub	a4,a0,a4
    313a:	8311                	c.srli	a4,0x4
    313c:	c4d717ff          	maddr32	a5,a4,a3
    3140:	42f42e23          	sw	a5,1084(s0)
    3144:	34c42683          	lw	a3,844(s0)
    3148:	00178793          	addi	a5,a5,1
    314c:	40d506b3          	sub	a3,a0,a3
    3150:	36d42023          	sw	a3,864(s0)
    3154:	36a42223          	sw	a0,868(s0)
    3158:	801406b7          	lui	a3,0x80140
    315c:	80140737          	lui	a4,0x80140
    3160:	20f6a023          	sw	a5,512(a3) # 80140200 <_DATA_LMA_START+0x60136928>
    3164:	20b70783          	lb	a5,523(a4) # 8014020b <_DATA_LMA_START+0x60136933>
    3168:	be77fe5b          	bbc	a5,7,3164 <cpu_sleep_wakeup_32k_rc_ram+0x280>
    316c:	06400513          	li	a0,100
    3170:	20070c23          	sb	zero,536(a4)
    3174:	995ff0ef          	jal	ra,2b08 <analog_read_reg8>
    3178:	00a00733          	add	a4,zero,a0
    317c:	00157e5b          	bbc	a0,1,3198 <cpu_sleep_wakeup_32k_rc_ram+0x2b4>
    3180:	000a0c63          	beqz	s4,3198 <cpu_sleep_wakeup_32k_rc_ram+0x2b4>
    3184:	80140637          	lui	a2,0x80140
    3188:	400006b7          	lui	a3,0x40000
    318c:	20062783          	lw	a5,512(a2) # 80140200 <_DATA_LMA_START+0x60136928>
    3190:	415787b3          	sub	a5,a5,s5
    3194:	fef6ece3          	bltu	a3,a5,318c <cpu_sleep_wakeup_32k_rc_ram+0x2a8>
    3198:	801407b7          	lui	a5,0x80140
    319c:	1d778c23          	sb	s7,472(a5) # 801401d8 <_DATA_LMA_START+0x60136900>
    31a0:	1f678423          	sb	s6,488(a5)
    31a4:	00048463          	beqz	s1,31ac <cpu_sleep_wakeup_32k_rc_ram+0x2c8>
    31a8:	3004a4f3          	csrrs	s1,mstatus,s1
    31ac:	08000513          	li	a0,128
    31b0:	da0708e3          	beqz	a4,2f60 <cpu_sleep_wakeup_32k_rc_ram+0x7c>
    31b4:	400007b7          	lui	a5,0x40000
    31b8:	00f76533          	or	a0,a4,a5
    31bc:	da5ff06f          	j	2f60 <cpu_sleep_wakeup_32k_rc_ram+0x7c>
    31c0:	12078263          	beqz	a5,32e4 <cpu_sleep_wakeup_32k_rc_ram+0x400>
    31c4:	0d000593          	li	a1,208
    31c8:	04d00513          	li	a0,77
    31cc:	ffcff0ef          	jal	ra,29c8 <analog_write_reg8>
    31d0:	801407b7          	lui	a5,0x80140
    31d4:	1047a703          	lw	a4,260(a5) # 80140104 <_DATA_LMA_START+0x6013682c>
    31d8:	839f978b          	addigp	a5,-1992 # 80038 <g_pm_early_wakeup_time_us>
    31dc:	00279903          	lh	s2,2(a5)
    31e0:	44e42023          	sw	a4,1088(s0)
    31e4:	3c09295b          	bfoz	s2,s2,15,0
    31e8:	00491913          	slli	s2,s2,0x4
    31ec:	0e0d7d13          	andi	s10,s10,224
    31f0:	412a8933          	sub	s2,s5,s2
    31f4:	e40d14e3          	bnez	s10,303c <cpu_sleep_wakeup_32k_rc_ram+0x158>
    31f8:	0ef00593          	li	a1,239
    31fc:	04c00513          	li	a0,76
    3200:	fc8ff0ef          	jal	ra,29c8 <analog_write_reg8>
    3204:	a509e4db          	bnec	s3,48,304c <cpu_sleep_wakeup_32k_rc_ram+0x168>
    3208:	841f95ab          	lhgp	a1,-1984 # 80040 <g_pm_r_delay_cycle>
    320c:	04000513          	li	a0,64
    3210:	0ff5f593          	andi	a1,a1,255
    3214:	fb4ff0ef          	jal	ra,29c8 <analog_write_reg8>
    3218:	34842783          	lw	a5,840(s0)
    321c:	40f907b3          	sub	a5,s2,a5
    3220:	e40a16e3          	bnez	s4,306c <cpu_sleep_wakeup_32k_rc_ram+0x188>
    3224:	37844703          	lbu	a4,888(s0)
    3228:	e4071ae3          	bnez	a4,307c <cpu_sleep_wakeup_32k_rc_ram+0x198>
    322c:	00479513          	slli	a0,a5,0x4
    3230:	001cdc93          	srli	s9,s9,0x1
    3234:	37442683          	lw	a3,884(s0)
    3238:	9566                	c.add	a0,s9
    323a:	02d55533          	divu	a0,a0,a3
    323e:	34c42583          	lw	a1,844(s0)
    3242:	43842703          	lw	a4,1080(s0)
    3246:	40000637          	lui	a2,0x40000
    324a:	00370793          	addi	a5,a4,3
    324e:	952e                	c.add	a0,a1
    3250:	8f89                	c.sub	a5,a0
    3252:	e6c7f5e3          	bgeu	a5,a2,30bc <cpu_sleep_wakeup_32k_rc_ram+0x1d8>
    3256:	43c42783          	lw	a5,1084(s0)
    325a:	34e42623          	sw	a4,844(s0)
    325e:	0017e793          	ori	a5,a5,1
    3262:	40f90933          	sub	s2,s2,a5
    3266:	00491513          	slli	a0,s2,0x4
    326a:	9caa                	c.add	s9,a0
    326c:	02dcd533          	divu	a0,s9,a3
    3270:	34f42423          	sw	a5,840(s0)
    3274:	953a                	c.add	a0,a4
    3276:	b599                	c.j	30bc <cpu_sleep_wakeup_32k_rc_ram+0x1d8>
    3278:	06400513          	li	a0,100
    327c:	88dff0ef          	jal	ra,2b08 <analog_read_reg8>
    3280:	01f57513          	andi	a0,a0,31
    3284:	cddff06f          	j	2f60 <cpu_sleep_wakeup_32k_rc_ram+0x7c>
    3288:	01d00593          	li	a1,29
    328c:	06400513          	li	a0,100
    3290:	80140937          	lui	s2,0x80140
    3294:	2007a403          	lw	s0,512(a5)
    3298:	f30ff0ef          	jal	ra,29c8 <analog_write_reg8>
    329c:	0080006f          	j	32a4 <cpu_sleep_wakeup_32k_rc_ram+0x3c0>
    32a0:	cc0510e3          	bnez	a0,2f60 <cpu_sleep_wakeup_32k_rc_ram+0x7c>
    32a4:	06400513          	li	a0,100
    32a8:	861ff0ef          	jal	ra,2b08 <analog_read_reg8>
    32ac:	20092783          	lw	a5,512(s2) # 80140200 <_DATA_LMA_START+0x60136928>
    32b0:	8975                	c.andi	a0,29
    32b2:	8f81                	c.sub	a5,s0
    32b4:	fe97e6e3          	bltu	a5,s1,32a0 <cpu_sleep_wakeup_32k_rc_ram+0x3bc>
    32b8:	ca9ff06f          	j	2f60 <cpu_sleep_wakeup_32k_rc_ram+0x7c>
    32bc:	43842783          	lw	a5,1080(s0)
    32c0:	37442703          	lw	a4,884(s0)
    32c4:	40f507b3          	sub	a5,a0,a5
    32c8:	02e787b3          	mul	a5,a5,a4
    32cc:	43c42703          	lw	a4,1084(s0)
    32d0:	8391                	c.srli	a5,0x4
    32d2:	97ba                	c.add	a5,a4
    32d4:	42f42e23          	sw	a5,1084(s0)
    32d8:	e6dff06f          	j	3144 <cpu_sleep_wakeup_32k_rc_ram+0x260>
    32dc:	36040c23          	sb	zero,888(s0)
    32e0:	f4dff06f          	j	322c <cpu_sleep_wakeup_32k_rc_ram+0x348>
    32e4:	0d100593          	li	a1,209
    32e8:	04d00513          	li	a0,77
    32ec:	edcff0ef          	jal	ra,29c8 <analog_write_reg8>
    32f0:	ee1ff06f          	j	31d0 <cpu_sleep_wakeup_32k_rc_ram+0x2ec>
    32f4:	04079663          	bnez	a5,3340 <cpu_sleep_wakeup_32k_rc_ram+0x45c>
    32f8:	0f900593          	li	a1,249
    32fc:	04d00513          	li	a0,77
    3300:	ec8ff0ef          	jal	ra,29c8 <analog_write_reg8>
    3304:	00100593          	li	a1,1
    3308:	07f00513          	li	a0,127
    330c:	ebcff0ef          	jal	ra,29c8 <analog_write_reg8>
    3310:	839f978b          	addigp	a5,-1992 # 80038 <g_pm_early_wakeup_time_us>
    3314:	00479903          	lh	s2,4(a5)
    3318:	3c09295b          	bfoz	s2,s2,15,0
    331c:	d11ff06f          	j	302c <cpu_sleep_wakeup_32k_rc_ram+0x148>
    3320:	00000593          	li	a1,0
    3324:	07f00513          	li	a0,127
    3328:	ea0ff0ef          	jal	ra,29c8 <analog_write_reg8>
    332c:	da9ff06f          	j	30d4 <cpu_sleep_wakeup_32k_rc_ram+0x1f0>
    3330:	06100593          	li	a1,97
    3334:	04d00513          	li	a0,77
    3338:	e90ff0ef          	jal	ra,29c8 <analog_write_reg8>
    333c:	ce1ff06f          	j	301c <cpu_sleep_wakeup_32k_rc_ram+0x138>
    3340:	0f800593          	li	a1,248
    3344:	04d00513          	li	a0,77
    3348:	e80ff0ef          	jal	ra,29c8 <analog_write_reg8>
    334c:	fb9ff06f          	j	3304 <cpu_sleep_wakeup_32k_rc_ram+0x420>

00003350 <clock_cal_24m_rc>:
    3350:	1141                	c.addi	sp,-16
    3352:	08000593          	li	a1,128
    3356:	0c800513          	li	a0,200
    335a:	c606                	c.swsp	ra,12(sp)
    335c:	e6cff0ef          	jal	ra,29c8 <analog_write_reg8>
    3360:	04f00513          	li	a0,79
    3364:	fa4ff0ef          	jal	ra,2b08 <analog_read_reg8>
    3368:	f8056593          	ori	a1,a0,-128
    336c:	0ff5f593          	andi	a1,a1,255
    3370:	04f00513          	li	a0,79
    3374:	e54ff0ef          	jal	ra,29c8 <analog_write_reg8>
    3378:	00e00593          	li	a1,14
    337c:	0c700513          	li	a0,199
    3380:	e48ff0ef          	jal	ra,29c8 <analog_write_reg8>
    3384:	00f00593          	li	a1,15
    3388:	0c700513          	li	a0,199
    338c:	e3cff0ef          	jal	ra,29c8 <analog_write_reg8>
    3390:	0cf00513          	li	a0,207
    3394:	f74ff0ef          	jal	ra,2b08 <analog_read_reg8>
    3398:	be757c5b          	bbc	a0,7,3390 <clock_cal_24m_rc+0x40>
    339c:	0cb00513          	li	a0,203
    33a0:	f68ff0ef          	jal	ra,2b08 <analog_read_reg8>
    33a4:	00a005b3          	add	a1,zero,a0
    33a8:	05200513          	li	a0,82
    33ac:	e1cff0ef          	jal	ra,29c8 <analog_write_reg8>
    33b0:	04f00513          	li	a0,79
    33b4:	f54ff0ef          	jal	ra,2b08 <analog_read_reg8>
    33b8:	07f57593          	andi	a1,a0,127
    33bc:	04f00513          	li	a0,79
    33c0:	e08ff0ef          	jal	ra,29c8 <analog_write_reg8>
    33c4:	0c700513          	li	a0,199
    33c8:	00e00593          	li	a1,14
    33cc:	dfcff0ef          	jal	ra,29c8 <analog_write_reg8>
    33d0:	40b2                	c.lwsp	ra,12(sp)
    33d2:	05200513          	li	a0,82
    33d6:	0141                	c.addi	sp,16
    33d8:	f30ff06f          	j	2b08 <analog_read_reg8>

000033dc <blt_sdk_main_loop>:
    33dc:	1101                	c.addi	sp,-32
    33de:	cc22                	c.swsp	s0,24(sp)
    33e0:	00000437          	lui	s0,0x0
    33e4:	17840413          	addi	s0,s0,376 # 178 <_AES_VMA_END>
    33e8:	ce06                	c.swsp	ra,28(sp)
    33ea:	ca26                	c.swsp	s1,20(sp)
    33ec:	c84a                	c.swsp	s2,16(sp)
    33ee:	45042703          	lw	a4,1104(s0)
    33f2:	cf19                	c.beqz	a4,3410 <blt_sdk_main_loop+0x34>
    33f4:	17f40783          	lb	a5,383(s0)
    33f8:	0ff7f793          	andi	a5,a5,255
    33fc:	cb91                	c.beqz	a5,3410 <blt_sdk_main_loop+0x34>
    33fe:	9702                	c.jalr	a4
    3400:	40f2                	c.lwsp	ra,28(sp)
    3402:	4462                	c.lwsp	s0,24(sp)
    3404:	44d2                	c.lwsp	s1,20(sp)
    3406:	4942                	c.lwsp	s2,16(sp)
    3408:	4501                	c.li	a0,0
    340a:	6105                	c.addi16sp	sp,32
    340c:	00008067          	ret
    3410:	3b244703          	lbu	a4,946(s0)
    3414:	3b344783          	lbu	a5,947(s0)
    3418:	04f70a63          	beq	a4,a5,346c <blt_sdk_main_loop+0x90>
    341c:	801404b7          	lui	s1,0x80140
    3420:	14348493          	addi	s1,s1,323 # 80140143 <_DATA_LMA_START+0x6013686b>
    3424:	00c00913          	li	s2,12
    3428:	3b140683          	lb	a3,945(s0)
    342c:	3b344783          	lbu	a5,947(s0)
    3430:	3ac45603          	lhu	a2,940(s0)
    3434:	3b842703          	lw	a4,952(s0)
    3438:	8efd                	c.and	a3,a5
    343a:	01248023          	sb	s2,0(s1)
    343e:	c4c6977f          	maddr32	a4,a3,a2
    3442:	853a                	c.mv	a0,a4
    3444:	00274703          	lbu	a4,2(a4)
    3448:	cb01                	c.beqz	a4,3458 <blt_sdk_main_loop+0x7c>
    344a:	45442703          	lw	a4,1108(s0)
    344e:	c709                	c.beqz	a4,3458 <blt_sdk_main_loop+0x7c>
    3450:	000700e7          	jalr	a4
    3454:	3b344783          	lbu	a5,947(s0)
    3458:	00178793          	addi	a5,a5,1
    345c:	0ff7f793          	andi	a5,a5,255
    3460:	3b244703          	lbu	a4,946(s0)
    3464:	3af409a3          	sb	a5,947(s0)
    3468:	fcf710e3          	bne	a4,a5,3428 <blt_sdk_main_loop+0x4c>
    346c:	1bf44703          	lbu	a4,447(s0)
    3470:	1be44783          	lbu	a5,446(s0)
    3474:	00f70863          	beq	a4,a5,3484 <blt_sdk_main_loop+0xa8>
    3478:	45842783          	lw	a5,1112(s0)
    347c:	c781                	c.beqz	a5,3484 <blt_sdk_main_loop+0xa8>
    347e:	4501                	c.li	a0,0
    3480:	000780e7          	jalr	a5
    3484:	2ac42703          	lw	a4,684(s0)
    3488:	800007b7          	lui	a5,0x80000
    348c:	1c078793          	addi	a5,a5,448 # 800001c0 <_DATA_LMA_START+0x5fff68e8>
    3490:	00e7f7b3          	and	a5,a5,a4
    3494:	14079463          	bnez	a5,35dc <blt_sdk_main_loop+0x200>
    3498:	18d40783          	lb	a5,397(s0)
    349c:	0ff7f793          	andi	a5,a5,255
    34a0:	1a87d05b          	beqc	a5,8,3640 <blt_sdk_main_loop+0x264>
    34a4:	46442783          	lw	a5,1124(s0)
    34a8:	c391                	c.beqz	a5,34ac <blt_sdk_main_loop+0xd0>
    34aa:	9782                	c.jalr	a5
    34ac:	46842783          	lw	a5,1128(s0)
    34b0:	c391                	c.beqz	a5,34b4 <blt_sdk_main_loop+0xd8>
    34b2:	9782                	c.jalr	a5
    34b4:	46c42783          	lw	a5,1132(s0)
    34b8:	c391                	c.beqz	a5,34bc <blt_sdk_main_loop+0xe0>
    34ba:	9782                	c.jalr	a5
    34bc:	47042783          	lw	a5,1136(s0)
    34c0:	c391                	c.beqz	a5,34c4 <blt_sdk_main_loop+0xe8>
    34c2:	9782                	c.jalr	a5
    34c4:	47442783          	lw	a5,1140(s0)
    34c8:	c791                	c.beqz	a5,34d4 <blt_sdk_main_loop+0xf8>
    34ca:	44644703          	lbu	a4,1094(s0)
    34ce:	e319                	c.bnez	a4,34d4 <blt_sdk_main_loop+0xf8>
    34d0:	000780e7          	jalr	a5
    34d4:	47844783          	lbu	a5,1144(s0)
    34d8:	e791                	c.bnez	a5,34e4 <blt_sdk_main_loop+0x108>
    34da:	19440783          	lb	a5,404(s0)
    34de:	0ff7f793          	andi	a5,a5,255
    34e2:	e3b9                	c.bnez	a5,3528 <blt_sdk_main_loop+0x14c>
    34e4:	18d40783          	lb	a5,397(s0)
    34e8:	0ff7f793          	andi	a5,a5,255
    34ec:	0a17d85b          	beqc	a5,1,359c <blt_sdk_main_loop+0x1c0>
    34f0:	801406b7          	lui	a3,0x80140
    34f4:	4bc42783          	lw	a5,1212(s0)
    34f8:	2006a703          	lw	a4,512(a3) # 80140200 <_DATA_LMA_START+0x60136928>
    34fc:	8f1d                	c.sub	a4,a5
    34fe:	393737b7          	lui	a5,0x39373
    3502:	78078793          	addi	a5,a5,1920 # 39373780 <_DATA_LMA_START+0x19369ea8>
    3506:	00e7f763          	bgeu	a5,a4,3514 <blt_sdk_main_loop+0x138>
    350a:	2006a783          	lw	a5,512(a3)
    350e:	4af42e23          	sw	a5,1212(s0)
    3512:	3d3d                	c.jal	3350 <clock_cal_24m_rc>
    3514:	4785                	c.li	a5,1
    3516:	18f40a23          	sb	a5,404(s0)
    351a:	40f2                	c.lwsp	ra,28(sp)
    351c:	4462                	c.lwsp	s0,24(sp)
    351e:	44d2                	c.lwsp	s1,20(sp)
    3520:	4942                	c.lwsp	s2,16(sp)
    3522:	4501                	c.li	a0,0
    3524:	6105                	c.addi16sp	sp,32
    3526:	8082                	c.jr	ra
    3528:	47c42783          	lw	a5,1148(s0)
    352c:	dfc5                	c.beqz	a5,34e4 <blt_sdk_main_loop+0x108>
    352e:	44644783          	lbu	a5,1094(s0)
    3532:	dbcd                	c.beqz	a5,34e4 <blt_sdk_main_loop+0x108>
    3534:	18d40783          	lb	a5,397(s0)
    3538:	8ba5                	c.andi	a5,9
    353a:	d7cd                	c.beqz	a5,34e4 <blt_sdk_main_loop+0x108>
    353c:	19040783          	lb	a5,400(s0)
    3540:	0ff7f793          	andi	a5,a5,255
    3544:	f3c5                	c.bnez	a5,34e4 <blt_sdk_main_loop+0x108>
    3546:	2ac42783          	lw	a5,684(s0)
    354a:	ffc9                	c.bnez	a5,34e4 <blt_sdk_main_loop+0x108>
    354c:	48244783          	lbu	a5,1154(s0)
    3550:	fbd1                	c.bnez	a5,34e4 <blt_sdk_main_loop+0x108>
    3552:	3b344703          	lbu	a4,947(s0)
    3556:	3b244783          	lbu	a5,946(s0)
    355a:	f8f715e3          	bne	a4,a5,34e4 <blt_sdk_main_loop+0x108>
    355e:	48044783          	lbu	a5,1152(s0)
    3562:	d3c9                	c.beqz	a5,34e4 <blt_sdk_main_loop+0x108>
    3564:	e4002737          	lui	a4,0xe4002
    3568:	431c                	c.lw	a5,0(a4)
    356a:	9bf5                	c.andi	a5,-3
    356c:	c31c                	c.sw	a5,0(a4)
    356e:	19040783          	lb	a5,400(s0)
    3572:	0ff7f793          	andi	a5,a5,255
    3576:	e789                	c.bnez	a5,3580 <blt_sdk_main_loop+0x1a4>
    3578:	47c42783          	lw	a5,1148(s0)
    357c:	000780e7          	jalr	a5
    3580:	18d40783          	lb	a5,397(s0)
    3584:	0ff7f793          	andi	a5,a5,255
    3588:	b487ee5b          	bnec	a5,8,34e4 <blt_sdk_main_loop+0x108>
    358c:	e4002737          	lui	a4,0xe4002
    3590:	431c                	c.lw	a5,0(a4)
    3592:	0027e793          	ori	a5,a5,2
    3596:	c31c                	c.sw	a5,0(a4)
    3598:	f4dff06f          	j	34e4 <blt_sdk_main_loop+0x108>
    359c:	4b042703          	lw	a4,1200(s0)
    35a0:	db21                	c.beqz	a4,34f0 <blt_sdk_main_loop+0x114>
    35a2:	801407b7          	lui	a5,0x80140
    35a6:	2007a783          	lw	a5,512(a5) # 80140200 <_DATA_LMA_START+0x60136928>
    35aa:	2cc42683          	lw	a3,716(s0)
    35ae:	8f95                	c.sub	a5,a3
    35b0:	f407c0e3          	bltz	a5,34f0 <blt_sdk_main_loop+0x114>
    35b4:	2ac42783          	lw	a5,684(s0)
    35b8:	ff85                	c.bnez	a5,34f0 <blt_sdk_main_loop+0x114>
    35ba:	9702                	c.jalr	a4
    35bc:	18d40783          	lb	a5,397(s0)
    35c0:	0ff7f793          	andi	a5,a5,255
    35c4:	1817d45b          	beqc	a5,1,374c <blt_sdk_main_loop+0x370>
    35c8:	18d40783          	lb	a5,397(s0)
    35cc:	0ff7f793          	andi	a5,a5,255
    35d0:	1a87d85b          	beqc	a5,8,3780 <blt_sdk_main_loop+0x3a4>
    35d4:	18040823          	sb	zero,400(s0)
    35d8:	f19ff06f          	j	34f0 <blt_sdk_main_loop+0x114>
    35dc:	0277785b          	bbc	a4,7,360c <blt_sdk_main_loop+0x230>
    35e0:	f7f77713          	andi	a4,a4,-129
    35e4:	1c442683          	lw	a3,452(s0)
    35e8:	2ae42623          	sw	a4,684(s0)
    35ec:	2c144783          	lbu	a5,705(s0)
    35f0:	52b6f45b          	bbs	a3,11,3718 <blt_sdk_main_loop+0x33c>
    35f4:	45c42703          	lw	a4,1116(s0)
    35f8:	4609                	c.li	a2,2
    35fa:	004c                	c.addi4spn	a1,sp,4
    35fc:	451d                	c.li	a0,7
    35fe:	00f10223          	sb	a5,4(sp)
    3602:	00f102a3          	sb	a5,5(sp)
    3606:	9702                	c.jalr	a4
    3608:	2ac42703          	lw	a4,684(s0)
    360c:	06074c63          	bltz	a4,3684 <blt_sdk_main_loop+0x2a8>
    3610:	00877a5b          	bbc	a4,8,3624 <blt_sdk_main_loop+0x248>
    3614:	1c442783          	lw	a5,452(s0)
    3618:	4a67f85b          	bbs	a5,6,36c8 <blt_sdk_main_loop+0x2ec>
    361c:	eff77713          	andi	a4,a4,-257
    3620:	2ae42623          	sw	a4,684(s0)
    3624:	a6677a5b          	bbc	a4,6,3498 <blt_sdk_main_loop+0xbc>
    3628:	45c42783          	lw	a5,1116(s0)
    362c:	fbf77713          	andi	a4,a4,-65
    3630:	4601                	c.li	a2,0
    3632:	4581                	c.li	a1,0
    3634:	4519                	c.li	a0,6
    3636:	2ae42623          	sw	a4,684(s0)
    363a:	9782                	c.jalr	a5
    363c:	e5dff06f          	j	3498 <blt_sdk_main_loop+0xbc>
    3640:	2c644783          	lbu	a5,710(s0)
    3644:	e60780e3          	beqz	a5,34a4 <blt_sdk_main_loop+0xc8>
    3648:	19140783          	lb	a5,401(s0)
    364c:	0ff7f793          	andi	a5,a5,255
    3650:	e4079ae3          	bnez	a5,34a4 <blt_sdk_main_loop+0xc8>
    3654:	2c044783          	lbu	a5,704(s0)
    3658:	30300693          	li	a3,771
    365c:	46042703          	lw	a4,1120(s0)
    3660:	00d11223          	sh	a3,4(sp)
    3664:	004c                	c.addi4spn	a1,sp,4
    3666:	46d9                	c.li	a3,22
    3668:	6521                	c.lui	a0,0x8
    366a:	00d10323          	sb	a3,6(sp)
    366e:	00f10423          	sb	a5,8(sp)
    3672:	00f103a3          	sb	a5,7(sp)
    3676:	9702                	c.jalr	a4
    3678:	e20506e3          	beqz	a0,34a4 <blt_sdk_main_loop+0xc8>
    367c:	2c040323          	sb	zero,710(s0)
    3680:	e25ff06f          	j	34a4 <blt_sdk_main_loop+0xc8>
    3684:	7807275b          	bfoz	a4,a4,30,0
    3688:	1c442783          	lw	a5,452(s0)
    368c:	2ae42623          	sw	a4,684(s0)
    3690:	b937f05b          	bbc	a5,19,3610 <blt_sdk_main_loop+0x234>
    3694:	26c45703          	lhu	a4,620(s0)
    3698:	25e44783          	lbu	a5,606(s0)
    369c:	02000537          	lui	a0,0x2000
    36a0:	46d1                	c.li	a3,20
    36a2:	4611                	c.li	a2,4
    36a4:	00410593          	addi	a1,sp,4
    36a8:	03e50513          	addi	a0,a0,62 # 200003e <FLASH_SIZE+0x1f0003e>
    36ac:	00e112a3          	sh	a4,5(sp)
    36b0:	00d10223          	sb	a3,4(sp)
    36b4:	00f103a3          	sb	a5,7(sp)
    36b8:	20002097          	auipc	ra,0x20002
    36bc:	de8080e7          	jalr	-536(ra) # 200054a0 <blc_hci_send_event>
    36c0:	2ac42703          	lw	a4,684(s0)
    36c4:	f4dff06f          	j	3610 <blt_sdk_main_loop+0x234>
    36c8:	3be45803          	lhu	a6,958(s0)
    36cc:	3bc45683          	lhu	a3,956(s0)
    36d0:	26c45883          	lhu	a7,620(s0)
    36d4:	00e80713          	addi	a4,a6,14
    36d8:	00e68793          	addi	a5,a3,14
    36dc:	02000537          	lui	a0,0x2000
    36e0:	070e                	c.slli	a4,0x3
    36e2:	078e                	c.slli	a5,0x3
    36e4:	431d                	c.li	t1,7
    36e6:	462d                	c.li	a2,11
    36e8:	00410593          	addi	a1,sp,4
    36ec:	03e50513          	addi	a0,a0,62 # 200003e <FLASH_SIZE+0x1f0003e>
    36f0:	00e114a3          	sh	a4,9(sp)
    36f4:	00610223          	sb	t1,4(sp)
    36f8:	011112a3          	sh	a7,5(sp)
    36fc:	010113a3          	sh	a6,7(sp)
    3700:	00d115a3          	sh	a3,11(sp)
    3704:	00f116a3          	sh	a5,13(sp)
    3708:	20002097          	auipc	ra,0x20002
    370c:	d98080e7          	jalr	-616(ra) # 200054a0 <blc_hci_send_event>
    3710:	2ac42703          	lw	a4,684(s0)
    3714:	f09ff06f          	j	361c <blt_sdk_main_loop+0x240>
    3718:	26c45703          	lhu	a4,620(s0)
    371c:	02000537          	lui	a0,0x2000
    3720:	00f10423          	sb	a5,8(sp)
    3724:	00f104a3          	sb	a5,9(sp)
    3728:	4619                	c.li	a2,6
    372a:	47b1                	c.li	a5,12
    372c:	00410593          	addi	a1,sp,4
    3730:	03e50513          	addi	a0,a0,62 # 200003e <FLASH_SIZE+0x1f0003e>
    3734:	00f11223          	sh	a5,4(sp)
    3738:	00e11323          	sh	a4,6(sp)
    373c:	20002097          	auipc	ra,0x20002
    3740:	d64080e7          	jalr	-668(ra) # 200054a0 <blc_hci_send_event>
    3744:	2c144783          	lbu	a5,705(s0)
    3748:	eadff06f          	j	35f4 <blt_sdk_main_loop+0x218>
    374c:	25544783          	lbu	a5,597(s0)
    3750:	00078463          	beqz	a5,3758 <blt_sdk_main_loop+0x37c>
    3754:	24040aa3          	sb	zero,597(s0)
    3758:	39640783          	lb	a5,918(s0)
    375c:	80141737          	lui	a4,0x80141
    3760:	0257fa5b          	bbc	a5,5,3794 <blt_sdk_main_loop+0x3b8>
    3764:	a1c71783          	lh	a5,-1508(a4) # 80140a1c <_DATA_LMA_START+0x60137144>
    3768:	4b442683          	lw	a3,1204(s0)
    376c:	3c07a7db          	bfoz	a5,a5,15,0
    3770:	0017e793          	ori	a5,a5,1
    3774:	a0f71e23          	sh	a5,-1508(a4)
    3778:	9682                	c.jalr	a3
    377a:	18040823          	sb	zero,400(s0)
    377e:	bb8d                	c.j	34f0 <blt_sdk_main_loop+0x114>
    3780:	17d40783          	lb	a5,381(s0)
    3784:	a467f85b          	bbc	a5,6,35d4 <blt_sdk_main_loop+0x1f8>
    3788:	4b842783          	lw	a5,1208(s0)
    378c:	9782                	c.jalr	a5
    378e:	18040823          	sb	zero,400(s0)
    3792:	bbb9                	c.j	34f0 <blt_sdk_main_loop+0x114>
    3794:	a1c71783          	lh	a5,-1508(a4)
    3798:	3c07a7db          	bfoz	a5,a5,15,0
    379c:	9bf9                	c.andi	a5,-2
    379e:	3c07a7db          	bfoz	a5,a5,15,0
    37a2:	a0f71e23          	sh	a5,-1508(a4)
    37a6:	18040823          	sb	zero,400(s0)
    37aa:	b399                	c.j	34f0 <blt_sdk_main_loop+0x114>

000037ac <dr_putchar>:
    37ac:	801407b7          	lui	a5,0x80140
    37b0:	30378803          	lb	a6,771(a5) # 80140303 <_DATA_LMA_START+0x60136a2b>
    37b4:	30378783          	lb	a5,771(a5)
    37b8:	1141                	c.addi	sp,-16
    37ba:	07f87813          	andi	a6,a6,127
    37be:	f807e793          	ori	a5,a5,-128
    37c2:	0ff7f793          	andi	a5,a5,255
    37c6:	01010223          	sb	a6,4(sp)
    37ca:	873e                	c.mv	a4,a5
    37cc:	4005745b          	bbs	a0,0,37d4 <dr_putchar+0x28>
    37d0:	01000733          	add	a4,zero,a6
    37d4:	00e102a3          	sb	a4,5(sp)
    37d8:	8742                	c.mv	a4,a6
    37da:	0015735b          	bbc	a0,1,37e0 <dr_putchar+0x34>
    37de:	873e                	c.mv	a4,a5
    37e0:	00e10323          	sb	a4,6(sp)
    37e4:	8742                	c.mv	a4,a6
    37e6:	0025735b          	bbc	a0,2,37ec <dr_putchar+0x40>
    37ea:	873e                	c.mv	a4,a5
    37ec:	00e103a3          	sb	a4,7(sp)
    37f0:	8742                	c.mv	a4,a6
    37f2:	0035735b          	bbc	a0,3,37f8 <dr_putchar+0x4c>
    37f6:	873e                	c.mv	a4,a5
    37f8:	00e10423          	sb	a4,8(sp)
    37fc:	8742                	c.mv	a4,a6
    37fe:	0045735b          	bbc	a0,4,3804 <dr_putchar+0x58>
    3802:	873e                	c.mv	a4,a5
    3804:	00e104a3          	sb	a4,9(sp)
    3808:	8742                	c.mv	a4,a6
    380a:	0055735b          	bbc	a0,5,3810 <dr_putchar+0x64>
    380e:	873e                	c.mv	a4,a5
    3810:	00e10523          	sb	a4,10(sp)
    3814:	8742                	c.mv	a4,a6
    3816:	0065735b          	bbc	a0,6,381c <dr_putchar+0x70>
    381a:	873e                	c.mv	a4,a5
    381c:	00e105a3          	sb	a4,11(sp)
    3820:	811d                	c.srli	a0,0x7
    3822:	8742                	c.mv	a4,a6
    3824:	c111                	c.beqz	a0,3828 <dr_putchar+0x7c>
    3826:	873e                	c.mv	a4,a5
    3828:	00e10623          	sb	a4,12(sp)
    382c:	00f106a3          	sb	a5,13(sp)
    3830:	30002373          	csrr	t1,mstatus
    3834:	00837313          	andi	t1,t1,8
    3838:	00030463          	beqz	t1,3840 <dr_putchar+0x94>
    383c:	300477f3          	csrrci	a5,mstatus,8
    3840:	801407b7          	lui	a5,0x80140
    3844:	2007a603          	lw	a2,512(a5) # 80140200 <_DATA_LMA_START+0x60136928>
    3848:	00510513          	addi	a0,sp,5
    384c:	00e10893          	addi	a7,sp,14
    3850:	801406b7          	lui	a3,0x80140
    3854:	08900593          	li	a1,137
    3858:	2006a783          	lw	a5,512(a3) # 80140200 <_DATA_LMA_START+0x60136928>
    385c:	40c78733          	sub	a4,a5,a2
    3860:	fee5fce3          	bgeu	a1,a4,3858 <dr_putchar+0xac>
    3864:	310681a3          	sb	a6,771(a3)
    3868:	01150863          	beq	a0,a7,3878 <dr_putchar+0xcc>
    386c:	00054803          	lbu	a6,0(a0)
    3870:	863e                	c.mv	a2,a5
    3872:	0505                	c.addi	a0,1
    3874:	fe5ff06f          	j	3858 <dr_putchar+0xac>
    3878:	00030463          	beqz	t1,3880 <dr_putchar+0xd4>
    387c:	30032373          	csrrs	t1,mstatus,t1
    3880:	0141                	c.addi	sp,16
    3882:	8082                	c.jr	ra

00003884 <sys_init.constprop.18>:
    3884:	1141                	c.addi	sp,-16
    3886:	ffbc07b7          	lui	a5,0xffbc0
    388a:	c606                	c.swsp	ra,12(sp)
    388c:	17fd                	c.addi	a5,-1
    388e:	80140737          	lui	a4,0x80140
    3892:	c422                	c.swsp	s0,8(sp)
    3894:	c226                	c.swsp	s1,4(sp)
    3896:	c04a                	c.swsp	s2,0(sp)
    3898:	1ef72023          	sw	a5,480(a4) # 801401e0 <_DATA_LMA_START+0x60136908>
    389c:	00200593          	li	a1,2
    38a0:	08c00513          	li	a0,140
    38a4:	1ef72223          	sw	a5,484(a4)
    38a8:	920ff0ef          	jal	ra,29c8 <analog_write_reg8>
    38ac:	04000593          	li	a1,64
    38b0:	00c00513          	li	a0,12
    38b4:	914ff0ef          	jal	ra,29c8 <analog_write_reg8>
    38b8:	08000593          	li	a1,128
    38bc:	07d00513          	li	a0,125
    38c0:	908ff0ef          	jal	ra,29c8 <analog_write_reg8>
    38c4:	801607b7          	lui	a5,0x80160
    38c8:	20000737          	lui	a4,0x20000
    38cc:	458d                	c.li	a1,3
    38ce:	4529                	c.li	a0,10
    38d0:	00e7a023          	sw	a4,0(a5) # 80160000 <_DATA_LMA_START+0x60156728>
    38d4:	8f4ff0ef          	jal	ra,29c8 <analog_write_reg8>
    38d8:	04500593          	li	a1,69
    38dc:	00100513          	li	a0,1
    38e0:	8e8ff0ef          	jal	ra,29c8 <analog_write_reg8>
    38e4:	03b00593          	li	a1,59
    38e8:	00b00513          	li	a0,11
    38ec:	8dcff0ef          	jal	ra,29c8 <analog_write_reg8>
    38f0:	00600513          	li	a0,6
    38f4:	a14ff0ef          	jal	ra,2b08 <analog_read_reg8>
    38f8:	03e57593          	andi	a1,a0,62
    38fc:	00600513          	li	a0,6
    3900:	8c8ff0ef          	jal	ra,29c8 <analog_write_reg8>
    3904:	00500513          	li	a0,5
    3908:	a00ff0ef          	jal	ra,2b08 <analog_read_reg8>
    390c:	0f757593          	andi	a1,a0,247
    3910:	00500513          	li	a0,5
    3914:	8b4ff0ef          	jal	ra,29c8 <analog_write_reg8>
    3918:	801007b7          	lui	a5,0x80100
    391c:	50078623          	sb	zero,1292(a5) # 8010050c <_DATA_LMA_START+0x600f6c34>
    3920:	7c00d073          	csrwi	milmb,1
    3924:	000807b7          	lui	a5,0x80
    3928:	00178793          	addi	a5,a5,1 # 80001 <_DATA_VMA_START+0x1>
    392c:	7c179073          	csrw	mdlmb,a5
    3930:	07f00513          	li	a0,127
    3934:	9d4ff0ef          	jal	ra,2b08 <analog_read_reg8>
    3938:	00a004b3          	add	s1,zero,a0
    393c:	03800513          	li	a0,56
    3940:	9c8ff0ef          	jal	ra,2b08 <analog_read_reg8>
    3944:	00a00433          	add	s0,zero,a0
    3948:	03900513          	li	a0,57
    394c:	9bcff0ef          	jal	ra,2b08 <analog_read_reg8>
    3950:	0c047e5b          	bbc	s0,0,3a2c <sys_init.constprop.18+0x1a8>
    3954:	892a                	c.mv	s2,a0
    3956:	0fe47593          	andi	a1,s0,254
    395a:	855f940b          	addigp	s0,-1964 # 80054 <g_pm_status_info>
    395e:	03800513          	li	a0,56
    3962:	14097b5b          	bbc	s2,0,3ab8 <sys_init.constprop.18+0x234>
    3966:	4791                	c.li	a5,4
    3968:	00f40123          	sb	a5,2(s0)
    396c:	85cff0ef          	jal	ra,29c8 <analog_write_reg8>
    3970:	0014e593          	ori	a1,s1,1
    3974:	0ff5f593          	andi	a1,a1,255
    3978:	07f00513          	li	a0,127
    397c:	84cff0ef          	jal	ra,29c8 <analog_write_reg8>
    3980:	08800513          	li	a0,136
    3984:	984ff0ef          	jal	ra,2b08 <analog_read_reg8>
    3988:	be757c5b          	bbc	a0,7,3980 <sys_init.constprop.18+0xfc>
    398c:	b00ff0ef          	jal	ra,2c8c <pm_wait_bbpll_done>
    3990:	00244783          	lbu	a5,2(s0)
    3994:	0a87d85b          	beqc	a5,8,3a44 <sys_init.constprop.18+0x1c0>
    3998:	80140737          	lui	a4,0x80140
    399c:	20a70783          	lb	a5,522(a4) # 8014020a <_DATA_LMA_START+0x60136932>
    39a0:	0ff7f793          	andi	a5,a5,255
    39a4:	00c7e793          	ori	a5,a5,12
    39a8:	20f70523          	sb	a5,522(a4)
    39ac:	00100793          	li	a5,1
    39b0:	20f72023          	sw	a5,512(a4)
    39b4:	20002097          	auipc	ra,0x20002
    39b8:	144080e7          	jalr	324(ra) # 20005af8 <cpu_wakeup_no_deepretn_back_init>
    39bc:	995ff0ef          	jal	ra,3350 <clock_cal_24m_rc>
    39c0:	80140737          	lui	a4,0x80140
    39c4:	20870783          	lb	a5,520(a4) # 80140208 <_DATA_LMA_START+0x60136930>
    39c8:	0ff7f793          	andi	a5,a5,255
    39cc:	0017e793          	ori	a5,a5,1
    39d0:	20f70423          	sb	a5,520(a4)
    39d4:	1fd70783          	lb	a5,509(a4)
    39d8:	00244683          	lbu	a3,2(s0)
    39dc:	0ff7f793          	andi	a5,a5,255
    39e0:	84ffc9ab          	swgp	a5,-1968 # 80050 <_BSS_VMA_START>
    39e4:	0246e25b          	bnec	a3,4,3a08 <sys_init.constprop.18+0x184>
    39e8:	000007b7          	lui	a5,0x0
    39ec:	20072603          	lw	a2,512(a4)
    39f0:	63c7a703          	lw	a4,1596(a5) # 63c <cpu_sleep_wakeup>
    39f4:	67d1                	c.lui	a5,0x14
    39f6:	88078793          	addi	a5,a5,-1920 # 13880 <BIN_SIZE+0x9f5e>
    39fa:	963e                	c.add	a2,a5
    39fc:	02000593          	li	a1,32
    3a00:	03000513          	li	a0,48
    3a04:	000700e7          	jalr	a4
    3a08:	04400593          	li	a1,68
    3a0c:	00c00513          	li	a0,12
    3a10:	fb9fe0ef          	jal	ra,29c8 <analog_write_reg8>
    3a14:	801417b7          	lui	a5,0x80141
    3a18:	c0000737          	lui	a4,0xc0000
    3a1c:	b0e7a223          	sw	a4,-1276(a5) # 80140b04 <_DATA_LMA_START+0x6013722c>
    3a20:	40b2                	c.lwsp	ra,12(sp)
    3a22:	4422                	c.lwsp	s0,8(sp)
    3a24:	4492                	c.lwsp	s1,4(sp)
    3a26:	4902                	c.lwsp	s2,0(sp)
    3a28:	0141                	c.addi	sp,16
    3a2a:	8082                	c.jr	ra
    3a2c:	855f940b          	addigp	s0,-1964 # 80054 <g_pm_status_info>
    3a30:	4004f65b          	bbs	s1,0,3a3c <sys_init.constprop.18+0x1b8>
    3a34:	47a1                	c.li	a5,8
    3a36:	00f40123          	sb	a5,2(s0)
    3a3a:	bf1d                	c.j	3970 <sys_init.constprop.18+0xec>
    3a3c:	47c1                	c.li	a5,16
    3a3e:	00f40123          	sb	a5,2(s0)
    3a42:	b73d                	c.j	3970 <sys_init.constprop.18+0xec>
    3a44:	06400513          	li	a0,100
    3a48:	8c0ff0ef          	jal	ra,2b08 <analog_read_reg8>
    3a4c:	00a400a3          	sb	a0,1(s0)
    3a50:	06400513          	li	a0,100
    3a54:	8b4ff0ef          	jal	ra,2b08 <analog_read_reg8>
    3a58:	8929                	c.andi	a0,10
    3a5a:	0085655b          	bnec	a0,8,3a64 <sys_init.constprop.18+0x1e0>
    3a5e:	4785                	c.li	a5,1
    3a60:	00f40023          	sb	a5,0(s0)
    3a64:	801404b7          	lui	s1,0x80140
    3a68:	20848783          	lb	a5,520(s1) # 80140208 <_DATA_LMA_START+0x60136930>
    3a6c:	0fe7f793          	andi	a5,a5,254
    3a70:	20f48423          	sb	a5,520(s1)
    3a74:	00200793          	li	a5,2
    3a78:	20f48c23          	sb	a5,536(s1)
    3a7c:	20a48783          	lb	a5,522(s1)
    3a80:	0ff7f793          	andi	a5,a5,255
    3a84:	00c7e793          	ori	a5,a5,12
    3a88:	20f48523          	sb	a5,522(s1)
    3a8c:	b79fe0ef          	jal	ra,2604 <clock_get_32k_tick>
    3a90:	000007b7          	lui	a5,0x0
    3a94:	6387a783          	lw	a5,1592(a5) # 638 <pm_tim_recover>
    3a98:	0505                	c.addi	a0,1
    3a9a:	9782                	c.jalr	a5
    3a9c:	80140737          	lui	a4,0x80140
    3aa0:	00150513          	addi	a0,a0,1
    3aa4:	20a4a023          	sw	a0,512(s1)
    3aa8:	20b70783          	lb	a5,523(a4) # 8014020b <_DATA_LMA_START+0x60136933>
    3aac:	be77fe5b          	bbc	a5,7,3aa8 <sys_init.constprop.18+0x224>
    3ab0:	20070c23          	sb	zero,536(a4)
    3ab4:	f0dff06f          	j	39c0 <sys_init.constprop.18+0x13c>
    3ab8:	00100793          	li	a5,1
    3abc:	00f40123          	sb	a5,2(s0)
    3ac0:	f09fe0ef          	jal	ra,29c8 <analog_write_reg8>
    3ac4:	00196593          	ori	a1,s2,1
    3ac8:	0ff5f593          	andi	a1,a1,255
    3acc:	03900513          	li	a0,57
    3ad0:	ef9fe0ef          	jal	ra,29c8 <analog_write_reg8>
    3ad4:	e9dff06f          	j	3970 <sys_init.constprop.18+0xec>

00003ad8 <bls_ll_procRxPacket.constprop.14>:
    3ad8:	1141                	c.addi	sp,-16
    3ada:	c422                	c.swsp	s0,8(sp)
    3adc:	00000437          	lui	s0,0x0
    3ae0:	17840413          	addi	s0,s0,376 # 178 <_AES_VMA_END>
    3ae4:	c606                	c.swsp	ra,12(sp)
    3ae6:	c226                	c.swsp	s1,4(sp)
    3ae8:	4cd44703          	lbu	a4,1229(s0)
    3aec:	801406b7          	lui	a3,0x80140
    3af0:	ffa70793          	addi	a5,a4,-6
    3af4:	2006a483          	lw	s1,512(a3) # 80140200 <_DATA_LMA_START+0x60136928>
    3af8:	0ff7f793          	andi	a5,a5,255
    3afc:	46fd                	c.li	a3,31
    3afe:	08f6e563          	bltu	a3,a5,3b88 <bls_ll_procRxPacket.constprop.14+0xb0>
    3b02:	50840793          	addi	a5,s0,1288
    3b06:	000a0637          	lui	a2,0xa0
    3b0a:	00544683          	lbu	a3,5(s0)
    3b0e:	00c7f563          	bgeu	a5,a2,3b18 <bls_ll_procRxPacket.constprop.14+0x40>
    3b12:	c0180637          	lui	a2,0xc0180
    3b16:	97b2                	c.add	a5,a2
    3b18:	53344603          	lbu	a2,1331(s0)
    3b1c:	801005b7          	lui	a1,0x80100
    3b20:	44f5a423          	sw	a5,1096(a1) # 80100448 <_DATA_LMA_START+0x600f6b70>
    3b24:	0c061463          	bnez	a2,3bec <bls_ll_procRxPacket.constprop.14+0x114>
    3b28:	6705                	c.lui	a4,0x1
    3b2a:	801416b7          	lui	a3,0x80141
    3b2e:	80140637          	lui	a2,0x80140
    3b32:	2bf70713          	addi	a4,a4,703 # 12bf <rf_start_fsm.constprop.16+0x43>
    3b36:	a039                	c.j	3b44 <bls_ll_procRxPacket.constprop.14+0x6c>
    3b38:	20062783          	lw	a5,512(a2) # 80140200 <_DATA_LMA_START+0x60136928>
    3b3c:	409787b3          	sub	a5,a5,s1
    3b40:	00f76663          	bltu	a4,a5,3b4c <bls_ll_procRxPacket.constprop.14+0x74>
    3b44:	a2069783          	lh	a5,-1504(a3) # 80140a20 <_DATA_LMA_START+0x60137148>
    3b48:	be07f85b          	bbc	a5,0,3b38 <bls_ll_procRxPacket.constprop.14+0x60>
    3b4c:	4cd44783          	lbu	a5,1229(s0)
    3b50:	04c7d85b          	beqc	a5,12,3ba0 <bls_ll_procRxPacket.constprop.14+0xc8>
    3b54:	801417b7          	lui	a5,0x80141
    3b58:	00100713          	li	a4,1
    3b5c:	a2e79023          	sh	a4,-1504(a5) # 80140a20 <_DATA_LMA_START+0x60137148>
    3b60:	83178783          	lb	a5,-1999(a5)
    3b64:	4cd44703          	lbu	a4,1229(s0)
    3b68:	0ff7f793          	andi	a5,a5,255
    3b6c:	00e7ee63          	bltu	a5,a4,3b88 <bls_ll_procRxPacket.constprop.14+0xb0>
    3b70:	00870733          	add	a4,a4,s0
    3b74:	4d870783          	lb	a5,1240(a4)
    3b78:	4007f85b          	bbs	a5,0,3b88 <bls_ll_procRxPacket.constprop.14+0xb0>
    3b7c:	4d445703          	lhu	a4,1236(s0)
    3b80:	00645783          	lhu	a5,6(s0)
    3b84:	08f70063          	beq	a4,a5,3c04 <bls_ll_procRxPacket.constprop.14+0x12c>
    3b88:	801417b7          	lui	a5,0x80141
    3b8c:	f8000713          	li	a4,-128
    3b90:	a0e78023          	sb	a4,-1536(a5) # 80140a00 <_DATA_LMA_START+0x60137128>
    3b94:	40b2                	c.lwsp	ra,12(sp)
    3b96:	4422                	c.lwsp	s0,8(sp)
    3b98:	4492                	c.lwsp	s1,4(sp)
    3b9a:	0141                	c.addi	sp,16
    3b9c:	00008067          	ret
    3ba0:	801417b7          	lui	a5,0x80141
    3ba4:	04e00713          	li	a4,78
    3ba8:	a0e79223          	sh	a4,-1532(a5) # 80140a04 <_DATA_LMA_START+0x6013712c>
    3bac:	6685                	c.lui	a3,0x1
    3bae:	8507a703          	lw	a4,-1968(a5)
    3bb2:	94068693          	addi	a3,a3,-1728 # 940 <app_acl_txfifo+0x70>
    3bb6:	9736                	c.add	a4,a3
    3bb8:	a0e7ac23          	sw	a4,-1512(a5)
    3bbc:	f8500693          	li	a3,-123
    3bc0:	3d842703          	lw	a4,984(s0)
    3bc4:	a0d78023          	sb	a3,-1536(a5)
    3bc8:	d751                	c.beqz	a4,3b54 <bls_ll_procRxPacket.constprop.14+0x7c>
    3bca:	4505                	c.li	a0,1
    3bcc:	9702                	c.jalr	a4
    3bce:	801417b7          	lui	a5,0x80141
    3bd2:	4705                	c.li	a4,1
    3bd4:	a2e79023          	sh	a4,-1504(a5) # 80140a20 <_DATA_LMA_START+0x60137148>
    3bd8:	83178783          	lb	a5,-1999(a5)
    3bdc:	4cd44703          	lbu	a4,1229(s0)
    3be0:	0ff7f793          	andi	a5,a5,255
    3be4:	fae7e2e3          	bltu	a5,a4,3b88 <bls_ll_procRxPacket.constprop.14+0xb0>
    3be8:	f89ff06f          	j	3b70 <bls_ll_procRxPacket.constprop.14+0x98>
    3bec:	00e68633          	add	a2,a3,a4
    3bf0:	03560613          	addi	a2,a2,53
    3bf4:	061e                	c.slli	a2,0x7
    3bf6:	962a                	c.add	a2,a0
    3bf8:	4581                	c.li	a1,0
    3bfa:	4505                	c.li	a0,1
    3bfc:	d39fe0ef          	jal	ra,2934 <cpu_stall_WakeUp_By_RF_SystemTick>
    3c00:	f29ff06f          	j	3b28 <bls_ll_procRxPacket.constprop.14+0x50>
    3c04:	4d645703          	lhu	a4,1238(s0)
    3c08:	00845783          	lhu	a5,8(s0)
    3c0c:	f6f71ee3          	bne	a4,a5,3b88 <bls_ll_procRxPacket.constprop.14+0xb0>
    3c10:	4d845703          	lhu	a4,1240(s0)
    3c14:	00a45783          	lhu	a5,10(s0)
    3c18:	f6f718e3          	bne	a4,a5,3b88 <bls_ll_procRxPacket.constprop.14+0xb0>
    3c1c:	4cc40783          	lb	a5,1228(s0)
    3c20:	8bbd                	c.andi	a5,15
    3c22:	0e37d55b          	beqc	a5,3,3d0c <bls_ll_procRxPacket.constprop.14+0x234>
    3c26:	b657e15b          	bnec	a5,5,3b88 <bls_ll_procRxPacket.constprop.14+0xb0>
    3c2a:	00440783          	lb	a5,4(s0)
    3c2e:	8bbd                	c.andi	a5,15
    3c30:	1217d65b          	beqc	a5,1,3d5c <bls_ll_procRxPacket.constprop.14+0x284>
    3c34:	00440783          	lb	a5,4(s0)
    3c38:	8bbd                	c.andi	a5,15
    3c3a:	f7b9                	c.bnez	a5,3b88 <bls_ll_procRxPacket.constprop.14+0xb0>
    3c3c:	4e445683          	lhu	a3,1252(s0)
    3c40:	801417b7          	lui	a5,0x80141
    3c44:	f8000713          	li	a4,-128
    3c48:	80140637          	lui	a2,0x80140
    3c4c:	a0e78023          	sb	a4,-1536(a5) # 80140a00 <_DATA_LMA_START+0x60137128>
    3c50:	ffa68713          	addi	a4,a3,-6
    3c54:	6785                	c.lui	a5,0x1
    3c56:	20062603          	lw	a2,512(a2) # 80140200 <_DATA_LMA_START+0x60136928>
    3c5a:	3c07275b          	bfoz	a4,a4,15,0
    3c5e:	c7a78613          	addi	a2,a5,-902 # c7a <app_acl_rxfifo+0x7a>
    3c62:	f2e663e3          	bltu	a2,a4,3b88 <bls_ll_procRxPacket.constprop.14+0xb0>
    3c66:	4e144603          	lbu	a2,1249(s0)
    3c6a:	459d                	c.li	a1,7
    3c6c:	fff60713          	addi	a4,a2,-1
    3c70:	0ff77713          	andi	a4,a4,255
    3c74:	f0e5eae3          	bltu	a1,a4,3b88 <bls_ll_procRxPacket.constprop.14+0xb0>
    3c78:	f0d678e3          	bgeu	a2,a3,3b88 <bls_ll_procRxPacket.constprop.14+0xb0>
    3c7c:	4e845703          	lhu	a4,1256(s0)
    3c80:	c7678793          	addi	a5,a5,-906
    3c84:	ff670613          	addi	a2,a4,-10
    3c88:	3c06265b          	bfoz	a2,a2,15,0
    3c8c:	eec7eee3          	bltu	a5,a2,3b88 <bls_ll_procRxPacket.constprop.14+0xb0>
    3c90:	4ef40783          	lb	a5,1263(s0)
    3c94:	462d                	c.li	a2,11
    3c96:	8bfd                	c.andi	a5,31
    3c98:	17ed                	c.addi	a5,-5
    3c9a:	0ff7f793          	andi	a5,a5,255
    3c9e:	eef665e3          	bltu	a2,a5,3b88 <bls_ll_procRxPacket.constprop.14+0xb0>
    3ca2:	4ea44783          	lbu	a5,1258(s0)
    3ca6:	ef99                	c.bnez	a5,3cc4 <bls_ll_procRxPacket.constprop.14+0x1ec>
    3ca8:	4eb44783          	lbu	a5,1259(s0)
    3cac:	ef81                	c.bnez	a5,3cc4 <bls_ll_procRxPacket.constprop.14+0x1ec>
    3cae:	4ec44783          	lbu	a5,1260(s0)
    3cb2:	eb89                	c.bnez	a5,3cc4 <bls_ll_procRxPacket.constprop.14+0x1ec>
    3cb4:	4ed44783          	lbu	a5,1261(s0)
    3cb8:	00079663          	bnez	a5,3cc4 <bls_ll_procRxPacket.constprop.14+0x1ec>
    3cbc:	4ee44783          	lbu	a5,1262(s0)
    3cc0:	ec0784e3          	beqz	a5,3b88 <bls_ll_procRxPacket.constprop.14+0xb0>
    3cc4:	4e645603          	lhu	a2,1254(s0)
    3cc8:	00060863          	beqz	a2,3cd8 <bls_ll_procRxPacket.constprop.14+0x200>
    3ccc:	00371793          	slli	a5,a4,0x3
    3cd0:	02d7c7b3          	div	a5,a5,a3
    3cd4:	eac7cae3          	blt	a5,a2,3b88 <bls_ll_procRxPacket.constprop.14+0xb0>
    3cd8:	2d244783          	lbu	a5,722(s0)
    3cdc:	aa27d65b          	beqc	a5,2,3b88 <bls_ll_procRxPacket.constprop.14+0xb0>
    3ce0:	00440783          	lb	a5,4(s0)
    3ce4:	00f7f793          	andi	a5,a5,15
    3ce8:	0017d65b          	beqc	a5,1,3cf4 <bls_ll_procRxPacket.constprop.14+0x21c>
    3cec:	2d340783          	lb	a5,723(s0)
    3cf0:	4817f45b          	bbs	a5,1,3d78 <bls_ll_procRxPacket.constprop.14+0x2a0>
    3cf4:	53442783          	lw	a5,1332(s0)
    3cf8:	c791                	c.beqz	a5,3d04 <bls_ll_procRxPacket.constprop.14+0x22c>
    3cfa:	4581                	c.li	a1,0
    3cfc:	4c840513          	addi	a0,s0,1224
    3d00:	000780e7          	jalr	a5
    3d04:	4789                	c.li	a5,2
    3d06:	16f40f23          	sb	a5,382(s0)
    3d0a:	bdbd                	c.j	3b88 <bls_ll_procRxPacket.constprop.14+0xb0>
    3d0c:	00440783          	lb	a5,4(s0)
    3d10:	00f7f793          	andi	a5,a5,15
    3d14:	a617da5b          	beqc	a5,1,3b88 <bls_ll_procRxPacket.constprop.14+0xb0>
    3d18:	2d340783          	lb	a5,723(s0)
    3d1c:	0007fc5b          	bbc	a5,0,3d34 <bls_ll_procRxPacket.constprop.14+0x25c>
    3d20:	4cc42503          	lw	a0,1228(s0)
    3d24:	4ce40593          	addi	a1,s0,1230
    3d28:	1865255b          	bfoz	a0,a0,6,6
    3d2c:	a11fe0ef          	jal	ra,273c <ll_searchAddr_in_WhiteList_and_ResolvingList>
    3d30:	e4050ce3          	beqz	a0,3b88 <bls_ll_procRxPacket.constprop.14+0xb0>
    3d34:	50d44503          	lbu	a0,1293(s0)
    3d38:	00351513          	slli	a0,a0,0x3
    3d3c:	0d650513          	addi	a0,a0,214
    3d40:	d40fe0ef          	jal	ra,2280 <delay_us>
    3d44:	45c42783          	lw	a5,1116(s0)
    3d48:	4601                	c.li	a2,0
    3d4a:	4581                	c.li	a1,0
    3d4c:	4509                	c.li	a0,2
    3d4e:	9782                	c.jalr	a5
    3d50:	19240783          	lb	a5,402(s0)
    3d54:	0ff7f793          	andi	a5,a5,255
    3d58:	d7d5                	c.beqz	a5,3d04 <bls_ll_procRxPacket.constprop.14+0x22c>
    3d5a:	b53d                	c.j	3b88 <bls_ll_procRxPacket.constprop.14+0xb0>
    3d5c:	00600613          	li	a2,6
    3d60:	00c40593          	addi	a1,s0,12
    3d64:	4ce40513          	addi	a0,s0,1230
    3d68:	20004097          	auipc	ra,0x20004
    3d6c:	4bc080e7          	jalr	1212(ra) # 20008224 <memcmp>
    3d70:	ec0512e3          	bnez	a0,3c34 <bls_ll_procRxPacket.constprop.14+0x15c>
    3d74:	ec9ff06f          	j	3c3c <bls_ll_procRxPacket.constprop.14+0x164>
    3d78:	4cc42503          	lw	a0,1228(s0)
    3d7c:	4ce40593          	addi	a1,s0,1230
    3d80:	1865255b          	bfoz	a0,a0,6,6
    3d84:	9b9fe0ef          	jal	ra,273c <ll_searchAddr_in_WhiteList_and_ResolvingList>
    3d88:	f535                	c.bnez	a0,3cf4 <bls_ll_procRxPacket.constprop.14+0x21c>
    3d8a:	bbfd                	c.j	3b88 <bls_ll_procRxPacket.constprop.14+0xb0>

00003d8c <main>:
    3d8c:	7111                	c.addi16sp	sp,-256
    3d8e:	dda2                	c.swsp	s0,248(sp)
    3d90:	200057b7          	lui	a5,0x20005
    3d94:	00000437          	lui	s0,0x0
    3d98:	df86                	c.swsp	ra,252(sp)
    3d9a:	dba6                	c.swsp	s1,244(sp)
    3d9c:	d9ca                	c.swsp	s2,240(sp)
    3d9e:	d7ce                	c.swsp	s3,236(sp)
    3da0:	d5d2                	c.swsp	s4,232(sp)
    3da2:	d3d6                	c.swsp	s5,228(sp)
    3da4:	17840413          	addi	s0,s0,376 # 178 <_AES_VMA_END>
    3da8:	48478793          	addi	a5,a5,1156 # 20005484 <cpu_sleep_wakeup_32k_rc>
    3dac:	4cf42223          	sw	a5,1220(s0)
    3db0:	000027b7          	lui	a5,0x2
    3db4:	b0c78793          	addi	a5,a5,-1268 # 1b0c <pm_tim_recover_32k_rc>
    3db8:	4cf42023          	sw	a5,1216(s0)
    3dbc:	4785                	c.li	a5,1
    3dbe:	44f40323          	sb	a5,1094(s0)
    3dc2:	34c9                	c.jal	3884 <sys_init.constprop.18>
    3dc4:	857f890b          	lbgp	s2,-1962 # 80056 <g_pm_status_info+0x2>
    3dc8:	d85fe0ef          	jal	ra,2b4c <clock_init.constprop.46>
    3dcc:	c39fe0ef          	jal	ra,2a04 <rf_drv_ble_init>
    3dd0:	801404b7          	lui	s1,0x80140
    3dd4:	807f87b7          	lui	a5,0x807f8
    3dd8:	30f4a023          	sw	a5,768(s1) # 80140300 <_DATA_LMA_START+0x60136a28>
    3ddc:	008007b7          	lui	a5,0x800
    3de0:	f0078793          	addi	a5,a5,-256 # 7fff00 <FLASH_SIZE+0x6fff00>
    3de4:	30f4a223          	sw	a5,772(s1)
    3de8:	00ff0ab7          	lui	s5,0xff0
    3dec:	010009b7          	lui	s3,0x1000
    3df0:	f0098993          	addi	s3,s3,-256 # ffff00 <FLASH_SIZE+0xefff00>
    3df4:	3154a423          	sw	s5,776(s1)
    3df8:	4581                	c.li	a1,0
    3dfa:	0bd00513          	li	a0,189
    3dfe:	5a7d                	c.li	s4,-1
    3e00:	3134a623          	sw	s3,780(s1)
    3e04:	bc5fe0ef          	jal	ra,29c8 <analog_write_reg8>
    3e08:	0ff00593          	li	a1,255
    3e0c:	31448923          	sb	s4,786(s1)
    3e10:	0bf00513          	li	a0,191
    3e14:	300489a3          	sb	zero,787(s1)
    3e18:	bb1fe0ef          	jal	ra,29c8 <analog_write_reg8>
    3e1c:	00000593          	li	a1,0
    3e20:	0c000513          	li	a0,192
    3e24:	31448b23          	sb	s4,790(s1)
    3e28:	ba1fe0ef          	jal	ra,29c8 <analog_write_reg8>
    3e2c:	0ff00593          	li	a1,255
    3e30:	31448d23          	sb	s4,794(s1)
    3e34:	0c200513          	li	a0,194
    3e38:	30048da3          	sb	zero,795(s1)
    3e3c:	b8dfe0ef          	jal	ra,29c8 <analog_write_reg8>
    3e40:	31448f23          	sb	s4,798(s1)
    3e44:	3354a023          	sw	s5,800(s1)
    3e48:	00897913          	andi	s2,s2,8
    3e4c:	3334a223          	sw	s3,804(s1)
    3e50:	10090463          	beqz	s2,3f58 <main+0x1cc>
    3e54:	801404b7          	lui	s1,0x80140
    3e58:	30648783          	lb	a5,774(s1) # 80140306 <_DATA_LMA_START+0x60136a2e>
    3e5c:	00f00513          	li	a0,15
    3e60:	f807e793          	ori	a5,a5,-128
    3e64:	0ff7f793          	andi	a5,a5,255
    3e68:	30f48323          	sb	a5,774(s1)
    3e6c:	30248783          	lb	a5,770(s1)
    3e70:	07f7f793          	andi	a5,a5,127
    3e74:	30f48123          	sb	a5,770(s1)
    3e78:	c91fe0ef          	jal	ra,2b08 <analog_read_reg8>
    3e7c:	03f57593          	andi	a1,a0,63
    3e80:	0405e593          	ori	a1,a1,64
    3e84:	00f00513          	li	a0,15
    3e88:	b41fe0ef          	jal	ra,29c8 <analog_write_reg8>
    3e8c:	30348683          	lb	a3,771(s1)
    3e90:	200097b7          	lui	a5,0x20009
    3e94:	63478793          	addi	a5,a5,1588 # 20009634 <days_in_month+0x494>
    3e98:	f806e693          	ori	a3,a3,-128
    3e9c:	0ff6f693          	andi	a3,a3,255
    3ea0:	01010713          	addi	a4,sp,16
    3ea4:	0cc78613          	addi	a2,a5,204
    3ea8:	30d481a3          	sb	a3,771(s1)
    3eac:	4388                	c.lw	a0,0(a5)
    3eae:	43cc                	c.lw	a1,4(a5)
    3eb0:	4794                	c.lw	a3,8(a5)
    3eb2:	c308                	c.sw	a0,0(a4)
    3eb4:	c34c                	c.sw	a1,4(a4)
    3eb6:	c714                	c.sw	a3,8(a4)
    3eb8:	07b1                	c.addi	a5,12
    3eba:	0731                	c.addi	a4,12
    3ebc:	fec798e3          	bne	a5,a2,3eac <main+0x120>
    3ec0:	439c                	c.lw	a5,0(a5)
    3ec2:	20009537          	lui	a0,0x20009
    3ec6:	62c50513          	addi	a0,a0,1580 # 2000962c <days_in_month+0x48c>
    3eca:	c31c                	c.sw	a5,0(a4)
    3ecc:	20004097          	auipc	ra,0x20004
    3ed0:	54c080e7          	jalr	1356(ra) # 20008418 <printf>
    3ed4:	4881                	c.li	a7,0
    3ed6:	4801                	c.li	a6,0
    3ed8:	4781                	c.li	a5,0
    3eda:	4705                	c.li	a4,1
    3edc:	4681                	c.li	a3,0
    3ede:	4601                	c.li	a2,0
    3ee0:	4581                	c.li	a1,0
    3ee2:	0808                	c.addi4spn	a0,sp,16
    3ee4:	c202                	c.swsp	zero,4(sp)
    3ee6:	c002                	c.swsp	zero,0(sp)
    3ee8:	20004097          	auipc	ra,0x20004
    3eec:	530080e7          	jalr	1328(ra) # 20008418 <printf>
    3ef0:	20009537          	lui	a0,0x20009
    3ef4:	4b450513          	addi	a0,a0,1204 # 200094b4 <days_in_month+0x314>
    3ef8:	20004097          	auipc	ra,0x20004
    3efc:	520080e7          	jalr	1312(ra) # 20008418 <printf>
    3f00:	0a090863          	beqz	s2,3fb0 <main+0x224>
    3f04:	3f442503          	lw	a0,1012(s0)
    3f08:	0a051c63          	bnez	a0,3fc0 <main+0x234>
    3f0c:	300467f3          	csrrsi	a5,mstatus,8
    3f10:	6785                	c.lui	a5,0x1
    3f12:	88878793          	addi	a5,a5,-1912 # 888 <func_smp_sc_proc>
    3f16:	3047a7f3          	csrrs	a5,mie,a5
    3f1a:	849fa78b          	lbugp	a5,-1976 # 80048 <sys_clk+0x4>
    3f1e:	004c5737          	lui	a4,0x4c5
    3f22:	b4070713          	addi	a4,a4,-1216 # 4c4b40 <FLASH_SIZE+0x3c4b40>
    3f26:	02e787b3          	mul	a5,a5,a4
    3f2a:	80140737          	lui	a4,0x80140
    3f2e:	801404b7          	lui	s1,0x80140
    3f32:	4431                	c.li	s0,12
    3f34:	14f72623          	sw	a5,332(a4) # 8014014c <_DATA_LMA_START+0x60136874>
    3f38:	14270783          	lb	a5,322(a4)
    3f3c:	f807e793          	ori	a5,a5,-128
    3f40:	0ff7f793          	andi	a5,a5,255
    3f44:	14f70123          	sb	a5,322(a4)
    3f48:	20003097          	auipc	ra,0x20003
    3f4c:	7c0080e7          	jalr	1984(ra) # 20007708 <main_loop>
    3f50:	148481a3          	sb	s0,323(s1) # 80140143 <_DATA_LMA_START+0x6013686b>
    3f54:	ff5ff06f          	j	3f48 <main+0x1bc>
    3f58:	4581                	c.li	a1,0
    3f5a:	4539                	c.li	a0,14
    3f5c:	a6dfe0ef          	jal	ra,29c8 <analog_write_reg8>
    3f60:	0c000593          	li	a1,192
    3f64:	00f00513          	li	a0,15
    3f68:	a61fe0ef          	jal	ra,29c8 <analog_write_reg8>
    3f6c:	4581                	c.li	a1,0
    3f6e:	4541                	c.li	a0,16
    3f70:	a59fe0ef          	jal	ra,29c8 <analog_write_reg8>
    3f74:	4581                	c.li	a1,0
    3f76:	4545                	c.li	a0,17
    3f78:	a51fe0ef          	jal	ra,29c8 <analog_write_reg8>
    3f7c:	4581                	c.li	a1,0
    3f7e:	4549                	c.li	a0,18
    3f80:	a49fe0ef          	jal	ra,29c8 <analog_write_reg8>
    3f84:	4581                	c.li	a1,0
    3f86:	454d                	c.li	a0,19
    3f88:	a41fe0ef          	jal	ra,29c8 <analog_write_reg8>
    3f8c:	4581                	c.li	a1,0
    3f8e:	4551                	c.li	a0,20
    3f90:	a39fe0ef          	jal	ra,29c8 <analog_write_reg8>
    3f94:	4581                	c.li	a1,0
    3f96:	4555                	c.li	a0,21
    3f98:	a31fe0ef          	jal	ra,29c8 <analog_write_reg8>
    3f9c:	4581                	c.li	a1,0
    3f9e:	4559                	c.li	a0,22
    3fa0:	a29fe0ef          	jal	ra,29c8 <analog_write_reg8>
    3fa4:	4581                	c.li	a1,0
    3fa6:	455d                	c.li	a0,23
    3fa8:	a21fe0ef          	jal	ra,29c8 <analog_write_reg8>
    3fac:	ea9ff06f          	j	3e54 <main+0xc8>
    3fb0:	20001097          	auipc	ra,0x20001
    3fb4:	700080e7          	jalr	1792(ra) # 200056b0 <blc_readFlashSize_autoConfigCustomFlashSector>
    3fb8:	3f442503          	lw	a0,1012(s0)
    3fbc:	08050863          	beqz	a0,404c <main+0x2c0>
    3fc0:	44444783          	lbu	a5,1092(s0)
    3fc4:	ef85                	c.bnez	a5,3ffc <main+0x270>
    3fc6:	54442783          	lw	a5,1348(s0)
    3fca:	0810                	c.addi4spn	a2,sp,16
    3fcc:	4585                	c.li	a1,1
    3fce:	9782                	c.jalr	a5
    3fd0:	01014703          	lbu	a4,16(sp)
    3fd4:	0ff00793          	li	a5,255
    3fd8:	02f70263          	beq	a4,a5,3ffc <main+0x270>
    3fdc:	08a00513          	li	a0,138
    3fe0:	b29fe0ef          	jal	ra,2b08 <analog_read_reg8>
    3fe4:	01010783          	lb	a5,16(sp)
    3fe8:	0c057593          	andi	a1,a0,192
    3fec:	03f7f793          	andi	a5,a5,63
    3ff0:	08a00513          	li	a0,138
    3ff4:	00f5e5b3          	or	a1,a1,a5
    3ff8:	9d1fe0ef          	jal	ra,29c8 <analog_write_reg8>
    3ffc:	44c45783          	lhu	a5,1100(s0)
    4000:	c802                	c.swsp	zero,16(sp)
    4002:	00011a23          	sh	zero,20(sp)
    4006:	00010b23          	sb	zero,22(sp)
    400a:	cf9d                	c.beqz	a5,4048 <main+0x2bc>
    400c:	3f442503          	lw	a0,1012(s0)
    4010:	54442783          	lw	a5,1348(s0)
    4014:	0810                	c.addi4spn	a2,sp,16
    4016:	459d                	c.li	a1,7
    4018:	0c050513          	addi	a0,a0,192
    401c:	9782                	c.jalr	a5
    401e:	01414703          	lbu	a4,20(sp)
    4022:	0ff00793          	li	a5,255
    4026:	04f70363          	beq	a4,a5,406c <main+0x2e0>
    402a:	01614783          	lbu	a5,22(sp)
    402e:	66c1                	c.lui	a3,0x10
    4030:	01515583          	lhu	a1,21(sp)
    4034:	16fd                	c.addi	a3,-1
    4036:	07a2                	c.slli	a5,0x8
    4038:	01514603          	lbu	a2,21(sp)
    403c:	02d58863          	beq	a1,a3,406c <main+0x2e0>
    4040:	1c0736db          	bfos	a3,a4,7,0
    4044:	0006da63          	bgez	a3,4058 <main+0x2cc>
    4048:	ec0912e3          	bnez	s2,3f0c <main+0x180>
    404c:	20004097          	auipc	ra,0x20004
    4050:	970080e7          	jalr	-1680(ra) # 200079bc <user_init_normal>
    4054:	eb9ff06f          	j	3f0c <main+0x180>
    4058:	8fd1                	c.or	a5,a2
    405a:	3e878793          	addi	a5,a5,1000
    405e:	1731                	c.addi	a4,-20
    4060:	44f41423          	sh	a5,1096(s0)
    4064:	44e41523          	sh	a4,1098(s0)
    4068:	fe1ff06f          	j	4048 <main+0x2bc>
    406c:	44744783          	lbu	a5,1095(s0)
    4070:	ffe1                	c.bnez	a5,4048 <main+0x2bc>
    4072:	6741                	c.lui	a4,0x10
    4074:	01015603          	lhu	a2,16(sp)
    4078:	177d                	c.addi	a4,-1
    407a:	01114683          	lbu	a3,17(sp)
    407e:	01014783          	lbu	a5,16(sp)
    4082:	fce603e3          	beq	a2,a4,4048 <main+0x2bc>
    4086:	97b6                	c.add	a5,a3
    4088:	39878713          	addi	a4,a5,920
    408c:	f8078793          	addi	a5,a5,-128
    4090:	44e41423          	sh	a4,1096(s0)
    4094:	3c07a7db          	bfoz	a5,a5,15,0
    4098:	0fd00713          	li	a4,253
    409c:	faf776e3          	bgeu	a4,a5,4048 <main+0x2bc>
    40a0:	49700793          	li	a5,1175
    40a4:	44f41423          	sh	a5,1096(s0)
    40a8:	fa1ff06f          	j	4048 <main+0x2bc>

000040ac <entry_irq63>:
    40ac:	1141                	c.addi	sp,-16
    40ae:	c632                	c.swsp	a2,12(sp)
    40b0:	c436                	c.swsp	a3,8(sp)
    40b2:	c23a                	c.swsp	a4,4(sp)
    40b4:	c03e                	c.swsp	a5,0(sp)
    40b6:	34102773          	csrr	a4,mepc
    40ba:	300026f3          	csrr	a3,mstatus
    40be:	7c4027f3          	csrr	a5,mxstatus
    40c2:	30046673          	csrrsi	a2,mstatus,8
    40c6:	30047673          	csrrci	a2,mstatus,8
    40ca:	30069073          	csrw	mstatus,a3
    40ce:	34171073          	csrw	mepc,a4
    40d2:	7c479073          	csrw	mxstatus,a5
    40d6:	e42007b7          	lui	a5,0xe4200
    40da:	03f00713          	li	a4,63
    40de:	c3d8                	c.sw	a4,4(a5)
    40e0:	0ff0000f          	fence
    40e4:	4632                	c.lwsp	a2,12(sp)
    40e6:	46a2                	c.lwsp	a3,8(sp)
    40e8:	4712                	c.lwsp	a4,4(sp)
    40ea:	4782                	c.lwsp	a5,0(sp)
    40ec:	01010113          	addi	sp,sp,16
    40f0:	30200073          	mret

000040f4 <entry_irq62>:
    40f4:	1141                	c.addi	sp,-16
    40f6:	c632                	c.swsp	a2,12(sp)
    40f8:	c436                	c.swsp	a3,8(sp)
    40fa:	c23a                	c.swsp	a4,4(sp)
    40fc:	c03e                	c.swsp	a5,0(sp)
    40fe:	34102773          	csrr	a4,mepc
    4102:	300026f3          	csrr	a3,mstatus
    4106:	7c4027f3          	csrr	a5,mxstatus
    410a:	30046673          	csrrsi	a2,mstatus,8
    410e:	30047673          	csrrci	a2,mstatus,8
    4112:	30069073          	csrw	mstatus,a3
    4116:	34171073          	csrw	mepc,a4
    411a:	7c479073          	csrw	mxstatus,a5
    411e:	e42007b7          	lui	a5,0xe4200
    4122:	03e00713          	li	a4,62
    4126:	c3d8                	c.sw	a4,4(a5)
    4128:	0ff0000f          	fence
    412c:	4632                	c.lwsp	a2,12(sp)
    412e:	46a2                	c.lwsp	a3,8(sp)
    4130:	4712                	c.lwsp	a4,4(sp)
    4132:	4782                	c.lwsp	a5,0(sp)
    4134:	01010113          	addi	sp,sp,16
    4138:	30200073          	mret

0000413c <entry_irq61>:
    413c:	1141                	c.addi	sp,-16
    413e:	c632                	c.swsp	a2,12(sp)
    4140:	c436                	c.swsp	a3,8(sp)
    4142:	c23a                	c.swsp	a4,4(sp)
    4144:	c03e                	c.swsp	a5,0(sp)
    4146:	34102773          	csrr	a4,mepc
    414a:	300026f3          	csrr	a3,mstatus
    414e:	7c4027f3          	csrr	a5,mxstatus
    4152:	30046673          	csrrsi	a2,mstatus,8
    4156:	30047673          	csrrci	a2,mstatus,8
    415a:	30069073          	csrw	mstatus,a3
    415e:	34171073          	csrw	mepc,a4
    4162:	7c479073          	csrw	mxstatus,a5
    4166:	e42007b7          	lui	a5,0xe4200
    416a:	03d00713          	li	a4,61
    416e:	c3d8                	c.sw	a4,4(a5)
    4170:	0ff0000f          	fence
    4174:	4632                	c.lwsp	a2,12(sp)
    4176:	46a2                	c.lwsp	a3,8(sp)
    4178:	4712                	c.lwsp	a4,4(sp)
    417a:	4782                	c.lwsp	a5,0(sp)
    417c:	01010113          	addi	sp,sp,16
    4180:	30200073          	mret

00004184 <entry_irq60>:
    4184:	1141                	c.addi	sp,-16
    4186:	c632                	c.swsp	a2,12(sp)
    4188:	c436                	c.swsp	a3,8(sp)
    418a:	c23a                	c.swsp	a4,4(sp)
    418c:	c03e                	c.swsp	a5,0(sp)
    418e:	34102773          	csrr	a4,mepc
    4192:	300026f3          	csrr	a3,mstatus
    4196:	7c4027f3          	csrr	a5,mxstatus
    419a:	30046673          	csrrsi	a2,mstatus,8
    419e:	30047673          	csrrci	a2,mstatus,8
    41a2:	30069073          	csrw	mstatus,a3
    41a6:	34171073          	csrw	mepc,a4
    41aa:	7c479073          	csrw	mxstatus,a5
    41ae:	e42007b7          	lui	a5,0xe4200
    41b2:	03c00713          	li	a4,60
    41b6:	c3d8                	c.sw	a4,4(a5)
    41b8:	0ff0000f          	fence
    41bc:	4632                	c.lwsp	a2,12(sp)
    41be:	46a2                	c.lwsp	a3,8(sp)
    41c0:	4712                	c.lwsp	a4,4(sp)
    41c2:	4782                	c.lwsp	a5,0(sp)
    41c4:	01010113          	addi	sp,sp,16
    41c8:	30200073          	mret

000041cc <entry_irq59>:
    41cc:	1141                	c.addi	sp,-16
    41ce:	c632                	c.swsp	a2,12(sp)
    41d0:	c436                	c.swsp	a3,8(sp)
    41d2:	c23a                	c.swsp	a4,4(sp)
    41d4:	c03e                	c.swsp	a5,0(sp)
    41d6:	34102773          	csrr	a4,mepc
    41da:	300026f3          	csrr	a3,mstatus
    41de:	7c4027f3          	csrr	a5,mxstatus
    41e2:	30046673          	csrrsi	a2,mstatus,8
    41e6:	30047673          	csrrci	a2,mstatus,8
    41ea:	30069073          	csrw	mstatus,a3
    41ee:	34171073          	csrw	mepc,a4
    41f2:	7c479073          	csrw	mxstatus,a5
    41f6:	e42007b7          	lui	a5,0xe4200
    41fa:	03b00713          	li	a4,59
    41fe:	c3d8                	c.sw	a4,4(a5)
    4200:	0ff0000f          	fence
    4204:	4632                	c.lwsp	a2,12(sp)
    4206:	46a2                	c.lwsp	a3,8(sp)
    4208:	4712                	c.lwsp	a4,4(sp)
    420a:	4782                	c.lwsp	a5,0(sp)
    420c:	01010113          	addi	sp,sp,16
    4210:	30200073          	mret

00004214 <entry_irq58>:
    4214:	1141                	c.addi	sp,-16
    4216:	c632                	c.swsp	a2,12(sp)
    4218:	c436                	c.swsp	a3,8(sp)
    421a:	c23a                	c.swsp	a4,4(sp)
    421c:	c03e                	c.swsp	a5,0(sp)
    421e:	34102773          	csrr	a4,mepc
    4222:	300026f3          	csrr	a3,mstatus
    4226:	7c4027f3          	csrr	a5,mxstatus
    422a:	30046673          	csrrsi	a2,mstatus,8
    422e:	30047673          	csrrci	a2,mstatus,8
    4232:	30069073          	csrw	mstatus,a3
    4236:	34171073          	csrw	mepc,a4
    423a:	7c479073          	csrw	mxstatus,a5
    423e:	e42007b7          	lui	a5,0xe4200
    4242:	03a00713          	li	a4,58
    4246:	c3d8                	c.sw	a4,4(a5)
    4248:	0ff0000f          	fence
    424c:	4632                	c.lwsp	a2,12(sp)
    424e:	46a2                	c.lwsp	a3,8(sp)
    4250:	4712                	c.lwsp	a4,4(sp)
    4252:	4782                	c.lwsp	a5,0(sp)
    4254:	01010113          	addi	sp,sp,16
    4258:	30200073          	mret

0000425c <entry_irq57>:
    425c:	1141                	c.addi	sp,-16
    425e:	c632                	c.swsp	a2,12(sp)
    4260:	c436                	c.swsp	a3,8(sp)
    4262:	c23a                	c.swsp	a4,4(sp)
    4264:	c03e                	c.swsp	a5,0(sp)
    4266:	34102773          	csrr	a4,mepc
    426a:	300026f3          	csrr	a3,mstatus
    426e:	7c4027f3          	csrr	a5,mxstatus
    4272:	30046673          	csrrsi	a2,mstatus,8
    4276:	30047673          	csrrci	a2,mstatus,8
    427a:	30069073          	csrw	mstatus,a3
    427e:	34171073          	csrw	mepc,a4
    4282:	7c479073          	csrw	mxstatus,a5
    4286:	e42007b7          	lui	a5,0xe4200
    428a:	03900713          	li	a4,57
    428e:	c3d8                	c.sw	a4,4(a5)
    4290:	0ff0000f          	fence
    4294:	4632                	c.lwsp	a2,12(sp)
    4296:	46a2                	c.lwsp	a3,8(sp)
    4298:	4712                	c.lwsp	a4,4(sp)
    429a:	4782                	c.lwsp	a5,0(sp)
    429c:	01010113          	addi	sp,sp,16
    42a0:	30200073          	mret

000042a4 <entry_irq56>:
    42a4:	1141                	c.addi	sp,-16
    42a6:	c632                	c.swsp	a2,12(sp)
    42a8:	c436                	c.swsp	a3,8(sp)
    42aa:	c23a                	c.swsp	a4,4(sp)
    42ac:	c03e                	c.swsp	a5,0(sp)
    42ae:	34102773          	csrr	a4,mepc
    42b2:	300026f3          	csrr	a3,mstatus
    42b6:	7c4027f3          	csrr	a5,mxstatus
    42ba:	30046673          	csrrsi	a2,mstatus,8
    42be:	30047673          	csrrci	a2,mstatus,8
    42c2:	30069073          	csrw	mstatus,a3
    42c6:	34171073          	csrw	mepc,a4
    42ca:	7c479073          	csrw	mxstatus,a5
    42ce:	e42007b7          	lui	a5,0xe4200
    42d2:	03800713          	li	a4,56
    42d6:	c3d8                	c.sw	a4,4(a5)
    42d8:	0ff0000f          	fence
    42dc:	4632                	c.lwsp	a2,12(sp)
    42de:	46a2                	c.lwsp	a3,8(sp)
    42e0:	4712                	c.lwsp	a4,4(sp)
    42e2:	4782                	c.lwsp	a5,0(sp)
    42e4:	01010113          	addi	sp,sp,16
    42e8:	30200073          	mret

000042ec <entry_irq55>:
    42ec:	1141                	c.addi	sp,-16
    42ee:	c632                	c.swsp	a2,12(sp)
    42f0:	c436                	c.swsp	a3,8(sp)
    42f2:	c23a                	c.swsp	a4,4(sp)
    42f4:	c03e                	c.swsp	a5,0(sp)
    42f6:	34102773          	csrr	a4,mepc
    42fa:	300026f3          	csrr	a3,mstatus
    42fe:	7c4027f3          	csrr	a5,mxstatus
    4302:	30046673          	csrrsi	a2,mstatus,8
    4306:	30047673          	csrrci	a2,mstatus,8
    430a:	30069073          	csrw	mstatus,a3
    430e:	34171073          	csrw	mepc,a4
    4312:	7c479073          	csrw	mxstatus,a5
    4316:	e42007b7          	lui	a5,0xe4200
    431a:	03700713          	li	a4,55
    431e:	c3d8                	c.sw	a4,4(a5)
    4320:	0ff0000f          	fence
    4324:	4632                	c.lwsp	a2,12(sp)
    4326:	46a2                	c.lwsp	a3,8(sp)
    4328:	4712                	c.lwsp	a4,4(sp)
    432a:	4782                	c.lwsp	a5,0(sp)
    432c:	01010113          	addi	sp,sp,16
    4330:	30200073          	mret

00004334 <entry_irq54>:
    4334:	1141                	c.addi	sp,-16
    4336:	c632                	c.swsp	a2,12(sp)
    4338:	c436                	c.swsp	a3,8(sp)
    433a:	c23a                	c.swsp	a4,4(sp)
    433c:	c03e                	c.swsp	a5,0(sp)
    433e:	34102773          	csrr	a4,mepc
    4342:	300026f3          	csrr	a3,mstatus
    4346:	7c4027f3          	csrr	a5,mxstatus
    434a:	30046673          	csrrsi	a2,mstatus,8
    434e:	30047673          	csrrci	a2,mstatus,8
    4352:	30069073          	csrw	mstatus,a3
    4356:	34171073          	csrw	mepc,a4
    435a:	7c479073          	csrw	mxstatus,a5
    435e:	e42007b7          	lui	a5,0xe4200
    4362:	03600713          	li	a4,54
    4366:	c3d8                	c.sw	a4,4(a5)
    4368:	0ff0000f          	fence
    436c:	4632                	c.lwsp	a2,12(sp)
    436e:	46a2                	c.lwsp	a3,8(sp)
    4370:	4712                	c.lwsp	a4,4(sp)
    4372:	4782                	c.lwsp	a5,0(sp)
    4374:	01010113          	addi	sp,sp,16
    4378:	30200073          	mret

0000437c <entry_irq53>:
    437c:	1141                	c.addi	sp,-16
    437e:	c632                	c.swsp	a2,12(sp)
    4380:	c436                	c.swsp	a3,8(sp)
    4382:	c23a                	c.swsp	a4,4(sp)
    4384:	c03e                	c.swsp	a5,0(sp)
    4386:	34102773          	csrr	a4,mepc
    438a:	300026f3          	csrr	a3,mstatus
    438e:	7c4027f3          	csrr	a5,mxstatus
    4392:	30046673          	csrrsi	a2,mstatus,8
    4396:	30047673          	csrrci	a2,mstatus,8
    439a:	30069073          	csrw	mstatus,a3
    439e:	34171073          	csrw	mepc,a4
    43a2:	7c479073          	csrw	mxstatus,a5
    43a6:	e42007b7          	lui	a5,0xe4200
    43aa:	03500713          	li	a4,53
    43ae:	c3d8                	c.sw	a4,4(a5)
    43b0:	0ff0000f          	fence
    43b4:	4632                	c.lwsp	a2,12(sp)
    43b6:	46a2                	c.lwsp	a3,8(sp)
    43b8:	4712                	c.lwsp	a4,4(sp)
    43ba:	4782                	c.lwsp	a5,0(sp)
    43bc:	01010113          	addi	sp,sp,16
    43c0:	30200073          	mret

000043c4 <entry_irq52>:
    43c4:	1141                	c.addi	sp,-16
    43c6:	c632                	c.swsp	a2,12(sp)
    43c8:	c436                	c.swsp	a3,8(sp)
    43ca:	c23a                	c.swsp	a4,4(sp)
    43cc:	c03e                	c.swsp	a5,0(sp)
    43ce:	34102773          	csrr	a4,mepc
    43d2:	300026f3          	csrr	a3,mstatus
    43d6:	7c4027f3          	csrr	a5,mxstatus
    43da:	30046673          	csrrsi	a2,mstatus,8
    43de:	30047673          	csrrci	a2,mstatus,8
    43e2:	30069073          	csrw	mstatus,a3
    43e6:	34171073          	csrw	mepc,a4
    43ea:	7c479073          	csrw	mxstatus,a5
    43ee:	e42007b7          	lui	a5,0xe4200
    43f2:	03400713          	li	a4,52
    43f6:	c3d8                	c.sw	a4,4(a5)
    43f8:	0ff0000f          	fence
    43fc:	4632                	c.lwsp	a2,12(sp)
    43fe:	46a2                	c.lwsp	a3,8(sp)
    4400:	4712                	c.lwsp	a4,4(sp)
    4402:	4782                	c.lwsp	a5,0(sp)
    4404:	01010113          	addi	sp,sp,16
    4408:	30200073          	mret

0000440c <entry_irq51>:
    440c:	1141                	c.addi	sp,-16
    440e:	c632                	c.swsp	a2,12(sp)
    4410:	c436                	c.swsp	a3,8(sp)
    4412:	c23a                	c.swsp	a4,4(sp)
    4414:	c03e                	c.swsp	a5,0(sp)
    4416:	34102773          	csrr	a4,mepc
    441a:	300026f3          	csrr	a3,mstatus
    441e:	7c4027f3          	csrr	a5,mxstatus
    4422:	30046673          	csrrsi	a2,mstatus,8
    4426:	30047673          	csrrci	a2,mstatus,8
    442a:	30069073          	csrw	mstatus,a3
    442e:	34171073          	csrw	mepc,a4
    4432:	7c479073          	csrw	mxstatus,a5
    4436:	e42007b7          	lui	a5,0xe4200
    443a:	03300713          	li	a4,51
    443e:	c3d8                	c.sw	a4,4(a5)
    4440:	0ff0000f          	fence
    4444:	4632                	c.lwsp	a2,12(sp)
    4446:	46a2                	c.lwsp	a3,8(sp)
    4448:	4712                	c.lwsp	a4,4(sp)
    444a:	4782                	c.lwsp	a5,0(sp)
    444c:	01010113          	addi	sp,sp,16
    4450:	30200073          	mret

00004454 <entry_irq50>:
    4454:	1141                	c.addi	sp,-16
    4456:	c632                	c.swsp	a2,12(sp)
    4458:	c436                	c.swsp	a3,8(sp)
    445a:	c23a                	c.swsp	a4,4(sp)
    445c:	c03e                	c.swsp	a5,0(sp)
    445e:	34102773          	csrr	a4,mepc
    4462:	300026f3          	csrr	a3,mstatus
    4466:	7c4027f3          	csrr	a5,mxstatus
    446a:	30046673          	csrrsi	a2,mstatus,8
    446e:	30047673          	csrrci	a2,mstatus,8
    4472:	30069073          	csrw	mstatus,a3
    4476:	34171073          	csrw	mepc,a4
    447a:	7c479073          	csrw	mxstatus,a5
    447e:	e42007b7          	lui	a5,0xe4200
    4482:	03200713          	li	a4,50
    4486:	c3d8                	c.sw	a4,4(a5)
    4488:	0ff0000f          	fence
    448c:	4632                	c.lwsp	a2,12(sp)
    448e:	46a2                	c.lwsp	a3,8(sp)
    4490:	4712                	c.lwsp	a4,4(sp)
    4492:	4782                	c.lwsp	a5,0(sp)
    4494:	01010113          	addi	sp,sp,16
    4498:	30200073          	mret

0000449c <entry_irq49>:
    449c:	30200073          	mret

000044a0 <entry_irq48>:
    44a0:	30200073          	mret

000044a4 <entry_irq47>:
    44a4:	30200073          	mret

000044a8 <entry_irq46>:
    44a8:	1141                	c.addi	sp,-16
    44aa:	c632                	c.swsp	a2,12(sp)
    44ac:	c436                	c.swsp	a3,8(sp)
    44ae:	c23a                	c.swsp	a4,4(sp)
    44b0:	c03e                	c.swsp	a5,0(sp)
    44b2:	34102773          	csrr	a4,mepc
    44b6:	300026f3          	csrr	a3,mstatus
    44ba:	7c4027f3          	csrr	a5,mxstatus
    44be:	30046673          	csrrsi	a2,mstatus,8
    44c2:	30047673          	csrrci	a2,mstatus,8
    44c6:	30069073          	csrw	mstatus,a3
    44ca:	34171073          	csrw	mepc,a4
    44ce:	7c479073          	csrw	mxstatus,a5
    44d2:	e42007b7          	lui	a5,0xe4200
    44d6:	02e00713          	li	a4,46
    44da:	c3d8                	c.sw	a4,4(a5)
    44dc:	0ff0000f          	fence
    44e0:	4632                	c.lwsp	a2,12(sp)
    44e2:	46a2                	c.lwsp	a3,8(sp)
    44e4:	4712                	c.lwsp	a4,4(sp)
    44e6:	4782                	c.lwsp	a5,0(sp)
    44e8:	01010113          	addi	sp,sp,16
    44ec:	30200073          	mret

000044f0 <entry_irq45>:
    44f0:	30200073          	mret

000044f4 <entry_irq44>:
    44f4:	1141                	c.addi	sp,-16
    44f6:	c632                	c.swsp	a2,12(sp)
    44f8:	c436                	c.swsp	a3,8(sp)
    44fa:	c23a                	c.swsp	a4,4(sp)
    44fc:	c03e                	c.swsp	a5,0(sp)
    44fe:	34102773          	csrr	a4,mepc
    4502:	300026f3          	csrr	a3,mstatus
    4506:	7c4027f3          	csrr	a5,mxstatus
    450a:	30046673          	csrrsi	a2,mstatus,8
    450e:	30047673          	csrrci	a2,mstatus,8
    4512:	30069073          	csrw	mstatus,a3
    4516:	34171073          	csrw	mepc,a4
    451a:	7c479073          	csrw	mxstatus,a5
    451e:	e42007b7          	lui	a5,0xe4200
    4522:	02c00713          	li	a4,44
    4526:	c3d8                	c.sw	a4,4(a5)
    4528:	0ff0000f          	fence
    452c:	4632                	c.lwsp	a2,12(sp)
    452e:	46a2                	c.lwsp	a3,8(sp)
    4530:	4712                	c.lwsp	a4,4(sp)
    4532:	4782                	c.lwsp	a5,0(sp)
    4534:	01010113          	addi	sp,sp,16
    4538:	30200073          	mret

0000453c <entry_irq43>:
    453c:	1141                	c.addi	sp,-16
    453e:	c632                	c.swsp	a2,12(sp)
    4540:	c436                	c.swsp	a3,8(sp)
    4542:	c23a                	c.swsp	a4,4(sp)
    4544:	c03e                	c.swsp	a5,0(sp)
    4546:	34102773          	csrr	a4,mepc
    454a:	300026f3          	csrr	a3,mstatus
    454e:	7c4027f3          	csrr	a5,mxstatus
    4552:	30046673          	csrrsi	a2,mstatus,8
    4556:	30047673          	csrrci	a2,mstatus,8
    455a:	30069073          	csrw	mstatus,a3
    455e:	34171073          	csrw	mepc,a4
    4562:	7c479073          	csrw	mxstatus,a5
    4566:	e42007b7          	lui	a5,0xe4200
    456a:	02b00713          	li	a4,43
    456e:	c3d8                	c.sw	a4,4(a5)
    4570:	0ff0000f          	fence
    4574:	4632                	c.lwsp	a2,12(sp)
    4576:	46a2                	c.lwsp	a3,8(sp)
    4578:	4712                	c.lwsp	a4,4(sp)
    457a:	4782                	c.lwsp	a5,0(sp)
    457c:	01010113          	addi	sp,sp,16
    4580:	30200073          	mret

00004584 <entry_irq42>:
    4584:	1141                	c.addi	sp,-16
    4586:	c632                	c.swsp	a2,12(sp)
    4588:	c436                	c.swsp	a3,8(sp)
    458a:	c23a                	c.swsp	a4,4(sp)
    458c:	c03e                	c.swsp	a5,0(sp)
    458e:	34102773          	csrr	a4,mepc
    4592:	300026f3          	csrr	a3,mstatus
    4596:	7c4027f3          	csrr	a5,mxstatus
    459a:	30046673          	csrrsi	a2,mstatus,8
    459e:	30047673          	csrrci	a2,mstatus,8
    45a2:	30069073          	csrw	mstatus,a3
    45a6:	34171073          	csrw	mepc,a4
    45aa:	7c479073          	csrw	mxstatus,a5
    45ae:	e42007b7          	lui	a5,0xe4200
    45b2:	02a00713          	li	a4,42
    45b6:	c3d8                	c.sw	a4,4(a5)
    45b8:	0ff0000f          	fence
    45bc:	4632                	c.lwsp	a2,12(sp)
    45be:	46a2                	c.lwsp	a3,8(sp)
    45c0:	4712                	c.lwsp	a4,4(sp)
    45c2:	4782                	c.lwsp	a5,0(sp)
    45c4:	01010113          	addi	sp,sp,16
    45c8:	30200073          	mret

000045cc <entry_irq41>:
    45cc:	30200073          	mret

000045d0 <entry_irq40>:
    45d0:	30200073          	mret

000045d4 <entry_irq39>:
    45d4:	30200073          	mret

000045d8 <entry_irq38>:
    45d8:	30200073          	mret

000045dc <entry_irq37>:
    45dc:	1141                	c.addi	sp,-16
    45de:	c632                	c.swsp	a2,12(sp)
    45e0:	c436                	c.swsp	a3,8(sp)
    45e2:	c23a                	c.swsp	a4,4(sp)
    45e4:	c03e                	c.swsp	a5,0(sp)
    45e6:	34102773          	csrr	a4,mepc
    45ea:	300026f3          	csrr	a3,mstatus
    45ee:	7c4027f3          	csrr	a5,mxstatus
    45f2:	30046673          	csrrsi	a2,mstatus,8
    45f6:	30047673          	csrrci	a2,mstatus,8
    45fa:	30069073          	csrw	mstatus,a3
    45fe:	34171073          	csrw	mepc,a4
    4602:	7c479073          	csrw	mxstatus,a5
    4606:	e42007b7          	lui	a5,0xe4200
    460a:	02500713          	li	a4,37
    460e:	c3d8                	c.sw	a4,4(a5)
    4610:	0ff0000f          	fence
    4614:	4632                	c.lwsp	a2,12(sp)
    4616:	46a2                	c.lwsp	a3,8(sp)
    4618:	4712                	c.lwsp	a4,4(sp)
    461a:	4782                	c.lwsp	a5,0(sp)
    461c:	01010113          	addi	sp,sp,16
    4620:	30200073          	mret

00004624 <entry_irq36>:
    4624:	1141                	c.addi	sp,-16
    4626:	c632                	c.swsp	a2,12(sp)
    4628:	c436                	c.swsp	a3,8(sp)
    462a:	c23a                	c.swsp	a4,4(sp)
    462c:	c03e                	c.swsp	a5,0(sp)
    462e:	34102773          	csrr	a4,mepc
    4632:	300026f3          	csrr	a3,mstatus
    4636:	7c4027f3          	csrr	a5,mxstatus
    463a:	30046673          	csrrsi	a2,mstatus,8
    463e:	30047673          	csrrci	a2,mstatus,8
    4642:	30069073          	csrw	mstatus,a3
    4646:	34171073          	csrw	mepc,a4
    464a:	7c479073          	csrw	mxstatus,a5
    464e:	e42007b7          	lui	a5,0xe4200
    4652:	02400713          	li	a4,36
    4656:	c3d8                	c.sw	a4,4(a5)
    4658:	0ff0000f          	fence
    465c:	4632                	c.lwsp	a2,12(sp)
    465e:	46a2                	c.lwsp	a3,8(sp)
    4660:	4712                	c.lwsp	a4,4(sp)
    4662:	4782                	c.lwsp	a5,0(sp)
    4664:	01010113          	addi	sp,sp,16
    4668:	30200073          	mret

0000466c <entry_irq35>:
    466c:	1141                	c.addi	sp,-16
    466e:	c632                	c.swsp	a2,12(sp)
    4670:	c436                	c.swsp	a3,8(sp)
    4672:	c23a                	c.swsp	a4,4(sp)
    4674:	c03e                	c.swsp	a5,0(sp)
    4676:	34102773          	csrr	a4,mepc
    467a:	300026f3          	csrr	a3,mstatus
    467e:	7c4027f3          	csrr	a5,mxstatus
    4682:	30046673          	csrrsi	a2,mstatus,8
    4686:	30047673          	csrrci	a2,mstatus,8
    468a:	30069073          	csrw	mstatus,a3
    468e:	34171073          	csrw	mepc,a4
    4692:	7c479073          	csrw	mxstatus,a5
    4696:	e42007b7          	lui	a5,0xe4200
    469a:	02300713          	li	a4,35
    469e:	c3d8                	c.sw	a4,4(a5)
    46a0:	0ff0000f          	fence
    46a4:	4632                	c.lwsp	a2,12(sp)
    46a6:	46a2                	c.lwsp	a3,8(sp)
    46a8:	4712                	c.lwsp	a4,4(sp)
    46aa:	4782                	c.lwsp	a5,0(sp)
    46ac:	01010113          	addi	sp,sp,16
    46b0:	30200073          	mret

000046b4 <entry_irq34>:
    46b4:	1141                	c.addi	sp,-16
    46b6:	c632                	c.swsp	a2,12(sp)
    46b8:	c436                	c.swsp	a3,8(sp)
    46ba:	c23a                	c.swsp	a4,4(sp)
    46bc:	c03e                	c.swsp	a5,0(sp)
    46be:	34102773          	csrr	a4,mepc
    46c2:	300026f3          	csrr	a3,mstatus
    46c6:	7c4027f3          	csrr	a5,mxstatus
    46ca:	30046673          	csrrsi	a2,mstatus,8
    46ce:	30047673          	csrrci	a2,mstatus,8
    46d2:	30069073          	csrw	mstatus,a3
    46d6:	34171073          	csrw	mepc,a4
    46da:	7c479073          	csrw	mxstatus,a5
    46de:	e42007b7          	lui	a5,0xe4200
    46e2:	02200713          	li	a4,34
    46e6:	c3d8                	c.sw	a4,4(a5)
    46e8:	0ff0000f          	fence
    46ec:	4632                	c.lwsp	a2,12(sp)
    46ee:	46a2                	c.lwsp	a3,8(sp)
    46f0:	4712                	c.lwsp	a4,4(sp)
    46f2:	4782                	c.lwsp	a5,0(sp)
    46f4:	01010113          	addi	sp,sp,16
    46f8:	30200073          	mret

000046fc <entry_irq33>:
    46fc:	1141                	c.addi	sp,-16
    46fe:	c632                	c.swsp	a2,12(sp)
    4700:	c436                	c.swsp	a3,8(sp)
    4702:	c23a                	c.swsp	a4,4(sp)
    4704:	c03e                	c.swsp	a5,0(sp)
    4706:	34102773          	csrr	a4,mepc
    470a:	300026f3          	csrr	a3,mstatus
    470e:	7c4027f3          	csrr	a5,mxstatus
    4712:	30046673          	csrrsi	a2,mstatus,8
    4716:	30047673          	csrrci	a2,mstatus,8
    471a:	30069073          	csrw	mstatus,a3
    471e:	34171073          	csrw	mepc,a4
    4722:	7c479073          	csrw	mxstatus,a5
    4726:	e42007b7          	lui	a5,0xe4200
    472a:	02100713          	li	a4,33
    472e:	c3d8                	c.sw	a4,4(a5)
    4730:	0ff0000f          	fence
    4734:	4632                	c.lwsp	a2,12(sp)
    4736:	46a2                	c.lwsp	a3,8(sp)
    4738:	4712                	c.lwsp	a4,4(sp)
    473a:	4782                	c.lwsp	a5,0(sp)
    473c:	01010113          	addi	sp,sp,16
    4740:	30200073          	mret

00004744 <entry_irq32>:
    4744:	1141                	c.addi	sp,-16
    4746:	c632                	c.swsp	a2,12(sp)
    4748:	c436                	c.swsp	a3,8(sp)
    474a:	c23a                	c.swsp	a4,4(sp)
    474c:	c03e                	c.swsp	a5,0(sp)
    474e:	34102773          	csrr	a4,mepc
    4752:	300026f3          	csrr	a3,mstatus
    4756:	7c4027f3          	csrr	a5,mxstatus
    475a:	30046673          	csrrsi	a2,mstatus,8
    475e:	30047673          	csrrci	a2,mstatus,8
    4762:	30069073          	csrw	mstatus,a3
    4766:	34171073          	csrw	mepc,a4
    476a:	7c479073          	csrw	mxstatus,a5
    476e:	e42007b7          	lui	a5,0xe4200
    4772:	02000713          	li	a4,32
    4776:	c3d8                	c.sw	a4,4(a5)
    4778:	0ff0000f          	fence
    477c:	4632                	c.lwsp	a2,12(sp)
    477e:	46a2                	c.lwsp	a3,8(sp)
    4780:	4712                	c.lwsp	a4,4(sp)
    4782:	4782                	c.lwsp	a5,0(sp)
    4784:	01010113          	addi	sp,sp,16
    4788:	30200073          	mret

0000478c <entry_irq31>:
    478c:	1141                	c.addi	sp,-16
    478e:	c632                	c.swsp	a2,12(sp)
    4790:	c436                	c.swsp	a3,8(sp)
    4792:	c23a                	c.swsp	a4,4(sp)
    4794:	c03e                	c.swsp	a5,0(sp)
    4796:	34102773          	csrr	a4,mepc
    479a:	300026f3          	csrr	a3,mstatus
    479e:	7c4027f3          	csrr	a5,mxstatus
    47a2:	30046673          	csrrsi	a2,mstatus,8
    47a6:	30047673          	csrrci	a2,mstatus,8
    47aa:	30069073          	csrw	mstatus,a3
    47ae:	34171073          	csrw	mepc,a4
    47b2:	7c479073          	csrw	mxstatus,a5
    47b6:	e42007b7          	lui	a5,0xe4200
    47ba:	477d                	c.li	a4,31
    47bc:	c3d8                	c.sw	a4,4(a5)
    47be:	0ff0000f          	fence
    47c2:	4632                	c.lwsp	a2,12(sp)
    47c4:	46a2                	c.lwsp	a3,8(sp)
    47c6:	4712                	c.lwsp	a4,4(sp)
    47c8:	4782                	c.lwsp	a5,0(sp)
    47ca:	0141                	c.addi	sp,16
    47cc:	30200073          	mret

000047d0 <entry_irq30>:
    47d0:	1141                	c.addi	sp,-16
    47d2:	c632                	c.swsp	a2,12(sp)
    47d4:	c436                	c.swsp	a3,8(sp)
    47d6:	c23a                	c.swsp	a4,4(sp)
    47d8:	c03e                	c.swsp	a5,0(sp)
    47da:	34102773          	csrr	a4,mepc
    47de:	300026f3          	csrr	a3,mstatus
    47e2:	7c4027f3          	csrr	a5,mxstatus
    47e6:	30046673          	csrrsi	a2,mstatus,8
    47ea:	30047673          	csrrci	a2,mstatus,8
    47ee:	30069073          	csrw	mstatus,a3
    47f2:	34171073          	csrw	mepc,a4
    47f6:	7c479073          	csrw	mxstatus,a5
    47fa:	e42007b7          	lui	a5,0xe4200
    47fe:	4779                	c.li	a4,30
    4800:	c3d8                	c.sw	a4,4(a5)
    4802:	0ff0000f          	fence
    4806:	4632                	c.lwsp	a2,12(sp)
    4808:	46a2                	c.lwsp	a3,8(sp)
    480a:	4712                	c.lwsp	a4,4(sp)
    480c:	4782                	c.lwsp	a5,0(sp)
    480e:	0141                	c.addi	sp,16
    4810:	30200073          	mret

00004814 <entry_irq29>:
    4814:	1141                	c.addi	sp,-16
    4816:	c632                	c.swsp	a2,12(sp)
    4818:	c436                	c.swsp	a3,8(sp)
    481a:	c23a                	c.swsp	a4,4(sp)
    481c:	c03e                	c.swsp	a5,0(sp)
    481e:	34102773          	csrr	a4,mepc
    4822:	300026f3          	csrr	a3,mstatus
    4826:	7c4027f3          	csrr	a5,mxstatus
    482a:	30046673          	csrrsi	a2,mstatus,8
    482e:	30047673          	csrrci	a2,mstatus,8
    4832:	30069073          	csrw	mstatus,a3
    4836:	34171073          	csrw	mepc,a4
    483a:	7c479073          	csrw	mxstatus,a5
    483e:	e42007b7          	lui	a5,0xe4200
    4842:	4775                	c.li	a4,29
    4844:	c3d8                	c.sw	a4,4(a5)
    4846:	0ff0000f          	fence
    484a:	4632                	c.lwsp	a2,12(sp)
    484c:	46a2                	c.lwsp	a3,8(sp)
    484e:	4712                	c.lwsp	a4,4(sp)
    4850:	4782                	c.lwsp	a5,0(sp)
    4852:	0141                	c.addi	sp,16
    4854:	30200073          	mret

00004858 <entry_irq28>:
    4858:	1141                	c.addi	sp,-16
    485a:	c632                	c.swsp	a2,12(sp)
    485c:	c436                	c.swsp	a3,8(sp)
    485e:	c23a                	c.swsp	a4,4(sp)
    4860:	c03e                	c.swsp	a5,0(sp)
    4862:	34102773          	csrr	a4,mepc
    4866:	300026f3          	csrr	a3,mstatus
    486a:	7c4027f3          	csrr	a5,mxstatus
    486e:	30046673          	csrrsi	a2,mstatus,8
    4872:	30047673          	csrrci	a2,mstatus,8
    4876:	30069073          	csrw	mstatus,a3
    487a:	34171073          	csrw	mepc,a4
    487e:	7c479073          	csrw	mxstatus,a5
    4882:	e42007b7          	lui	a5,0xe4200
    4886:	4771                	c.li	a4,28
    4888:	c3d8                	c.sw	a4,4(a5)
    488a:	0ff0000f          	fence
    488e:	4632                	c.lwsp	a2,12(sp)
    4890:	46a2                	c.lwsp	a3,8(sp)
    4892:	4712                	c.lwsp	a4,4(sp)
    4894:	4782                	c.lwsp	a5,0(sp)
    4896:	0141                	c.addi	sp,16
    4898:	30200073          	mret

0000489c <entry_irq27>:
    489c:	1141                	c.addi	sp,-16
    489e:	c632                	c.swsp	a2,12(sp)
    48a0:	c436                	c.swsp	a3,8(sp)
    48a2:	c23a                	c.swsp	a4,4(sp)
    48a4:	c03e                	c.swsp	a5,0(sp)
    48a6:	34102773          	csrr	a4,mepc
    48aa:	300026f3          	csrr	a3,mstatus
    48ae:	7c4027f3          	csrr	a5,mxstatus
    48b2:	30046673          	csrrsi	a2,mstatus,8
    48b6:	30047673          	csrrci	a2,mstatus,8
    48ba:	30069073          	csrw	mstatus,a3
    48be:	34171073          	csrw	mepc,a4
    48c2:	7c479073          	csrw	mxstatus,a5
    48c6:	e42007b7          	lui	a5,0xe4200
    48ca:	476d                	c.li	a4,27
    48cc:	c3d8                	c.sw	a4,4(a5)
    48ce:	0ff0000f          	fence
    48d2:	4632                	c.lwsp	a2,12(sp)
    48d4:	46a2                	c.lwsp	a3,8(sp)
    48d6:	4712                	c.lwsp	a4,4(sp)
    48d8:	4782                	c.lwsp	a5,0(sp)
    48da:	0141                	c.addi	sp,16
    48dc:	30200073          	mret

000048e0 <entry_irq26>:
    48e0:	1141                	c.addi	sp,-16
    48e2:	c632                	c.swsp	a2,12(sp)
    48e4:	c436                	c.swsp	a3,8(sp)
    48e6:	c23a                	c.swsp	a4,4(sp)
    48e8:	c03e                	c.swsp	a5,0(sp)
    48ea:	34102773          	csrr	a4,mepc
    48ee:	300026f3          	csrr	a3,mstatus
    48f2:	7c4027f3          	csrr	a5,mxstatus
    48f6:	30046673          	csrrsi	a2,mstatus,8
    48fa:	30047673          	csrrci	a2,mstatus,8
    48fe:	30069073          	csrw	mstatus,a3
    4902:	34171073          	csrw	mepc,a4
    4906:	7c479073          	csrw	mxstatus,a5
    490a:	e42007b7          	lui	a5,0xe4200
    490e:	4769                	c.li	a4,26
    4910:	c3d8                	c.sw	a4,4(a5)
    4912:	0ff0000f          	fence
    4916:	4632                	c.lwsp	a2,12(sp)
    4918:	46a2                	c.lwsp	a3,8(sp)
    491a:	4712                	c.lwsp	a4,4(sp)
    491c:	4782                	c.lwsp	a5,0(sp)
    491e:	0141                	c.addi	sp,16
    4920:	30200073          	mret

00004924 <entry_irq25>:
    4924:	1141                	c.addi	sp,-16
    4926:	c632                	c.swsp	a2,12(sp)
    4928:	c436                	c.swsp	a3,8(sp)
    492a:	c23a                	c.swsp	a4,4(sp)
    492c:	c03e                	c.swsp	a5,0(sp)
    492e:	34102773          	csrr	a4,mepc
    4932:	300026f3          	csrr	a3,mstatus
    4936:	7c4027f3          	csrr	a5,mxstatus
    493a:	30046673          	csrrsi	a2,mstatus,8
    493e:	30047673          	csrrci	a2,mstatus,8
    4942:	30069073          	csrw	mstatus,a3
    4946:	34171073          	csrw	mepc,a4
    494a:	7c479073          	csrw	mxstatus,a5
    494e:	e42007b7          	lui	a5,0xe4200
    4952:	4765                	c.li	a4,25
    4954:	c3d8                	c.sw	a4,4(a5)
    4956:	0ff0000f          	fence
    495a:	4632                	c.lwsp	a2,12(sp)
    495c:	46a2                	c.lwsp	a3,8(sp)
    495e:	4712                	c.lwsp	a4,4(sp)
    4960:	4782                	c.lwsp	a5,0(sp)
    4962:	0141                	c.addi	sp,16
    4964:	30200073          	mret

00004968 <entry_irq24>:
    4968:	1141                	c.addi	sp,-16
    496a:	c632                	c.swsp	a2,12(sp)
    496c:	c436                	c.swsp	a3,8(sp)
    496e:	c23a                	c.swsp	a4,4(sp)
    4970:	c03e                	c.swsp	a5,0(sp)
    4972:	34102773          	csrr	a4,mepc
    4976:	300026f3          	csrr	a3,mstatus
    497a:	7c4027f3          	csrr	a5,mxstatus
    497e:	30046673          	csrrsi	a2,mstatus,8
    4982:	30047673          	csrrci	a2,mstatus,8
    4986:	30069073          	csrw	mstatus,a3
    498a:	34171073          	csrw	mepc,a4
    498e:	7c479073          	csrw	mxstatus,a5
    4992:	e42007b7          	lui	a5,0xe4200
    4996:	4761                	c.li	a4,24
    4998:	c3d8                	c.sw	a4,4(a5)
    499a:	0ff0000f          	fence
    499e:	4632                	c.lwsp	a2,12(sp)
    49a0:	46a2                	c.lwsp	a3,8(sp)
    49a2:	4712                	c.lwsp	a4,4(sp)
    49a4:	4782                	c.lwsp	a5,0(sp)
    49a6:	0141                	c.addi	sp,16
    49a8:	30200073          	mret

000049ac <entry_irq23>:
    49ac:	1141                	c.addi	sp,-16
    49ae:	c632                	c.swsp	a2,12(sp)
    49b0:	c436                	c.swsp	a3,8(sp)
    49b2:	c23a                	c.swsp	a4,4(sp)
    49b4:	c03e                	c.swsp	a5,0(sp)
    49b6:	34102773          	csrr	a4,mepc
    49ba:	300026f3          	csrr	a3,mstatus
    49be:	7c4027f3          	csrr	a5,mxstatus
    49c2:	30046673          	csrrsi	a2,mstatus,8
    49c6:	30047673          	csrrci	a2,mstatus,8
    49ca:	30069073          	csrw	mstatus,a3
    49ce:	34171073          	csrw	mepc,a4
    49d2:	7c479073          	csrw	mxstatus,a5
    49d6:	e42007b7          	lui	a5,0xe4200
    49da:	475d                	c.li	a4,23
    49dc:	c3d8                	c.sw	a4,4(a5)
    49de:	0ff0000f          	fence
    49e2:	4632                	c.lwsp	a2,12(sp)
    49e4:	46a2                	c.lwsp	a3,8(sp)
    49e6:	4712                	c.lwsp	a4,4(sp)
    49e8:	4782                	c.lwsp	a5,0(sp)
    49ea:	0141                	c.addi	sp,16
    49ec:	30200073          	mret

000049f0 <entry_irq22>:
    49f0:	1141                	c.addi	sp,-16
    49f2:	c632                	c.swsp	a2,12(sp)
    49f4:	c436                	c.swsp	a3,8(sp)
    49f6:	c23a                	c.swsp	a4,4(sp)
    49f8:	c03e                	c.swsp	a5,0(sp)
    49fa:	34102773          	csrr	a4,mepc
    49fe:	300026f3          	csrr	a3,mstatus
    4a02:	7c4027f3          	csrr	a5,mxstatus
    4a06:	30046673          	csrrsi	a2,mstatus,8
    4a0a:	30047673          	csrrci	a2,mstatus,8
    4a0e:	30069073          	csrw	mstatus,a3
    4a12:	34171073          	csrw	mepc,a4
    4a16:	7c479073          	csrw	mxstatus,a5
    4a1a:	e42007b7          	lui	a5,0xe4200
    4a1e:	4759                	c.li	a4,22
    4a20:	c3d8                	c.sw	a4,4(a5)
    4a22:	0ff0000f          	fence
    4a26:	4632                	c.lwsp	a2,12(sp)
    4a28:	46a2                	c.lwsp	a3,8(sp)
    4a2a:	4712                	c.lwsp	a4,4(sp)
    4a2c:	4782                	c.lwsp	a5,0(sp)
    4a2e:	0141                	c.addi	sp,16
    4a30:	30200073          	mret

00004a34 <entry_irq21>:
    4a34:	1141                	c.addi	sp,-16
    4a36:	c632                	c.swsp	a2,12(sp)
    4a38:	c436                	c.swsp	a3,8(sp)
    4a3a:	c23a                	c.swsp	a4,4(sp)
    4a3c:	c03e                	c.swsp	a5,0(sp)
    4a3e:	34102773          	csrr	a4,mepc
    4a42:	300026f3          	csrr	a3,mstatus
    4a46:	7c4027f3          	csrr	a5,mxstatus
    4a4a:	30046673          	csrrsi	a2,mstatus,8
    4a4e:	30047673          	csrrci	a2,mstatus,8
    4a52:	30069073          	csrw	mstatus,a3
    4a56:	34171073          	csrw	mepc,a4
    4a5a:	7c479073          	csrw	mxstatus,a5
    4a5e:	e42007b7          	lui	a5,0xe4200
    4a62:	4755                	c.li	a4,21
    4a64:	c3d8                	c.sw	a4,4(a5)
    4a66:	0ff0000f          	fence
    4a6a:	4632                	c.lwsp	a2,12(sp)
    4a6c:	46a2                	c.lwsp	a3,8(sp)
    4a6e:	4712                	c.lwsp	a4,4(sp)
    4a70:	4782                	c.lwsp	a5,0(sp)
    4a72:	0141                	c.addi	sp,16
    4a74:	30200073          	mret

00004a78 <entry_irq20>:
    4a78:	1141                	c.addi	sp,-16
    4a7a:	c632                	c.swsp	a2,12(sp)
    4a7c:	c436                	c.swsp	a3,8(sp)
    4a7e:	c23a                	c.swsp	a4,4(sp)
    4a80:	c03e                	c.swsp	a5,0(sp)
    4a82:	34102773          	csrr	a4,mepc
    4a86:	300026f3          	csrr	a3,mstatus
    4a8a:	7c4027f3          	csrr	a5,mxstatus
    4a8e:	30046673          	csrrsi	a2,mstatus,8
    4a92:	30047673          	csrrci	a2,mstatus,8
    4a96:	30069073          	csrw	mstatus,a3
    4a9a:	34171073          	csrw	mepc,a4
    4a9e:	7c479073          	csrw	mxstatus,a5
    4aa2:	e42007b7          	lui	a5,0xe4200
    4aa6:	4751                	c.li	a4,20
    4aa8:	c3d8                	c.sw	a4,4(a5)
    4aaa:	0ff0000f          	fence
    4aae:	4632                	c.lwsp	a2,12(sp)
    4ab0:	46a2                	c.lwsp	a3,8(sp)
    4ab2:	4712                	c.lwsp	a4,4(sp)
    4ab4:	4782                	c.lwsp	a5,0(sp)
    4ab6:	0141                	c.addi	sp,16
    4ab8:	30200073          	mret

00004abc <entry_irq19>:
    4abc:	1141                	c.addi	sp,-16
    4abe:	c632                	c.swsp	a2,12(sp)
    4ac0:	c436                	c.swsp	a3,8(sp)
    4ac2:	c23a                	c.swsp	a4,4(sp)
    4ac4:	c03e                	c.swsp	a5,0(sp)
    4ac6:	34102773          	csrr	a4,mepc
    4aca:	300026f3          	csrr	a3,mstatus
    4ace:	7c4027f3          	csrr	a5,mxstatus
    4ad2:	30046673          	csrrsi	a2,mstatus,8
    4ad6:	30047673          	csrrci	a2,mstatus,8
    4ada:	30069073          	csrw	mstatus,a3
    4ade:	34171073          	csrw	mepc,a4
    4ae2:	7c479073          	csrw	mxstatus,a5
    4ae6:	e42007b7          	lui	a5,0xe4200
    4aea:	474d                	c.li	a4,19
    4aec:	c3d8                	c.sw	a4,4(a5)
    4aee:	0ff0000f          	fence
    4af2:	4632                	c.lwsp	a2,12(sp)
    4af4:	46a2                	c.lwsp	a3,8(sp)
    4af6:	4712                	c.lwsp	a4,4(sp)
    4af8:	4782                	c.lwsp	a5,0(sp)
    4afa:	0141                	c.addi	sp,16
    4afc:	30200073          	mret

00004b00 <entry_irq18>:
    4b00:	1141                	c.addi	sp,-16
    4b02:	c632                	c.swsp	a2,12(sp)
    4b04:	c436                	c.swsp	a3,8(sp)
    4b06:	c23a                	c.swsp	a4,4(sp)
    4b08:	c03e                	c.swsp	a5,0(sp)
    4b0a:	34102773          	csrr	a4,mepc
    4b0e:	300026f3          	csrr	a3,mstatus
    4b12:	7c4027f3          	csrr	a5,mxstatus
    4b16:	30046673          	csrrsi	a2,mstatus,8
    4b1a:	30047673          	csrrci	a2,mstatus,8
    4b1e:	30069073          	csrw	mstatus,a3
    4b22:	34171073          	csrw	mepc,a4
    4b26:	7c479073          	csrw	mxstatus,a5
    4b2a:	e42007b7          	lui	a5,0xe4200
    4b2e:	4749                	c.li	a4,18
    4b30:	c3d8                	c.sw	a4,4(a5)
    4b32:	0ff0000f          	fence
    4b36:	4632                	c.lwsp	a2,12(sp)
    4b38:	46a2                	c.lwsp	a3,8(sp)
    4b3a:	4712                	c.lwsp	a4,4(sp)
    4b3c:	4782                	c.lwsp	a5,0(sp)
    4b3e:	0141                	c.addi	sp,16
    4b40:	30200073          	mret

00004b44 <entry_irq17>:
    4b44:	1141                	c.addi	sp,-16
    4b46:	c632                	c.swsp	a2,12(sp)
    4b48:	c436                	c.swsp	a3,8(sp)
    4b4a:	c23a                	c.swsp	a4,4(sp)
    4b4c:	c03e                	c.swsp	a5,0(sp)
    4b4e:	34102773          	csrr	a4,mepc
    4b52:	300026f3          	csrr	a3,mstatus
    4b56:	7c4027f3          	csrr	a5,mxstatus
    4b5a:	30046673          	csrrsi	a2,mstatus,8
    4b5e:	30047673          	csrrci	a2,mstatus,8
    4b62:	30069073          	csrw	mstatus,a3
    4b66:	34171073          	csrw	mepc,a4
    4b6a:	7c479073          	csrw	mxstatus,a5
    4b6e:	e42007b7          	lui	a5,0xe4200
    4b72:	4745                	c.li	a4,17
    4b74:	c3d8                	c.sw	a4,4(a5)
    4b76:	0ff0000f          	fence
    4b7a:	4632                	c.lwsp	a2,12(sp)
    4b7c:	46a2                	c.lwsp	a3,8(sp)
    4b7e:	4712                	c.lwsp	a4,4(sp)
    4b80:	4782                	c.lwsp	a5,0(sp)
    4b82:	0141                	c.addi	sp,16
    4b84:	30200073          	mret

00004b88 <entry_irq16>:
    4b88:	1141                	c.addi	sp,-16
    4b8a:	c632                	c.swsp	a2,12(sp)
    4b8c:	c436                	c.swsp	a3,8(sp)
    4b8e:	c23a                	c.swsp	a4,4(sp)
    4b90:	c03e                	c.swsp	a5,0(sp)
    4b92:	34102773          	csrr	a4,mepc
    4b96:	300026f3          	csrr	a3,mstatus
    4b9a:	7c4027f3          	csrr	a5,mxstatus
    4b9e:	30046673          	csrrsi	a2,mstatus,8
    4ba2:	30047673          	csrrci	a2,mstatus,8
    4ba6:	30069073          	csrw	mstatus,a3
    4baa:	34171073          	csrw	mepc,a4
    4bae:	7c479073          	csrw	mxstatus,a5
    4bb2:	e42007b7          	lui	a5,0xe4200
    4bb6:	4741                	c.li	a4,16
    4bb8:	c3d8                	c.sw	a4,4(a5)
    4bba:	0ff0000f          	fence
    4bbe:	4632                	c.lwsp	a2,12(sp)
    4bc0:	46a2                	c.lwsp	a3,8(sp)
    4bc2:	4712                	c.lwsp	a4,4(sp)
    4bc4:	4782                	c.lwsp	a5,0(sp)
    4bc6:	0141                	c.addi	sp,16
    4bc8:	30200073          	mret

00004bcc <entry_irq15>:
    4bcc:	7135                	c.addi16sp	sp,-160
    4bce:	cf06                	c.swsp	ra,156(sp)
    4bd0:	cd16                	c.swsp	t0,152(sp)
    4bd2:	cb1a                	c.swsp	t1,148(sp)
    4bd4:	c91e                	c.swsp	t2,144(sp)
    4bd6:	c722                	c.swsp	s0,140(sp)
    4bd8:	c526                	c.swsp	s1,136(sp)
    4bda:	c32a                	c.swsp	a0,132(sp)
    4bdc:	c12e                	c.swsp	a1,128(sp)
    4bde:	deb2                	c.swsp	a2,124(sp)
    4be0:	dcb6                	c.swsp	a3,120(sp)
    4be2:	daba                	c.swsp	a4,116(sp)
    4be4:	d8be                	c.swsp	a5,112(sp)
    4be6:	d6c2                	c.swsp	a6,108(sp)
    4be8:	d4c6                	c.swsp	a7,104(sp)
    4bea:	d2ca                	c.swsp	s2,100(sp)
    4bec:	d0f2                	c.swsp	t3,96(sp)
    4bee:	cef6                	c.swsp	t4,92(sp)
    4bf0:	ccfa                	c.swsp	t5,88(sp)
    4bf2:	cafe                	c.swsp	t6,84(sp)
    4bf4:	e682                	c.fswsp	ft0,76(sp)
    4bf6:	e486                	c.fswsp	ft1,72(sp)
    4bf8:	e28a                	c.fswsp	ft2,68(sp)
    4bfa:	e08e                	c.fswsp	ft3,64(sp)
    4bfc:	fe12                	c.fswsp	ft4,60(sp)
    4bfe:	fc16                	c.fswsp	ft5,56(sp)
    4c00:	fa1a                	c.fswsp	ft6,52(sp)
    4c02:	f81e                	c.fswsp	ft7,48(sp)
    4c04:	f62a                	c.fswsp	fa0,44(sp)
    4c06:	f42e                	c.fswsp	fa1,40(sp)
    4c08:	f232                	c.fswsp	fa2,36(sp)
    4c0a:	f036                	c.fswsp	fa3,32(sp)
    4c0c:	ee3a                	c.fswsp	fa4,28(sp)
    4c0e:	ec3e                	c.fswsp	fa5,24(sp)
    4c10:	ea42                	c.fswsp	fa6,20(sp)
    4c12:	e846                	c.fswsp	fa7,16(sp)
    4c14:	e672                	c.fswsp	ft8,12(sp)
    4c16:	e476                	c.fswsp	ft9,8(sp)
    4c18:	e27a                	c.fswsp	ft10,4(sp)
    4c1a:	e07e                	c.fswsp	ft11,0(sp)
    4c1c:	341024f3          	csrr	s1,mepc
    4c20:	30002973          	csrr	s2,mstatus
    4c24:	7c402473          	csrr	s0,mxstatus
    4c28:	300467f3          	csrrsi	a5,mstatus,8
    4c2c:	e2cfd0ef          	jal	ra,2258 <rf_irq_handler>
    4c30:	300477f3          	csrrci	a5,mstatus,8
    4c34:	30091073          	csrw	mstatus,s2
    4c38:	34149073          	csrw	mepc,s1
    4c3c:	7c441073          	csrw	mxstatus,s0
    4c40:	e42007b7          	lui	a5,0xe4200
    4c44:	473d                	c.li	a4,15
    4c46:	c3d8                	c.sw	a4,4(a5)
    4c48:	0ff0000f          	fence
    4c4c:	443a                	c.lwsp	s0,140(sp)
    4c4e:	40fa                	c.lwsp	ra,156(sp)
    4c50:	42ea                	c.lwsp	t0,152(sp)
    4c52:	435a                	c.lwsp	t1,148(sp)
    4c54:	43ca                	c.lwsp	t2,144(sp)
    4c56:	44aa                	c.lwsp	s1,136(sp)
    4c58:	451a                	c.lwsp	a0,132(sp)
    4c5a:	458a                	c.lwsp	a1,128(sp)
    4c5c:	5676                	c.lwsp	a2,124(sp)
    4c5e:	56e6                	c.lwsp	a3,120(sp)
    4c60:	5756                	c.lwsp	a4,116(sp)
    4c62:	57c6                	c.lwsp	a5,112(sp)
    4c64:	5836                	c.lwsp	a6,108(sp)
    4c66:	58a6                	c.lwsp	a7,104(sp)
    4c68:	5916                	c.lwsp	s2,100(sp)
    4c6a:	5e06                	c.lwsp	t3,96(sp)
    4c6c:	4ef6                	c.lwsp	t4,92(sp)
    4c6e:	4f66                	c.lwsp	t5,88(sp)
    4c70:	4fd6                	c.lwsp	t6,84(sp)
    4c72:	6036                	c.flwsp	ft0,76(sp)
    4c74:	60a6                	c.flwsp	ft1,72(sp)
    4c76:	6116                	c.flwsp	ft2,68(sp)
    4c78:	6186                	c.flwsp	ft3,64(sp)
    4c7a:	7272                	c.flwsp	ft4,60(sp)
    4c7c:	72e2                	c.flwsp	ft5,56(sp)
    4c7e:	7352                	c.flwsp	ft6,52(sp)
    4c80:	73c2                	c.flwsp	ft7,48(sp)
    4c82:	7532                	c.flwsp	fa0,44(sp)
    4c84:	75a2                	c.flwsp	fa1,40(sp)
    4c86:	7612                	c.flwsp	fa2,36(sp)
    4c88:	7682                	c.flwsp	fa3,32(sp)
    4c8a:	6772                	c.flwsp	fa4,28(sp)
    4c8c:	67e2                	c.flwsp	fa5,24(sp)
    4c8e:	6852                	c.flwsp	fa6,20(sp)
    4c90:	68c2                	c.flwsp	fa7,16(sp)
    4c92:	6e32                	c.flwsp	ft8,12(sp)
    4c94:	6ea2                	c.flwsp	ft9,8(sp)
    4c96:	6f12                	c.flwsp	ft10,4(sp)
    4c98:	6f82                	c.flwsp	ft11,0(sp)
    4c9a:	610d                	c.addi16sp	sp,160
    4c9c:	30200073          	mret

00004ca0 <entry_irq14>:
    4ca0:	1141                	c.addi	sp,-16
    4ca2:	c632                	c.swsp	a2,12(sp)
    4ca4:	c436                	c.swsp	a3,8(sp)
    4ca6:	c23a                	c.swsp	a4,4(sp)
    4ca8:	c03e                	c.swsp	a5,0(sp)
    4caa:	34102773          	csrr	a4,mepc
    4cae:	300026f3          	csrr	a3,mstatus
    4cb2:	7c4027f3          	csrr	a5,mxstatus
    4cb6:	30046673          	csrrsi	a2,mstatus,8
    4cba:	30047673          	csrrci	a2,mstatus,8
    4cbe:	30069073          	csrw	mstatus,a3
    4cc2:	34171073          	csrw	mepc,a4
    4cc6:	7c479073          	csrw	mxstatus,a5
    4cca:	e42007b7          	lui	a5,0xe4200
    4cce:	4739                	c.li	a4,14
    4cd0:	c3d8                	c.sw	a4,4(a5)
    4cd2:	0ff0000f          	fence
    4cd6:	4632                	c.lwsp	a2,12(sp)
    4cd8:	46a2                	c.lwsp	a3,8(sp)
    4cda:	4712                	c.lwsp	a4,4(sp)
    4cdc:	4782                	c.lwsp	a5,0(sp)
    4cde:	0141                	c.addi	sp,16
    4ce0:	30200073          	mret

00004ce4 <entry_irq13>:
    4ce4:	1141                	c.addi	sp,-16
    4ce6:	c632                	c.swsp	a2,12(sp)
    4ce8:	c436                	c.swsp	a3,8(sp)
    4cea:	c23a                	c.swsp	a4,4(sp)
    4cec:	c03e                	c.swsp	a5,0(sp)
    4cee:	34102773          	csrr	a4,mepc
    4cf2:	300026f3          	csrr	a3,mstatus
    4cf6:	7c4027f3          	csrr	a5,mxstatus
    4cfa:	30046673          	csrrsi	a2,mstatus,8
    4cfe:	30047673          	csrrci	a2,mstatus,8
    4d02:	30069073          	csrw	mstatus,a3
    4d06:	34171073          	csrw	mepc,a4
    4d0a:	7c479073          	csrw	mxstatus,a5
    4d0e:	e42007b7          	lui	a5,0xe4200
    4d12:	4735                	c.li	a4,13
    4d14:	c3d8                	c.sw	a4,4(a5)
    4d16:	0ff0000f          	fence
    4d1a:	4632                	c.lwsp	a2,12(sp)
    4d1c:	46a2                	c.lwsp	a3,8(sp)
    4d1e:	4712                	c.lwsp	a4,4(sp)
    4d20:	4782                	c.lwsp	a5,0(sp)
    4d22:	0141                	c.addi	sp,16
    4d24:	30200073          	mret

00004d28 <entry_irq12>:
    4d28:	1141                	c.addi	sp,-16
    4d2a:	c632                	c.swsp	a2,12(sp)
    4d2c:	c436                	c.swsp	a3,8(sp)
    4d2e:	c23a                	c.swsp	a4,4(sp)
    4d30:	c03e                	c.swsp	a5,0(sp)
    4d32:	34102773          	csrr	a4,mepc
    4d36:	300026f3          	csrr	a3,mstatus
    4d3a:	7c4027f3          	csrr	a5,mxstatus
    4d3e:	30046673          	csrrsi	a2,mstatus,8
    4d42:	30047673          	csrrci	a2,mstatus,8
    4d46:	30069073          	csrw	mstatus,a3
    4d4a:	34171073          	csrw	mepc,a4
    4d4e:	7c479073          	csrw	mxstatus,a5
    4d52:	e42007b7          	lui	a5,0xe4200
    4d56:	4731                	c.li	a4,12
    4d58:	c3d8                	c.sw	a4,4(a5)
    4d5a:	0ff0000f          	fence
    4d5e:	4632                	c.lwsp	a2,12(sp)
    4d60:	46a2                	c.lwsp	a3,8(sp)
    4d62:	4712                	c.lwsp	a4,4(sp)
    4d64:	4782                	c.lwsp	a5,0(sp)
    4d66:	0141                	c.addi	sp,16
    4d68:	30200073          	mret

00004d6c <entry_irq11>:
    4d6c:	1141                	c.addi	sp,-16
    4d6e:	c632                	c.swsp	a2,12(sp)
    4d70:	c436                	c.swsp	a3,8(sp)
    4d72:	c23a                	c.swsp	a4,4(sp)
    4d74:	c03e                	c.swsp	a5,0(sp)
    4d76:	34102773          	csrr	a4,mepc
    4d7a:	300026f3          	csrr	a3,mstatus
    4d7e:	7c4027f3          	csrr	a5,mxstatus
    4d82:	30046673          	csrrsi	a2,mstatus,8
    4d86:	30047673          	csrrci	a2,mstatus,8
    4d8a:	30069073          	csrw	mstatus,a3
    4d8e:	34171073          	csrw	mepc,a4
    4d92:	7c479073          	csrw	mxstatus,a5
    4d96:	e42007b7          	lui	a5,0xe4200
    4d9a:	472d                	c.li	a4,11
    4d9c:	c3d8                	c.sw	a4,4(a5)
    4d9e:	0ff0000f          	fence
    4da2:	4632                	c.lwsp	a2,12(sp)
    4da4:	46a2                	c.lwsp	a3,8(sp)
    4da6:	4712                	c.lwsp	a4,4(sp)
    4da8:	4782                	c.lwsp	a5,0(sp)
    4daa:	0141                	c.addi	sp,16
    4dac:	30200073          	mret

00004db0 <entry_irq10>:
    4db0:	1141                	c.addi	sp,-16
    4db2:	c632                	c.swsp	a2,12(sp)
    4db4:	c436                	c.swsp	a3,8(sp)
    4db6:	c23a                	c.swsp	a4,4(sp)
    4db8:	c03e                	c.swsp	a5,0(sp)
    4dba:	34102773          	csrr	a4,mepc
    4dbe:	300026f3          	csrr	a3,mstatus
    4dc2:	7c4027f3          	csrr	a5,mxstatus
    4dc6:	30046673          	csrrsi	a2,mstatus,8
    4dca:	30047673          	csrrci	a2,mstatus,8
    4dce:	30069073          	csrw	mstatus,a3
    4dd2:	34171073          	csrw	mepc,a4
    4dd6:	7c479073          	csrw	mxstatus,a5
    4dda:	e42007b7          	lui	a5,0xe4200
    4dde:	4729                	c.li	a4,10
    4de0:	c3d8                	c.sw	a4,4(a5)
    4de2:	0ff0000f          	fence
    4de6:	4632                	c.lwsp	a2,12(sp)
    4de8:	46a2                	c.lwsp	a3,8(sp)
    4dea:	4712                	c.lwsp	a4,4(sp)
    4dec:	4782                	c.lwsp	a5,0(sp)
    4dee:	0141                	c.addi	sp,16
    4df0:	30200073          	mret

00004df4 <entry_irq9>:
    4df4:	1141                	c.addi	sp,-16
    4df6:	c632                	c.swsp	a2,12(sp)
    4df8:	c436                	c.swsp	a3,8(sp)
    4dfa:	c23a                	c.swsp	a4,4(sp)
    4dfc:	c03e                	c.swsp	a5,0(sp)
    4dfe:	34102773          	csrr	a4,mepc
    4e02:	300026f3          	csrr	a3,mstatus
    4e06:	7c4027f3          	csrr	a5,mxstatus
    4e0a:	30046673          	csrrsi	a2,mstatus,8
    4e0e:	30047673          	csrrci	a2,mstatus,8
    4e12:	30069073          	csrw	mstatus,a3
    4e16:	34171073          	csrw	mepc,a4
    4e1a:	7c479073          	csrw	mxstatus,a5
    4e1e:	e42007b7          	lui	a5,0xe4200
    4e22:	4725                	c.li	a4,9
    4e24:	c3d8                	c.sw	a4,4(a5)
    4e26:	0ff0000f          	fence
    4e2a:	4632                	c.lwsp	a2,12(sp)
    4e2c:	46a2                	c.lwsp	a3,8(sp)
    4e2e:	4712                	c.lwsp	a4,4(sp)
    4e30:	4782                	c.lwsp	a5,0(sp)
    4e32:	0141                	c.addi	sp,16
    4e34:	30200073          	mret

00004e38 <entry_irq8>:
    4e38:	1141                	c.addi	sp,-16
    4e3a:	c632                	c.swsp	a2,12(sp)
    4e3c:	c436                	c.swsp	a3,8(sp)
    4e3e:	c23a                	c.swsp	a4,4(sp)
    4e40:	c03e                	c.swsp	a5,0(sp)
    4e42:	34102773          	csrr	a4,mepc
    4e46:	300026f3          	csrr	a3,mstatus
    4e4a:	7c4027f3          	csrr	a5,mxstatus
    4e4e:	30046673          	csrrsi	a2,mstatus,8
    4e52:	30047673          	csrrci	a2,mstatus,8
    4e56:	30069073          	csrw	mstatus,a3
    4e5a:	34171073          	csrw	mepc,a4
    4e5e:	7c479073          	csrw	mxstatus,a5
    4e62:	e42007b7          	lui	a5,0xe4200
    4e66:	4721                	c.li	a4,8
    4e68:	c3d8                	c.sw	a4,4(a5)
    4e6a:	0ff0000f          	fence
    4e6e:	4632                	c.lwsp	a2,12(sp)
    4e70:	46a2                	c.lwsp	a3,8(sp)
    4e72:	4712                	c.lwsp	a4,4(sp)
    4e74:	4782                	c.lwsp	a5,0(sp)
    4e76:	0141                	c.addi	sp,16
    4e78:	30200073          	mret

00004e7c <entry_irq7>:
    4e7c:	1141                	c.addi	sp,-16
    4e7e:	c632                	c.swsp	a2,12(sp)
    4e80:	c436                	c.swsp	a3,8(sp)
    4e82:	c23a                	c.swsp	a4,4(sp)
    4e84:	c03e                	c.swsp	a5,0(sp)
    4e86:	34102773          	csrr	a4,mepc
    4e8a:	300026f3          	csrr	a3,mstatus
    4e8e:	7c4027f3          	csrr	a5,mxstatus
    4e92:	30046673          	csrrsi	a2,mstatus,8
    4e96:	30047673          	csrrci	a2,mstatus,8
    4e9a:	30069073          	csrw	mstatus,a3
    4e9e:	34171073          	csrw	mepc,a4
    4ea2:	7c479073          	csrw	mxstatus,a5
    4ea6:	e42007b7          	lui	a5,0xe4200
    4eaa:	471d                	c.li	a4,7
    4eac:	c3d8                	c.sw	a4,4(a5)
    4eae:	0ff0000f          	fence
    4eb2:	4632                	c.lwsp	a2,12(sp)
    4eb4:	46a2                	c.lwsp	a3,8(sp)
    4eb6:	4712                	c.lwsp	a4,4(sp)
    4eb8:	4782                	c.lwsp	a5,0(sp)
    4eba:	0141                	c.addi	sp,16
    4ebc:	30200073          	mret

00004ec0 <entry_irq6>:
    4ec0:	1141                	c.addi	sp,-16
    4ec2:	c632                	c.swsp	a2,12(sp)
    4ec4:	c436                	c.swsp	a3,8(sp)
    4ec6:	c23a                	c.swsp	a4,4(sp)
    4ec8:	c03e                	c.swsp	a5,0(sp)
    4eca:	34102773          	csrr	a4,mepc
    4ece:	300026f3          	csrr	a3,mstatus
    4ed2:	7c4027f3          	csrr	a5,mxstatus
    4ed6:	30046673          	csrrsi	a2,mstatus,8
    4eda:	30047673          	csrrci	a2,mstatus,8
    4ede:	30069073          	csrw	mstatus,a3
    4ee2:	34171073          	csrw	mepc,a4
    4ee6:	7c479073          	csrw	mxstatus,a5
    4eea:	e42007b7          	lui	a5,0xe4200
    4eee:	4719                	c.li	a4,6
    4ef0:	c3d8                	c.sw	a4,4(a5)
    4ef2:	0ff0000f          	fence
    4ef6:	4632                	c.lwsp	a2,12(sp)
    4ef8:	46a2                	c.lwsp	a3,8(sp)
    4efa:	4712                	c.lwsp	a4,4(sp)
    4efc:	4782                	c.lwsp	a5,0(sp)
    4efe:	0141                	c.addi	sp,16
    4f00:	30200073          	mret

00004f04 <entry_irq5>:
    4f04:	1141                	c.addi	sp,-16
    4f06:	c632                	c.swsp	a2,12(sp)
    4f08:	c436                	c.swsp	a3,8(sp)
    4f0a:	c23a                	c.swsp	a4,4(sp)
    4f0c:	c03e                	c.swsp	a5,0(sp)
    4f0e:	34102773          	csrr	a4,mepc
    4f12:	300026f3          	csrr	a3,mstatus
    4f16:	7c4027f3          	csrr	a5,mxstatus
    4f1a:	30046673          	csrrsi	a2,mstatus,8
    4f1e:	30047673          	csrrci	a2,mstatus,8
    4f22:	30069073          	csrw	mstatus,a3
    4f26:	34171073          	csrw	mepc,a4
    4f2a:	7c479073          	csrw	mxstatus,a5
    4f2e:	e42007b7          	lui	a5,0xe4200
    4f32:	4715                	c.li	a4,5
    4f34:	c3d8                	c.sw	a4,4(a5)
    4f36:	0ff0000f          	fence
    4f3a:	4632                	c.lwsp	a2,12(sp)
    4f3c:	46a2                	c.lwsp	a3,8(sp)
    4f3e:	4712                	c.lwsp	a4,4(sp)
    4f40:	4782                	c.lwsp	a5,0(sp)
    4f42:	0141                	c.addi	sp,16
    4f44:	30200073          	mret

00004f48 <entry_irq4>:
    4f48:	1141                	c.addi	sp,-16
    4f4a:	c632                	c.swsp	a2,12(sp)
    4f4c:	c436                	c.swsp	a3,8(sp)
    4f4e:	c23a                	c.swsp	a4,4(sp)
    4f50:	c03e                	c.swsp	a5,0(sp)
    4f52:	34102773          	csrr	a4,mepc
    4f56:	300026f3          	csrr	a3,mstatus
    4f5a:	7c4027f3          	csrr	a5,mxstatus
    4f5e:	30046673          	csrrsi	a2,mstatus,8
    4f62:	30047673          	csrrci	a2,mstatus,8
    4f66:	30069073          	csrw	mstatus,a3
    4f6a:	34171073          	csrw	mepc,a4
    4f6e:	7c479073          	csrw	mxstatus,a5
    4f72:	e42007b7          	lui	a5,0xe4200
    4f76:	4711                	c.li	a4,4
    4f78:	c3d8                	c.sw	a4,4(a5)
    4f7a:	0ff0000f          	fence
    4f7e:	4632                	c.lwsp	a2,12(sp)
    4f80:	46a2                	c.lwsp	a3,8(sp)
    4f82:	4712                	c.lwsp	a4,4(sp)
    4f84:	4782                	c.lwsp	a5,0(sp)
    4f86:	0141                	c.addi	sp,16
    4f88:	30200073          	mret

00004f8c <entry_irq3>:
    4f8c:	1141                	c.addi	sp,-16
    4f8e:	c632                	c.swsp	a2,12(sp)
    4f90:	c436                	c.swsp	a3,8(sp)
    4f92:	c23a                	c.swsp	a4,4(sp)
    4f94:	c03e                	c.swsp	a5,0(sp)
    4f96:	34102773          	csrr	a4,mepc
    4f9a:	300026f3          	csrr	a3,mstatus
    4f9e:	7c4027f3          	csrr	a5,mxstatus
    4fa2:	30046673          	csrrsi	a2,mstatus,8
    4fa6:	30047673          	csrrci	a2,mstatus,8
    4faa:	30069073          	csrw	mstatus,a3
    4fae:	34171073          	csrw	mepc,a4
    4fb2:	7c479073          	csrw	mxstatus,a5
    4fb6:	e42007b7          	lui	a5,0xe4200
    4fba:	470d                	c.li	a4,3
    4fbc:	c3d8                	c.sw	a4,4(a5)
    4fbe:	0ff0000f          	fence
    4fc2:	4632                	c.lwsp	a2,12(sp)
    4fc4:	46a2                	c.lwsp	a3,8(sp)
    4fc6:	4712                	c.lwsp	a4,4(sp)
    4fc8:	4782                	c.lwsp	a5,0(sp)
    4fca:	0141                	c.addi	sp,16
    4fcc:	30200073          	mret

00004fd0 <entry_irq2>:
    4fd0:	1141                	c.addi	sp,-16
    4fd2:	c632                	c.swsp	a2,12(sp)
    4fd4:	c436                	c.swsp	a3,8(sp)
    4fd6:	c23a                	c.swsp	a4,4(sp)
    4fd8:	c03e                	c.swsp	a5,0(sp)
    4fda:	34102773          	csrr	a4,mepc
    4fde:	300026f3          	csrr	a3,mstatus
    4fe2:	7c4027f3          	csrr	a5,mxstatus
    4fe6:	30046673          	csrrsi	a2,mstatus,8
    4fea:	30047673          	csrrci	a2,mstatus,8
    4fee:	30069073          	csrw	mstatus,a3
    4ff2:	34171073          	csrw	mepc,a4
    4ff6:	7c479073          	csrw	mxstatus,a5
    4ffa:	e42007b7          	lui	a5,0xe4200
    4ffe:	4709                	c.li	a4,2
    5000:	c3d8                	c.sw	a4,4(a5)
    5002:	0ff0000f          	fence
    5006:	4632                	c.lwsp	a2,12(sp)
    5008:	46a2                	c.lwsp	a3,8(sp)
    500a:	4712                	c.lwsp	a4,4(sp)
    500c:	4782                	c.lwsp	a5,0(sp)
    500e:	0141                	c.addi	sp,16
    5010:	30200073          	mret

00005014 <entry_irq1>:
    5014:	7135                	c.addi16sp	sp,-160
    5016:	cf06                	c.swsp	ra,156(sp)
    5018:	cd16                	c.swsp	t0,152(sp)
    501a:	cb1a                	c.swsp	t1,148(sp)
    501c:	c91e                	c.swsp	t2,144(sp)
    501e:	c722                	c.swsp	s0,140(sp)
    5020:	c526                	c.swsp	s1,136(sp)
    5022:	c32a                	c.swsp	a0,132(sp)
    5024:	c12e                	c.swsp	a1,128(sp)
    5026:	deb2                	c.swsp	a2,124(sp)
    5028:	dcb6                	c.swsp	a3,120(sp)
    502a:	daba                	c.swsp	a4,116(sp)
    502c:	d8be                	c.swsp	a5,112(sp)
    502e:	d6c2                	c.swsp	a6,108(sp)
    5030:	d4c6                	c.swsp	a7,104(sp)
    5032:	d2ca                	c.swsp	s2,100(sp)
    5034:	d0f2                	c.swsp	t3,96(sp)
    5036:	cef6                	c.swsp	t4,92(sp)
    5038:	ccfa                	c.swsp	t5,88(sp)
    503a:	cafe                	c.swsp	t6,84(sp)
    503c:	e682                	c.fswsp	ft0,76(sp)
    503e:	e486                	c.fswsp	ft1,72(sp)
    5040:	e28a                	c.fswsp	ft2,68(sp)
    5042:	e08e                	c.fswsp	ft3,64(sp)
    5044:	fe12                	c.fswsp	ft4,60(sp)
    5046:	fc16                	c.fswsp	ft5,56(sp)
    5048:	fa1a                	c.fswsp	ft6,52(sp)
    504a:	f81e                	c.fswsp	ft7,48(sp)
    504c:	f62a                	c.fswsp	fa0,44(sp)
    504e:	f42e                	c.fswsp	fa1,40(sp)
    5050:	f232                	c.fswsp	fa2,36(sp)
    5052:	f036                	c.fswsp	fa3,32(sp)
    5054:	ee3a                	c.fswsp	fa4,28(sp)
    5056:	ec3e                	c.fswsp	fa5,24(sp)
    5058:	ea42                	c.fswsp	fa6,20(sp)
    505a:	e846                	c.fswsp	fa7,16(sp)
    505c:	e672                	c.fswsp	ft8,12(sp)
    505e:	e476                	c.fswsp	ft9,8(sp)
    5060:	e27a                	c.fswsp	ft10,4(sp)
    5062:	e07e                	c.fswsp	ft11,0(sp)
    5064:	341024f3          	csrr	s1,mepc
    5068:	30002973          	csrr	s2,mstatus
    506c:	7c402473          	csrr	s0,mxstatus
    5070:	300467f3          	csrrsi	a5,mstatus,8
    5074:	9e0fd0ef          	jal	ra,2254 <stimer_irq_handler>
    5078:	300477f3          	csrrci	a5,mstatus,8
    507c:	30091073          	csrw	mstatus,s2
    5080:	34149073          	csrw	mepc,s1
    5084:	7c441073          	csrw	mxstatus,s0
    5088:	e42007b7          	lui	a5,0xe4200
    508c:	4705                	c.li	a4,1
    508e:	c3d8                	c.sw	a4,4(a5)
    5090:	0ff0000f          	fence
    5094:	443a                	c.lwsp	s0,140(sp)
    5096:	40fa                	c.lwsp	ra,156(sp)
    5098:	42ea                	c.lwsp	t0,152(sp)
    509a:	435a                	c.lwsp	t1,148(sp)
    509c:	43ca                	c.lwsp	t2,144(sp)
    509e:	44aa                	c.lwsp	s1,136(sp)
    50a0:	451a                	c.lwsp	a0,132(sp)
    50a2:	458a                	c.lwsp	a1,128(sp)
    50a4:	5676                	c.lwsp	a2,124(sp)
    50a6:	56e6                	c.lwsp	a3,120(sp)
    50a8:	5756                	c.lwsp	a4,116(sp)
    50aa:	57c6                	c.lwsp	a5,112(sp)
    50ac:	5836                	c.lwsp	a6,108(sp)
    50ae:	58a6                	c.lwsp	a7,104(sp)
    50b0:	5916                	c.lwsp	s2,100(sp)
    50b2:	5e06                	c.lwsp	t3,96(sp)
    50b4:	4ef6                	c.lwsp	t4,92(sp)
    50b6:	4f66                	c.lwsp	t5,88(sp)
    50b8:	4fd6                	c.lwsp	t6,84(sp)
    50ba:	6036                	c.flwsp	ft0,76(sp)
    50bc:	60a6                	c.flwsp	ft1,72(sp)
    50be:	6116                	c.flwsp	ft2,68(sp)
    50c0:	6186                	c.flwsp	ft3,64(sp)
    50c2:	7272                	c.flwsp	ft4,60(sp)
    50c4:	72e2                	c.flwsp	ft5,56(sp)
    50c6:	7352                	c.flwsp	ft6,52(sp)
    50c8:	73c2                	c.flwsp	ft7,48(sp)
    50ca:	7532                	c.flwsp	fa0,44(sp)
    50cc:	75a2                	c.flwsp	fa1,40(sp)
    50ce:	7612                	c.flwsp	fa2,36(sp)
    50d0:	7682                	c.flwsp	fa3,32(sp)
    50d2:	6772                	c.flwsp	fa4,28(sp)
    50d4:	67e2                	c.flwsp	fa5,24(sp)
    50d6:	6852                	c.flwsp	fa6,20(sp)
    50d8:	68c2                	c.flwsp	fa7,16(sp)
    50da:	6e32                	c.flwsp	ft8,12(sp)
    50dc:	6ea2                	c.flwsp	ft9,8(sp)
    50de:	6f12                	c.flwsp	ft10,4(sp)
    50e0:	6f82                	c.flwsp	ft11,0(sp)
    50e2:	610d                	c.addi16sp	sp,160
    50e4:	30200073          	mret

000050e8 <trap_entry>:
    50e8:	1101                	c.addi	sp,-32
    50ea:	ce36                	c.swsp	a3,28(sp)
    50ec:	cc3a                	c.swsp	a4,24(sp)
    50ee:	ca3e                	c.swsp	a5,20(sp)
    50f0:	34202773          	csrr	a4,mcause
    50f4:	86efc1ab          	swgp	a4,-1952 # 80060 <mcause>
    50f8:	341026f3          	csrr	a3,mepc
    50fc:	6741                	c.lui	a4,0x10
    50fe:	1779                	c.addi	a4,-2
    5100:	86dfc3ab          	swgp	a3,-1948 # 80064 <mepc>
    5104:	c602                	c.swsp	zero,12(sp)
    5106:	47b2                	c.lwsp	a5,12(sp)
    5108:	fef76ee3          	bltu	a4,a5,5104 <trap_entry+0x1c>
    510c:	0001                	c.nop
    510e:	47b2                	c.lwsp	a5,12(sp)
    5110:	0785                	c.addi	a5,1
    5112:	c63e                	c.swsp	a5,12(sp)
    5114:	47b2                	c.lwsp	a5,12(sp)
    5116:	fef77be3          	bgeu	a4,a5,510c <trap_entry+0x24>
    511a:	b7ed                	c.j	5104 <trap_entry+0x1c>
    511c:	0001                	c.nop
	...

00005200 <__vectors>:
    5200:	50e8                	c.lw	a0,100(s1)
    5202:	0000                	unimp
    5204:	5014                	c.lw	a3,32(s0)
    5206:	0000                	unimp
    5208:	4fd0                	c.lw	a2,28(a5)
    520a:	0000                	unimp
    520c:	4f8c                	c.lw	a1,24(a5)
    520e:	0000                	unimp
    5210:	4f48                	c.lw	a0,28(a4)
    5212:	0000                	unimp
    5214:	4f04                	c.lw	s1,24(a4)
    5216:	0000                	unimp
    5218:	4ec0                	c.lw	s0,28(a3)
    521a:	0000                	unimp
    521c:	4e7c                	c.lw	a5,92(a2)
    521e:	0000                	unimp
    5220:	4e38                	c.lw	a4,88(a2)
    5222:	0000                	unimp
    5224:	4df4                	c.lw	a3,92(a1)
    5226:	0000                	unimp
    5228:	4db0                	c.lw	a2,88(a1)
    522a:	0000                	unimp
    522c:	4d6c                	c.lw	a1,92(a0)
    522e:	0000                	unimp
    5230:	4d28                	c.lw	a0,88(a0)
    5232:	0000                	unimp
    5234:	4ce4                	c.lw	s1,92(s1)
    5236:	0000                	unimp
    5238:	4ca0                	c.lw	s0,88(s1)
    523a:	0000                	unimp
    523c:	4bcc                	c.lw	a1,20(a5)
    523e:	0000                	unimp
    5240:	4b88                	c.lw	a0,16(a5)
    5242:	0000                	unimp
    5244:	4b44                	c.lw	s1,20(a4)
    5246:	0000                	unimp
    5248:	4b00                	c.lw	s0,16(a4)
    524a:	0000                	unimp
    524c:	4abc                	c.lw	a5,80(a3)
    524e:	0000                	unimp
    5250:	4a78                	c.lw	a4,84(a2)
    5252:	0000                	unimp
    5254:	4a34                	c.lw	a3,80(a2)
    5256:	0000                	unimp
    5258:	49f0                	c.lw	a2,84(a1)
    525a:	0000                	unimp
    525c:	49ac                	c.lw	a1,80(a1)
    525e:	0000                	unimp
    5260:	4968                	c.lw	a0,84(a0)
    5262:	0000                	unimp
    5264:	4924                	c.lw	s1,80(a0)
    5266:	0000                	unimp
    5268:	48e0                	c.lw	s0,84(s1)
    526a:	0000                	unimp
    526c:	489c                	c.lw	a5,16(s1)
    526e:	0000                	unimp
    5270:	4858                	c.lw	a4,20(s0)
    5272:	0000                	unimp
    5274:	4814                	c.lw	a3,16(s0)
    5276:	0000                	unimp
    5278:	47d0                	c.lw	a2,12(a5)
    527a:	0000                	unimp
    527c:	478c                	c.lw	a1,8(a5)
    527e:	0000                	unimp
    5280:	4744                	c.lw	s1,12(a4)
    5282:	0000                	unimp
    5284:	46fc                	c.lw	a5,76(a3)
    5286:	0000                	unimp
    5288:	46b4                	c.lw	a3,72(a3)
    528a:	0000                	unimp
    528c:	466c                	c.lw	a1,76(a2)
    528e:	0000                	unimp
    5290:	4624                	c.lw	s1,72(a2)
    5292:	0000                	unimp
    5294:	45dc                	c.lw	a5,12(a1)
    5296:	0000                	unimp
    5298:	45d8                	c.lw	a4,12(a1)
    529a:	0000                	unimp
    529c:	45d4                	c.lw	a3,12(a1)
    529e:	0000                	unimp
    52a0:	45d0                	c.lw	a2,12(a1)
    52a2:	0000                	unimp
    52a4:	45cc                	c.lw	a1,12(a1)
    52a6:	0000                	unimp
    52a8:	4584                	c.lw	s1,8(a1)
    52aa:	0000                	unimp
    52ac:	453c                	c.lw	a5,72(a0)
    52ae:	0000                	unimp
    52b0:	44f4                	c.lw	a3,76(s1)
    52b2:	0000                	unimp
    52b4:	44f0                	c.lw	a2,76(s1)
    52b6:	0000                	unimp
    52b8:	44a8                	c.lw	a0,72(s1)
    52ba:	0000                	unimp
    52bc:	44a4                	c.lw	s1,72(s1)
    52be:	0000                	unimp
    52c0:	44a0                	c.lw	s0,72(s1)
    52c2:	0000                	unimp
    52c4:	449c                	c.lw	a5,8(s1)
    52c6:	0000                	unimp
    52c8:	4454                	c.lw	a3,12(s0)
    52ca:	0000                	unimp
    52cc:	440c                	c.lw	a1,8(s0)
    52ce:	0000                	unimp
    52d0:	43c4                	c.lw	s1,4(a5)
    52d2:	0000                	unimp
    52d4:	437c                	c.lw	a5,68(a4)
    52d6:	0000                	unimp
    52d8:	4334                	c.lw	a3,64(a4)
    52da:	0000                	unimp
    52dc:	42ec                	c.lw	a1,68(a3)
    52de:	0000                	unimp
    52e0:	42a4                	c.lw	s1,64(a3)
    52e2:	0000                	unimp
    52e4:	425c                	c.lw	a5,4(a2)
    52e6:	0000                	unimp
    52e8:	4214                	c.lw	a3,0(a2)
    52ea:	0000                	unimp
    52ec:	41cc                	c.lw	a1,4(a1)
    52ee:	0000                	unimp
    52f0:	4184                	c.lw	s1,0(a1)
    52f2:	0000                	unimp
    52f4:	413c                	c.lw	a5,64(a0)
    52f6:	0000                	unimp
    52f8:	40f4                	c.lw	a3,68(s1)
    52fa:	0000                	unimp
    52fc:	40ac                	c.lw	a1,64(s1)
    52fe:	0000                	unimp
    5300:	0001                	c.nop

Disassembly of section .text:

20005400 <flash_page_program>:
20005400:	1101                	c.addi	sp,-32
20005402:	0ff57713          	andi	a4,a0,255
20005406:	10000793          	li	a5,256
2000540a:	ca26                	c.swsp	s1,20(sp)
2000540c:	c84a                	c.swsp	s2,16(sp)
2000540e:	c64e                	c.swsp	s3,12(sp)
20005410:	892a                	c.mv	s2,a0
20005412:	84ae                	c.mv	s1,a1
20005414:	89b2                	c.mv	s3,a2
20005416:	8f99                	c.sub	a5,a4
20005418:	ce06                	c.swsp	ra,28(sp)
2000541a:	cc22                	c.swsp	s0,24(sp)
2000541c:	8426                	c.mv	s0,s1
2000541e:	0097f363          	bgeu	a5,s1,20005424 <flash_page_program+0x24>
20005422:	843e                	c.mv	s0,a5
20005424:	7d047073          	csrci	mmisc_ctl,8
20005428:	8622                	c.mv	a2,s0
2000542a:	85ce                	c.mv	a1,s3
2000542c:	01200533          	add	a0,zero,s2
20005430:	dfffd097          	auipc	ra,0xdfffd
20005434:	0ac080e7          	jalr	172(ra) # 24dc <flash_mspi_write_ram.constprop.45>
20005438:	7d046073          	csrsi	mmisc_ctl,8
2000543c:	8c81                	c.sub	s1,s0
2000543e:	9922                	c.add	s2,s0
20005440:	99a2                	c.add	s3,s0
20005442:	10000793          	li	a5,256
20005446:	f8f9                	c.bnez	s1,2000541c <flash_page_program+0x1c>
20005448:	40f2                	c.lwsp	ra,28(sp)
2000544a:	4462                	c.lwsp	s0,24(sp)
2000544c:	44d2                	c.lwsp	s1,20(sp)
2000544e:	4942                	c.lwsp	s2,16(sp)
20005450:	49b2                	c.lwsp	s3,12(sp)
20005452:	6105                	c.addi16sp	sp,32
20005454:	00008067          	ret

20005458 <flash_dread>:
20005458:	1141                	c.addi	sp,-16
2000545a:	c606                	c.swsp	ra,12(sp)
2000545c:	87ae                	c.mv	a5,a1
2000545e:	8732                	c.mv	a4,a2
20005460:	7d047073          	csrci	mmisc_ctl,8
20005464:	4685                	c.li	a3,1
20005466:	85aa                	c.mv	a1,a0
20005468:	00100613          	li	a2,1
2000546c:	03b00513          	li	a0,59
20005470:	dfffd097          	auipc	ra,0xdfffd
20005474:	ebc080e7          	jalr	-324(ra) # 232c <flash_mspi_read_ram>
20005478:	7d046073          	csrsi	mmisc_ctl,8
2000547c:	40b2                	c.lwsp	ra,12(sp)
2000547e:	0141                	c.addi	sp,16
20005480:	00008067          	ret

20005484 <cpu_sleep_wakeup_32k_rc>:
20005484:	1141                	c.addi	sp,-16
20005486:	c606                	c.swsp	ra,12(sp)
20005488:	7d047073          	csrci	mmisc_ctl,8
2000548c:	dfffe097          	auipc	ra,0xdfffe
20005490:	a58080e7          	jalr	-1448(ra) # 2ee4 <cpu_sleep_wakeup_32k_rc_ram>
20005494:	7d046073          	csrsi	mmisc_ctl,8
20005498:	40b2                	c.lwsp	ra,12(sp)
2000549a:	0141                	c.addi	sp,16
2000549c:	8082                	c.jr	ra
	...

200054a0 <blc_hci_send_event>:
200054a0:	000007b7          	lui	a5,0x0
200054a4:	3307a303          	lw	t1,816(a5) # 330 <blc_hci_event_handler>
200054a8:	00030463          	beqz	t1,200054b0 <blc_hci_send_event+0x10>
200054ac:	00030067          	jr	t1
200054b0:	4505                	c.li	a0,1
200054b2:	8082                	c.jr	ra
200054b4:	0001                	c.nop
	...

200054b8 <blt_leg_scan_mainloop_task>:
200054b8:	715d                	c.addi16sp	sp,-80
200054ba:	c4a2                	c.swsp	s0,72(sp)
200054bc:	00000437          	lui	s0,0x0
200054c0:	17840413          	addi	s0,s0,376 # 178 <_AES_VMA_END>
200054c4:	c686                	c.swsp	ra,76(sp)
200054c6:	c2a6                	c.swsp	s1,68(sp)
200054c8:	c0ca                	c.swsp	s2,64(sp)
200054ca:	de4e                	c.swsp	s3,60(sp)
200054cc:	dc52                	c.swsp	s4,56(sp)
200054ce:	da56                	c.swsp	s5,52(sp)
200054d0:	d85a                	c.swsp	s6,48(sp)
200054d2:	1bf44783          	lbu	a5,447(s0)
200054d6:	1be44703          	lbu	a4,446(s0)
200054da:	0ef70563          	beq	a4,a5,200055c4 <blt_leg_scan_mainloop_task+0x10c>
200054de:	020009b7          	lui	s3,0x2000
200054e2:	4909                	c.li	s2,2
200054e4:	03e98993          	addi	s3,s3,62 # 200003e <FLASH_SIZE+0x1f0003e>
200054e8:	10200a13          	li	s4,258
200054ec:	4a8d                	c.li	s5,3
200054ee:	a00d                	c.j	20005510 <blt_leg_scan_mainloop_task+0x58>
200054f0:	00d7f693          	andi	a3,a5,13
200054f4:	0e46d45b          	beqc	a3,4,200055dc <blt_leg_scan_mainloop_task+0x124>
200054f8:	1bf40783          	lb	a5,447(s0)
200054fc:	1be44703          	lbu	a4,446(s0)
20005500:	00178793          	addi	a5,a5,1
20005504:	0ff7f793          	andi	a5,a5,255
20005508:	1af40fa3          	sb	a5,447(s0)
2000550c:	0af70c63          	beq	a4,a5,200055c4 <blt_leg_scan_mainloop_task+0x10c>
20005510:	1c442703          	lw	a4,452(s0)
20005514:	be17725b          	bbc	a4,1,200054f8 <blt_leg_scan_mainloop_task+0x40>
20005518:	1c042483          	lw	s1,448(s0)
2000551c:	1887a7db          	bfoz	a5,a5,6,8
20005520:	94be                	c.add	s1,a5
20005522:	0044c783          	lbu	a5,4(s1)
20005526:	0054cb03          	lbu	s6,5(s1)
2000552a:	00f7f713          	andi	a4,a5,15
2000552e:	fce961e3          	bltu	s2,a4,200054f0 <blt_leg_scan_mainloop_task+0x38>
20005532:	0a176d5b          	bnec	a4,1,200055ec <blt_leg_scan_mainloop_task+0x134>
20005536:	46ad                	c.li	a3,11
20005538:	0d66f263          	bgeu	a3,s6,200055fc <blt_leg_scan_mainloop_task+0x144>
2000553c:	ffab0b13          	addi	s6,s6,-6
20005540:	0ffb7b13          	andi	s6,s6,255
20005544:	01411023          	sh	s4,0(sp)
20005548:	00e10123          	sb	a4,2(sp)
2000554c:	1867a7db          	bfoz	a5,a5,6,6
20005550:	4619                	c.li	a2,6
20005552:	00648593          	addi	a1,s1,6
20005556:	0048                	c.addi4spn	a0,sp,4
20005558:	00f101a3          	sb	a5,3(sp)
2000555c:	dfffc097          	auipc	ra,0xdfffc
20005560:	d8c080e7          	jalr	-628(ra) # 12e8 <smemcpy>
20005564:	ffab0793          	addi	a5,s6,-6
20005568:	0ff7f793          	andi	a5,a5,255
2000556c:	00f00633          	add	a2,zero,a5
20005570:	00c48593          	addi	a1,s1,12
20005574:	00b10513          	addi	a0,sp,11
20005578:	00f10523          	sb	a5,10(sp)
2000557c:	dfffc097          	auipc	ra,0xdfffc
20005580:	d6c080e7          	jalr	-660(ra) # 12e8 <smemcpy>
20005584:	0054c783          	lbu	a5,5(s1)
20005588:	00a14703          	lbu	a4,10(sp)
2000558c:	97a6                	c.add	a5,s1
2000558e:	00f78683          	lb	a3,15(a5)
20005592:	180c                	c.addi4spn	a1,sp,48
20005594:	00e587b3          	add	a5,a1,a4
20005598:	006b0613          	addi	a2,s6,6
2000559c:	f9268713          	addi	a4,a3,-110 # ff92 <BIN_SIZE+0x6670>
200055a0:	858a                	c.mv	a1,sp
200055a2:	854e                	c.mv	a0,s3
200055a4:	fce78da3          	sb	a4,-37(a5)
200055a8:	ef9ff0ef          	jal	ra,200054a0 <blc_hci_send_event>
200055ac:	1bf40783          	lb	a5,447(s0)
200055b0:	1be44703          	lbu	a4,446(s0)
200055b4:	00178793          	addi	a5,a5,1
200055b8:	0ff7f793          	andi	a5,a5,255
200055bc:	1af40fa3          	sb	a5,447(s0)
200055c0:	f4f718e3          	bne	a4,a5,20005510 <blt_leg_scan_mainloop_task+0x58>
200055c4:	00100513          	li	a0,1
200055c8:	40b6                	c.lwsp	ra,76(sp)
200055ca:	4426                	c.lwsp	s0,72(sp)
200055cc:	4496                	c.lwsp	s1,68(sp)
200055ce:	4906                	c.lwsp	s2,64(sp)
200055d0:	59f2                	c.lwsp	s3,60(sp)
200055d2:	5a62                	c.lwsp	s4,56(sp)
200055d4:	5ad2                	c.lwsp	s5,52(sp)
200055d6:	5b42                	c.lwsp	s6,48(sp)
200055d8:	6161                	c.addi16sp	sp,80
200055da:	8082                	c.jr	ra
200055dc:	01411023          	sh	s4,0(sp)
200055e0:	b667645b          	bnec	a4,6,20005548 <blt_leg_scan_mainloop_task+0x90>
200055e4:	01210123          	sb	s2,2(sp)
200055e8:	f65ff06f          	j	2000554c <blt_leg_scan_mainloop_task+0x94>
200055ec:	01411023          	sh	s4,0(sp)
200055f0:	b4276c5b          	bnec	a4,2,20005548 <blt_leg_scan_mainloop_task+0x90>
200055f4:	01510123          	sb	s5,2(sp)
200055f8:	f55ff06f          	j	2000554c <blt_leg_scan_mainloop_task+0x94>
200055fc:	4501                	c.li	a0,0
200055fe:	b7e9                	c.j	200055c8 <blt_leg_scan_mainloop_task+0x110>

20005600 <generateRandomNum>:
20005600:	1141                	c.addi	sp,-16
20005602:	c422                	c.swsp	s0,8(sp)
20005604:	c226                	c.swsp	s1,4(sp)
20005606:	c04a                	c.swsp	s2,0(sp)
20005608:	c606                	c.swsp	ra,12(sp)
2000560a:	892a                	c.mv	s2,a0
2000560c:	84ae                	c.mv	s1,a1
2000560e:	4501                	c.li	a0,0
20005610:	4401                	c.li	s0,0
20005612:	a039                	c.j	20005620 <generateRandomNum+0x20>
20005614:	00a48023          	sb	a0,0(s1)
20005618:	8121                	c.srli	a0,0x8
2000561a:	0485                	c.addi	s1,1
2000561c:	02890063          	beq	s2,s0,2000563c <generateRandomNum+0x3c>
20005620:	00347793          	andi	a5,s0,3
20005624:	0405                	c.addi	s0,1
20005626:	f7fd                	c.bnez	a5,20005614 <generateRandomNum+0x14>
20005628:	dfffc097          	auipc	ra,0xdfffc
2000562c:	458080e7          	jalr	1112(ra) # 1a80 <trng_rand>
20005630:	00a48023          	sb	a0,0(s1)
20005634:	8121                	c.srli	a0,0x8
20005636:	0485                	c.addi	s1,1
20005638:	fe8914e3          	bne	s2,s0,20005620 <generateRandomNum+0x20>
2000563c:	40b2                	c.lwsp	ra,12(sp)
2000563e:	4422                	c.lwsp	s0,8(sp)
20005640:	4492                	c.lwsp	s1,4(sp)
20005642:	4902                	c.lwsp	s2,0(sp)
20005644:	0141                	c.addi	sp,16
20005646:	8082                	c.jr	ra

20005648 <pwm_kick_32k_pad.constprop.20>:
20005648:	1141                	c.addi	sp,-16
2000564a:	c422                	c.swsp	s0,8(sp)
2000564c:	c606                	c.swsp	ra,12(sp)
2000564e:	80140437          	lui	s0,0x80140
20005652:	57f9                	c.li	a5,-2
20005654:	30f40f23          	sb	a5,798(s0) # 8014031e <_DATA_LMA_START+0x60136a46>
20005658:	4789                	c.li	a5,2
2000565a:	32f40b23          	sb	a5,822(s0)
2000565e:	4785                	c.li	a5,1
20005660:	34f40aa3          	sb	a5,853(s0)
20005664:	4785                	c.li	a5,1
20005666:	40f41a23          	sh	a5,1044(s0)
2000566a:	4709                	c.li	a4,2
2000566c:	40e41b23          	sh	a4,1046(s0)
20005670:	fb600713          	li	a4,-74
20005674:	40e40123          	sb	a4,1026(s0)
20005678:	00a00513          	li	a0,10
2000567c:	40f400a3          	sb	a5,1025(s0)
20005680:	dfffd097          	auipc	ra,0xdfffd
20005684:	bdc080e7          	jalr	-1060(ra) # 225c <delay_ms>
20005688:	57fd                	c.li	a5,-1
2000568a:	30f40f23          	sb	a5,798(s0)
2000568e:	57c1                	c.li	a5,-16
20005690:	32f40b23          	sb	a5,822(s0)
20005694:	34040aa3          	sb	zero,853(s0)
20005698:	40041c23          	sh	zero,1048(s0)
2000569c:	40041d23          	sh	zero,1050(s0)
200056a0:	40040023          	sb	zero,1024(s0)
200056a4:	40040123          	sb	zero,1026(s0)
200056a8:	40b2                	c.lwsp	ra,12(sp)
200056aa:	4422                	c.lwsp	s0,8(sp)
200056ac:	0141                	c.addi	sp,16
200056ae:	8082                	c.jr	ra

200056b0 <blc_readFlashSize_autoConfigCustomFlashSector>:
200056b0:	1101                	c.addi	sp,-32
200056b2:	ce06                	c.swsp	ra,28(sp)
200056b4:	c602                	c.swsp	zero,12(sp)
200056b6:	7d047073          	csrci	mmisc_ctl,8
200056ba:	478d                	c.li	a5,3
200056bc:	0078                	c.addi4spn	a4,sp,12
200056be:	4681                	c.li	a3,0
200056c0:	4601                	c.li	a2,0
200056c2:	4581                	c.li	a1,0
200056c4:	09f00513          	li	a0,159
200056c8:	dfffd097          	auipc	ra,0xdfffd
200056cc:	c64080e7          	jalr	-924(ra) # 232c <flash_mspi_read_ram>
200056d0:	7d046073          	csrsi	mmisc_ctl,8
200056d4:	00e14783          	lbu	a5,14(sp)
200056d8:	0337e05b          	bnec	a5,19,200056f8 <blc_readFlashSize_autoConfigCustomFlashSector+0x48>
200056dc:	000007b7          	lui	a5,0x0
200056e0:	17878793          	addi	a5,a5,376 # 178 <_AES_VMA_END>
200056e4:	0007f737          	lui	a4,0x7f
200056e8:	3ee7a823          	sw	a4,1008(a5)
200056ec:	0007e737          	lui	a4,0x7e
200056f0:	3ee7aa23          	sw	a4,1012(a5)
200056f4:	0680006f          	j	2000575c <blc_readFlashSize_autoConfigCustomFlashSector+0xac>
200056f8:	0347e05b          	bnec	a5,20,20005718 <blc_readFlashSize_autoConfigCustomFlashSector+0x68>
200056fc:	000007b7          	lui	a5,0x0
20005700:	17878793          	addi	a5,a5,376 # 178 <_AES_VMA_END>
20005704:	000ff737          	lui	a4,0xff
20005708:	3ee7a823          	sw	a4,1008(a5)
2000570c:	000fe737          	lui	a4,0xfe
20005710:	3ee7aa23          	sw	a4,1012(a5)
20005714:	0480006f          	j	2000575c <blc_readFlashSize_autoConfigCustomFlashSector+0xac>
20005718:	0357e05b          	bnec	a5,21,20005738 <blc_readFlashSize_autoConfigCustomFlashSector+0x88>
2000571c:	000007b7          	lui	a5,0x0
20005720:	17878793          	addi	a5,a5,376 # 178 <_AES_VMA_END>
20005724:	001ff737          	lui	a4,0x1ff
20005728:	3ee7a823          	sw	a4,1008(a5)
2000572c:	001fe737          	lui	a4,0x1fe
20005730:	3ee7aa23          	sw	a4,1012(a5)
20005734:	0280006f          	j	2000575c <blc_readFlashSize_autoConfigCustomFlashSector+0xac>
20005738:	0367e05b          	bnec	a5,22,20005758 <blc_readFlashSize_autoConfigCustomFlashSector+0xa8>
2000573c:	000007b7          	lui	a5,0x0
20005740:	17878793          	addi	a5,a5,376 # 178 <_AES_VMA_END>
20005744:	003ff737          	lui	a4,0x3ff
20005748:	3ee7a823          	sw	a4,1008(a5)
2000574c:	003fe737          	lui	a4,0x3fe
20005750:	3ee7aa23          	sw	a4,1012(a5)
20005754:	0080006f          	j	2000575c <blc_readFlashSize_autoConfigCustomFlashSector+0xac>
20005758:	0000006f          	j	20005758 <blc_readFlashSize_autoConfigCustomFlashSector+0xa8>
2000575c:	40f2                	c.lwsp	ra,28(sp)
2000575e:	6105                	c.addi16sp	sp,32
20005760:	8082                	c.jr	ra
	...

20005764 <FL_QUEUE_GET>:
20005764:	00554783          	lbu	a5,5(a0)
20005768:	00654703          	lbu	a4,6(a0)
2000576c:	04f70263          	beq	a4,a5,200057b0 <FL_QUEUE_GET+0x4c>
20005770:	1141                	c.addi	sp,-16
20005772:	c422                	c.swsp	s0,8(sp)
20005774:	842a                	c.mv	s0,a0
20005776:	c606                	c.swsp	ra,12(sp)
20005778:	00679713          	slli	a4,a5,0x6
2000577c:	852e                	c.mv	a0,a1
2000577e:	400c                	c.lw	a1,0(s0)
20005780:	97ba                	c.add	a5,a4
20005782:	95be                	c.add	a1,a5
20005784:	04100613          	li	a2,65
20005788:	2ed020ef          	jal	ra,20008274 <memcpy>
2000578c:	00540783          	lb	a5,5(s0)
20005790:	00740703          	lb	a4,7(s0)
20005794:	00440683          	lb	a3,4(s0)
20005798:	0785                	c.addi	a5,1
2000579a:	177d                	c.addi	a4,-1
2000579c:	8ff5                	c.and	a5,a3
2000579e:	00f402a3          	sb	a5,5(s0)
200057a2:	00e403a3          	sb	a4,7(s0)
200057a6:	40b2                	c.lwsp	ra,12(sp)
200057a8:	4422                	c.lwsp	s0,8(sp)
200057aa:	4505                	c.li	a0,1
200057ac:	0141                	c.addi	sp,16
200057ae:	8082                	c.jr	ra
200057b0:	4501                	c.li	a0,0
200057b2:	8082                	c.jr	ra

200057b4 <FL_QUEUE_ADD>:
200057b4:	00754703          	lbu	a4,7(a0)
200057b8:	00454783          	lbu	a5,4(a0)
200057bc:	04f70663          	beq	a4,a5,20005808 <FL_QUEUE_ADD+0x54>
200057c0:	1141                	c.addi	sp,-16
200057c2:	c422                	c.swsp	s0,8(sp)
200057c4:	c606                	c.swsp	ra,12(sp)
200057c6:	00654703          	lbu	a4,6(a0)
200057ca:	842a                	c.mv	s0,a0
200057cc:	00671793          	slli	a5,a4,0x6
200057d0:	4108                	c.lw	a0,0(a0)
200057d2:	97ba                	c.add	a5,a4
200057d4:	00f50533          	add	a0,a0,a5
200057d8:	04100613          	li	a2,65
200057dc:	299020ef          	jal	ra,20008274 <memcpy>
200057e0:	00640503          	lb	a0,6(s0)
200057e4:	00440703          	lb	a4,4(s0)
200057e8:	00740783          	lb	a5,7(s0)
200057ec:	0505                	c.addi	a0,1
200057ee:	8d79                	c.and	a0,a4
200057f0:	1c05355b          	bfos	a0,a0,7,0
200057f4:	0785                	c.addi	a5,1
200057f6:	00a40323          	sb	a0,6(s0)
200057fa:	00f403a3          	sb	a5,7(s0)
200057fe:	40b2                	c.lwsp	ra,12(sp)
20005800:	4422                	c.lwsp	s0,8(sp)
20005802:	0141                	c.addi	sp,16
20005804:	00008067          	ret
20005808:	557d                	c.li	a0,-1
2000580a:	8082                	c.jr	ra

2000580c <fl_rtc_timestamp_to_datetime>:
2000580c:	c22e4737          	lui	a4,0xc22e4
20005810:	50770713          	addi	a4,a4,1287 # c22e4507 <_DATA_LMA_START+0xa22dac2f>
20005814:	02e53733          	mulhu	a4,a0,a4
20005818:	888897b7          	lui	a5,0x88889
2000581c:	88978813          	addi	a6,a5,-1911 # 88888889 <_DATA_LMA_START+0x6887efb1>
20005820:	67d5                	c.lui	a5,0x15
20005822:	18078793          	addi	a5,a5,384 # 15180 <BIN_SIZE+0xb85e>
20005826:	7b200613          	li	a2,1970
2000582a:	00c59023          	sh	a2,0(a1)
2000582e:	6605                	c.lui	a2,0x1
20005830:	e1060613          	addi	a2,a2,-496 # e10 <scan_pri_chn_rx_fifo+0x90>
20005834:	51eb88b7          	lui	a7,0x51eb8
20005838:	8341                	c.srli	a4,0x10
2000583a:	c6f7157f          	msubr32	a0,a4,a5
2000583e:	91a2b7b7          	lui	a5,0x91a2b
20005842:	3c578793          	addi	a5,a5,965 # 91a2b3c5 <_DATA_LMA_START+0x71a21aed>
20005846:	02f537b3          	mulhu	a5,a0,a5
2000584a:	8faa                	c.mv	t6,a0
2000584c:	7b200693          	li	a3,1970
20005850:	51f88893          	addi	a7,a7,1311 # 51eb851f <_DATA_LMA_START+0x31eaec47>
20005854:	19000313          	li	t1,400
20005858:	06400e13          	li	t3,100
2000585c:	03053eb3          	mulhu	t4,a0,a6
20005860:	83ad                	c.srli	a5,0xb
20005862:	c6c79fff          	msubr32	t6,a5,a2
20005866:	00f58223          	sb	a5,4(a1)
2000586a:	030fb7b3          	mulhu	a5,t6,a6
2000586e:	03c00813          	li	a6,60
20005872:	005ed613          	srli	a2,t4,0x5
20005876:	c706157f          	msubr32	a0,a2,a6
2000587a:	00a58323          	sb	a0,6(a1)
2000587e:	8395                	c.srli	a5,0x5
20005880:	00f582a3          	sb	a5,5(a1)
20005884:	00c0006f          	j	20005890 <fl_rtc_timestamp_to_datetime+0x84>
20005888:	8f1d                	c.sub	a4,a5
2000588a:	86b2                	c.mv	a3,a2
2000588c:	00c59023          	sh	a2,0(a1)
20005890:	0036f813          	andi	a6,a3,3
20005894:	00168613          	addi	a2,a3,1
20005898:	00081e63          	bnez	a6,200058b4 <fl_rtc_timestamp_to_datetime+0xa8>
2000589c:	0316b533          	mulhu	a0,a3,a7
200058a0:	8f36                	c.mv	t5,a3
200058a2:	16e00793          	li	a5,366
200058a6:	8115                	c.srli	a0,0x5
200058a8:	c7c51f7f          	msubr32	t5,a0,t3
200058ac:	3c0f255b          	bfoz	a0,t5,15,0
200058b0:	00051e63          	bnez	a0,200058cc <fl_rtc_timestamp_to_datetime+0xc0>
200058b4:	0316b7b3          	mulhu	a5,a3,a7
200058b8:	8536                	c.mv	a0,a3
200058ba:	839d                	c.srli	a5,0x7
200058bc:	c667957f          	msubr32	a0,a5,t1
200058c0:	3c0527db          	bfoz	a5,a0,15,0
200058c4:	0017b793          	seqz	a5,a5
200058c8:	16d78793          	addi	a5,a5,365
200058cc:	3c06265b          	bfoz	a2,a2,15,0
200058d0:	faf77ce3          	bgeu	a4,a5,20005888 <fl_rtc_timestamp_to_datetime+0x7c>
200058d4:	51eb8537          	lui	a0,0x51eb8
200058d8:	51f50513          	addi	a0,a0,1311 # 51eb851f <_DATA_LMA_START+0x31eaec47>
200058dc:	02a6b533          	mulhu	a0,a3,a0
200058e0:	06400313          	li	t1,100
200058e4:	82b6                	c.mv	t0,a3
200058e6:	4785                	c.li	a5,1
200058e8:	200098b7          	lui	a7,0x20009
200058ec:	00f58123          	sb	a5,2(a1)
200058f0:	467d                	c.li	a2,31
200058f2:	4789                	c.li	a5,2
200058f4:	1a088893          	addi	a7,a7,416 # 200091a0 <days_in_month>
200058f8:	00555e13          	srli	t3,a0,0x5
200058fc:	c66e12ff          	msubr32	t0,t3,t1
20005900:	811d                	c.srli	a0,0x7
20005902:	19000e13          	li	t3,400
20005906:	c7c516ff          	msubr32	a3,a0,t3
2000590a:	3c02a35b          	bfoz	t1,t0,15,0
2000590e:	3c06a6db          	bfoz	a3,a3,15,0
20005912:	a029                	c.j	2000591c <fl_rtc_timestamp_to_datetime+0x110>
20005914:	00178793          	addi	a5,a5,1
20005918:	0ff7f793          	andi	a5,a5,255
2000591c:	00f88533          	add	a0,a7,a5
20005920:	02c76663          	bltu	a4,a2,2000594c <fl_rtc_timestamp_to_datetime+0x140>
20005924:	00f58123          	sb	a5,2(a1)
20005928:	8f11                	c.sub	a4,a2
2000592a:	fff54603          	lbu	a2,-1(a0)
2000592e:	be27e35b          	bnec	a5,2,20005914 <fl_rtc_timestamp_to_datetime+0x108>
20005932:	00160513          	addi	a0,a2,1
20005936:	00081763          	bnez	a6,20005944 <fl_rtc_timestamp_to_datetime+0x138>
2000593a:	00030563          	beqz	t1,20005944 <fl_rtc_timestamp_to_datetime+0x138>
2000593e:	0ff57613          	andi	a2,a0,255
20005942:	bfc9                	c.j	20005914 <fl_rtc_timestamp_to_datetime+0x108>
20005944:	fae1                	c.bnez	a3,20005914 <fl_rtc_timestamp_to_datetime+0x108>
20005946:	0ff57613          	andi	a2,a0,255
2000594a:	b7e9                	c.j	20005914 <fl_rtc_timestamp_to_datetime+0x108>
2000594c:	0705                	c.addi	a4,1
2000594e:	00e581a3          	sb	a4,3(a1)
20005952:	8082                	c.jr	ra

20005954 <analog_read_reg32.constprop.48>:
20005954:	300026f3          	csrr	a3,mstatus
20005958:	8aa1                	c.andi	a3,8
2000595a:	c299                	c.beqz	a3,20005960 <analog_read_reg32.constprop.48+0xc>
2000595c:	300477f3          	csrrci	a5,mstatus,8
20005960:	801407b7          	lui	a5,0x80140
20005964:	00400713          	li	a4,4
20005968:	18e781a3          	sb	a4,387(a5) # 80140183 <_DATA_LMA_START+0x601368ab>
2000596c:	06000713          	li	a4,96
20005970:	18e78023          	sb	a4,384(a5)
20005974:	04000613          	li	a2,64
20005978:	80140737          	lui	a4,0x80140
2000597c:	18c78123          	sb	a2,386(a5)
20005980:	18270783          	lb	a5,386(a4) # 80140182 <_DATA_LMA_START+0x601368aa>
20005984:	fe77fe5b          	bbs	a5,7,20005980 <analog_read_reg32.constprop.48+0x2c>
20005988:	18472503          	lw	a0,388(a4)
2000598c:	00068463          	beqz	a3,20005994 <analog_read_reg32.constprop.48+0x40>
20005990:	3006a6f3          	csrrs	a3,mstatus,a3
20005994:	8082                	c.jr	ra
20005996:	0001                	c.nop

20005998 <pwm_kick_32k_pad_times.constprop.19>:
20005998:	1141                	c.addi	sp,-16
2000599a:	09500593          	li	a1,149
2000599e:	04e00513          	li	a0,78
200059a2:	c606                	c.swsp	ra,12(sp)
200059a4:	c422                	c.swsp	s0,8(sp)
200059a6:	c226                	c.swsp	s1,4(sp)
200059a8:	01212023          	sw	s2,0(sp)
200059ac:	dfffd097          	auipc	ra,0xdfffd
200059b0:	01c080e7          	jalr	28(ra) # 29c8 <analog_write_reg8>
200059b4:	4581                	c.li	a1,0
200059b6:	4515                	c.li	a0,5
200059b8:	dfffd097          	auipc	ra,0xdfffd
200059bc:	010080e7          	jalr	16(ra) # 29c8 <analog_write_reg8>
200059c0:	801407b7          	lui	a5,0x80140
200059c4:	4705                	c.li	a4,1
200059c6:	00000437          	lui	s0,0x0
200059ca:	1ce78c23          	sb	a4,472(a5) # 801401d8 <_DATA_LMA_START+0x60136900>
200059ce:	4505                	c.li	a0,1
200059d0:	4749                	c.li	a4,18
200059d2:	44ad                	c.li	s1,11
200059d4:	17840413          	addi	s0,s0,376 # 178 <_AES_VMA_END>
200059d8:	1ee78423          	sb	a4,488(a5)
200059dc:	dfffd097          	auipc	ra,0xdfffd
200059e0:	880080e7          	jalr	-1920(ra) # 225c <delay_ms>
200059e4:	14fd                	c.addi	s1,-1
200059e6:	c09d                	c.beqz	s1,20005a0c <pwm_kick_32k_pad_times.constprop.19+0x74>
200059e8:	c61ff0ef          	jal	ra,20005648 <pwm_kick_32k_pad.constprop.20>
200059ec:	42c42783          	lw	a5,1068(s0)
200059f0:	9782                	c.jalr	a5
200059f2:	892a                	c.mv	s2,a0
200059f4:	13100513          	li	a0,305
200059f8:	dfffd097          	auipc	ra,0xdfffd
200059fc:	888080e7          	jalr	-1912(ra) # 2280 <delay_us>
20005a00:	42c42783          	lw	a5,1068(s0)
20005a04:	000780e7          	jalr	a5
20005a08:	fca90ee3          	beq	s2,a0,200059e4 <pwm_kick_32k_pad_times.constprop.19+0x4c>
20005a0c:	40b2                	c.lwsp	ra,12(sp)
20005a0e:	4422                	c.lwsp	s0,8(sp)
20005a10:	4492                	c.lwsp	s1,4(sp)
20005a12:	4902                	c.lwsp	s2,0(sp)
20005a14:	0141                	c.addi	sp,16
20005a16:	8082                	c.jr	ra
20005a18:	0001                	c.nop
	...

20005a1c <clock_cal_32k_rc>:
20005a1c:	1141                	c.addi	sp,-16
20005a1e:	04f00513          	li	a0,79
20005a22:	c606                	c.swsp	ra,12(sp)
20005a24:	00812423          	sw	s0,8(sp)
20005a28:	dfffd097          	auipc	ra,0xdfffd
20005a2c:	0e0080e7          	jalr	224(ra) # 2b08 <analog_read_reg8>
20005a30:	03f57593          	andi	a1,a0,63
20005a34:	0405e593          	ori	a1,a1,64
20005a38:	04f00513          	li	a0,79
20005a3c:	dfffd097          	auipc	ra,0xdfffd
20005a40:	f8c080e7          	jalr	-116(ra) # 29c8 <analog_write_reg8>
20005a44:	0f600593          	li	a1,246
20005a48:	0c600513          	li	a0,198
20005a4c:	dfffd097          	auipc	ra,0xdfffd
20005a50:	f7c080e7          	jalr	-132(ra) # 29c8 <analog_write_reg8>
20005a54:	0f700593          	li	a1,247
20005a58:	0c600513          	li	a0,198
20005a5c:	dfffd097          	auipc	ra,0xdfffd
20005a60:	f6c080e7          	jalr	-148(ra) # 29c8 <analog_write_reg8>
20005a64:	0cf00513          	li	a0,207
20005a68:	dfffd097          	auipc	ra,0xdfffd
20005a6c:	0a0080e7          	jalr	160(ra) # 2b08 <analog_read_reg8>
20005a70:	be657a5b          	bbc	a0,6,20005a64 <clock_cal_32k_rc+0x48>
20005a74:	0c900513          	li	a0,201
20005a78:	dfffd097          	auipc	ra,0xdfffd
20005a7c:	090080e7          	jalr	144(ra) # 2b08 <analog_read_reg8>
20005a80:	00a005b3          	add	a1,zero,a0
20005a84:	05100513          	li	a0,81
20005a88:	dfffd097          	auipc	ra,0xdfffd
20005a8c:	f40080e7          	jalr	-192(ra) # 29c8 <analog_write_reg8>
20005a90:	0ca00513          	li	a0,202
20005a94:	dfffd097          	auipc	ra,0xdfffd
20005a98:	074080e7          	jalr	116(ra) # 2b08 <analog_read_reg8>
20005a9c:	00a00433          	add	s0,zero,a0
20005aa0:	04f00513          	li	a0,79
20005aa4:	dfffd097          	auipc	ra,0xdfffd
20005aa8:	064080e7          	jalr	100(ra) # 2b08 <analog_read_reg8>
20005aac:	fc057513          	andi	a0,a0,-64
20005ab0:	008565b3          	or	a1,a0,s0
20005ab4:	0ff5f593          	andi	a1,a1,255
20005ab8:	04f00513          	li	a0,79
20005abc:	dfffd097          	auipc	ra,0xdfffd
20005ac0:	f0c080e7          	jalr	-244(ra) # 29c8 <analog_write_reg8>
20005ac4:	0f600593          	li	a1,246
20005ac8:	0c600513          	li	a0,198
20005acc:	dfffd097          	auipc	ra,0xdfffd
20005ad0:	efc080e7          	jalr	-260(ra) # 29c8 <analog_write_reg8>
20005ad4:	04f00513          	li	a0,79
20005ad8:	dfffd097          	auipc	ra,0xdfffd
20005adc:	030080e7          	jalr	48(ra) # 2b08 <analog_read_reg8>
20005ae0:	4422                	c.lwsp	s0,8(sp)
20005ae2:	40b2                	c.lwsp	ra,12(sp)
20005ae4:	03f57593          	andi	a1,a0,63
20005ae8:	04f00513          	li	a0,79
20005aec:	0141                	c.addi	sp,16
20005aee:	dfffd317          	auipc	t1,0xdfffd
20005af2:	eda30067          	jr	-294(t1) # 29c8 <analog_write_reg8>
	...

20005af8 <cpu_wakeup_no_deepretn_back_init>:
20005af8:	1141                	c.addi	sp,-16
20005afa:	c422                	c.swsp	s0,8(sp)
20005afc:	00000437          	lui	s0,0x0
20005b00:	17840413          	addi	s0,s0,376 # 178 <_AES_VMA_END>
20005b04:	c606                	c.swsp	ra,12(sp)
20005b06:	44544783          	lbu	a5,1093(s0)
20005b0a:	c3c9                	c.beqz	a5,20005b8c <cpu_wakeup_no_deepretn_back_init+0x94>
20005b0c:	03900513          	li	a0,57
20005b10:	dfffd097          	auipc	ra,0xdfffd
20005b14:	ff8080e7          	jalr	-8(ra) # 2b08 <analog_read_reg8>
20005b18:	48157c5b          	bbs	a0,1,20005bb0 <cpu_wakeup_no_deepretn_back_init+0xb8>
20005b1c:	03900513          	li	a0,57
20005b20:	dfffd097          	auipc	ra,0xdfffd
20005b24:	fe8080e7          	jalr	-24(ra) # 2b08 <analog_read_reg8>
20005b28:	00256593          	ori	a1,a0,2
20005b2c:	0ff5f593          	andi	a1,a1,255
20005b30:	03900513          	li	a0,57
20005b34:	dfffd097          	auipc	ra,0xdfffd
20005b38:	e94080e7          	jalr	-364(ra) # 29c8 <analog_write_reg8>
20005b3c:	e5dff0ef          	jal	ra,20005998 <pwm_kick_32k_pad_times.constprop.19>
20005b40:	80140737          	lui	a4,0x80140
20005b44:	06500793          	li	a5,101
20005b48:	1ef70a23          	sb	a5,500(a4) # 801401f4 <_DATA_LMA_START+0x6013691c>
20005b4c:	1c872783          	lw	a5,456(a4)
20005b50:	1e070a23          	sb	zero,500(a4)
20005b54:	4c47a7db          	bfoz	a5,a5,19,4
20005b58:	3807a75b          	bfoz	a4,a5,14,0
20005b5c:	c701                	c.beqz	a4,20005b64 <cpu_wakeup_no_deepretn_back_init+0x6c>
20005b5e:	44c45683          	lhu	a3,1100(s0)
20005b62:	ea8d                	c.bnez	a3,20005b94 <cpu_wakeup_no_deepretn_back_init+0x9c>
20005b64:	80140737          	lui	a4,0x80140
20005b68:	10471783          	lh	a5,260(a4) # 80140104 <_DATA_LMA_START+0x6013682c>
20005b6c:	06500793          	li	a5,101
20005b70:	1ef70a23          	sb	a5,500(a4)
20005b74:	1c872783          	lw	a5,456(a4)
20005b78:	1e070a23          	sb	zero,500(a4)
20005b7c:	8bbd                	c.andi	a5,15
20005b7e:	0037d55b          	beqc	a5,3,20005b88 <cpu_wakeup_no_deepretn_back_init+0x90>
20005b82:	4725                	c.li	a4,9
20005b84:	04f77063          	bgeu	a4,a5,20005bc4 <cpu_wakeup_no_deepretn_back_init+0xcc>
20005b88:	0000006f          	j	20005b88 <cpu_wakeup_no_deepretn_back_init+0x90>
20005b8c:	e91ff0ef          	jal	ra,20005a1c <clock_cal_32k_rc>
20005b90:	fb1ff06f          	j	20005b40 <cpu_wakeup_no_deepretn_back_init+0x48>
20005b94:	1ff7f793          	andi	a5,a5,511
20005b98:	3e878793          	addi	a5,a5,1000
20005b9c:	8325                	c.srli	a4,0x9
20005b9e:	1731                	c.addi	a4,-20
20005ba0:	44f41423          	sh	a5,1096(s0)
20005ba4:	4785                	c.li	a5,1
20005ba6:	44e41523          	sh	a4,1098(s0)
20005baa:	44f403a3          	sb	a5,1095(s0)
20005bae:	bf5d                	c.j	20005b64 <cpu_wakeup_no_deepretn_back_init+0x6c>
20005bb0:	00001537          	lui	a0,0x1
20005bb4:	77050513          	addi	a0,a0,1904 # 1770 <blt_ll_searchAddr_in_WhiteList+0x2c>
20005bb8:	dfffc097          	auipc	ra,0xdfffc
20005bbc:	6c8080e7          	jalr	1736(ra) # 2280 <delay_us>
20005bc0:	f81ff06f          	j	20005b40 <cpu_wakeup_no_deepretn_back_init+0x48>
20005bc4:	40b2                	c.lwsp	ra,12(sp)
20005bc6:	4422                	c.lwsp	s0,8(sp)
20005bc8:	0141                	c.addi	sp,16
20005bca:	8082                	c.jr	ra
20005bcc:	0001                	c.nop
	...

20005bd0 <blt_send_adv>:
20005bd0:	7139                	c.addi16sp	sp,-64
20005bd2:	da26                	c.swsp	s1,52(sp)
20005bd4:	000004b7          	lui	s1,0x0
20005bd8:	dc22                	c.swsp	s0,56(sp)
20005bda:	17848413          	addi	s0,s1,376 # 178 <_AES_VMA_END>
20005bde:	de06                	c.swsp	ra,60(sp)
20005be0:	d84a                	c.swsp	s2,48(sp)
20005be2:	d64e                	c.swsp	s3,44(sp)
20005be4:	d452                	c.swsp	s4,40(sp)
20005be6:	d256                	c.swsp	s5,36(sp)
20005be8:	d05a                	c.swsp	s6,32(sp)
20005bea:	ce5e                	c.swsp	s7,28(sp)
20005bec:	cc62                	c.swsp	s8,24(sp)
20005bee:	ca66                	c.swsp	s9,20(sp)
20005bf0:	c86a                	c.swsp	s10,16(sp)
20005bf2:	c66e                	c.swsp	s11,12(sp)
20005bf4:	18e40783          	lb	a5,398(s0)
20005bf8:	0ff7f793          	andi	a5,a5,255
20005bfc:	0227e65b          	bnec	a5,2,20005c28 <blt_send_adv+0x58>
20005c00:	801417b7          	lui	a5,0x80141
20005c04:	02900713          	li	a4,41
20005c08:	a0e78b23          	sb	a4,-1514(a5) # 80140a16 <_DATA_LMA_START+0x6013713e>
20005c0c:	f8000713          	li	a4,-128
20005c10:	82e78423          	sb	a4,-2008(a5)
20005c14:	04500693          	li	a3,69
20005c18:	a0d78123          	sb	a3,-1534(a5)
20005c1c:	a0e78023          	sb	a4,-1536(a5)
20005c20:	fff00713          	li	a4,-1
20005c24:	a2e79023          	sh	a4,-1504(a5)
20005c28:	18e40783          	lb	a5,398(s0)
20005c2c:	0ff7f793          	andi	a5,a5,255
20005c30:	0227e65b          	bnec	a5,2,20005c5c <blt_send_adv+0x8c>
20005c34:	801417b7          	lui	a5,0x80141
20005c38:	f8000713          	li	a4,-128
20005c3c:	a0e78023          	sb	a4,-1536(a5) # 80140a00 <_DATA_LMA_START+0x60137128>
20005c40:	02900693          	li	a3,41
20005c44:	a0d78b23          	sb	a3,-1514(a5)
20005c48:	82e78423          	sb	a4,-2008(a5)
20005c4c:	04500713          	li	a4,69
20005c50:	a0e78123          	sb	a4,-1534(a5)
20005c54:	fff00713          	li	a4,-1
20005c58:	a2e79023          	sh	a4,-1504(a5)
20005c5c:	4705                	c.li	a4,1
20005c5e:	2d144783          	lbu	a5,721(s0)
20005c62:	18e40723          	sb	a4,398(s0)
20005c66:	cf89                	c.beqz	a5,20005c80 <blt_send_adv+0xb0>
20005c68:	801407b7          	lui	a5,0x80140
20005c6c:	2007a703          	lw	a4,512(a5) # 80140200 <_DATA_LMA_START+0x60136928>
20005c70:	2e442683          	lw	a3,740(s0)
20005c74:	2e042783          	lw	a5,736(s0)
20005c78:	8f15                	c.sub	a4,a3
20005c7a:	0792                	c.slli	a5,0x4
20005c7c:	20e7e663          	bltu	a5,a4,20005e88 <blt_send_adv+0x2b8>
20005c80:	53842783          	lw	a5,1336(s0)
20005c84:	3e078c63          	beqz	a5,2000607c <blt_send_adv+0x4ac>
20005c88:	17848513          	addi	a0,s1,376
20005c8c:	9782                	c.jalr	a5
20005c8e:	17c40783          	lb	a5,380(s0)
20005c92:	0ff7f793          	andi	a5,a5,255
20005c96:	e7bd                	c.bnez	a5,20005d04 <blt_send_adv+0x134>
20005c98:	00000a93          	li	s5,0
20005c9c:	18d40783          	lb	a5,397(s0)
20005ca0:	0ff7f793          	andi	a5,a5,255
20005ca4:	1817de5b          	beqc	a5,1,20005e40 <blt_send_adv+0x270>
20005ca8:	18d40783          	lb	a5,397(s0)
20005cac:	0ff7f793          	andi	a5,a5,255
20005cb0:	0287ea5b          	bnec	a5,8,20005ce4 <blt_send_adv+0x114>
20005cb4:	80140737          	lui	a4,0x80140
20005cb8:	e40026b7          	lui	a3,0xe4002
20005cbc:	4785                	c.li	a5,1
20005cbe:	20f704a3          	sb	a5,521(a4) # 80140209 <_DATA_LMA_START+0x60136931>
20005cc2:	429c                	c.lw	a5,0(a3)
20005cc4:	20c42883          	lw	a7,524(s0)
20005cc8:	45c42803          	lw	a6,1116(s0)
20005ccc:	0027e793          	ori	a5,a5,2
20005cd0:	c29c                	c.sw	a5,0(a3)
20005cd2:	02200613          	li	a2,34
20005cd6:	006a8593          	addi	a1,s5,6 # ff0006 <FLASH_SIZE+0xef0006>
20005cda:	450d                	c.li	a0,3
20005cdc:	21172223          	sw	a7,516(a4)
20005ce0:	000800e7          	jalr	a6
20005ce4:	50f2                	c.lwsp	ra,60(sp)
20005ce6:	5462                	c.lwsp	s0,56(sp)
20005ce8:	54d2                	c.lwsp	s1,52(sp)
20005cea:	5942                	c.lwsp	s2,48(sp)
20005cec:	59b2                	c.lwsp	s3,44(sp)
20005cee:	5a22                	c.lwsp	s4,40(sp)
20005cf0:	5a92                	c.lwsp	s5,36(sp)
20005cf2:	5b02                	c.lwsp	s6,32(sp)
20005cf4:	4bf2                	c.lwsp	s7,28(sp)
20005cf6:	4c62                	c.lwsp	s8,24(sp)
20005cf8:	4cd2                	c.lwsp	s9,20(sp)
20005cfa:	4d42                	c.lwsp	s10,16(sp)
20005cfc:	4db2                	c.lwsp	s11,12(sp)
20005cfe:	4501                	c.li	a0,0
20005d00:	6121                	c.addi16sp	sp,64
20005d02:	8082                	c.jr	ra
20005d04:	f8050ae3          	beqz	a0,20005c98 <blt_send_adv+0xc8>
20005d08:	37c42783          	lw	a5,892(s0)
20005d0c:	cb81                	c.beqz	a5,20005d1c <blt_send_adv+0x14c>
20005d0e:	38444703          	lbu	a4,900(s0)
20005d12:	0017555b          	beqc	a4,1,20005d1c <blt_send_adv+0x14c>
20005d16:	4589                	c.li	a1,2
20005d18:	4505                	c.li	a0,1
20005d1a:	9782                	c.jalr	a5
20005d1c:	00440783          	lb	a5,4(s0)
20005d20:	19540703          	lb	a4,405(s0)
20005d24:	fdf7f793          	andi	a5,a5,-33
20005d28:	0057275b          	bfoz	a4,a4,0,5
20005d2c:	00e7e7b3          	or	a5,a5,a4
20005d30:	00f40223          	sb	a5,4(s0)
20005d34:	4c840b13          	addi	s6,s0,1224
20005d38:	dfffb097          	auipc	ra,0xdfffb
20005d3c:	4fc080e7          	jalr	1276(ra) # 1234 <ble_rf_set_tx_dma.constprop.17>
20005d40:	801007b7          	lui	a5,0x80100
20005d44:	f8000493          	li	s1,-128
20005d48:	4591                	c.li	a1,4
20005d4a:	855a                	c.mv	a0,s6
20005d4c:	509780a3          	sb	s1,1281(a5) # 80100501 <_DATA_LMA_START+0x600f6c29>
20005d50:	dfffc097          	auipc	ra,0xdfffc
20005d54:	068080e7          	jalr	104(ra) # 1db8 <ble_rf_set_rx_dma>
20005d58:	801417b7          	lui	a5,0x80141
20005d5c:	02900713          	li	a4,41
20005d60:	a0e78b23          	sb	a4,-1514(a5) # 80140a16 <_DATA_LMA_START+0x6013713e>
20005d64:	82978423          	sb	s1,-2008(a5)
20005d68:	04500713          	li	a4,69
20005d6c:	a0e78123          	sb	a4,-1534(a5)
20005d70:	1a442783          	lw	a5,420(s0)
20005d74:	12078a63          	beqz	a5,20005ea8 <blt_send_adv+0x2d8>
20005d78:	1a442703          	lw	a4,420(s0)
20005d7c:	801416b7          	lui	a3,0x80141
20005d80:	00544783          	lbu	a5,5(s0)
20005d84:	80e6a423          	sw	a4,-2040(a3) # 80140808 <_DATA_LMA_START+0x60136f30>
20005d88:	00555737          	lui	a4,0x555
20005d8c:	55570713          	addi	a4,a4,1365 # 555555 <FLASH_SIZE+0x455555>
20005d90:	82e6a223          	sw	a4,-2012(a3)
20005d94:	03c78993          	addi	s3,a5,60
20005d98:	00278713          	addi	a4,a5,2
20005d9c:	05400613          	li	a2,84
20005da0:	0795                	c.addi	a5,5
20005da2:	a0c69223          	sh	a2,-1532(a3)
20005da6:	5977275b          	bfoz	a4,a4,22,23
20005daa:	8789                	c.srai	a5,0x2
20005dac:	7a7d                	c.lui	s4,0xfffff
20005dae:	00799913          	slli	s2,s3,0x7
20005db2:	a0069e23          	sh	zero,-1508(a3)
20005db6:	8fd9                	c.or	a5,a4
20005db8:	380a0a13          	addi	s4,s4,896 # fffff380 <_DATA_LMA_START+0xdfff5aa8>
20005dbc:	6b85                	c.lui	s7,0x1
20005dbe:	c01c                	c.sw	a5,0(s0)
20005dc0:	ba090993          	addi	s3,s2,-1120
20005dc4:	4785                	c.li	a5,1
20005dc6:	9a4a                	c.add	s4,s2
20005dc8:	4d01                	c.li	s10,0
20005dca:	4a81                	c.li	s5,0
20005dcc:	801414b7          	lui	s1,0x80141
20005dd0:	f8000c13          	li	s8,-128
20005dd4:	80140cb7          	lui	s9,0x80140
20005dd8:	b40b8b93          	addi	s7,s7,-1216 # b40 <app_acl_txfifo+0x270>
20005ddc:	16f40f23          	sb	a5,382(s0)
20005de0:	2d044783          	lbu	a5,720(s0)
20005de4:	41a7d7b3          	sra	a5,a5,s10
20005de8:	4c07f65b          	bbs	a5,0,20005eb4 <blt_send_adv+0x2e4>
20005dec:	001d0d13          	addi	s10,s10,1
20005df0:	be3d685b          	bnec	s10,3,20005de0 <blt_send_adv+0x210>
20005df4:	801417b7          	lui	a5,0x80141
20005df8:	f8000713          	li	a4,-128
20005dfc:	a0e78023          	sb	a4,-1536(a5) # 80140a00 <_DATA_LMA_START+0x60137128>
20005e00:	577d                	c.li	a4,-1
20005e02:	a2e79023          	sh	a4,-1504(a5)
20005e06:	2d744483          	lbu	s1,727(s0)
20005e0a:	16040f23          	sb	zero,382(s0)
20005e0e:	4785                	c.li	a5,1
20005e10:	e897f6e3          	bgeu	a5,s1,20005c9c <blt_send_adv+0xcc>
20005e14:	dfffc097          	auipc	ra,0xdfffc
20005e18:	c6c080e7          	jalr	-916(ra) # 1a80 <trng_rand>
20005e1c:	02957533          	remu	a0,a0,s1
20005e20:	2d845483          	lhu	s1,728(s0)
20005e24:	6789                	c.lui	a5,0x2
20005e26:	71078793          	addi	a5,a5,1808 # 2710 <blt_ll_searchAddr_in_ResolvingList+0x44>
20005e2a:	9526                	c.add	a0,s1
20005e2c:	02f50533          	mul	a0,a0,a5
20005e30:	18d40783          	lb	a5,397(s0)
20005e34:	0ff7f793          	andi	a5,a5,255
20005e38:	2ca42e23          	sw	a0,732(s0)
20005e3c:	a617e65b          	bnec	a5,1,20005ca8 <blt_send_adv+0xd8>
20005e40:	801407b7          	lui	a5,0x80140
20005e44:	2007a703          	lw	a4,512(a5) # 80140200 <_DATA_LMA_START+0x60136928>
20005e48:	2cc42683          	lw	a3,716(s0)
20005e4c:	40e687b3          	sub	a5,a3,a4
20005e50:	1af05e63          	blez	a5,2000600c <blt_send_adv+0x43c>
20005e54:	00014637          	lui	a2,0x14
20005e58:	88060613          	addi	a2,a2,-1920 # 13880 <BIN_SIZE+0x9f5e>
20005e5c:	00c7a7b3          	slt	a5,a5,a2
20005e60:	2dc42603          	lw	a2,732(s0)
20005e64:	00079e63          	bnez	a5,20005e80 <blt_send_adv+0x2b0>
20005e68:	00e606b3          	add	a3,a2,a4
20005e6c:	2cd42623          	sw	a3,716(s0)
20005e70:	800007b7          	lui	a5,0x80000
20005e74:	973e                	c.add	a4,a5
20005e76:	801407b7          	lui	a5,0x80140
20005e7a:	20e7a223          	sw	a4,516(a5) # 80140204 <_DATA_LMA_START+0x6013692c>
20005e7e:	b59d                	c.j	20005ce4 <blt_send_adv+0x114>
20005e80:	96b2                	c.add	a3,a2
20005e82:	2cd42623          	sw	a3,716(s0)
20005e86:	b7ed                	c.j	20005e70 <blt_send_adv+0x2a0>
20005e88:	00000513          	li	a0,0
20005e8c:	2c0408a3          	sb	zero,721(s0)
20005e90:	dfffc097          	auipc	ra,0xdfffc
20005e94:	abc080e7          	jalr	-1348(ra) # 194c <bls_ll_setAdvEnable>
20005e98:	45c42783          	lw	a5,1116(s0)
20005e9c:	4601                	c.li	a2,0
20005e9e:	4581                	c.li	a1,0
20005ea0:	4505                	c.li	a0,1
20005ea2:	9782                	c.jalr	a5
20005ea4:	dddff06f          	j	20005c80 <blt_send_adv+0xb0>
20005ea8:	d6be9737          	lui	a4,0xd6be9
20005eac:	98e70713          	addi	a4,a4,-1650 # d6be898e <_DATA_LMA_START+0xb6bdf0b6>
20005eb0:	ecdff06f          	j	20005d7c <blt_send_adv+0x1ac>
20005eb4:	01a407b3          	add	a5,s0,s10
20005eb8:	a1848023          	sb	s8,-1536(s1) # 80140a00 <_DATA_LMA_START+0x60137128>
20005ebc:	3a878503          	lb	a0,936(a5)
20005ec0:	dfffc097          	auipc	ra,0xdfffc
20005ec4:	d38080e7          	jalr	-712(ra) # 1bf8 <rf_set_ble_channel>
20005ec8:	3d842783          	lw	a5,984(s0)
20005ecc:	470d                	c.li	a4,3
20005ece:	a2e49023          	sh	a4,-1504(s1)
20005ed2:	c399                	c.beqz	a5,20005ed8 <blt_send_adv+0x308>
20005ed4:	4505                	c.li	a0,1
20005ed6:	9782                	c.jalr	a5
20005ed8:	2d244783          	lbu	a5,722(s0)
20005edc:	1437d05b          	beqc	a5,3,2000601c <blt_send_adv+0x44c>
20005ee0:	47844783          	lbu	a5,1144(s0)
20005ee4:	02200713          	li	a4,34
20005ee8:	82e488a3          	sb	a4,-1999(s1)
20005eec:	4a81                	c.li	s5,0
20005eee:	cb89                	c.beqz	a5,20005f00 <blt_send_adv+0x330>
20005ef0:	30002af3          	csrr	s5,mstatus
20005ef4:	008afa93          	andi	s5,s5,8
20005ef8:	000a8463          	beqz	s5,20005f00 <blt_send_adv+0x330>
20005efc:	300477f3          	csrrci	a5,mstatus,8
20005f00:	200ca583          	lw	a1,512(s9) # 80140200 <_DATA_LMA_START+0x60136928>
20005f04:	08700513          	li	a0,135
20005f08:	06458593          	addi	a1,a1,100
20005f0c:	dfffb097          	auipc	ra,0xdfffb
20005f10:	370080e7          	jalr	880(ra) # 127c <rf_start_fsm.constprop.16>
20005f14:	53344783          	lbu	a5,1331(s0)
20005f18:	200cad83          	lw	s11,512(s9)
20005f1c:	4c042623          	sw	zero,1228(s0)
20005f20:	c3d5                	c.beqz	a5,20005fc4 <blt_send_adv+0x3f4>
20005f22:	4601                	c.li	a2,0
20005f24:	4589                	c.li	a1,2
20005f26:	453d                	c.li	a0,15
20005f28:	dfffd097          	auipc	ra,0xdfffd
20005f2c:	a0c080e7          	jalr	-1524(ra) # 2934 <cpu_stall_WakeUp_By_RF_SystemTick>
20005f30:	3d842783          	lw	a5,984(s0)
20005f34:	4709                	c.li	a4,2
20005f36:	a2e49023          	sh	a4,-1504(s1)
20005f3a:	c399                	c.beqz	a5,20005f40 <blt_send_adv+0x370>
20005f3c:	4509                	c.li	a0,2
20005f3e:	9782                	c.jalr	a5
20005f40:	53344783          	lbu	a5,1331(s0)
20005f44:	0a079863          	bnez	a5,20005ff4 <blt_send_adv+0x424>
20005f48:	53c44783          	lbu	a5,1340(s0)
20005f4c:	4705                	c.li	a4,1
20005f4e:	e7bd                	c.bnez	a5,20005fbc <blt_send_adv+0x3ec>
20005f50:	0100006f          	j	20005f60 <blt_send_adv+0x390>
20005f54:	200ca783          	lw	a5,512(s9)
20005f58:	41b787b3          	sub	a5,a5,s11
20005f5c:	0127f663          	bgeu	a5,s2,20005f68 <blt_send_adv+0x398>
20005f60:	4cc42783          	lw	a5,1228(s0)
20005f64:	fe0788e3          	beqz	a5,20005f54 <blt_send_adv+0x384>
20005f68:	4cc42783          	lw	a5,1228(s0)
20005f6c:	06079c63          	bnez	a5,20005fe4 <blt_send_adv+0x414>
20005f70:	47844783          	lbu	a5,1144(s0)
20005f74:	00078663          	beqz	a5,20005f80 <blt_send_adv+0x3b0>
20005f78:	000a8463          	beqz	s5,20005f80 <blt_send_adv+0x3b0>
20005f7c:	300aaaf3          	csrrs	s5,mstatus,s5
20005f80:	17e40783          	lb	a5,382(s0)
20005f84:	3d842703          	lw	a4,984(s0)
20005f88:	0ff7f793          	andi	a5,a5,255
20005f8c:	0427d65b          	beqc	a5,2,20005fd8 <blt_send_adv+0x408>
20005f90:	01600ab3          	add	s5,zero,s6
20005f94:	0d05                	c.addi	s10,1
20005f96:	e4070de3          	beqz	a4,20005df0 <blt_send_adv+0x220>
20005f9a:	4501                	c.li	a0,0
20005f9c:	9702                	c.jalr	a4
20005f9e:	a43d615b          	bnec	s10,3,20005de0 <blt_send_adv+0x210>
20005fa2:	bd89                	c.j	20005df4 <blt_send_adv+0x224>
20005fa4:	200ca783          	lw	a5,512(s9)
20005fa8:	41b787b3          	sub	a5,a5,s11
20005fac:	fb27fee3          	bgeu	a5,s2,20005f68 <blt_send_adv+0x398>
20005fb0:	200ca783          	lw	a5,512(s9)
20005fb4:	41b787b3          	sub	a5,a5,s11
20005fb8:	0af9ec63          	bltu	s3,a5,20006070 <blt_send_adv+0x4a0>
20005fbc:	4cc42783          	lw	a5,1228(s0)
20005fc0:	d3f5                	c.beqz	a5,20005fa4 <blt_send_adv+0x3d4>
20005fc2:	b75d                	c.j	20005f68 <blt_send_adv+0x398>
20005fc4:	a2049783          	lh	a5,-1504(s1)
20005fc8:	f617f45b          	bbs	a5,1,20005f30 <blt_send_adv+0x360>
20005fcc:	a2049783          	lh	a5,-1504(s1)
20005fd0:	be17fa5b          	bbc	a5,1,20005fc4 <blt_send_adv+0x3f4>
20005fd4:	f5dff06f          	j	20005f30 <blt_send_adv+0x360>
20005fd8:	cb55                	c.beqz	a4,2000608c <blt_send_adv+0x4bc>
20005fda:	4501                	c.li	a0,0
20005fdc:	9702                	c.jalr	a4
20005fde:	8ada                	c.mv	s5,s6
20005fe0:	e15ff06f          	j	20005df4 <blt_send_adv+0x224>
20005fe4:	01b00533          	add	a0,zero,s11
20005fe8:	dfffe097          	auipc	ra,0xdfffe
20005fec:	af0080e7          	jalr	-1296(ra) # 3ad8 <bls_ll_procRxPacket.constprop.14>
20005ff0:	f81ff06f          	j	20005f70 <blt_send_adv+0x3a0>
20005ff4:	200ca603          	lw	a2,512(s9)
20005ff8:	4581                	c.li	a1,0
20005ffa:	965e                	c.add	a2,s7
20005ffc:	00100513          	li	a0,1
20006000:	dfffd097          	auipc	ra,0xdfffd
20006004:	934080e7          	jalr	-1740(ra) # 2934 <cpu_stall_WakeUp_By_RF_SystemTick>
20006008:	f41ff06f          	j	20005f48 <blt_send_adv+0x378>
2000600c:	7631                	c.lui	a2,0xfffec
2000600e:	78160613          	addi	a2,a2,1921 # fffec781 <_DATA_LMA_START+0xdffe2ea9>
20006012:	00c7a7b3          	slt	a5,a5,a2
20006016:	0017c793          	xori	a5,a5,1
2000601a:	b599                	c.j	20005e60 <blt_send_adv+0x290>
2000601c:	200ca583          	lw	a1,512(s9)
20006020:	08500513          	li	a0,133
20006024:	06458593          	addi	a1,a1,100
20006028:	dfffb097          	auipc	ra,0xdfffb
2000602c:	254080e7          	jalr	596(ra) # 127c <rf_start_fsm.constprop.16>
20006030:	200ca703          	lw	a4,512(s9)
20006034:	53344783          	lbu	a5,1331(s0)
20006038:	c785                	c.beqz	a5,20006060 <blt_send_adv+0x490>
2000603a:	200ca603          	lw	a2,512(s9)
2000603e:	4589                	c.li	a1,2
20006040:	9652                	c.add	a2,s4
20006042:	453d                	c.li	a0,15
20006044:	dfffd097          	auipc	ra,0xdfffd
20006048:	8f0080e7          	jalr	-1808(ra) # 2934 <cpu_stall_WakeUp_By_RF_SystemTick>
2000604c:	3d842703          	lw	a4,984(s0)
20006050:	f45ff06f          	j	20005f94 <blt_send_adv+0x3c4>
20006054:	200ca783          	lw	a5,512(s9)
20006058:	40e787b3          	sub	a5,a5,a4
2000605c:	0147f663          	bgeu	a5,s4,20006068 <blt_send_adv+0x498>
20006060:	a2049783          	lh	a5,-1504(s1)
20006064:	be17f85b          	bbc	a5,1,20006054 <blt_send_adv+0x484>
20006068:	3d842703          	lw	a4,984(s0)
2000606c:	f29ff06f          	j	20005f94 <blt_send_adv+0x3c4>
20006070:	84048783          	lb	a5,-1984(s1)
20006074:	8b9d                	c.andi	a5,7
20006076:	f4f763e3          	bltu	a4,a5,20005fbc <blt_send_adv+0x3ec>
2000607a:	b5fd                	c.j	20005f68 <blt_send_adv+0x398>
2000607c:	17c40783          	lb	a5,380(s0)
20006080:	0ff7f793          	andi	a5,a5,255
20006084:	c80792e3          	bnez	a5,20005d08 <blt_send_adv+0x138>
20006088:	c11ff06f          	j	20005c98 <blt_send_adv+0xc8>
2000608c:	8ada                	c.mv	s5,s6
2000608e:	b39d                	c.j	20005df4 <blt_send_adv+0x224>
20006090:	0001                	c.nop
	...

20006094 <FL_QUEUE_FIND>:
20006094:	4785                	c.li	a5,1
20006096:	06c7f763          	bgeu	a5,a2,20006104 <FL_QUEUE_FIND+0x70>
2000609a:	1101                	c.addi	sp,-32
2000609c:	cc22                	c.swsp	s0,24(sp)
2000609e:	ca26                	c.swsp	s1,20(sp)
200060a0:	c84a                	c.swsp	s2,16(sp)
200060a2:	c64e                	c.swsp	s3,12(sp)
200060a4:	c452                	c.swsp	s4,8(sp)
200060a6:	ce06                	c.swsp	ra,28(sp)
200060a8:	892a                	c.mv	s2,a0
200060aa:	8a32                	c.mv	s4,a2
200060ac:	00158993          	addi	s3,a1,1
200060b0:	4481                	c.li	s1,0
200060b2:	4401                	c.li	s0,0
200060b4:	0140006f          	j	200060c8 <FL_QUEUE_FIND+0x34>
200060b8:	00494783          	lbu	a5,4(s2)
200060bc:	00140413          	addi	s0,s0,1
200060c0:	04148493          	addi	s1,s1,65
200060c4:	0287c663          	blt	a5,s0,200060f0 <FL_QUEUE_FIND+0x5c>
200060c8:	00092503          	lw	a0,0(s2)
200060cc:	8652                	c.mv	a2,s4
200060ce:	9526                	c.add	a0,s1
200060d0:	85ce                	c.mv	a1,s3
200060d2:	0505                	c.addi	a0,1
200060d4:	150020ef          	jal	ra,20008224 <memcmp>
200060d8:	f165                	c.bnez	a0,200060b8 <FL_QUEUE_FIND+0x24>
200060da:	1c04355b          	bfos	a0,s0,7,0
200060de:	40f2                	c.lwsp	ra,28(sp)
200060e0:	4462                	c.lwsp	s0,24(sp)
200060e2:	44d2                	c.lwsp	s1,20(sp)
200060e4:	4942                	c.lwsp	s2,16(sp)
200060e6:	49b2                	c.lwsp	s3,12(sp)
200060e8:	4a22                	c.lwsp	s4,8(sp)
200060ea:	6105                	c.addi16sp	sp,32
200060ec:	00008067          	ret
200060f0:	40f2                	c.lwsp	ra,28(sp)
200060f2:	4462                	c.lwsp	s0,24(sp)
200060f4:	44d2                	c.lwsp	s1,20(sp)
200060f6:	4942                	c.lwsp	s2,16(sp)
200060f8:	49b2                	c.lwsp	s3,12(sp)
200060fa:	4a22                	c.lwsp	s4,8(sp)
200060fc:	557d                	c.li	a0,-1
200060fe:	6105                	c.addi16sp	sp,32
20006100:	00008067          	ret
20006104:	557d                	c.li	a0,-1
20006106:	8082                	c.jr	ra
20006108:	0001                	c.nop
	...

2000610c <blt_soft_timer_delete_by_index.part.0>:
2000610c:	1141                	c.addi	sp,-16
2000610e:	c04a                	c.swsp	s2,0(sp)
20006110:	00000937          	lui	s2,0x0
20006114:	17890913          	addi	s2,s2,376 # 178 <_AES_VMA_END>
20006118:	5a494783          	lbu	a5,1444(s2)
2000611c:	c606                	c.swsp	ra,12(sp)
2000611e:	c422                	c.swsp	s0,8(sp)
20006120:	c226                	c.swsp	s1,4(sp)
20006122:	17fd                	c.addi	a5,-1
20006124:	02f55463          	bge	a0,a5,2000614c <blt_soft_timer_delete_by_index.part.0+0x40>
20006128:	57490413          	addi	s0,s2,1396
2000612c:	47b1                	c.li	a5,12
2000612e:	c4f5147f          	maddr32	s0,a0,a5
20006132:	84aa                	c.mv	s1,a0
20006134:	8522                	c.mv	a0,s0
20006136:	0431                	c.addi	s0,12
20006138:	4631                	c.li	a2,12
2000613a:	85a2                	c.mv	a1,s0
2000613c:	138020ef          	jal	ra,20008274 <memcpy>
20006140:	5a494783          	lbu	a5,1444(s2)
20006144:	0485                	c.addi	s1,1
20006146:	17fd                	c.addi	a5,-1
20006148:	fef4c6e3          	blt	s1,a5,20006134 <blt_soft_timer_delete_by_index.part.0+0x28>
2000614c:	40b2                	c.lwsp	ra,12(sp)
2000614e:	4422                	c.lwsp	s0,8(sp)
20006150:	5af90223          	sb	a5,1444(s2)
20006154:	4492                	c.lwsp	s1,4(sp)
20006156:	4902                	c.lwsp	s2,0(sp)
20006158:	0141                	c.addi	sp,16
2000615a:	8082                	c.jr	ra
2000615c:	0001                	c.nop
	...

20006160 <blt_soft_timer_sort>:
20006160:	7179                	c.addi16sp	sp,-48
20006162:	000007b7          	lui	a5,0x0
20006166:	ce4e                	c.swsp	s3,28(sp)
20006168:	71c7c983          	lbu	s3,1820(a5) # 71c <blt_timer+0x30>
2000616c:	d606                	c.swsp	ra,44(sp)
2000616e:	19fd                	c.addi	s3,-1
20006170:	d422                	c.swsp	s0,40(sp)
20006172:	d226                	c.swsp	s1,36(sp)
20006174:	d04a                	c.swsp	s2,32(sp)
20006176:	cc52                	c.swsp	s4,24(sp)
20006178:	ca56                	c.swsp	s5,20(sp)
2000617a:	478d                	c.li	a5,3
2000617c:	0ff9f713          	andi	a4,s3,255
20006180:	00000513          	li	a0,0
20006184:	02e7ec63          	bltu	a5,a4,200061bc <blt_soft_timer_sort+0x5c>
20006188:	02098863          	beqz	s3,200061b8 <blt_soft_timer_sort+0x58>
2000618c:	00000ab7          	lui	s5,0x0
20006190:	6eca8a93          	addi	s5,s5,1772 # 6ec <blt_timer>
20006194:	40000a37          	lui	s4,0x40000
20006198:	8456                	c.mv	s0,s5
2000619a:	4481                	c.li	s1,0
2000619c:	405c                	c.lw	a5,4(s0)
2000619e:	4818                	c.lw	a4,16(s0)
200061a0:	00c40913          	addi	s2,s0,12
200061a4:	8f99                	c.sub	a5,a4
200061a6:	0485                	c.addi	s1,1
200061a8:	0347e463          	bltu	a5,s4,200061d0 <blt_soft_timer_sort+0x70>
200061ac:	844a                	c.mv	s0,s2
200061ae:	ff34c7e3          	blt	s1,s3,2000619c <blt_soft_timer_sort+0x3c>
200061b2:	19fd                	c.addi	s3,-1
200061b4:	fe0992e3          	bnez	s3,20006198 <blt_soft_timer_sort+0x38>
200061b8:	00100513          	li	a0,1
200061bc:	50b2                	c.lwsp	ra,44(sp)
200061be:	5422                	c.lwsp	s0,40(sp)
200061c0:	5492                	c.lwsp	s1,36(sp)
200061c2:	5902                	c.lwsp	s2,32(sp)
200061c4:	49f2                	c.lwsp	s3,28(sp)
200061c6:	4a62                	c.lwsp	s4,24(sp)
200061c8:	4ad2                	c.lwsp	s5,20(sp)
200061ca:	6145                	c.addi16sp	sp,48
200061cc:	00008067          	ret
200061d0:	85a2                	c.mv	a1,s0
200061d2:	4631                	c.li	a2,12
200061d4:	00410513          	addi	a0,sp,4
200061d8:	09c020ef          	jal	ra,20008274 <memcpy>
200061dc:	85ca                	c.mv	a1,s2
200061de:	4631                	c.li	a2,12
200061e0:	00800533          	add	a0,zero,s0
200061e4:	090020ef          	jal	ra,20008274 <memcpy>
200061e8:	4631                	c.li	a2,12
200061ea:	004c                	c.addi4spn	a1,sp,4
200061ec:	01200533          	add	a0,zero,s2
200061f0:	084020ef          	jal	ra,20008274 <memcpy>
200061f4:	bf65                	c.j	200061ac <blt_soft_timer_sort+0x4c>
	...

200061f8 <blt_soft_timer_process>:
200061f8:	1101                	c.addi	sp,-32
200061fa:	cc22                	c.swsp	s0,24(sp)
200061fc:	00000437          	lui	s0,0x0
20006200:	801407b7          	lui	a5,0x80140
20006204:	17840413          	addi	s0,s0,376 # 178 <_AES_VMA_END>
20006208:	ce06                	c.swsp	ra,28(sp)
2000620a:	ca26                	c.swsp	s1,20(sp)
2000620c:	c84a                	c.swsp	s2,16(sp)
2000620e:	c64e                	c.swsp	s3,12(sp)
20006210:	c452                	c.swsp	s4,8(sp)
20006212:	c256                	c.swsp	s5,4(sp)
20006214:	c05a                	c.swsp	s6,0(sp)
20006216:	2007aa03          	lw	s4,512(a5) # 80140200 <_DATA_LMA_START+0x60136928>
2000621a:	5a444783          	lbu	a5,1444(s0)
2000621e:	cfd9                	c.beqz	a5,200062bc <blt_soft_timer_process+0xc4>
20006220:	6905                	c.lui	s2,0x1
20006222:	57842783          	lw	a5,1400(s0)
20006226:	80090913          	addi	s2,s2,-2048 # 800 <blt_buff_prepare_write+0xb8>
2000622a:	9952                	c.add	s2,s4
2000622c:	40f907b3          	sub	a5,s2,a5
20006230:	03d09737          	lui	a4,0x3d09
20006234:	06e7fa63          	bgeu	a5,a4,200062a8 <blt_soft_timer_process+0xb0>
20006238:	03d09b37          	lui	s6,0x3d09
2000623c:	57440493          	addi	s1,s0,1396
20006240:	4981                	c.li	s3,0
20006242:	4a81                	c.li	s5,0
20006244:	0367f863          	bgeu	a5,s6,20006274 <blt_soft_timer_process+0x7c>
20006248:	409c                	c.lw	a5,0(s1)
2000624a:	c78d                	c.beqz	a5,20006274 <blt_soft_timer_process+0x7c>
2000624c:	9782                	c.jalr	a5
2000624e:	5a444783          	lbu	a5,1444(s0)
20006252:	06054b63          	bltz	a0,200062c8 <blt_soft_timer_process+0xd0>
20006256:	e159                	c.bnez	a0,200062dc <blt_soft_timer_process+0xe4>
20006258:	4498                	c.lw	a4,8(s1)
2000625a:	4a85                	c.li	s5,1
2000625c:	9752                	c.add	a4,s4
2000625e:	c0d8                	c.sw	a4,4(s1)
20006260:	0985                	c.addi	s3,1
20006262:	04b1                	c.addi	s1,12
20006264:	00f9de63          	bge	s3,a5,20006280 <blt_soft_timer_process+0x88>
20006268:	0044a783          	lw	a5,4(s1)
2000626c:	40f907b3          	sub	a5,s2,a5
20006270:	fd67ece3          	bltu	a5,s6,20006248 <blt_soft_timer_process+0x50>
20006274:	5a444783          	lbu	a5,1444(s0)
20006278:	0985                	c.addi	s3,1
2000627a:	04b1                	c.addi	s1,12
2000627c:	fef9c6e3          	blt	s3,a5,20006268 <blt_soft_timer_process+0x70>
20006280:	02078e63          	beqz	a5,200062bc <blt_soft_timer_process+0xc4>
20006284:	060a9463          	bnez	s5,200062ec <blt_soft_timer_process+0xf4>
20006288:	57842703          	lw	a4,1400(s0)
2000628c:	02dc77b7          	lui	a5,0x2dc7
20006290:	41470a33          	sub	s4,a4,s4
20006294:	bff78793          	addi	a5,a5,-1025 # 2dc6bff <FLASH_SIZE+0x2cc6bff>
20006298:	0347e263          	bltu	a5,s4,200062bc <blt_soft_timer_process+0xc4>
2000629c:	00100793          	li	a5,1
200062a0:	4ae42223          	sw	a4,1188(s0)
200062a4:	48f40f23          	sb	a5,1182(s0)
200062a8:	40f2                	c.lwsp	ra,28(sp)
200062aa:	4462                	c.lwsp	s0,24(sp)
200062ac:	44d2                	c.lwsp	s1,20(sp)
200062ae:	4942                	c.lwsp	s2,16(sp)
200062b0:	49b2                	c.lwsp	s3,12(sp)
200062b2:	4a22                	c.lwsp	s4,8(sp)
200062b4:	4a92                	c.lwsp	s5,4(sp)
200062b6:	4b02                	c.lwsp	s6,0(sp)
200062b8:	6105                	c.addi16sp	sp,32
200062ba:	8082                	c.jr	ra
200062bc:	4a042223          	sw	zero,1188(s0)
200062c0:	48040f23          	sb	zero,1182(s0)
200062c4:	fe5ff06f          	j	200062a8 <blt_soft_timer_process+0xb0>
200062c8:	0ff9f513          	andi	a0,s3,255
200062cc:	f8f57ae3          	bgeu	a0,a5,20006260 <blt_soft_timer_process+0x68>
200062d0:	e3dff0ef          	jal	ra,2000610c <blt_soft_timer_delete_by_index.part.0>
200062d4:	5a444783          	lbu	a5,1444(s0)
200062d8:	fa1ff06f          	j	20006278 <blt_soft_timer_process+0x80>
200062dc:	0512                	c.slli	a0,0x4
200062de:	01450733          	add	a4,a0,s4
200062e2:	4a85                	c.li	s5,1
200062e4:	c488                	c.sw	a0,8(s1)
200062e6:	c0d8                	c.sw	a4,4(s1)
200062e8:	f79ff06f          	j	20006260 <blt_soft_timer_process+0x68>
200062ec:	e75ff0ef          	jal	ra,20006160 <blt_soft_timer_sort>
200062f0:	bf61                	c.j	20006288 <blt_soft_timer_process+0x90>
	...

200062f4 <blt_soft_timer_add>:
200062f4:	1141                	c.addi	sp,-16
200062f6:	c422                	c.swsp	s0,8(sp)
200062f8:	00000437          	lui	s0,0x0
200062fc:	801407b7          	lui	a5,0x80140
20006300:	17840413          	addi	s0,s0,376 # 178 <_AES_VMA_END>
20006304:	c606                	c.swsp	ra,12(sp)
20006306:	2007a703          	lw	a4,512(a5) # 80140200 <_DATA_LMA_START+0x60136928>
2000630a:	5a444783          	lbu	a5,1444(s0)
2000630e:	468d                	c.li	a3,3
20006310:	00f6f863          	bgeu	a3,a5,20006320 <blt_soft_timer_add+0x2c>
20006314:	40b2                	c.lwsp	ra,12(sp)
20006316:	4422                	c.lwsp	s0,8(sp)
20006318:	4501                	c.li	a0,0
2000631a:	0141                	c.addi	sp,16
2000631c:	00008067          	ret
20006320:	46b1                	c.li	a3,12
20006322:	8622                	c.mv	a2,s0
20006324:	c4d7967f          	maddr32	a2,a5,a3
20006328:	0592                	c.slli	a1,0x4
2000632a:	0785                	c.addi	a5,1
2000632c:	972e                	c.add	a4,a1
2000632e:	5af40223          	sb	a5,1444(s0)
20006332:	56a62a23          	sw	a0,1396(a2)
20006336:	56b62e23          	sw	a1,1404(a2)
2000633a:	56e62c23          	sw	a4,1400(a2)
2000633e:	350d                	c.jal	20006160 <blt_soft_timer_sort>
20006340:	57842783          	lw	a5,1400(s0)
20006344:	4505                	c.li	a0,1
20006346:	4af42223          	sw	a5,1188(s0)
2000634a:	4785                	c.li	a5,1
2000634c:	48f40f23          	sb	a5,1182(s0)
20006350:	40b2                	c.lwsp	ra,12(sp)
20006352:	4422                	c.lwsp	s0,8(sp)
20006354:	0141                	c.addi	sp,16
20006356:	8082                	c.jr	ra

20006358 <fl_master_ProccesRSP_cbk>:
20006358:	7151                	c.addi16sp	sp,-240
2000635a:	00ac                	c.addi4spn	a1,sp,72
2000635c:	81df950b          	addigp	a0,-2020 # 8001c <G_HANDLE_MASTER_CONTAINER>
20006360:	d786                	c.swsp	ra,236(sp)
20006362:	d5a2                	c.swsp	s0,232(sp)
20006364:	d3a6                	c.swsp	s1,228(sp)
20006366:	d1ca                	c.swsp	s2,224(sp)
20006368:	cfce                	c.swsp	s3,220(sp)
2000636a:	cdd2                	c.swsp	s4,216(sp)
2000636c:	cbd6                	c.swsp	s5,212(sp)
2000636e:	c9da                	c.swsp	s6,208(sp)
20006370:	bf4ff0ef          	jal	ra,20005764 <FL_QUEUE_GET>
20006374:	10050063          	beqz	a0,20006474 <fl_master_ProccesRSP_cbk+0x11c>
20006378:	00bc                	c.addi4spn	a5,sp,72
2000637a:	0178                	c.addi4spn	a4,sp,140
2000637c:	08410693          	addi	a3,sp,132
20006380:	4388                	c.lw	a0,0(a5)
20006382:	43cc                	c.lw	a1,4(a5)
20006384:	4790                	c.lw	a2,8(a5)
20006386:	c308                	c.sw	a0,0(a4)
20006388:	c34c                	c.sw	a1,4(a4)
2000638a:	c710                	c.sw	a2,8(a4)
2000638c:	07b1                	c.addi	a5,12
2000638e:	0731                	c.addi	a4,12
20006390:	fed798e3          	bne	a5,a3,20006380 <fl_master_ProccesRSP_cbk+0x28>
20006394:	4394                	c.lw	a3,0(a5)
20006396:	c314                	c.sw	a3,0(a4)
20006398:	00478783          	lb	a5,4(a5)
2000639c:	00f70223          	sb	a5,4(a4) # 3d09004 <FLASH_SIZE+0x3c09004>
200063a0:	08c14783          	lbu	a5,140(sp)
200063a4:	03b7ec5b          	bnec	a5,27,200063dc <fl_master_ProccesRSP_cbk+0x84>
200063a8:	466d                	c.li	a2,27
200063aa:	08d10593          	addi	a1,sp,141
200063ae:	1068                	c.addi4spn	a0,sp,44
200063b0:	6c5010ef          	jal	ra,20008274 <memcpy>
200063b4:	57b2                	c.lwsp	a5,44(sp)
200063b6:	c83e                	c.swsp	a5,16(sp)
200063b8:	57c2                	c.lwsp	a5,48(sp)
200063ba:	ca3e                	c.swsp	a5,20(sp)
200063bc:	57d2                	c.lwsp	a5,52(sp)
200063be:	cc3e                	c.swsp	a5,24(sp)
200063c0:	57e2                	c.lwsp	a5,56(sp)
200063c2:	ce3e                	c.swsp	a5,28(sp)
200063c4:	57f2                	c.lwsp	a5,60(sp)
200063c6:	d03e                	c.swsp	a5,32(sp)
200063c8:	4786                	c.lwsp	a5,64(sp)
200063ca:	d23e                	c.swsp	a5,36(sp)
200063cc:	04411783          	lh	a5,68(sp)
200063d0:	02f11423          	sh	a5,40(sp)
200063d4:	04610783          	lb	a5,70(sp)
200063d8:	02f10523          	sb	a5,42(sp)
200063dc:	813f940b          	addigp	s0,-2030 # 80012 <FmDebug>
200063e0:	00041783          	lh	a5,0(s0)
200063e4:	01014483          	lbu	s1,16(sp)
200063e8:	5677f25b          	bbs	a5,7,2000654c <fl_master_ProccesRSP_cbk+0x1f4>
200063ec:	0fe00793          	li	a5,254
200063f0:	0cf49e63          	bne	s1,a5,200064cc <fl_master_ProccesRSP_cbk+0x174>
200063f4:	01514483          	lbu	s1,21(sp)
200063f8:	01614703          	lbu	a4,22(sp)
200063fc:	04e2                	c.slli	s1,0x18
200063fe:	0742                	c.slli	a4,0x10
20006400:	01814603          	lbu	a2,24(sp)
20006404:	01714783          	lbu	a5,23(sp)
20006408:	8cd9                	c.or	s1,a4
2000640a:	00041683          	lh	a3,0(s0)
2000640e:	8cd1                	c.or	s1,a2
20006410:	07a2                	c.slli	a5,0x8
20006412:	8cdd                	c.or	s1,a5
20006414:	0476f05b          	bbc	a3,7,20006454 <fl_master_ProccesRSP_cbk+0xfc>
20006418:	00041783          	lh	a5,0(s0)
2000641c:	5877f85b          	bbs	a5,7,200065ac <fl_master_ProccesRSP_cbk+0x254>
20006420:	00041783          	lh	a5,0(s0)
20006424:	6077f65b          	bbs	a5,7,20006630 <fl_master_ProccesRSP_cbk+0x2d8>
20006428:	01010913          	addi	s2,sp,16
2000642c:	01410993          	addi	s3,sp,20
20006430:	20009b37          	lui	s6,0x20009
20006434:	20009ab7          	lui	s5,0x20009
20006438:	20009a37          	lui	s4,0x20009
2000643c:	00041783          	lh	a5,0(s0)
20006440:	4e77f65b          	bbs	a5,7,2000652c <fl_master_ProccesRSP_cbk+0x1d4>
20006444:	00190913          	addi	s2,s2,1
20006448:	ff391ae3          	bne	s2,s3,2000643c <fl_master_ProccesRSP_cbk+0xe4>
2000644c:	00041783          	lh	a5,0(s0)
20006450:	5a77fc5b          	bbs	a5,7,20006608 <fl_master_ProccesRSP_cbk+0x2b0>
20006454:	875f978b          	addigp	a5,-1932 # 80074 <G_DEV_LIST>
20006458:	4398                	c.lw	a4,0(a5)
2000645a:	00e49563          	bne	s1,a4,20006464 <fl_master_ProccesRSP_cbk+0x10c>
2000645e:	4705                	c.li	a4,1
20006460:	00e78223          	sb	a4,4(a5)
20006464:	0057a703          	lw	a4,5(a5)
20006468:	06e49263          	bne	s1,a4,200064cc <fl_master_ProccesRSP_cbk+0x174>
2000646c:	4705                	c.li	a4,1
2000646e:	00e784a3          	sb	a4,9(a5)
20006472:	a8a9                	c.j	200064cc <fl_master_ProccesRSP_cbk+0x174>
20006474:	20009537          	lui	a0,0x20009
20006478:	4e850513          	addi	a0,a0,1256 # 200094e8 <days_in_month+0x348>
2000647c:	79d010ef          	jal	ra,20008418 <printf>
20006480:	20009437          	lui	s0,0x20009
20006484:	02f00593          	li	a1,47
20006488:	45840513          	addi	a0,s0,1112 # 20009458 <days_in_month+0x2b8>
2000648c:	7ab010ef          	jal	ra,20008436 <strrchr>
20006490:	45840593          	addi	a1,s0,1112
20006494:	00050a63          	beqz	a0,200064a8 <fl_master_ProccesRSP_cbk+0x150>
20006498:	02f00593          	li	a1,47
2000649c:	45840513          	addi	a0,s0,1112
200064a0:	797010ef          	jal	ra,20008436 <strrchr>
200064a4:	00150593          	addi	a1,a0,1
200064a8:	20009637          	lui	a2,0x20009
200064ac:	20009537          	lui	a0,0x20009
200064b0:	08b00693          	li	a3,139
200064b4:	03060613          	addi	a2,a2,48 # 20009030 <__FUNCTION__.12997>
200064b8:	4f050513          	addi	a0,a0,1264 # 200094f0 <days_in_month+0x350>
200064bc:	75d010ef          	jal	ra,20008418 <printf>
200064c0:	20009537          	lui	a0,0x20009
200064c4:	4b450513          	addi	a0,a0,1204 # 200094b4 <days_in_month+0x314>
200064c8:	751010ef          	jal	ra,20008418 <printf>
200064cc:	000007b7          	lui	a5,0x0
200064d0:	17878793          	addi	a5,a5,376 # 178 <_AES_VMA_END>
200064d4:	5a47c603          	lbu	a2,1444(a5)
200064d8:	c615                	c.beqz	a2,20006504 <fl_master_ProccesRSP_cbk+0x1ac>
200064da:	200066b7          	lui	a3,0x20006
200064de:	5747a703          	lw	a4,1396(a5)
200064e2:	35868693          	addi	a3,a3,856 # 20006358 <fl_master_ProccesRSP_cbk>
200064e6:	16d70f63          	beq	a4,a3,20006664 <fl_master_ProccesRSP_cbk+0x30c>
200064ea:	57478793          	addi	a5,a5,1396
200064ee:	4501                	c.li	a0,0
200064f0:	00c0006f          	j	200064fc <fl_master_ProccesRSP_cbk+0x1a4>
200064f4:	0007a703          	lw	a4,0(a5)
200064f8:	02d70263          	beq	a4,a3,2000651c <fl_master_ProccesRSP_cbk+0x1c4>
200064fc:	0505                	c.addi	a0,1
200064fe:	07b1                	c.addi	a5,12
20006500:	fec54ae3          	blt	a0,a2,200064f4 <fl_master_ProccesRSP_cbk+0x19c>
20006504:	50be                	c.lwsp	ra,236(sp)
20006506:	542e                	c.lwsp	s0,232(sp)
20006508:	549e                	c.lwsp	s1,228(sp)
2000650a:	590e                	c.lwsp	s2,224(sp)
2000650c:	49fe                	c.lwsp	s3,220(sp)
2000650e:	4a6e                	c.lwsp	s4,216(sp)
20006510:	4ade                	c.lwsp	s5,212(sp)
20006512:	4b4e                	c.lwsp	s6,208(sp)
20006514:	4501                	c.li	a0,0
20006516:	616d                	c.addi16sp	sp,240
20006518:	00008067          	ret
2000651c:	0ff57513          	andi	a0,a0,255
20006520:	fec572e3          	bgeu	a0,a2,20006504 <fl_master_ProccesRSP_cbk+0x1ac>
20006524:	be9ff0ef          	jal	ra,2000610c <blt_soft_timer_delete_by_index.part.0>
20006528:	fddff06f          	j	20006504 <fl_master_ProccesRSP_cbk+0x1ac>
2000652c:	488b0513          	addi	a0,s6,1160 # 20009488 <days_in_month+0x2e8>
20006530:	6e9010ef          	jal	ra,20008418 <printf>
20006534:	00594583          	lbu	a1,5(s2)
20006538:	4e0a8513          	addi	a0,s5,1248 # 200094e0 <days_in_month+0x340>
2000653c:	6dd010ef          	jal	ra,20008418 <printf>
20006540:	4b4a0513          	addi	a0,s4,1204 # 200094b4 <days_in_month+0x314>
20006544:	6d5010ef          	jal	ra,20008418 <printf>
20006548:	efdff06f          	j	20006444 <fl_master_ProccesRSP_cbk+0xec>
2000654c:	20009537          	lui	a0,0x20009
20006550:	48850513          	addi	a0,a0,1160 # 20009488 <days_in_month+0x2e8>
20006554:	6c5010ef          	jal	ra,20008418 <printf>
20006558:	20009937          	lui	s2,0x20009
2000655c:	02f00593          	li	a1,47
20006560:	45890513          	addi	a0,s2,1112 # 20009458 <days_in_month+0x2b8>
20006564:	6d3010ef          	jal	ra,20008436 <strrchr>
20006568:	45890593          	addi	a1,s2,1112
2000656c:	00050a63          	beqz	a0,20006580 <fl_master_ProccesRSP_cbk+0x228>
20006570:	02f00593          	li	a1,47
20006574:	45890513          	addi	a0,s2,1112
20006578:	6bf010ef          	jal	ra,20008436 <strrchr>
2000657c:	00150593          	addi	a1,a0,1
20006580:	20009637          	lui	a2,0x20009
20006584:	20009537          	lui	a0,0x20009
20006588:	00900733          	add	a4,zero,s1
2000658c:	07a00693          	li	a3,122
20006590:	03060613          	addi	a2,a2,48 # 20009030 <__FUNCTION__.12997>
20006594:	49050513          	addi	a0,a0,1168 # 20009490 <days_in_month+0x2f0>
20006598:	681010ef          	jal	ra,20008418 <printf>
2000659c:	20009537          	lui	a0,0x20009
200065a0:	4b450513          	addi	a0,a0,1204 # 200094b4 <days_in_month+0x314>
200065a4:	675010ef          	jal	ra,20008418 <printf>
200065a8:	e45ff06f          	j	200063ec <fl_master_ProccesRSP_cbk+0x94>
200065ac:	20009537          	lui	a0,0x20009
200065b0:	48850513          	addi	a0,a0,1160 # 20009488 <days_in_month+0x2e8>
200065b4:	665010ef          	jal	ra,20008418 <printf>
200065b8:	20009937          	lui	s2,0x20009
200065bc:	02f00593          	li	a1,47
200065c0:	45890513          	addi	a0,s2,1112 # 20009458 <days_in_month+0x2b8>
200065c4:	673010ef          	jal	ra,20008436 <strrchr>
200065c8:	45890593          	addi	a1,s2,1112
200065cc:	00050a63          	beqz	a0,200065e0 <fl_master_ProccesRSP_cbk+0x288>
200065d0:	02f00593          	li	a1,47
200065d4:	45890513          	addi	a0,s2,1112
200065d8:	65f010ef          	jal	ra,20008436 <strrchr>
200065dc:	00150593          	addi	a1,a0,1
200065e0:	20009637          	lui	a2,0x20009
200065e4:	20009537          	lui	a0,0x20009
200065e8:	07f00693          	li	a3,127
200065ec:	03060613          	addi	a2,a2,48 # 20009030 <__FUNCTION__.12997>
200065f0:	4bc50513          	addi	a0,a0,1212 # 200094bc <days_in_month+0x31c>
200065f4:	625010ef          	jal	ra,20008418 <printf>
200065f8:	20009537          	lui	a0,0x20009
200065fc:	4b450513          	addi	a0,a0,1204 # 200094b4 <days_in_month+0x314>
20006600:	619010ef          	jal	ra,20008418 <printf>
20006604:	e1dff06f          	j	20006420 <fl_master_ProccesRSP_cbk+0xc8>
20006608:	20009537          	lui	a0,0x20009
2000660c:	48850513          	addi	a0,a0,1160 # 20009488 <days_in_month+0x2e8>
20006610:	609010ef          	jal	ra,20008418 <printf>
20006614:	20009537          	lui	a0,0x20009
20006618:	76850513          	addi	a0,a0,1896 # 20009768 <days_in_month+0x5c8>
2000661c:	5fd010ef          	jal	ra,20008418 <printf>
20006620:	20009537          	lui	a0,0x20009
20006624:	4b450513          	addi	a0,a0,1204 # 200094b4 <days_in_month+0x314>
20006628:	5f1010ef          	jal	ra,20008418 <printf>
2000662c:	e29ff06f          	j	20006454 <fl_master_ProccesRSP_cbk+0xfc>
20006630:	20009537          	lui	a0,0x20009
20006634:	48850513          	addi	a0,a0,1160 # 20009488 <days_in_month+0x2e8>
20006638:	5e1010ef          	jal	ra,20008418 <printf>
2000663c:	200095b7          	lui	a1,0x20009
20006640:	20009537          	lui	a0,0x20009
20006644:	00900633          	add	a2,zero,s1
20006648:	4d058593          	addi	a1,a1,1232 # 200094d0 <days_in_month+0x330>
2000664c:	4d850513          	addi	a0,a0,1240 # 200094d8 <days_in_month+0x338>
20006650:	5c9010ef          	jal	ra,20008418 <printf>
20006654:	20009537          	lui	a0,0x20009
20006658:	4b450513          	addi	a0,a0,1204 # 200094b4 <days_in_month+0x314>
2000665c:	5bd010ef          	jal	ra,20008418 <printf>
20006660:	dc9ff06f          	j	20006428 <fl_master_ProccesRSP_cbk+0xd0>
20006664:	4501                	c.li	a0,0
20006666:	c63e                	c.swsp	a5,12(sp)
20006668:	aa5ff0ef          	jal	ra,2000610c <blt_soft_timer_delete_by_index.part.0>
2000666c:	47b2                	c.lwsp	a5,12(sp)
2000666e:	801406b7          	lui	a3,0x80140
20006672:	2006a603          	lw	a2,512(a3) # 80140200 <_DATA_LMA_START+0x60136928>
20006676:	5787a703          	lw	a4,1400(a5)
2000667a:	02dc76b7          	lui	a3,0x2dc7
2000667e:	40c70633          	sub	a2,a4,a2
20006682:	bff68693          	addi	a3,a3,-1025 # 2dc6bff <FLASH_SIZE+0x2cc6bff>
20006686:	00c6e963          	bltu	a3,a2,20006698 <fl_master_ProccesRSP_cbk+0x340>
2000668a:	4ae7a223          	sw	a4,1188(a5)
2000668e:	4705                	c.li	a4,1
20006690:	48e78f23          	sb	a4,1182(a5)
20006694:	e71ff06f          	j	20006504 <fl_master_ProccesRSP_cbk+0x1ac>
20006698:	4a07a223          	sw	zero,1188(a5)
2000669c:	48078f23          	sb	zero,1182(a5)
200066a0:	b595                	c.j	20006504 <fl_master_ProccesRSP_cbk+0x1ac>
	...

200066a4 <fl_send_collection_req>:
200066a4:	7155                	c.addi16sp	sp,-208
200066a6:	c3a6                	c.swsp	s1,196(sp)
200066a8:	813f948b          	addigp	s1,-2030 # 80012 <FmDebug>
200066ac:	c786                	c.swsp	ra,204(sp)
200066ae:	c5a2                	c.swsp	s0,200(sp)
200066b0:	c1ca                	c.swsp	s2,192(sp)
200066b2:	df4e                	c.swsp	s3,188(sp)
200066b4:	dd52                	c.swsp	s4,184(sp)
200066b6:	db56                	c.swsp	s5,180(sp)
200066b8:	00049783          	lh	a5,0(s1)
200066bc:	6a77fa5b          	bbs	a5,7,20006970 <fl_send_collection_req+0x2cc>
200066c0:	85df990b          	addigp	s2,-1956 # 8005c <last_tick.12927>
200066c4:	00049783          	lh	a5,0(s1)
200066c8:	6477f05b          	bbs	a5,7,20006908 <fl_send_collection_req+0x264>
200066cc:	875f940b          	addigp	s0,-1932 # 80074 <G_DEV_LIST>
200066d0:	00049783          	lh	a5,0(s1)
200066d4:	5c77f85b          	bbs	a5,7,200068a4 <fl_send_collection_req+0x200>
200066d8:	801407b7          	lui	a5,0x80140
200066dc:	2007a783          	lw	a5,512(a5) # 80140200 <_DATA_LMA_START+0x60136928>
200066e0:	466d                	c.li	a2,27
200066e2:	00f92023          	sw	a5,0(s2)
200066e6:	374de7b7          	lui	a5,0x374de
200066ea:	37778793          	addi	a5,a5,887 # 374de377 <_DATA_LMA_START+0x174d4a9f>
200066ee:	c01c                	c.sw	a5,0(s0)
200066f0:	fa4167b7          	lui	a5,0xfa416
200066f4:	4581                	c.li	a1,0
200066f6:	67778793          	addi	a5,a5,1655 # fa416677 <_DATA_LMA_START+0xda40cd9f>
200066fa:	0068                	c.addi4spn	a0,sp,12
200066fc:	00f422a3          	sw	a5,5(s0)
20006700:	00040223          	sb	zero,4(s0)
20006704:	000404a3          	sb	zero,9(s0)
20006708:	467010ef          	jal	ra,2000836e <memset>
2000670c:	ffe00793          	li	a5,-2
20006710:	00f10623          	sb	a5,12(sp)
20006714:	dfffc097          	auipc	ra,0xdfffc
20006718:	ef0080e7          	jalr	-272(ra) # 2604 <clock_get_32k_tick>
2000671c:	106257b7          	lui	a5,0x10625
20006720:	dd378793          	addi	a5,a5,-557 # 10624dd3 <FLASH_SIZE+0x10524dd3>
20006724:	02f537b3          	mulhu	a5,a0,a5
20006728:	00001737          	lui	a4,0x1
2000672c:	8b472703          	lw	a4,-1868(a4) # 8b4 <RTC_OFFSET_TIME>
20006730:	4651                	c.li	a2,20
20006732:	4581                	c.li	a1,0
20006734:	01110513          	addi	a0,sp,17
20006738:	83ad                	c.srli	a5,0xb
2000673a:	97ba                	c.add	a5,a4
2000673c:	0107d693          	srli	a3,a5,0x10
20006740:	0187d713          	srli	a4,a5,0x18
20006744:	0087d813          	srli	a6,a5,0x8
20006748:	00d107a3          	sb	a3,15(sp)
2000674c:	00e10823          	sb	a4,16(sp)
20006750:	00f106a3          	sb	a5,13(sp)
20006754:	01010723          	sb	a6,14(sp)
20006758:	31d010ef          	jal	ra,20008274 <memcpy>
2000675c:	47e9                	c.li	a5,26
2000675e:	4669                	c.li	a2,26
20006760:	00c10593          	addi	a1,sp,12
20006764:	06d10513          	addi	a0,sp,109
20006768:	06f10623          	sb	a5,108(sp)
2000676c:	020102a3          	sb	zero,37(sp)
20006770:	305010ef          	jal	ra,20008274 <memcpy>
20006774:	10fc                	c.addi4spn	a5,sp,108
20006776:	1038                	c.addi4spn	a4,sp,40
20006778:	0a810693          	addi	a3,sp,168
2000677c:	4388                	c.lw	a0,0(a5)
2000677e:	43cc                	c.lw	a1,4(a5)
20006780:	4790                	c.lw	a2,8(a5)
20006782:	c308                	c.sw	a0,0(a4)
20006784:	c34c                	c.sw	a1,4(a4)
20006786:	c710                	c.sw	a2,8(a4)
20006788:	07b1                	c.addi	a5,12
2000678a:	0731                	c.addi	a4,12
2000678c:	fed798e3          	bne	a5,a3,2000677c <fl_send_collection_req+0xd8>
20006790:	4390                	c.lw	a2,0(a5)
20006792:	1034                	c.addi4spn	a3,sp,40
20006794:	c310                	c.sw	a2,0(a4)
20006796:	00478603          	lb	a2,4(a5)
2000679a:	10cc                	c.addi4spn	a1,sp,100
2000679c:	06c10793          	addi	a5,sp,108
200067a0:	00c70223          	sb	a2,4(a4)
200067a4:	4288                	c.lw	a0,0(a3)
200067a6:	42d0                	c.lw	a2,4(a3)
200067a8:	4698                	c.lw	a4,8(a3)
200067aa:	c388                	c.sw	a0,0(a5)
200067ac:	c3d0                	c.sw	a2,4(a5)
200067ae:	c798                	c.sw	a4,8(a5)
200067b0:	06b1                	c.addi	a3,12
200067b2:	07b1                	c.addi	a5,12
200067b4:	feb698e3          	bne	a3,a1,200067a4 <fl_send_collection_req+0x100>
200067b8:	4298                	c.lw	a4,0(a3)
200067ba:	c398                	c.sw	a4,0(a5)
200067bc:	00468703          	lb	a4,4(a3)
200067c0:	10ec                	c.addi4spn	a1,sp,108
200067c2:	00e78223          	sb	a4,4(a5)
200067c6:	06c10603          	lb	a2,108(sp)
200067ca:	825f950b          	addigp	a0,-2012 # 80024 <G_QUEUE_SENDING>
200067ce:	167d                	c.addi	a2,-1
200067d0:	0ff67613          	andi	a2,a2,255
200067d4:	8c1ff0ef          	jal	ra,20006094 <FL_QUEUE_FIND>
200067d8:	57fd                	c.li	a5,-1
200067da:	34f51163          	bne	a0,a5,20006b1c <fl_send_collection_req+0x478>
200067de:	10ec                	c.addi4spn	a1,sp,108
200067e0:	825f950b          	addigp	a0,-2012 # 80024 <G_QUEUE_SENDING>
200067e4:	fd1fe0ef          	jal	ra,200057b4 <FL_QUEUE_ADD>
200067e8:	28054863          	bltz	a0,20006a78 <fl_send_collection_req+0x3d4>
200067ec:	00049783          	lh	a5,0(s1)
200067f0:	0a47f05b          	bbc	a5,4,20006890 <fl_send_collection_req+0x1ec>
200067f4:	00049783          	lh	a5,0(s1)
200067f8:	5e47f65b          	bbs	a5,4,200069e4 <fl_send_collection_req+0x340>
200067fc:	00049783          	lh	a5,0(s1)
20006800:	6447f25b          	bbs	a5,4,20006a44 <fl_send_collection_req+0x3a0>
20006804:	06c14783          	lbu	a5,108(sp)
20006808:	cfb1                	c.beqz	a5,20006864 <fl_send_collection_req+0x1c0>
2000680a:	06d10913          	addi	s2,sp,109
2000680e:	4401                	c.li	s0,0
20006810:	20009ab7          	lui	s5,0x20009
20006814:	20009a37          	lui	s4,0x20009
20006818:	200099b7          	lui	s3,0x20009
2000681c:	0140006f          	j	20006830 <fl_send_collection_req+0x18c>
20006820:	0405                	c.addi	s0,1
20006822:	06c14783          	lbu	a5,108(sp)
20006826:	3c04245b          	bfoz	s0,s0,15,0
2000682a:	0905                	c.addi	s2,1
2000682c:	02f47c63          	bgeu	s0,a5,20006864 <fl_send_collection_req+0x1c0>
20006830:	00049783          	lh	a5,0(s1)
20006834:	be47f65b          	bbc	a5,4,20006820 <fl_send_collection_req+0x17c>
20006838:	5d8a8513          	addi	a0,s5,1496 # 200095d8 <days_in_month+0x438>
2000683c:	3dd010ef          	jal	ra,20008418 <printf>
20006840:	00094583          	lbu	a1,0(s2)
20006844:	4e0a0513          	addi	a0,s4,1248 # 200094e0 <days_in_month+0x340>
20006848:	3d1010ef          	jal	ra,20008418 <printf>
2000684c:	4b498513          	addi	a0,s3,1204 # 200094b4 <days_in_month+0x314>
20006850:	3c9010ef          	jal	ra,20008418 <printf>
20006854:	0405                	c.addi	s0,1
20006856:	06c14783          	lbu	a5,108(sp)
2000685a:	3c04245b          	bfoz	s0,s0,15,0
2000685e:	0905                	c.addi	s2,1
20006860:	fcf468e3          	bltu	s0,a5,20006830 <fl_send_collection_req+0x18c>
20006864:	00049783          	lh	a5,0(s1)
20006868:	0247f45b          	bbc	a5,4,20006890 <fl_send_collection_req+0x1ec>
2000686c:	20009537          	lui	a0,0x20009
20006870:	5d850513          	addi	a0,a0,1496 # 200095d8 <days_in_month+0x438>
20006874:	3a5010ef          	jal	ra,20008418 <printf>
20006878:	20009537          	lui	a0,0x20009
2000687c:	76850513          	addi	a0,a0,1896 # 20009768 <days_in_month+0x5c8>
20006880:	399010ef          	jal	ra,20008418 <printf>
20006884:	20009537          	lui	a0,0x20009
20006888:	4b450513          	addi	a0,a0,1204 # 200094b4 <days_in_month+0x314>
2000688c:	38d010ef          	jal	ra,20008418 <printf>
20006890:	40be                	c.lwsp	ra,204(sp)
20006892:	442e                	c.lwsp	s0,200(sp)
20006894:	449e                	c.lwsp	s1,196(sp)
20006896:	490e                	c.lwsp	s2,192(sp)
20006898:	59fa                	c.lwsp	s3,188(sp)
2000689a:	5a6a                	c.lwsp	s4,184(sp)
2000689c:	5ada                	c.lwsp	s5,180(sp)
2000689e:	4501                	c.li	a0,0
200068a0:	6169                	c.addi16sp	sp,208
200068a2:	8082                	c.jr	ra
200068a4:	20009537          	lui	a0,0x20009
200068a8:	48850513          	addi	a0,a0,1160 # 20009488 <days_in_month+0x2e8>
200068ac:	36d010ef          	jal	ra,20008418 <printf>
200068b0:	200099b7          	lui	s3,0x20009
200068b4:	02f00593          	li	a1,47
200068b8:	45898513          	addi	a0,s3,1112 # 20009458 <days_in_month+0x2b8>
200068bc:	37b010ef          	jal	ra,20008436 <strrchr>
200068c0:	45898593          	addi	a1,s3,1112
200068c4:	00050a63          	beqz	a0,200068d8 <fl_send_collection_req+0x234>
200068c8:	02f00593          	li	a1,47
200068cc:	45898513          	addi	a0,s3,1112
200068d0:	367010ef          	jal	ra,20008436 <strrchr>
200068d4:	00150593          	addi	a1,a0,1
200068d8:	00944783          	lbu	a5,9(s0)
200068dc:	00542703          	lw	a4,5(s0)
200068e0:	20009637          	lui	a2,0x20009
200068e4:	20009537          	lui	a0,0x20009
200068e8:	05300693          	li	a3,83
200068ec:	fec60613          	addi	a2,a2,-20 # 20008fec <__FUNCTION__.12942>
200068f0:	58850513          	addi	a0,a0,1416 # 20009588 <days_in_month+0x3e8>
200068f4:	325010ef          	jal	ra,20008418 <printf>
200068f8:	200099b7          	lui	s3,0x20009
200068fc:	4b498513          	addi	a0,s3,1204 # 200094b4 <days_in_month+0x314>
20006900:	319010ef          	jal	ra,20008418 <printf>
20006904:	dd5ff06f          	j	200066d8 <fl_send_collection_req+0x34>
20006908:	20009537          	lui	a0,0x20009
2000690c:	48850513          	addi	a0,a0,1160 # 20009488 <days_in_month+0x2e8>
20006910:	309010ef          	jal	ra,20008418 <printf>
20006914:	20009437          	lui	s0,0x20009
20006918:	02f00593          	li	a1,47
2000691c:	45840513          	addi	a0,s0,1112 # 20009458 <days_in_month+0x2b8>
20006920:	317010ef          	jal	ra,20008436 <strrchr>
20006924:	45840593          	addi	a1,s0,1112
20006928:	00050a63          	beqz	a0,2000693c <fl_send_collection_req+0x298>
2000692c:	02f00593          	li	a1,47
20006930:	45840513          	addi	a0,s0,1112
20006934:	303010ef          	jal	ra,20008436 <strrchr>
20006938:	00150593          	addi	a1,a0,1
2000693c:	875f940b          	addigp	s0,-1932 # 80074 <G_DEV_LIST>
20006940:	00444783          	lbu	a5,4(s0)
20006944:	00042703          	lw	a4,0(s0)
20006948:	20009637          	lui	a2,0x20009
2000694c:	20009537          	lui	a0,0x20009
20006950:	05200693          	li	a3,82
20006954:	fec60613          	addi	a2,a2,-20 # 20008fec <__FUNCTION__.12942>
20006958:	58850513          	addi	a0,a0,1416 # 20009588 <days_in_month+0x3e8>
2000695c:	2bd010ef          	jal	ra,20008418 <printf>
20006960:	200099b7          	lui	s3,0x20009
20006964:	4b498513          	addi	a0,s3,1204 # 200094b4 <days_in_month+0x314>
20006968:	2b1010ef          	jal	ra,20008418 <printf>
2000696c:	d65ff06f          	j	200066d0 <fl_send_collection_req+0x2c>
20006970:	20009537          	lui	a0,0x20009
20006974:	48850513          	addi	a0,a0,1160 # 20009488 <days_in_month+0x2e8>
20006978:	2a1010ef          	jal	ra,20008418 <printf>
2000697c:	20009437          	lui	s0,0x20009
20006980:	02f00593          	li	a1,47
20006984:	45840513          	addi	a0,s0,1112 # 20009458 <days_in_month+0x2b8>
20006988:	2af010ef          	jal	ra,20008436 <strrchr>
2000698c:	45840593          	addi	a1,s0,1112
20006990:	00050a63          	beqz	a0,200069a4 <fl_send_collection_req+0x300>
20006994:	02f00593          	li	a1,47
20006998:	45840513          	addi	a0,s0,1112
2000699c:	29b010ef          	jal	ra,20008436 <strrchr>
200069a0:	00150593          	addi	a1,a0,1
200069a4:	85df990b          	addigp	s2,-1956 # 8005c <last_tick.12927>
200069a8:	801407b7          	lui	a5,0x80140
200069ac:	2007a703          	lw	a4,512(a5) # 80140200 <_DATA_LMA_START+0x60136928>
200069b0:	00092783          	lw	a5,0(s2)
200069b4:	20009637          	lui	a2,0x20009
200069b8:	20009537          	lui	a0,0x20009
200069bc:	40f707b3          	sub	a5,a4,a5
200069c0:	05100693          	li	a3,81
200069c4:	00200713          	li	a4,2
200069c8:	fec60613          	addi	a2,a2,-20 # 20008fec <__FUNCTION__.12942>
200069cc:	55850513          	addi	a0,a0,1368 # 20009558 <days_in_month+0x3b8>
200069d0:	249010ef          	jal	ra,20008418 <printf>
200069d4:	200099b7          	lui	s3,0x20009
200069d8:	4b498513          	addi	a0,s3,1204 # 200094b4 <days_in_month+0x314>
200069dc:	23d010ef          	jal	ra,20008418 <printf>
200069e0:	ce5ff06f          	j	200066c4 <fl_send_collection_req+0x20>
200069e4:	20009537          	lui	a0,0x20009
200069e8:	5d850513          	addi	a0,a0,1496 # 200095d8 <days_in_month+0x438>
200069ec:	22d010ef          	jal	ra,20008418 <printf>
200069f0:	20009437          	lui	s0,0x20009
200069f4:	02f00593          	li	a1,47
200069f8:	53440513          	addi	a0,s0,1332 # 20009534 <days_in_month+0x394>
200069fc:	23b010ef          	jal	ra,20008436 <strrchr>
20006a00:	53440593          	addi	a1,s0,1332
20006a04:	00050a63          	beqz	a0,20006a18 <fl_send_collection_req+0x374>
20006a08:	02f00593          	li	a1,47
20006a0c:	53440513          	addi	a0,s0,1332
20006a10:	227010ef          	jal	ra,20008436 <strrchr>
20006a14:	00150593          	addi	a1,a0,1
20006a18:	20009637          	lui	a2,0x20009
20006a1c:	20009537          	lui	a0,0x20009
20006a20:	08300693          	li	a3,131
20006a24:	08c60613          	addi	a2,a2,140 # 2000908c <__FUNCTION__.13043>
20006a28:	4bc50513          	addi	a0,a0,1212 # 200094bc <days_in_month+0x31c>
20006a2c:	1ed010ef          	jal	ra,20008418 <printf>
20006a30:	20009537          	lui	a0,0x20009
20006a34:	4b450513          	addi	a0,a0,1204 # 200094b4 <days_in_month+0x314>
20006a38:	1e1010ef          	jal	ra,20008418 <printf>
20006a3c:	00049783          	lh	a5,0(s1)
20006a40:	9c47f25b          	bbc	a5,4,20006804 <fl_send_collection_req+0x160>
20006a44:	20009537          	lui	a0,0x20009
20006a48:	5d850513          	addi	a0,a0,1496 # 200095d8 <days_in_month+0x438>
20006a4c:	1cd010ef          	jal	ra,20008418 <printf>
20006a50:	06c14603          	lbu	a2,108(sp)
20006a54:	200095b7          	lui	a1,0x20009
20006a58:	20009537          	lui	a0,0x20009
20006a5c:	5e058593          	addi	a1,a1,1504 # 200095e0 <days_in_month+0x440>
20006a60:	5ec50513          	addi	a0,a0,1516 # 200095ec <days_in_month+0x44c>
20006a64:	1b5010ef          	jal	ra,20008418 <printf>
20006a68:	20009537          	lui	a0,0x20009
20006a6c:	4b450513          	addi	a0,a0,1204 # 200094b4 <days_in_month+0x314>
20006a70:	1a9010ef          	jal	ra,20008418 <printf>
20006a74:	d91ff06f          	j	20006804 <fl_send_collection_req+0x160>
20006a78:	20009937          	lui	s2,0x20009
20006a7c:	4e890513          	addi	a0,s2,1256 # 200094e8 <days_in_month+0x348>
20006a80:	199010ef          	jal	ra,20008418 <printf>
20006a84:	20009437          	lui	s0,0x20009
20006a88:	02f00593          	li	a1,47
20006a8c:	53440513          	addi	a0,s0,1332 # 20009534 <days_in_month+0x394>
20006a90:	1a7010ef          	jal	ra,20008436 <strrchr>
20006a94:	53440593          	addi	a1,s0,1332
20006a98:	00050a63          	beqz	a0,20006aac <fl_send_collection_req+0x408>
20006a9c:	02f00593          	li	a1,47
20006aa0:	53440513          	addi	a0,s0,1332
20006aa4:	193010ef          	jal	ra,20008436 <strrchr>
20006aa8:	00150593          	addi	a1,a0,1
20006aac:	200094b7          	lui	s1,0x20009
20006ab0:	20009537          	lui	a0,0x20009
20006ab4:	08100693          	li	a3,129
20006ab8:	08c48613          	addi	a2,s1,140 # 2000908c <__FUNCTION__.13043>
20006abc:	5a450513          	addi	a0,a0,1444 # 200095a4 <days_in_month+0x404>
20006ac0:	159010ef          	jal	ra,20008418 <printf>
20006ac4:	200099b7          	lui	s3,0x20009
20006ac8:	4b498513          	addi	a0,s3,1204 # 200094b4 <days_in_month+0x314>
20006acc:	14d010ef          	jal	ra,20008418 <printf>
20006ad0:	4e890513          	addi	a0,s2,1256
20006ad4:	145010ef          	jal	ra,20008418 <printf>
20006ad8:	02f00593          	li	a1,47
20006adc:	53440513          	addi	a0,s0,1332
20006ae0:	157010ef          	jal	ra,20008436 <strrchr>
20006ae4:	53440593          	addi	a1,s0,1332
20006ae8:	00050a63          	beqz	a0,20006afc <fl_send_collection_req+0x458>
20006aec:	02f00593          	li	a1,47
20006af0:	53440513          	addi	a0,s0,1332
20006af4:	143010ef          	jal	ra,20008436 <strrchr>
20006af8:	00150593          	addi	a1,a0,1
20006afc:	20009537          	lui	a0,0x20009
20006b00:	08700693          	li	a3,135
20006b04:	08c48613          	addi	a2,s1,140
20006b08:	5f450513          	addi	a0,a0,1524 # 200095f4 <days_in_month+0x454>
20006b0c:	10d010ef          	jal	ra,20008418 <printf>
20006b10:	4b498513          	addi	a0,s3,1204
20006b14:	105010ef          	jal	ra,20008418 <printf>
20006b18:	d79ff06f          	j	20006890 <fl_send_collection_req+0x1ec>
20006b1c:	200099b7          	lui	s3,0x20009
20006b20:	20009937          	lui	s2,0x20009
20006b24:	20009437          	lui	s0,0x20009
20006b28:	200094b7          	lui	s1,0x20009
20006b2c:	b755                	c.j	20006ad0 <fl_send_collection_req+0x42c>
	...

20006b30 <fl_durationADV_timeout_proccess>:
20006b30:	1141                	c.addi	sp,-16
20006b32:	c422                	c.swsp	s0,8(sp)
20006b34:	00000437          	lui	s0,0x0
20006b38:	17840413          	addi	s0,s0,376 # 178 <_AES_VMA_END>
20006b3c:	c606                	c.swsp	ra,12(sp)
20006b3e:	c226                	c.swsp	s1,4(sp)
20006b40:	18d40783          	lb	a5,397(s0)
20006b44:	0ff7f793          	andi	a5,a5,255
20006b48:	ffe5                	c.bnez	a5,20006b40 <fl_durationADV_timeout_proccess+0x10>
20006b4a:	813f97ab          	lhgp	a5,-2030 # 80012 <FmDebug>
20006b4e:	4047fd5b          	bbs	a5,4,20006b68 <fl_durationADV_timeout_proccess+0x38>
20006b52:	74040023          	sb	zero,1856(s0)
20006b56:	4422                	c.lwsp	s0,8(sp)
20006b58:	40b2                	c.lwsp	ra,12(sp)
20006b5a:	4492                	c.lwsp	s1,4(sp)
20006b5c:	4505                	c.li	a0,1
20006b5e:	0141                	c.addi	sp,16
20006b60:	dfffb317          	auipc	t1,0xdfffb
20006b64:	dec30067          	jr	-532(t1) # 194c <bls_ll_setAdvEnable>
20006b68:	20009537          	lui	a0,0x20009
20006b6c:	5d850513          	addi	a0,a0,1496 # 200095d8 <days_in_month+0x438>
20006b70:	0a9010ef          	jal	ra,20008418 <printf>
20006b74:	200094b7          	lui	s1,0x20009
20006b78:	02f00593          	li	a1,47
20006b7c:	53448513          	addi	a0,s1,1332 # 20009534 <days_in_month+0x394>
20006b80:	0b7010ef          	jal	ra,20008436 <strrchr>
20006b84:	53448593          	addi	a1,s1,1332
20006b88:	00050a63          	beqz	a0,20006b9c <fl_durationADV_timeout_proccess+0x6c>
20006b8c:	02f00593          	li	a1,47
20006b90:	53448513          	addi	a0,s1,1332
20006b94:	0a3010ef          	jal	ra,20008436 <strrchr>
20006b98:	00150593          	addi	a1,a0,1
20006b9c:	20009637          	lui	a2,0x20009
20006ba0:	20009537          	lui	a0,0x20009
20006ba4:	06800693          	li	a3,104
20006ba8:	06c60613          	addi	a2,a2,108 # 2000906c <__FUNCTION__.13039>
20006bac:	43c50513          	addi	a0,a0,1084 # 2000943c <days_in_month+0x29c>
20006bb0:	069010ef          	jal	ra,20008418 <printf>
20006bb4:	20009537          	lui	a0,0x20009
20006bb8:	4b450513          	addi	a0,a0,1204 # 200094b4 <days_in_month+0x314>
20006bbc:	05d010ef          	jal	ra,20008418 <printf>
20006bc0:	74040023          	sb	zero,1856(s0)
20006bc4:	4422                	c.lwsp	s0,8(sp)
20006bc6:	40b2                	c.lwsp	ra,12(sp)
20006bc8:	4492                	c.lwsp	s1,4(sp)
20006bca:	4505                	c.li	a0,1
20006bcc:	0141                	c.addi	sp,16
20006bce:	dfffb317          	auipc	t1,0xdfffb
20006bd2:	d7e30067          	jr	-642(t1) # 194c <bls_ll_setAdvEnable>
	...

20006bd8 <fl_adv_run>:
20006bd8:	710d                	c.addi16sp	sp,-352
20006bda:	15312623          	sw	s3,332(sp)
20006bde:	180c                	c.addi4spn	a1,sp,48
20006be0:	815f950b          	addigp	a0,-2028 # 80014 <G_DATA_CONTAINER>
20006be4:	14112e23          	sw	ra,348(sp)
20006be8:	14812c23          	sw	s0,344(sp)
20006bec:	14912a23          	sw	s1,340(sp)
20006bf0:	15212823          	sw	s2,336(sp)
20006bf4:	15412423          	sw	s4,328(sp)
20006bf8:	15512223          	sw	s5,324(sp)
20006bfc:	15612023          	sw	s6,320(sp)
20006c00:	b65fe0ef          	jal	ra,20005764 <FL_QUEUE_GET>
20006c04:	14050a63          	beqz	a0,20006d58 <fl_adv_run+0x180>
20006c08:	813f948b          	addigp	s1,-2030 # 80012 <FmDebug>
20006c0c:	00049783          	lh	a5,0(s1)
20006c10:	7227f85b          	bbs	a5,2,20006f40 <fl_adv_run+0x368>
20006c14:	181c                	c.addi4spn	a5,sp,48
20006c16:	18d8                	c.addi4spn	a4,sp,116
20006c18:	06c10693          	addi	a3,sp,108
20006c1c:	4388                	c.lw	a0,0(a5)
20006c1e:	43cc                	c.lw	a1,4(a5)
20006c20:	4790                	c.lw	a2,8(a5)
20006c22:	c308                	c.sw	a0,0(a4)
20006c24:	c34c                	c.sw	a1,4(a4)
20006c26:	c710                	c.sw	a2,8(a4)
20006c28:	07b1                	c.addi	a5,12
20006c2a:	0731                	c.addi	a4,12
20006c2c:	fed798e3          	bne	a5,a3,20006c1c <fl_adv_run+0x44>
20006c30:	4394                	c.lw	a3,0(a5)
20006c32:	c314                	c.sw	a3,0(a4)
20006c34:	00478783          	lb	a5,4(a5)
20006c38:	00f70223          	sb	a5,4(a4)
20006c3c:	07414783          	lbu	a5,116(sp)
20006c40:	01b7e45b          	bnec	a5,27,20006c48 <fl_adv_run+0x70>
20006c44:	4300006f          	j	20007074 <fl_adv_run+0x49c>
20006c48:	20009537          	lui	a0,0x20009
20006c4c:	4e850513          	addi	a0,a0,1256 # 200094e8 <days_in_month+0x348>
20006c50:	7c8010ef          	jal	ra,20008418 <printf>
20006c54:	20009437          	lui	s0,0x20009
20006c58:	02f00593          	li	a1,47
20006c5c:	53440513          	addi	a0,s0,1332 # 20009534 <days_in_month+0x394>
20006c60:	7d6010ef          	jal	ra,20008436 <strrchr>
20006c64:	53440593          	addi	a1,s0,1332
20006c68:	00050a63          	beqz	a0,20006c7c <fl_adv_run+0xa4>
20006c6c:	02f00593          	li	a1,47
20006c70:	53440513          	addi	a0,s0,1332
20006c74:	7c2010ef          	jal	ra,20008436 <strrchr>
20006c78:	00150593          	addi	a1,a0,1
20006c7c:	20009a37          	lui	s4,0x20009
20006c80:	20009537          	lui	a0,0x20009
20006c84:	17d00693          	li	a3,381
20006c88:	110a0613          	addi	a2,s4,272 # 20009110 <__FUNCTION__.13353>
20006c8c:	33850513          	addi	a0,a0,824 # 20009338 <days_in_month+0x198>
20006c90:	788010ef          	jal	ra,20008418 <printf>
20006c94:	20009937          	lui	s2,0x20009
20006c98:	4b490513          	addi	a0,s2,1204 # 200094b4 <days_in_month+0x314>
20006c9c:	77c010ef          	jal	ra,20008418 <printf>
20006ca0:	00049783          	lh	a5,0(s1)
20006ca4:	0a27fa5b          	bbc	a5,2,20006d58 <fl_adv_run+0x180>
20006ca8:	00049783          	lh	a5,0(s1)
20006cac:	0027f45b          	bbc	a5,2,20006cb4 <fl_adv_run+0xdc>
20006cb0:	7480006f          	j	200073f8 <fl_adv_run+0x820>
20006cb4:	00049783          	lh	a5,0(s1)
20006cb8:	0227f85b          	bbc	a5,2,20006ce8 <fl_adv_run+0x110>
20006cbc:	20009537          	lui	a0,0x20009
20006cc0:	1ac50513          	addi	a0,a0,428 # 200091ac <days_in_month+0xc>
20006cc4:	754010ef          	jal	ra,20008418 <printf>
20006cc8:	03014603          	lbu	a2,48(sp)
20006ccc:	200095b7          	lui	a1,0x20009
20006cd0:	20009537          	lui	a0,0x20009
20006cd4:	36058593          	addi	a1,a1,864 # 20009360 <days_in_month+0x1c0>
20006cd8:	5ec50513          	addi	a0,a0,1516 # 200095ec <days_in_month+0x44c>
20006cdc:	73c010ef          	jal	ra,20008418 <printf>
20006ce0:	4b490513          	addi	a0,s2,1204
20006ce4:	734010ef          	jal	ra,20008418 <printf>
20006ce8:	03014783          	lbu	a5,48(sp)
20006cec:	c3b1                	c.beqz	a5,20006d30 <fl_adv_run+0x158>
20006cee:	03110a13          	addi	s4,sp,49
20006cf2:	4401                	c.li	s0,0
20006cf4:	20009b37          	lui	s6,0x20009
20006cf8:	20009ab7          	lui	s5,0x20009
20006cfc:	00049783          	lh	a5,0(s1)
20006d00:	0227f05b          	bbc	a5,2,20006d20 <fl_adv_run+0x148>
20006d04:	1acb0513          	addi	a0,s6,428 # 200091ac <days_in_month+0xc>
20006d08:	710010ef          	jal	ra,20008418 <printf>
20006d0c:	000a4583          	lbu	a1,0(s4)
20006d10:	4e0a8513          	addi	a0,s5,1248 # 200094e0 <days_in_month+0x340>
20006d14:	704010ef          	jal	ra,20008418 <printf>
20006d18:	4b490513          	addi	a0,s2,1204
20006d1c:	6fc010ef          	jal	ra,20008418 <printf>
20006d20:	0405                	c.addi	s0,1
20006d22:	03014783          	lbu	a5,48(sp)
20006d26:	3c04245b          	bfoz	s0,s0,15,0
20006d2a:	0a05                	c.addi	s4,1
20006d2c:	fcf468e3          	bltu	s0,a5,20006cfc <fl_adv_run+0x124>
20006d30:	00049783          	lh	a5,0(s1)
20006d34:	0227f25b          	bbc	a5,2,20006d58 <fl_adv_run+0x180>
20006d38:	20009537          	lui	a0,0x20009
20006d3c:	1ac50513          	addi	a0,a0,428 # 200091ac <days_in_month+0xc>
20006d40:	6d8010ef          	jal	ra,20008418 <printf>
20006d44:	20009537          	lui	a0,0x20009
20006d48:	76850513          	addi	a0,a0,1896 # 20009768 <days_in_month+0x5c8>
20006d4c:	6cc010ef          	jal	ra,20008418 <printf>
20006d50:	4b490513          	addi	a0,s2,1204
20006d54:	6c4010ef          	jal	ra,20008418 <printf>
20006d58:	00000437          	lui	s0,0x0
20006d5c:	17840413          	addi	s0,s0,376 # 178 <_AES_VMA_END>
20006d60:	74044783          	lbu	a5,1856(s0)
20006d64:	02078463          	beqz	a5,20006d8c <fl_adv_run+0x1b4>
20006d68:	15c12083          	lw	ra,348(sp)
20006d6c:	15812403          	lw	s0,344(sp)
20006d70:	15412483          	lw	s1,340(sp)
20006d74:	15012903          	lw	s2,336(sp)
20006d78:	14c12983          	lw	s3,332(sp)
20006d7c:	14812a03          	lw	s4,328(sp)
20006d80:	14412a83          	lw	s5,324(sp)
20006d84:	14012b03          	lw	s6,320(sp)
20006d88:	6135                	c.addi16sp	sp,352
20006d8a:	8082                	c.jr	ra
20006d8c:	0b810593          	addi	a1,sp,184
20006d90:	825f950b          	addigp	a0,-2012 # 80024 <G_QUEUE_SENDING>
20006d94:	9d1fe0ef          	jal	ra,20005764 <FL_QUEUE_GET>
20006d98:	fc0508e3          	beqz	a0,20006d68 <fl_adv_run+0x190>
20006d9c:	813f948b          	addigp	s1,-2030 # 80012 <FmDebug>
20006da0:	00049783          	lh	a5,0(s1)
20006da4:	6627f25b          	bbs	a5,2,20007008 <fl_adv_run+0x430>
20006da8:	4785                	c.li	a5,1
20006daa:	0b814903          	lbu	s2,184(sp)
20006dae:	74f40023          	sb	a5,1856(s0)
20006db2:	a039                	c.j	20006dc0 <fl_adv_run+0x1e8>
20006db4:	18d40783          	lb	a5,397(s0)
20006db8:	0ff7f793          	andi	a5,a5,255
20006dbc:	0017e85b          	bnec	a5,1,20006dcc <fl_adv_run+0x1f4>
20006dc0:	18d40783          	lb	a5,397(s0)
20006dc4:	0ff7f793          	andi	a5,a5,255
20006dc8:	be27d65b          	beqc	a5,2,20006db4 <fl_adv_run+0x1dc>
20006dcc:	00100793          	li	a5,1
20006dd0:	1d27fe63          	bgeu	a5,s2,20006fac <fl_adv_run+0x3d4>
20006dd4:	00049783          	lh	a5,0(s1)
20006dd8:	0027f45b          	bbc	a5,2,20006de0 <fl_adv_run+0x208>
20006ddc:	6e80006f          	j	200074c4 <fl_adv_run+0x8ec>
20006de0:	dfffa097          	auipc	ra,0xdfffa
20006de4:	420080e7          	jalr	1056(ra) # 1200 <rf_set_power_level_index.constprop.37>
20006de8:	00000513          	li	a0,0
20006dec:	dfffb097          	auipc	ra,0xdfffb
20006df0:	b60080e7          	jalr	-1184(ra) # 194c <bls_ll_setAdvEnable>
20006df4:	74440493          	addi	s1,s0,1860
20006df8:	4619                	c.li	a2,6
20006dfa:	85a6                	c.mv	a1,s1
20006dfc:	0fc10513          	addi	a0,sp,252
20006e00:	474010ef          	jal	ra,20008274 <memcpy>
20006e04:	18640783          	lb	a5,390(s0)
20006e08:	0ff7f793          	andi	a5,a5,255
20006e0c:	0027e45b          	bnec	a5,2,20006e14 <fl_adv_run+0x23c>
20006e10:	6380006f          	j	20007448 <fl_adv_run+0x870>
20006e14:	00440783          	lb	a5,4(s0)
20006e18:	19a40703          	lb	a4,410(s0)
20006e1c:	9bc1                	c.andi	a5,-16
20006e1e:	0027e793          	ori	a5,a5,2
20006e22:	470d                	c.li	a4,3
20006e24:	2ce40923          	sb	a4,722(s0)
20006e28:	00f40223          	sb	a5,4(s0)
20006e2c:	0027f713          	andi	a4,a5,2
20006e30:	0017565b          	beqc	a4,1,20006e3c <fl_adv_run+0x264>
20006e34:	75744703          	lbu	a4,1879(s0)
20006e38:	74071263          	bnez	a4,2000757c <fl_adv_run+0x9a4>
20006e3c:	00440783          	lb	a5,4(s0)
20006e40:	4705                	c.li	a4,1
20006e42:	fbf7f793          	andi	a5,a5,-65
20006e46:	4619                	c.li	a2,6
20006e48:	009005b3          	add	a1,zero,s1
20006e4c:	00640513          	addi	a0,s0,6
20006e50:	18e40ca3          	sb	a4,409(s0)
20006e54:	00f40223          	sb	a5,4(s0)
20006e58:	2c040aa3          	sb	zero,725(s0)
20006e5c:	dfffa097          	auipc	ra,0xdfffa
20006e60:	48c080e7          	jalr	1164(ra) # 12e8 <smemcpy>
20006e64:	50c40783          	lb	a5,1292(s0)
20006e68:	4619                	c.li	a2,6
20006e6a:	fbf7f793          	andi	a5,a5,-65
20006e6e:	85a6                	c.mv	a1,s1
20006e70:	50e40513          	addi	a0,s0,1294
20006e74:	50f40623          	sb	a5,1292(s0)
20006e78:	dfffa097          	auipc	ra,0xdfffa
20006e7c:	470080e7          	jalr	1136(ra) # 12e8 <smemcpy>
20006e80:	479d                	c.li	a5,7
20006e82:	2cf40823          	sb	a5,720(s0)
20006e86:	0004e7b7          	lui	a5,0x4e
20006e8a:	20078793          	addi	a5,a5,512 # 4e200 <BIN_SIZE+0x448de>
20006e8e:	2cf42e23          	sw	a5,732(s0)
20006e92:	02000793          	li	a5,32
20006e96:	2cf41c23          	sh	a5,728(s0)
20006e9a:	18740703          	lb	a4,391(s0)
20006e9e:	47c5                	c.li	a5,17
20006ea0:	2c0409a3          	sb	zero,723(s0)
20006ea4:	2cf40ba3          	sb	a5,727(s0)
20006ea8:	42177e5b          	bbs	a4,1,20006ee4 <fl_adv_run+0x30c>
20006eac:	18740783          	lb	a5,391(s0)
20006eb0:	01f00713          	li	a4,31
20006eb4:	0ff7f793          	andi	a5,a5,255
20006eb8:	0017e793          	ori	a5,a5,1
20006ebc:	18f403a3          	sb	a5,391(s0)
20006ec0:	03276263          	bltu	a4,s2,20006ee4 <fl_adv_run+0x30c>
20006ec4:	00690493          	addi	s1,s2,6
20006ec8:	0ff4f493          	andi	s1,s1,255
20006ecc:	01200633          	add	a2,zero,s2
20006ed0:	0b910593          	addi	a1,sp,185
20006ed4:	00c40513          	addi	a0,s0,12
20006ed8:	dfffa097          	auipc	ra,0xdfffa
20006edc:	410080e7          	jalr	1040(ra) # 12e8 <smemcpy>
20006ee0:	009402a3          	sb	s1,5(s0)
20006ee4:	67d1                	c.lui	a5,0x14
20006ee6:	88078793          	addi	a5,a5,-1920 # 13880 <BIN_SIZE+0x9f5e>
20006eea:	2ef42023          	sw	a5,736(s0)
20006eee:	4785                	c.li	a5,1
20006ef0:	2cf408a3          	sb	a5,721(s0)
20006ef4:	200077b7          	lui	a5,0x20007
20006ef8:	b3078793          	addi	a5,a5,-1232 # 20006b30 <fl_durationADV_timeout_proccess>
20006efc:	00100513          	li	a0,1
20006f00:	2ef42a23          	sw	a5,756(s0)
20006f04:	dfffb097          	auipc	ra,0xdfffb
20006f08:	a48080e7          	jalr	-1464(ra) # 194c <bls_ll_setAdvEnable>
20006f0c:	0b814603          	lbu	a2,184(sp)
20006f10:	0b810593          	addi	a1,sp,184
20006f14:	815f950b          	addigp	a0,-2028 # 80014 <G_DATA_CONTAINER>
20006f18:	97cff0ef          	jal	ra,20006094 <FL_QUEUE_FIND>
20006f1c:	57fd                	c.li	a5,-1
20006f1e:	e4f515e3          	bne	a0,a5,20006d68 <fl_adv_run+0x190>
20006f22:	192c                	c.addi4spn	a1,sp,184
20006f24:	815f950b          	addigp	a0,-2028 # 80014 <G_DATA_CONTAINER>
20006f28:	88dfe0ef          	jal	ra,200057b4 <FL_QUEUE_ADD>
20006f2c:	5e054a63          	bltz	a0,20007520 <fl_adv_run+0x948>
20006f30:	0fc10593          	addi	a1,sp,252
20006f34:	815f950b          	addigp	a0,-2028 # 80014 <G_DATA_CONTAINER>
20006f38:	82dfe0ef          	jal	ra,20005764 <FL_QUEUE_GET>
20006f3c:	e2dff06f          	j	20006d68 <fl_adv_run+0x190>
20006f40:	20009537          	lui	a0,0x20009
20006f44:	1ac50513          	addi	a0,a0,428 # 200091ac <days_in_month+0xc>
20006f48:	4d0010ef          	jal	ra,20008418 <printf>
20006f4c:	20009437          	lui	s0,0x20009
20006f50:	02f00593          	li	a1,47
20006f54:	53440513          	addi	a0,s0,1332 # 20009534 <days_in_month+0x394>
20006f58:	4de010ef          	jal	ra,20008436 <strrchr>
20006f5c:	53440593          	addi	a1,s0,1332
20006f60:	00050a63          	beqz	a0,20006f74 <fl_adv_run+0x39c>
20006f64:	02f00593          	li	a1,47
20006f68:	53440513          	addi	a0,s0,1332
20006f6c:	4ca010ef          	jal	ra,20008436 <strrchr>
20006f70:	00150593          	addi	a1,a0,1
20006f74:	815f970b          	addigp	a4,-2028 # 80014 <G_DATA_CONTAINER>
20006f78:	00674803          	lbu	a6,6(a4)
20006f7c:	00574783          	lbu	a5,5(a4)
20006f80:	20009637          	lui	a2,0x20009
20006f84:	00774703          	lbu	a4,7(a4)
20006f88:	20009537          	lui	a0,0x20009
20006f8c:	16e00693          	li	a3,366
20006f90:	11060613          	addi	a2,a2,272 # 20009110 <__FUNCTION__.13353>
20006f94:	1b450513          	addi	a0,a0,436 # 200091b4 <days_in_month+0x14>
20006f98:	480010ef          	jal	ra,20008418 <printf>
20006f9c:	20009537          	lui	a0,0x20009
20006fa0:	4b450513          	addi	a0,a0,1204 # 200094b4 <days_in_month+0x314>
20006fa4:	474010ef          	jal	ra,20008418 <printf>
20006fa8:	c6dff06f          	j	20006c14 <fl_adv_run+0x3c>
20006fac:	20009537          	lui	a0,0x20009
20006fb0:	4e850513          	addi	a0,a0,1256 # 200094e8 <days_in_month+0x348>
20006fb4:	464010ef          	jal	ra,20008418 <printf>
20006fb8:	20009437          	lui	s0,0x20009
20006fbc:	02f00593          	li	a1,47
20006fc0:	53440513          	addi	a0,s0,1332 # 20009534 <days_in_month+0x394>
20006fc4:	472010ef          	jal	ra,20008436 <strrchr>
20006fc8:	53440593          	addi	a1,s0,1332
20006fcc:	00050a63          	beqz	a0,20006fe0 <fl_adv_run+0x408>
20006fd0:	02f00593          	li	a1,47
20006fd4:	53440513          	addi	a0,s0,1332
20006fd8:	45e010ef          	jal	ra,20008436 <strrchr>
20006fdc:	00150593          	addi	a1,a0,1
20006fe0:	20009637          	lui	a2,0x20009
20006fe4:	20009537          	lui	a0,0x20009
20006fe8:	0c200693          	li	a3,194
20006fec:	0dc60613          	addi	a2,a2,220 # 200090dc <__FUNCTION__.13148>
20006ff0:	3b450513          	addi	a0,a0,948 # 200093b4 <days_in_month+0x214>
20006ff4:	424010ef          	jal	ra,20008418 <printf>
20006ff8:	20009537          	lui	a0,0x20009
20006ffc:	4b450513          	addi	a0,a0,1204 # 200094b4 <days_in_month+0x314>
20007000:	418010ef          	jal	ra,20008418 <printf>
20007004:	f09ff06f          	j	20006f0c <fl_adv_run+0x334>
20007008:	20009537          	lui	a0,0x20009
2000700c:	1ac50513          	addi	a0,a0,428 # 200091ac <days_in_month+0xc>
20007010:	408010ef          	jal	ra,20008418 <printf>
20007014:	20009a37          	lui	s4,0x20009
20007018:	02f00593          	li	a1,47
2000701c:	534a0513          	addi	a0,s4,1332 # 20009534 <days_in_month+0x394>
20007020:	416010ef          	jal	ra,20008436 <strrchr>
20007024:	534a0593          	addi	a1,s4,1332
20007028:	00050a63          	beqz	a0,2000703c <fl_adv_run+0x464>
2000702c:	02f00593          	li	a1,47
20007030:	534a0513          	addi	a0,s4,1332
20007034:	402010ef          	jal	ra,20008436 <strrchr>
20007038:	00150593          	addi	a1,a0,1
2000703c:	825f970b          	addigp	a4,-2012 # 80024 <G_QUEUE_SENDING>
20007040:	00674803          	lbu	a6,6(a4)
20007044:	00574783          	lbu	a5,5(a4)
20007048:	20009637          	lui	a2,0x20009
2000704c:	00774703          	lbu	a4,7(a4)
20007050:	20009537          	lui	a0,0x20009
20007054:	09600693          	li	a3,150
20007058:	0c860613          	addi	a2,a2,200 # 200090c8 <__FUNCTION__.13124>
2000705c:	36850513          	addi	a0,a0,872 # 20009368 <days_in_month+0x1c8>
20007060:	3b8010ef          	jal	ra,20008418 <printf>
20007064:	20009537          	lui	a0,0x20009
20007068:	4b450513          	addi	a0,a0,1204 # 200094b4 <days_in_month+0x314>
2000706c:	3ac010ef          	jal	ra,20008418 <printf>
20007070:	d39ff06f          	j	20006da8 <fl_adv_run+0x1d0>
20007074:	466d                	c.li	a2,27
20007076:	07510593          	addi	a1,sp,117
2000707a:	19e8                	c.addi4spn	a0,sp,252
2000707c:	1f8010ef          	jal	ra,20008274 <memcpy>
20007080:	11411703          	lh	a4,276(sp)
20007084:	11610783          	lb	a5,278(sp)
20007088:	58fe                	c.lwsp	a7,252(sp)
2000708a:	10012803          	lw	a6,256(sp)
2000708e:	10412503          	lw	a0,260(sp)
20007092:	10812583          	lw	a1,264(sp)
20007096:	10c12603          	lw	a2,268(sp)
2000709a:	11012683          	lw	a3,272(sp)
2000709e:	00049303          	lh	t1,0(s1)
200070a2:	dd46                	c.swsp	a7,184(sp)
200070a4:	df42                	c.swsp	a6,188(sp)
200070a6:	c1aa                	c.swsp	a0,192(sp)
200070a8:	c3ae                	c.swsp	a1,196(sp)
200070aa:	c5b2                	c.swsp	a2,200(sp)
200070ac:	c7b6                	c.swsp	a3,204(sp)
200070ae:	0ce11823          	sh	a4,208(sp)
200070b2:	0cf10923          	sb	a5,210(sp)
200070b6:	ca46                	c.swsp	a7,20(sp)
200070b8:	cc42                	c.swsp	a6,24(sp)
200070ba:	ce2a                	c.swsp	a0,28(sp)
200070bc:	d02e                	c.swsp	a1,32(sp)
200070be:	d232                	c.swsp	a2,36(sp)
200070c0:	02d12423          	sw	a3,40(sp)
200070c4:	02e11623          	sh	a4,44(sp)
200070c8:	02f10723          	sb	a5,46(sp)
200070cc:	6c43765b          	bbs	t1,4,20007398 <fl_adv_run+0x7c0>
200070d0:	01512503          	lw	a0,21(sp)
200070d4:	0fc10593          	addi	a1,sp,252
200070d8:	f34fe0ef          	jal	ra,2000580c <fl_rtc_timestamp_to_datetime>
200070dc:	00049783          	lh	a5,0(s1)
200070e0:	6447f05b          	bbs	a5,4,20007320 <fl_adv_run+0x748>
200070e4:	00049783          	lh	a5,0(s1)
200070e8:	0847fa5b          	bbc	a5,4,2000717c <fl_adv_run+0x5a4>
200070ec:	00049783          	lh	a5,0(s1)
200070f0:	0047f45b          	bbc	a5,4,200070f8 <fl_adv_run+0x520>
200070f4:	4e40006f          	j	200075d8 <fl_adv_run+0xa00>
200070f8:	00049783          	lh	a5,0(s1)
200070fc:	0047f45b          	bbc	a5,4,20007104 <fl_adv_run+0x52c>
20007100:	4a80006f          	j	200075a8 <fl_adv_run+0x9d0>
20007104:	01910413          	addi	s0,sp,25
20007108:	02d10913          	addi	s2,sp,45
2000710c:	20009b37          	lui	s6,0x20009
20007110:	20009ab7          	lui	s5,0x20009
20007114:	20009a37          	lui	s4,0x20009
20007118:	00c0006f          	j	20007124 <fl_adv_run+0x54c>
2000711c:	00140413          	addi	s0,s0,1
20007120:	03240863          	beq	s0,s2,20007150 <fl_adv_run+0x578>
20007124:	00049783          	lh	a5,0(s1)
20007128:	be47fa5b          	bbc	a5,4,2000711c <fl_adv_run+0x544>
2000712c:	5d8b0513          	addi	a0,s6,1496 # 200095d8 <days_in_month+0x438>
20007130:	2e8010ef          	jal	ra,20008418 <printf>
20007134:	00044583          	lbu	a1,0(s0)
20007138:	4e0a8513          	addi	a0,s5,1248 # 200094e0 <days_in_month+0x340>
2000713c:	2dc010ef          	jal	ra,20008418 <printf>
20007140:	4b4a0513          	addi	a0,s4,1204 # 200094b4 <days_in_month+0x314>
20007144:	00140413          	addi	s0,s0,1
20007148:	2d0010ef          	jal	ra,20008418 <printf>
2000714c:	fd241ce3          	bne	s0,s2,20007124 <fl_adv_run+0x54c>
20007150:	00049783          	lh	a5,0(s1)
20007154:	0247f45b          	bbc	a5,4,2000717c <fl_adv_run+0x5a4>
20007158:	20009537          	lui	a0,0x20009
2000715c:	5d850513          	addi	a0,a0,1496 # 200095d8 <days_in_month+0x438>
20007160:	2b8010ef          	jal	ra,20008418 <printf>
20007164:	20009537          	lui	a0,0x20009
20007168:	76850513          	addi	a0,a0,1896 # 20009768 <days_in_month+0x5c8>
2000716c:	2ac010ef          	jal	ra,20008418 <printf>
20007170:	20009537          	lui	a0,0x20009
20007174:	4b450513          	addi	a0,a0,1204 # 200094b4 <days_in_month+0x314>
20007178:	2a0010ef          	jal	ra,20008418 <printf>
2000717c:	00049783          	lh	a5,0(s1)
20007180:	5447f05b          	bbs	a5,4,200072c0 <fl_adv_run+0x6e8>
20007184:	00049783          	lh	a5,0(s1)
20007188:	4c47fc5b          	bbs	a5,4,20007260 <fl_adv_run+0x688>
2000718c:	03010603          	lb	a2,48(sp)
20007190:	1679                	c.addi	a2,-2
20007192:	180c                	c.addi4spn	a1,sp,48
20007194:	0ff67613          	andi	a2,a2,255
20007198:	81df950b          	addigp	a0,-2020 # 8001c <G_HANDLE_MASTER_CONTAINER>
2000719c:	ef9fe0ef          	jal	ra,20006094 <FL_QUEUE_FIND>
200071a0:	fff00793          	li	a5,-1
200071a4:	06f50663          	beq	a0,a5,20007210 <fl_adv_run+0x638>
200071a8:	00049783          	lh	a5,0(s1)
200071ac:	4077f45b          	bbs	a5,7,200071b4 <fl_adv_run+0x5dc>
200071b0:	ba9ff06f          	j	20006d58 <fl_adv_run+0x180>
200071b4:	20009537          	lui	a0,0x20009
200071b8:	48850513          	addi	a0,a0,1160 # 20009488 <days_in_month+0x2e8>
200071bc:	25c010ef          	jal	ra,20008418 <printf>
200071c0:	20009437          	lui	s0,0x20009
200071c4:	02f00593          	li	a1,47
200071c8:	45840513          	addi	a0,s0,1112 # 20009458 <days_in_month+0x2b8>
200071cc:	26a010ef          	jal	ra,20008436 <strrchr>
200071d0:	45840593          	addi	a1,s0,1112
200071d4:	00050a63          	beqz	a0,200071e8 <fl_adv_run+0x610>
200071d8:	02f00593          	li	a1,47
200071dc:	45840513          	addi	a0,s0,1112
200071e0:	256010ef          	jal	ra,20008436 <strrchr>
200071e4:	00150593          	addi	a1,a0,1
200071e8:	20009637          	lui	a2,0x20009
200071ec:	20009537          	lui	a0,0x20009
200071f0:	0ae00693          	li	a3,174
200071f4:	0b460613          	addi	a2,a2,180 # 200090b4 <__FUNCTION__.13090>
200071f8:	30c50513          	addi	a0,a0,780 # 2000930c <days_in_month+0x16c>
200071fc:	21c010ef          	jal	ra,20008418 <printf>
20007200:	20009537          	lui	a0,0x20009
20007204:	4b450513          	addi	a0,a0,1204 # 200094b4 <days_in_month+0x314>
20007208:	210010ef          	jal	ra,20008418 <printf>
2000720c:	b4dff06f          	j	20006d58 <fl_adv_run+0x180>
20007210:	03010593          	addi	a1,sp,48
20007214:	81df950b          	addigp	a0,-2020 # 8001c <G_HANDLE_MASTER_CONTAINER>
20007218:	d9cfe0ef          	jal	ra,200057b4 <FL_QUEUE_ADD>
2000721c:	48054663          	bltz	a0,200076a8 <fl_adv_run+0xad0>
20007220:	03014783          	lbu	a5,48(sp)
20007224:	0294                	c.addi4spn	a3,sp,320
20007226:	00049703          	lh	a4,0(s1)
2000722a:	97b6                	c.add	a5,a3
2000722c:	ef078903          	lb	s2,-272(a5)
20007230:	0077745b          	bbc	a4,7,20007238 <fl_adv_run+0x660>
20007234:	4000006f          	j	20007634 <fl_adv_run+0xa5c>
20007238:	dfffb097          	auipc	ra,0xdfffb
2000723c:	848080e7          	jalr	-1976(ra) # 1a80 <trng_rand>
20007240:	47a9                	c.li	a5,10
20007242:	02f577b3          	remu	a5,a0,a5
20007246:	3e800593          	li	a1,1000
2000724a:	20006537          	lui	a0,0x20006
2000724e:	35850513          	addi	a0,a0,856 # 20006358 <fl_master_ProccesRSP_cbk>
20007252:	0785                	c.addi	a5,1
20007254:	02b785b3          	mul	a1,a5,a1
20007258:	89cff0ef          	jal	ra,200062f4 <blt_soft_timer_add>
2000725c:	afdff06f          	j	20006d58 <fl_adv_run+0x180>
20007260:	20009537          	lui	a0,0x20009
20007264:	5d850513          	addi	a0,a0,1496 # 200095d8 <days_in_month+0x438>
20007268:	1b0010ef          	jal	ra,20008418 <printf>
2000726c:	20009437          	lui	s0,0x20009
20007270:	02f00593          	li	a1,47
20007274:	53440513          	addi	a0,s0,1332 # 20009534 <days_in_month+0x394>
20007278:	1be010ef          	jal	ra,20008436 <strrchr>
2000727c:	53440593          	addi	a1,s0,1332
20007280:	00050a63          	beqz	a0,20007294 <fl_adv_run+0x6bc>
20007284:	02f00593          	li	a1,47
20007288:	53440513          	addi	a0,s0,1332
2000728c:	1aa010ef          	jal	ra,20008436 <strrchr>
20007290:	00150593          	addi	a1,a0,1
20007294:	02e10703          	lb	a4,46(sp)
20007298:	20009637          	lui	a2,0x20009
2000729c:	20009537          	lui	a0,0x20009
200072a0:	15e00693          	li	a3,350
200072a4:	0fc60613          	addi	a2,a2,252 # 200090fc <__FUNCTION__.13228>
200072a8:	26450513          	addi	a0,a0,612 # 20009264 <days_in_month+0xc4>
200072ac:	16c010ef          	jal	ra,20008418 <printf>
200072b0:	20009537          	lui	a0,0x20009
200072b4:	4b450513          	addi	a0,a0,1204 # 200094b4 <days_in_month+0x314>
200072b8:	160010ef          	jal	ra,20008418 <printf>
200072bc:	ed1ff06f          	j	2000718c <fl_adv_run+0x5b4>
200072c0:	20009537          	lui	a0,0x20009
200072c4:	5d850513          	addi	a0,a0,1496 # 200095d8 <days_in_month+0x438>
200072c8:	150010ef          	jal	ra,20008418 <printf>
200072cc:	20009437          	lui	s0,0x20009
200072d0:	02f00593          	li	a1,47
200072d4:	53440513          	addi	a0,s0,1332 # 20009534 <days_in_month+0x394>
200072d8:	15e010ef          	jal	ra,20008436 <strrchr>
200072dc:	53440593          	addi	a1,s0,1332
200072e0:	00050a63          	beqz	a0,200072f4 <fl_adv_run+0x71c>
200072e4:	02f00593          	li	a1,47
200072e8:	53440513          	addi	a0,s0,1332
200072ec:	14a010ef          	jal	ra,20008436 <strrchr>
200072f0:	00150593          	addi	a1,a0,1
200072f4:	02d14703          	lbu	a4,45(sp)
200072f8:	20009637          	lui	a2,0x20009
200072fc:	20009537          	lui	a0,0x20009
20007300:	15d00693          	li	a3,349
20007304:	0fc60613          	addi	a2,a2,252 # 200090fc <__FUNCTION__.13228>
20007308:	24050513          	addi	a0,a0,576 # 20009240 <days_in_month+0xa0>
2000730c:	10c010ef          	jal	ra,20008418 <printf>
20007310:	20009537          	lui	a0,0x20009
20007314:	4b450513          	addi	a0,a0,1204 # 200094b4 <days_in_month+0x314>
20007318:	100010ef          	jal	ra,20008418 <printf>
2000731c:	e69ff06f          	j	20007184 <fl_adv_run+0x5ac>
20007320:	20009537          	lui	a0,0x20009
20007324:	5d850513          	addi	a0,a0,1496 # 200095d8 <days_in_month+0x438>
20007328:	0f0010ef          	jal	ra,20008418 <printf>
2000732c:	20009437          	lui	s0,0x20009
20007330:	02f00593          	li	a1,47
20007334:	53440513          	addi	a0,s0,1332 # 20009534 <days_in_month+0x394>
20007338:	0fe010ef          	jal	ra,20008436 <strrchr>
2000733c:	53440593          	addi	a1,s0,1332
20007340:	00050a63          	beqz	a0,20007354 <fl_adv_run+0x77c>
20007344:	02f00593          	li	a1,47
20007348:	53440513          	addi	a0,s0,1332
2000734c:	0ea010ef          	jal	ra,20008436 <strrchr>
20007350:	00150593          	addi	a1,a0,1
20007354:	10214e03          	lbu	t3,258(sp)
20007358:	10114303          	lbu	t1,257(sp)
2000735c:	10014883          	lbu	a7,256(sp)
20007360:	0ff14803          	lbu	a6,255(sp)
20007364:	0fe14783          	lbu	a5,254(sp)
20007368:	0fc15703          	lhu	a4,252(sp)
2000736c:	20009637          	lui	a2,0x20009
20007370:	20009537          	lui	a0,0x20009
20007374:	15b00693          	li	a3,347
20007378:	0fc60613          	addi	a2,a2,252 # 200090fc <__FUNCTION__.13228>
2000737c:	1fc50513          	addi	a0,a0,508 # 200091fc <days_in_month+0x5c>
20007380:	c272                	c.swsp	t3,4(sp)
20007382:	c01a                	c.swsp	t1,0(sp)
20007384:	094010ef          	jal	ra,20008418 <printf>
20007388:	20009537          	lui	a0,0x20009
2000738c:	4b450513          	addi	a0,a0,1204 # 200094b4 <days_in_month+0x314>
20007390:	088010ef          	jal	ra,20008418 <printf>
20007394:	d51ff06f          	j	200070e4 <fl_adv_run+0x50c>
20007398:	20009537          	lui	a0,0x20009
2000739c:	5d850513          	addi	a0,a0,1496 # 200095d8 <days_in_month+0x438>
200073a0:	078010ef          	jal	ra,20008418 <printf>
200073a4:	20009437          	lui	s0,0x20009
200073a8:	02f00593          	li	a1,47
200073ac:	53440513          	addi	a0,s0,1332 # 20009534 <days_in_month+0x394>
200073b0:	086010ef          	jal	ra,20008436 <strrchr>
200073b4:	53440593          	addi	a1,s0,1332
200073b8:	00050a63          	beqz	a0,200073cc <fl_adv_run+0x7f4>
200073bc:	02f00593          	li	a1,47
200073c0:	53440513          	addi	a0,s0,1332
200073c4:	072010ef          	jal	ra,20008436 <strrchr>
200073c8:	00150593          	addi	a1,a0,1
200073cc:	01414703          	lbu	a4,20(sp)
200073d0:	20009637          	lui	a2,0x20009
200073d4:	20009537          	lui	a0,0x20009
200073d8:	15400693          	li	a3,340
200073dc:	0fc60613          	addi	a2,a2,252 # 200090fc <__FUNCTION__.13228>
200073e0:	1e050513          	addi	a0,a0,480 # 200091e0 <days_in_month+0x40>
200073e4:	034010ef          	jal	ra,20008418 <printf>
200073e8:	20009537          	lui	a0,0x20009
200073ec:	4b450513          	addi	a0,a0,1204 # 200094b4 <days_in_month+0x314>
200073f0:	028010ef          	jal	ra,20008418 <printf>
200073f4:	cddff06f          	j	200070d0 <fl_adv_run+0x4f8>
200073f8:	20009537          	lui	a0,0x20009
200073fc:	1ac50513          	addi	a0,a0,428 # 200091ac <days_in_month+0xc>
20007400:	018010ef          	jal	ra,20008418 <printf>
20007404:	02f00593          	li	a1,47
20007408:	53440513          	addi	a0,s0,1332
2000740c:	02a010ef          	jal	ra,20008436 <strrchr>
20007410:	53440593          	addi	a1,s0,1332
20007414:	00050a63          	beqz	a0,20007428 <fl_adv_run+0x850>
20007418:	02f00593          	li	a1,47
2000741c:	53440513          	addi	a0,s0,1332
20007420:	016010ef          	jal	ra,20008436 <strrchr>
20007424:	00150593          	addi	a1,a0,1
20007428:	20009537          	lui	a0,0x20009
2000742c:	17e00693          	li	a3,382
20007430:	110a0613          	addi	a2,s4,272
20007434:	4bc50513          	addi	a0,a0,1212 # 200094bc <days_in_month+0x31c>
20007438:	7e1000ef          	jal	ra,20008418 <printf>
2000743c:	4b490513          	addi	a0,s2,1204
20007440:	7d9000ef          	jal	ra,20008418 <printf>
20007444:	871ff06f          	j	20006cb4 <fl_adv_run+0xdc>
20007448:	18740783          	lb	a5,391(s0)
2000744c:	2d244703          	lbu	a4,722(s0)
20007450:	4617f25b          	bbs	a5,1,200074b4 <fl_adv_run+0x8dc>
20007454:	18740783          	lb	a5,391(s0)
20007458:	01f00693          	li	a3,31
2000745c:	0ff7f793          	andi	a5,a5,255
20007460:	0017e793          	ori	a5,a5,1
20007464:	18f403a3          	sb	a5,391(s0)
20007468:	0526e663          	bltu	a3,s2,200074b4 <fl_adv_run+0x8dc>
2000746c:	00690493          	addi	s1,s2,6
20007470:	0ff4f493          	andi	s1,s1,255
20007474:	0047565b          	beqc	a4,4,20007480 <fl_adv_run+0x8a8>
20007478:	0017545b          	beqc	a4,1,20007480 <fl_adv_run+0x8a8>
2000747c:	a51ff06f          	j	20006ecc <fl_adv_run+0x2f4>
20007480:	00600613          	li	a2,6
20007484:	0b910593          	addi	a1,sp,185
20007488:	75040513          	addi	a0,s0,1872
2000748c:	dfffa097          	auipc	ra,0xdfffa
20007490:	e5c080e7          	jalr	-420(ra) # 12e8 <smemcpy>
20007494:	00600793          	li	a5,6
20007498:	0127fc63          	bgeu	a5,s2,200074b0 <fl_adv_run+0x8d8>
2000749c:	ffa90613          	addi	a2,s2,-6
200074a0:	0bf10593          	addi	a1,sp,191
200074a4:	01240513          	addi	a0,s0,18
200074a8:	dfffa097          	auipc	ra,0xdfffa
200074ac:	e40080e7          	jalr	-448(ra) # 12e8 <smemcpy>
200074b0:	74940b23          	sb	s1,1878(s0)
200074b4:	2d244783          	lbu	a5,722(s0)
200074b8:	0017d45b          	beqc	a5,1,200074c0 <fl_adv_run+0x8e8>
200074bc:	a29ff06f          	j	20006ee4 <fl_adv_run+0x30c>
200074c0:	a35ff06f          	j	20006ef4 <fl_adv_run+0x31c>
200074c4:	20009537          	lui	a0,0x20009
200074c8:	1ac50513          	addi	a0,a0,428 # 200091ac <days_in_month+0xc>
200074cc:	74d000ef          	jal	ra,20008418 <printf>
200074d0:	200094b7          	lui	s1,0x20009
200074d4:	02f00593          	li	a1,47
200074d8:	53448513          	addi	a0,s1,1332 # 20009534 <days_in_month+0x394>
200074dc:	75b000ef          	jal	ra,20008436 <strrchr>
200074e0:	53448593          	addi	a1,s1,1332
200074e4:	00050a63          	beqz	a0,200074f8 <fl_adv_run+0x920>
200074e8:	02f00593          	li	a1,47
200074ec:	53448513          	addi	a0,s1,1332
200074f0:	747000ef          	jal	ra,20008436 <strrchr>
200074f4:	00150593          	addi	a1,a0,1
200074f8:	20009637          	lui	a2,0x20009
200074fc:	20009537          	lui	a0,0x20009
20007500:	0af00693          	li	a3,175
20007504:	0dc60613          	addi	a2,a2,220 # 200090dc <__FUNCTION__.13148>
20007508:	39050513          	addi	a0,a0,912 # 20009390 <days_in_month+0x1f0>
2000750c:	70d000ef          	jal	ra,20008418 <printf>
20007510:	20009537          	lui	a0,0x20009
20007514:	4b450513          	addi	a0,a0,1204 # 200094b4 <days_in_month+0x314>
20007518:	701000ef          	jal	ra,20008418 <printf>
2000751c:	8c5ff06f          	j	20006de0 <fl_adv_run+0x208>
20007520:	20009537          	lui	a0,0x20009
20007524:	4e850513          	addi	a0,a0,1256 # 200094e8 <days_in_month+0x348>
20007528:	6f1000ef          	jal	ra,20008418 <printf>
2000752c:	20009437          	lui	s0,0x20009
20007530:	02f00593          	li	a1,47
20007534:	53440513          	addi	a0,s0,1332 # 20009534 <days_in_month+0x394>
20007538:	6ff000ef          	jal	ra,20008436 <strrchr>
2000753c:	53440593          	addi	a1,s0,1332
20007540:	00050a63          	beqz	a0,20007554 <fl_adv_run+0x97c>
20007544:	02f00593          	li	a1,47
20007548:	53440513          	addi	a0,s0,1332
2000754c:	6eb000ef          	jal	ra,20008436 <strrchr>
20007550:	00150593          	addi	a1,a0,1
20007554:	20009637          	lui	a2,0x20009
20007558:	20009537          	lui	a0,0x20009
2000755c:	09c00693          	li	a3,156
20007560:	0c860613          	addi	a2,a2,200 # 200090c8 <__FUNCTION__.13124>
20007564:	3d850513          	addi	a0,a0,984 # 200093d8 <days_in_month+0x238>
20007568:	6b1000ef          	jal	ra,20008418 <printf>
2000756c:	20009537          	lui	a0,0x20009
20007570:	4b450513          	addi	a0,a0,1204 # 200094b4 <days_in_month+0x314>
20007574:	6a5000ef          	jal	ra,20008418 <printf>
20007578:	ff0ff06f          	j	20006d68 <fl_adv_run+0x190>
2000757c:	75640703          	lb	a4,1878(s0)
20007580:	07f7f793          	andi	a5,a5,127
20007584:	00600613          	li	a2,6
20007588:	75040593          	addi	a1,s0,1872
2000758c:	00c40513          	addi	a0,s0,12
20007590:	74040ba3          	sb	zero,1879(s0)
20007594:	00f40223          	sb	a5,4(s0)
20007598:	00e402a3          	sb	a4,5(s0)
2000759c:	dfffa097          	auipc	ra,0xdfffa
200075a0:	d4c080e7          	jalr	-692(ra) # 12e8 <smemcpy>
200075a4:	899ff06f          	j	20006e3c <fl_adv_run+0x264>
200075a8:	20009537          	lui	a0,0x20009
200075ac:	5d850513          	addi	a0,a0,1496 # 200095d8 <days_in_month+0x438>
200075b0:	669000ef          	jal	ra,20008418 <printf>
200075b4:	200095b7          	lui	a1,0x20009
200075b8:	20009537          	lui	a0,0x20009
200075bc:	23458593          	addi	a1,a1,564 # 20009234 <days_in_month+0x94>
200075c0:	23c50513          	addi	a0,a0,572 # 2000923c <days_in_month+0x9c>
200075c4:	655000ef          	jal	ra,20008418 <printf>
200075c8:	20009537          	lui	a0,0x20009
200075cc:	4b450513          	addi	a0,a0,1204 # 200094b4 <days_in_month+0x314>
200075d0:	649000ef          	jal	ra,20008418 <printf>
200075d4:	b31ff06f          	j	20007104 <fl_adv_run+0x52c>
200075d8:	20009537          	lui	a0,0x20009
200075dc:	5d850513          	addi	a0,a0,1496 # 200095d8 <days_in_month+0x438>
200075e0:	639000ef          	jal	ra,20008418 <printf>
200075e4:	20009437          	lui	s0,0x20009
200075e8:	02f00593          	li	a1,47
200075ec:	53440513          	addi	a0,s0,1332 # 20009534 <days_in_month+0x394>
200075f0:	647000ef          	jal	ra,20008436 <strrchr>
200075f4:	53440593          	addi	a1,s0,1332
200075f8:	00050a63          	beqz	a0,2000760c <fl_adv_run+0xa34>
200075fc:	02f00593          	li	a1,47
20007600:	53440513          	addi	a0,s0,1332
20007604:	633000ef          	jal	ra,20008436 <strrchr>
20007608:	00150593          	addi	a1,a0,1
2000760c:	20009637          	lui	a2,0x20009
20007610:	20009537          	lui	a0,0x20009
20007614:	15c00693          	li	a3,348
20007618:	0fc60613          	addi	a2,a2,252 # 200090fc <__FUNCTION__.13228>
2000761c:	4bc50513          	addi	a0,a0,1212 # 200094bc <days_in_month+0x31c>
20007620:	5f9000ef          	jal	ra,20008418 <printf>
20007624:	20009537          	lui	a0,0x20009
20007628:	4b450513          	addi	a0,a0,1204 # 200094b4 <days_in_month+0x314>
2000762c:	5ed000ef          	jal	ra,20008418 <printf>
20007630:	ac9ff06f          	j	200070f8 <fl_adv_run+0x520>
20007634:	20009537          	lui	a0,0x20009
20007638:	48850513          	addi	a0,a0,1160 # 20009488 <days_in_month+0x2e8>
2000763c:	5dd000ef          	jal	ra,20008418 <printf>
20007640:	200094b7          	lui	s1,0x20009
20007644:	02f00593          	li	a1,47
20007648:	45848513          	addi	a0,s1,1112 # 20009458 <days_in_month+0x2b8>
2000764c:	5eb000ef          	jal	ra,20008436 <strrchr>
20007650:	45848593          	addi	a1,s1,1112
20007654:	00050a63          	beqz	a0,20007668 <fl_adv_run+0xa90>
20007658:	02f00593          	li	a1,47
2000765c:	45848513          	addi	a0,s1,1112
20007660:	5d7000ef          	jal	ra,20008436 <strrchr>
20007664:	00150593          	addi	a1,a0,1
20007668:	81df940b          	addigp	s0,-2020 # 8001c <G_HANDLE_MASTER_CONTAINER>
2000766c:	00544883          	lbu	a7,5(s0)
20007670:	00744803          	lbu	a6,7(s0)
20007674:	00644303          	lbu	t1,6(s0)
20007678:	03014703          	lbu	a4,48(sp)
2000767c:	20009637          	lui	a2,0x20009
20007680:	20009537          	lui	a0,0x20009
20007684:	87ca                	c.mv	a5,s2
20007686:	0a900693          	li	a3,169
2000768a:	0b460613          	addi	a2,a2,180 # 200090b4 <__FUNCTION__.13090>
2000768e:	2c450513          	addi	a0,a0,708 # 200092c4 <days_in_month+0x124>
20007692:	c01a                	c.swsp	t1,0(sp)
20007694:	585000ef          	jal	ra,20008418 <printf>
20007698:	20009537          	lui	a0,0x20009
2000769c:	4b450513          	addi	a0,a0,1204 # 200094b4 <days_in_month+0x314>
200076a0:	579000ef          	jal	ra,20008418 <printf>
200076a4:	b95ff06f          	j	20007238 <fl_adv_run+0x660>
200076a8:	20009537          	lui	a0,0x20009
200076ac:	4e850513          	addi	a0,a0,1256 # 200094e8 <days_in_month+0x348>
200076b0:	569000ef          	jal	ra,20008418 <printf>
200076b4:	20009437          	lui	s0,0x20009
200076b8:	02f00593          	li	a1,47
200076bc:	45840513          	addi	a0,s0,1112 # 20009458 <days_in_month+0x2b8>
200076c0:	577000ef          	jal	ra,20008436 <strrchr>
200076c4:	45840593          	addi	a1,s0,1112
200076c8:	00050a63          	beqz	a0,200076dc <fl_adv_run+0xb04>
200076cc:	02f00593          	li	a1,47
200076d0:	45840513          	addi	a0,s0,1112
200076d4:	563000ef          	jal	ra,20008436 <strrchr>
200076d8:	00150593          	addi	a1,a0,1
200076dc:	20009637          	lui	a2,0x20009
200076e0:	20009537          	lui	a0,0x20009
200076e4:	0a500693          	li	a3,165
200076e8:	0b460613          	addi	a2,a2,180 # 200090b4 <__FUNCTION__.13090>
200076ec:	28050513          	addi	a0,a0,640 # 20009280 <days_in_month+0xe0>
200076f0:	529000ef          	jal	ra,20008418 <printf>
200076f4:	20009537          	lui	a0,0x20009
200076f8:	4b450513          	addi	a0,a0,1204 # 200094b4 <days_in_month+0x314>
200076fc:	51d000ef          	jal	ra,20008418 <printf>
20007700:	e58ff06f          	j	20006d58 <fl_adv_run+0x180>
20007704:	0001                	c.nop
	...

20007708 <main_loop>:
20007708:	1141                	c.addi	sp,-16
2000770a:	c606                	c.swsp	ra,12(sp)
2000770c:	dfffc097          	auipc	ra,0xdfffc
20007710:	cd0080e7          	jalr	-816(ra) # 33dc <blt_sdk_main_loop>
20007714:	cc4ff0ef          	jal	ra,20006bd8 <fl_adv_run>
20007718:	40b2                	c.lwsp	ra,12(sp)
2000771a:	4501                	c.li	a0,0
2000771c:	0141                	c.addi	sp,16
2000771e:	adbfe06f          	j	200061f8 <blt_soft_timer_process>
	...

20007724 <fl_controller_event_callback>:
20007724:	0195765b          	bbc	a0,25,20007730 <fl_controller_event_callback+0xc>
20007728:	0ff57513          	andi	a0,a0,255
2000772c:	01e554db          	beqc	a0,62,20007734 <fl_controller_event_callback+0x10>
20007730:	4501                	c.li	a0,0
20007732:	8082                	c.jr	ra
20007734:	0005c783          	lbu	a5,0(a1)
20007738:	be27ec5b          	bnec	a5,2,20007730 <fl_controller_event_callback+0xc>
2000773c:	7119                	c.addi16sp	sp,-128
2000773e:	de86                	c.swsp	ra,124(sp)
20007740:	dca2                	c.swsp	s0,120(sp)
20007742:	daa6                	c.swsp	s1,116(sp)
20007744:	d8ca                	c.swsp	s2,112(sp)
20007746:	d6ce                	c.swsp	s3,108(sp)
20007748:	00a5c783          	lbu	a5,10(a1)
2000774c:	842e                	c.mv	s0,a1
2000774e:	0785                	c.addi	a5,1
20007750:	863e                	c.mv	a2,a5
20007752:	05ad                	c.addi	a1,11
20007754:	01d10513          	addi	a0,sp,29
20007758:	00f10e23          	sb	a5,28(sp)
2000775c:	319000ef          	jal	ra,20008274 <memcpy>
20007760:	01c10603          	lb	a2,28(sp)
20007764:	1679                	c.addi	a2,-2
20007766:	0ff67613          	andi	a2,a2,255
2000776a:	086c                	c.addi4spn	a1,sp,28
2000776c:	815f950b          	addigp	a0,-2028 # 80014 <G_DATA_CONTAINER>
20007770:	925fe0ef          	jal	ra,20006094 <FL_QUEUE_FIND>
20007774:	fff00793          	li	a5,-1
20007778:	00f50a63          	beq	a0,a5,2000778c <fl_controller_event_callback+0x68>
2000777c:	50f6                	c.lwsp	ra,124(sp)
2000777e:	5466                	c.lwsp	s0,120(sp)
20007780:	54d6                	c.lwsp	s1,116(sp)
20007782:	5946                	c.lwsp	s2,112(sp)
20007784:	59b6                	c.lwsp	s3,108(sp)
20007786:	4501                	c.li	a0,0
20007788:	6109                	c.addi16sp	sp,128
2000778a:	8082                	c.jr	ra
2000778c:	00a44783          	lbu	a5,10(s0)
20007790:	086c                	c.addi4spn	a1,sp,28
20007792:	97a2                	c.add	a5,s0
20007794:	815f950b          	addigp	a0,-2028 # 80014 <G_DATA_CONTAINER>
20007798:	00b7c903          	lbu	s2,11(a5)
2000779c:	818fe0ef          	jal	ra,200057b4 <FL_QUEUE_ADD>
200077a0:	08054263          	bltz	a0,20007824 <fl_controller_event_callback+0x100>
200077a4:	813f97ab          	lhgp	a5,-2030 # 80012 <FmDebug>
200077a8:	bc27fa5b          	bbc	a5,2,2000777c <fl_controller_event_callback+0x58>
200077ac:	20009537          	lui	a0,0x20009
200077b0:	1ac50513          	addi	a0,a0,428 # 200091ac <days_in_month+0xc>
200077b4:	465000ef          	jal	ra,20008418 <printf>
200077b8:	200099b7          	lui	s3,0x20009
200077bc:	02f00593          	li	a1,47
200077c0:	53498513          	addi	a0,s3,1332 # 20009534 <days_in_month+0x394>
200077c4:	473000ef          	jal	ra,20008436 <strrchr>
200077c8:	53498593          	addi	a1,s3,1332
200077cc:	00050a63          	beqz	a0,200077e0 <fl_controller_event_callback+0xbc>
200077d0:	02f00593          	li	a1,47
200077d4:	53498513          	addi	a0,s3,1332
200077d8:	45f000ef          	jal	ra,20008436 <strrchr>
200077dc:	00150593          	addi	a1,a0,1
200077e0:	815f948b          	addigp	s1,-2028 # 80014 <G_DATA_CONTAINER>
200077e4:	00a44703          	lbu	a4,10(s0)
200077e8:	0064c303          	lbu	t1,6(s1)
200077ec:	0054c883          	lbu	a7,5(s1)
200077f0:	0074c803          	lbu	a6,7(s1)
200077f4:	20009637          	lui	a2,0x20009
200077f8:	20009537          	lui	a0,0x20009
200077fc:	1c0937db          	bfos	a5,s2,7,0
20007800:	05100693          	li	a3,81
20007804:	04c60613          	addi	a2,a2,76 # 2000904c <__FUNCTION__.13002>
20007808:	40050513          	addi	a0,a0,1024 # 20009400 <days_in_month+0x260>
2000780c:	00612023          	sw	t1,0(sp)
20007810:	409000ef          	jal	ra,20008418 <printf>
20007814:	20009537          	lui	a0,0x20009
20007818:	4b450513          	addi	a0,a0,1204 # 200094b4 <days_in_month+0x314>
2000781c:	3fd000ef          	jal	ra,20008418 <printf>
20007820:	f5dff06f          	j	2000777c <fl_controller_event_callback+0x58>
20007824:	20009537          	lui	a0,0x20009
20007828:	4e850513          	addi	a0,a0,1256 # 200094e8 <days_in_month+0x348>
2000782c:	3ed000ef          	jal	ra,20008418 <printf>
20007830:	20009437          	lui	s0,0x20009
20007834:	02f00593          	li	a1,47
20007838:	53440513          	addi	a0,s0,1332 # 20009534 <days_in_month+0x394>
2000783c:	3fb000ef          	jal	ra,20008436 <strrchr>
20007840:	53440593          	addi	a1,s0,1332
20007844:	00050a63          	beqz	a0,20007858 <fl_controller_event_callback+0x134>
20007848:	02f00593          	li	a1,47
2000784c:	53440513          	addi	a0,s0,1332
20007850:	3e7000ef          	jal	ra,20008436 <strrchr>
20007854:	00150593          	addi	a1,a0,1
20007858:	20009637          	lui	a2,0x20009
2000785c:	20009537          	lui	a0,0x20009
20007860:	04e00693          	li	a3,78
20007864:	04c60613          	addi	a2,a2,76 # 2000904c <__FUNCTION__.13002>
20007868:	3d850513          	addi	a0,a0,984 # 200093d8 <days_in_month+0x238>
2000786c:	3ad000ef          	jal	ra,20008418 <printf>
20007870:	20009537          	lui	a0,0x20009
20007874:	4b450513          	addi	a0,a0,1204 # 200094b4 <days_in_month+0x314>
20007878:	3a1000ef          	jal	ra,20008418 <printf>
2000787c:	b701                	c.j	2000777c <fl_controller_event_callback+0x58>
	...

20007880 <app_system_time_sync>:
20007880:	7179                	c.addi16sp	sp,-48
20007882:	d422                	c.swsp	s0,40(sp)
20007884:	10625437          	lui	s0,0x10625
20007888:	dd340413          	addi	s0,s0,-557 # 10624dd3 <FLASH_SIZE+0x10524dd3>
2000788c:	d226                	c.swsp	s1,36(sp)
2000788e:	d606                	c.swsp	ra,44(sp)
20007890:	03212023          	sw	s2,32(sp)
20007894:	dfffb097          	auipc	ra,0xdfffb
20007898:	d70080e7          	jalr	-656(ra) # 2604 <clock_get_32k_tick>
2000789c:	02853433          	mulhu	s0,a0,s0
200078a0:	813f948b          	addigp	s1,-2030 # 80012 <FmDebug>
200078a4:	00001737          	lui	a4,0x1
200078a8:	8b472503          	lw	a0,-1868(a4) # 8b4 <RTC_OFFSET_TIME>
200078ac:	00049783          	lh	a5,0(s1)
200078b0:	802d                	c.srli	s0,0xb
200078b2:	942a                	c.add	s0,a0
200078b4:	4a27f45b          	bbs	a5,2,2000795c <app_system_time_sync+0xdc>
200078b8:	082c                	c.addi4spn	a1,sp,24
200078ba:	8522                	c.mv	a0,s0
200078bc:	f51fd0ef          	jal	ra,2000580c <fl_rtc_timestamp_to_datetime>
200078c0:	00049783          	lh	a5,0(s1)
200078c4:	4027fa5b          	bbs	a5,2,200078d8 <app_system_time_sync+0x58>
200078c8:	50b2                	c.lwsp	ra,44(sp)
200078ca:	5422                	c.lwsp	s0,40(sp)
200078cc:	5492                	c.lwsp	s1,36(sp)
200078ce:	5902                	c.lwsp	s2,32(sp)
200078d0:	4501                	c.li	a0,0
200078d2:	6145                	c.addi16sp	sp,48
200078d4:	00008067          	ret
200078d8:	20009537          	lui	a0,0x20009
200078dc:	1ac50513          	addi	a0,a0,428 # 200091ac <days_in_month+0xc>
200078e0:	339000ef          	jal	ra,20008418 <printf>
200078e4:	20009437          	lui	s0,0x20009
200078e8:	02f00593          	li	a1,47
200078ec:	12840513          	addi	a0,s0,296 # 20009128 <__FUNCTION__.9829+0xc>
200078f0:	347000ef          	jal	ra,20008436 <strrchr>
200078f4:	12840593          	addi	a1,s0,296
200078f8:	00050a63          	beqz	a0,2000790c <app_system_time_sync+0x8c>
200078fc:	02f00593          	li	a1,47
20007900:	12840513          	addi	a0,s0,296
20007904:	333000ef          	jal	ra,20008436 <strrchr>
20007908:	00150593          	addi	a1,a0,1
2000790c:	01e14e03          	lbu	t3,30(sp)
20007910:	01d14303          	lbu	t1,29(sp)
20007914:	01c14883          	lbu	a7,28(sp)
20007918:	01b14803          	lbu	a6,27(sp)
2000791c:	01a14783          	lbu	a5,26(sp)
20007920:	01815703          	lhu	a4,24(sp)
20007924:	20009637          	lui	a2,0x20009
20007928:	20009537          	lui	a0,0x20009
2000792c:	03800693          	li	a3,56
20007930:	00460613          	addi	a2,a2,4 # 20009004 <__FUNCTION__.12950>
20007934:	16450513          	addi	a0,a0,356 # 20009164 <__FUNCTION__.9829+0x48>
20007938:	c272                	c.swsp	t3,4(sp)
2000793a:	c01a                	c.swsp	t1,0(sp)
2000793c:	2dd000ef          	jal	ra,20008418 <printf>
20007940:	20009537          	lui	a0,0x20009
20007944:	4b450513          	addi	a0,a0,1204 # 200094b4 <days_in_month+0x314>
20007948:	2d1000ef          	jal	ra,20008418 <printf>
2000794c:	50b2                	c.lwsp	ra,44(sp)
2000794e:	5422                	c.lwsp	s0,40(sp)
20007950:	5492                	c.lwsp	s1,36(sp)
20007952:	5902                	c.lwsp	s2,32(sp)
20007954:	4501                	c.li	a0,0
20007956:	6145                	c.addi16sp	sp,48
20007958:	00008067          	ret
2000795c:	20009537          	lui	a0,0x20009
20007960:	1ac50513          	addi	a0,a0,428 # 200091ac <days_in_month+0xc>
20007964:	2b5000ef          	jal	ra,20008418 <printf>
20007968:	20009937          	lui	s2,0x20009
2000796c:	02f00593          	li	a1,47
20007970:	12890513          	addi	a0,s2,296 # 20009128 <__FUNCTION__.9829+0xc>
20007974:	2c3000ef          	jal	ra,20008436 <strrchr>
20007978:	12890593          	addi	a1,s2,296
2000797c:	00050a63          	beqz	a0,20007990 <app_system_time_sync+0x110>
20007980:	02f00593          	li	a1,47
20007984:	12890513          	addi	a0,s2,296
20007988:	2af000ef          	jal	ra,20008436 <strrchr>
2000798c:	00150593          	addi	a1,a0,1
20007990:	20009637          	lui	a2,0x20009
20007994:	20009537          	lui	a0,0x20009
20007998:	00800733          	add	a4,zero,s0
2000799c:	03600693          	li	a3,54
200079a0:	00460613          	addi	a2,a2,4 # 20009004 <__FUNCTION__.12950>
200079a4:	14450513          	addi	a0,a0,324 # 20009144 <__FUNCTION__.9829+0x28>
200079a8:	271000ef          	jal	ra,20008418 <printf>
200079ac:	20009537          	lui	a0,0x20009
200079b0:	4b450513          	addi	a0,a0,1204 # 200094b4 <days_in_month+0x314>
200079b4:	265000ef          	jal	ra,20008418 <printf>
200079b8:	b701                	c.j	200078b8 <app_system_time_sync+0x38>
200079ba:	0001                	c.nop

200079bc <user_init_normal>:
200079bc:	711d                	c.addi16sp	sp,-96
200079be:	801406b7          	lui	a3,0x80140
200079c2:	ce86                	c.swsp	ra,92(sp)
200079c4:	cca2                	c.swsp	s0,88(sp)
200079c6:	caa6                	c.swsp	s1,84(sp)
200079c8:	c8ca                	c.swsp	s2,80(sp)
200079ca:	c6ce                	c.swsp	s3,76(sp)
200079cc:	c4d2                	c.swsp	s4,72(sp)
200079ce:	c2d6                	c.swsp	s5,68(sp)
200079d0:	1e268703          	lb	a4,482(a3) # 801401e2 <_DATA_LMA_START+0x6013690a>
200079d4:	801027b7          	lui	a5,0x80102
200079d8:	0ff77713          	andi	a4,a4,255
200079dc:	00476713          	ori	a4,a4,4
200079e0:	1ee68123          	sb	a4,482(a3)
200079e4:	1e668703          	lb	a4,486(a3)
200079e8:	80102637          	lui	a2,0x80102
200079ec:	0ff77713          	andi	a4,a4,255
200079f0:	00476713          	ori	a4,a4,4
200079f4:	1ee68323          	sb	a4,486(a3)
200079f8:	80078703          	lb	a4,-2048(a5) # 80101800 <_DATA_LMA_START+0x600f7f28>
200079fc:	0fe77713          	andi	a4,a4,254
20007a00:	80e78023          	sb	a4,-2048(a5)
20007a04:	8007a223          	sw	zero,-2044(a5)
20007a08:	80078703          	lb	a4,-2048(a5)
20007a0c:	0ff77713          	andi	a4,a4,255
20007a10:	00176713          	ori	a4,a4,1
20007a14:	80e78023          	sb	a4,-2048(a5)
20007a18:	80860783          	lb	a5,-2040(a2) # 80101808 <_DATA_LMA_START+0x600f7f30>
20007a1c:	be07fe5b          	bbc	a5,0,20007a18 <user_init_normal+0x5c>
20007a20:	00000437          	lui	s0,0x0
20007a24:	80c62683          	lw	a3,-2036(a2)
20007a28:	17840713          	addi	a4,s0,376 # 178 <_AES_VMA_END>
20007a2c:	801027b7          	lui	a5,0x80102
20007a30:	17840413          	addi	s0,s0,376
20007a34:	34d72023          	sw	a3,832(a4)
20007a38:	80878703          	lb	a4,-2040(a5) # 80101808 <_DATA_LMA_START+0x600f7f30>
20007a3c:	be077e5b          	bbc	a4,0,20007a38 <user_init_normal+0x7c>
20007a40:	80140737          	lui	a4,0x80140
20007a44:	80c7a603          	lw	a2,-2036(a5)
20007a48:	1e270683          	lb	a3,482(a4) # 801401e2 <_DATA_LMA_START+0x6013690a>
20007a4c:	34c42223          	sw	a2,836(s0)
20007a50:	0fb6f693          	andi	a3,a3,251
20007a54:	3f042483          	lw	s1,1008(s0)
20007a58:	1ed70123          	sb	a3,482(a4)
20007a5c:	1e670683          	lb	a3,486(a4)
20007a60:	0fb6f693          	andi	a3,a3,251
20007a64:	1ed70323          	sb	a3,486(a4)
20007a68:	80078703          	lb	a4,-2048(a5)
20007a6c:	0e077713          	andi	a4,a4,224
20007a70:	80e78023          	sb	a4,-2048(a5)
20007a74:	ccf1                	c.beqz	s1,20007b50 <user_init_normal+0x194>
20007a76:	54442783          	lw	a5,1348(s0)
20007a7a:	1830                	c.addi4spn	a2,sp,56
20007a7c:	45a1                	c.li	a1,8
20007a7e:	8526                	c.mv	a0,s1
20007a80:	9782                	c.jalr	a5
20007a82:	082c                	c.addi4spn	a1,sp,24
20007a84:	00500513          	li	a0,5
20007a88:	b79fd0ef          	jal	ra,20005600 <generateRandomNum>
20007a8c:	57fd                	c.li	a5,-1
20007a8e:	4619                	c.li	a2,6
20007a90:	180c                	c.addi4spn	a1,sp,48
20007a92:	1828                	c.addi4spn	a0,sp,56
20007a94:	02f12823          	sw	a5,48(sp)
20007a98:	02f11a23          	sh	a5,52(sp)
20007a9c:	788000ef          	jal	ra,20008224 <memcmp>
20007aa0:	c901                	c.beqz	a0,20007ab0 <user_init_normal+0xf4>
20007aa2:	4619                	c.li	a2,6
20007aa4:	182c                	c.addi4spn	a1,sp,56
20007aa6:	1028                	c.addi4spn	a0,sp,40
20007aa8:	7cc000ef          	jal	ra,20008274 <memcpy>
20007aac:	03c0006f          	j	20007ae8 <user_init_normal+0x12c>
20007ab0:	01810783          	lb	a5,24(sp)
20007ab4:	54042703          	lw	a4,1344(s0)
20007ab8:	02f10423          	sb	a5,40(sp)
20007abc:	01910783          	lb	a5,25(sp)
20007ac0:	1030                	c.addi4spn	a2,sp,40
20007ac2:	02f104a3          	sb	a5,41(sp)
20007ac6:	01a10783          	lb	a5,26(sp)
20007aca:	4599                	c.li	a1,6
20007acc:	02f10523          	sb	a5,42(sp)
20007ad0:	6789                	c.lui	a5,0x2
20007ad2:	9d178793          	addi	a5,a5,-1583 # 19d1 <bls_ll_setAdvEnable+0x85>
20007ad6:	02f115a3          	sh	a5,43(sp)
20007ada:	8526                	c.mv	a0,s1
20007adc:	fc400793          	li	a5,-60
20007ae0:	02f106a3          	sb	a5,45(sp)
20007ae4:	000700e7          	jalr	a4
20007ae8:	03e14703          	lbu	a4,62(sp)
20007aec:	03f14783          	lbu	a5,63(sp)
20007af0:	07a2                	c.slli	a5,0x8
20007af2:	8fd9                	c.or	a5,a4
20007af4:	02810703          	lb	a4,40(sp)
20007af8:	3c07b7db          	bfos	a5,a5,15,0
20007afc:	02e10023          	sb	a4,32(sp)
20007b00:	02910703          	lb	a4,41(sp)
20007b04:	02e100a3          	sb	a4,33(sp)
20007b08:	02a10703          	lb	a4,42(sp)
20007b0c:	02e10123          	sb	a4,34(sp)
20007b10:	fc000713          	li	a4,-64
20007b14:	02e102a3          	sb	a4,37(sp)
20007b18:	577d                	c.li	a4,-1
20007b1a:	00e78b63          	beq	a5,a4,20007b30 <user_init_normal+0x174>
20007b1e:	4609                	c.li	a2,2
20007b20:	03e10593          	addi	a1,sp,62
20007b24:	02310513          	addi	a0,sp,35
20007b28:	74c000ef          	jal	ra,20008274 <memcpy>
20007b2c:	0240006f          	j	20007b50 <user_init_normal+0x194>
20007b30:	01b10703          	lb	a4,27(sp)
20007b34:	54042783          	lw	a5,1344(s0)
20007b38:	02e101a3          	sb	a4,35(sp)
20007b3c:	01c10703          	lb	a4,28(sp)
20007b40:	02310613          	addi	a2,sp,35
20007b44:	4589                	c.li	a1,2
20007b46:	00648513          	addi	a0,s1,6
20007b4a:	02e10223          	sb	a4,36(sp)
20007b4e:	9782                	c.jalr	a5
20007b50:	813f978b          	addigp	a5,-2030 # 80012 <FmDebug>
20007b54:	00079783          	lh	a5,0(a5)
20007b58:	813f948b          	addigp	s1,-2030 # 80012 <FmDebug>
20007b5c:	1027f45b          	bbc	a5,2,20007c64 <user_init_normal+0x2a8>
20007b60:	00049783          	lh	a5,0(s1)
20007b64:	0427fe5b          	bbc	a5,2,20007bc0 <user_init_normal+0x204>
20007b68:	20009537          	lui	a0,0x20009
20007b6c:	1ac50513          	addi	a0,a0,428 # 200091ac <days_in_month+0xc>
20007b70:	0a9000ef          	jal	ra,20008418 <printf>
20007b74:	20009937          	lui	s2,0x20009
20007b78:	02f00593          	li	a1,47
20007b7c:	12890513          	addi	a0,s2,296 # 20009128 <__FUNCTION__.9829+0xc>
20007b80:	0b7000ef          	jal	ra,20008436 <strrchr>
20007b84:	12890593          	addi	a1,s2,296
20007b88:	00050a63          	beqz	a0,20007b9c <user_init_normal+0x1e0>
20007b8c:	02f00593          	li	a1,47
20007b90:	12890513          	addi	a0,s2,296
20007b94:	0a3000ef          	jal	ra,20008436 <strrchr>
20007b98:	00150593          	addi	a1,a0,1
20007b9c:	20009637          	lui	a2,0x20009
20007ba0:	20009537          	lui	a0,0x20009
20007ba4:	04d00693          	li	a3,77
20007ba8:	01c60613          	addi	a2,a2,28 # 2000901c <__FUNCTION__.12986>
20007bac:	4bc50513          	addi	a0,a0,1212 # 200094bc <days_in_month+0x31c>
20007bb0:	069000ef          	jal	ra,20008418 <printf>
20007bb4:	20009537          	lui	a0,0x20009
20007bb8:	4b450513          	addi	a0,a0,1204 # 200094b4 <days_in_month+0x314>
20007bbc:	05d000ef          	jal	ra,20008418 <printf>
20007bc0:	00049783          	lh	a5,0(s1)
20007bc4:	0227f85b          	bbc	a5,2,20007bf4 <user_init_normal+0x238>
20007bc8:	20009537          	lui	a0,0x20009
20007bcc:	1ac50513          	addi	a0,a0,428 # 200091ac <days_in_month+0xc>
20007bd0:	049000ef          	jal	ra,20008418 <printf>
20007bd4:	200095b7          	lui	a1,0x20009
20007bd8:	20009537          	lui	a0,0x20009
20007bdc:	72858593          	addi	a1,a1,1832 # 20009728 <days_in_month+0x588>
20007be0:	73050513          	addi	a0,a0,1840 # 20009730 <days_in_month+0x590>
20007be4:	035000ef          	jal	ra,20008418 <printf>
20007be8:	20009537          	lui	a0,0x20009
20007bec:	4b450513          	addi	a0,a0,1204 # 200094b4 <days_in_month+0x314>
20007bf0:	029000ef          	jal	ra,20008418 <printf>
20007bf4:	00000913          	li	s2,0
20007bf8:	20009ab7          	lui	s5,0x20009
20007bfc:	20009a37          	lui	s4,0x20009
20007c00:	200099b7          	lui	s3,0x20009
20007c04:	00049783          	lh	a5,0(s1)
20007c08:	0227f45b          	bbc	a5,2,20007c30 <user_init_normal+0x274>
20007c0c:	1aca8513          	addi	a0,s5,428 # 200091ac <days_in_month+0xc>
20007c10:	009000ef          	jal	ra,20008418 <printf>
20007c14:	02810613          	addi	a2,sp,40
20007c18:	012607b3          	add	a5,a2,s2
20007c1c:	0007c583          	lbu	a1,0(a5)
20007c20:	4e0a0513          	addi	a0,s4,1248 # 200094e0 <days_in_month+0x340>
20007c24:	7f4000ef          	jal	ra,20008418 <printf>
20007c28:	4b498513          	addi	a0,s3,1204 # 200094b4 <days_in_month+0x314>
20007c2c:	7ec000ef          	jal	ra,20008418 <printf>
20007c30:	00190913          	addi	s2,s2,1
20007c34:	bc69685b          	bnec	s2,6,20007c04 <user_init_normal+0x248>
20007c38:	00049783          	lh	a5,0(s1)
20007c3c:	0227f45b          	bbc	a5,2,20007c64 <user_init_normal+0x2a8>
20007c40:	20009537          	lui	a0,0x20009
20007c44:	1ac50513          	addi	a0,a0,428 # 200091ac <days_in_month+0xc>
20007c48:	7d0000ef          	jal	ra,20008418 <printf>
20007c4c:	20009537          	lui	a0,0x20009
20007c50:	76850513          	addi	a0,a0,1896 # 20009768 <days_in_month+0x5c8>
20007c54:	7c4000ef          	jal	ra,20008418 <printf>
20007c58:	20009537          	lui	a0,0x20009
20007c5c:	4b450513          	addi	a0,a0,1204 # 200094b4 <days_in_month+0x314>
20007c60:	7b8000ef          	jal	ra,20008418 <printf>
20007c64:	dfffa097          	auipc	ra,0xdfffa
20007c68:	104080e7          	jalr	260(ra) # 1d68 <blc_ll_initBasicMCU>
20007c6c:	74440993          	addi	s3,s0,1860
20007c70:	000027b7          	lui	a5,0x2
20007c74:	854e                	c.mv	a0,s3
20007c76:	a4078793          	addi	a5,a5,-1472 # 1a40 <blt_event_callback_func>
20007c7a:	4619                	c.li	a2,6
20007c7c:	02810593          	addi	a1,sp,40
20007c80:	44f42e23          	sw	a5,1116(s0)
20007c84:	dfff9097          	auipc	ra,0xdfff9
20007c88:	664080e7          	jalr	1636(ra) # 12e8 <smemcpy>
20007c8c:	57fd                	c.li	a5,-1
20007c8e:	18f40c23          	sb	a5,408(s0)
20007c92:	200067b7          	lui	a5,0x20006
20007c96:	bd078793          	addi	a5,a5,-1072 # 20005bd0 <blt_send_adv>
20007c9a:	85ce                	c.mv	a1,s3
20007c9c:	00600613          	li	a2,6
20007ca0:	00640513          	addi	a0,s0,6
20007ca4:	4af42823          	sw	a5,1200(s0)
20007ca8:	dfff9097          	auipc	ra,0xdfff9
20007cac:	640080e7          	jalr	1600(ra) # 12e8 <smemcpy>
20007cb0:	85ce                	c.mv	a1,s3
20007cb2:	4619                	c.li	a2,6
20007cb4:	50e40513          	addi	a0,s0,1294
20007cb8:	dfff9097          	auipc	ra,0xdfff9
20007cbc:	630080e7          	jalr	1584(ra) # 12e8 <smemcpy>
20007cc0:	4905                	c.li	s2,1
20007cc2:	19240d23          	sb	s2,410(s0)
20007cc6:	0030d7b7          	lui	a5,0x30d
20007cca:	19240323          	sb	s2,390(s0)
20007cce:	4a6d                	c.li	s4,27
20007cd0:	40078793          	addi	a5,a5,1024 # 30d400 <FLASH_SIZE+0x20d400>
20007cd4:	75840713          	addi	a4,s0,1880
20007cd8:	19440e23          	sb	s4,412(s0)
20007cdc:	2cf42e23          	sw	a5,732(s0)
20007ce0:	000f17b7          	lui	a5,0xf1
20007ce4:	03000993          	li	s3,48
20007ce8:	78840693          	addi	a3,s0,1928
20007cec:	0791                	c.addi	a5,4
20007cee:	19440ea3          	sb	s4,413(s0)
20007cf2:	4619                	c.li	a2,6
20007cf4:	00e00533          	add	a0,zero,a4
20007cf8:	831f958b          	addigp	a1,-2000 # 80030 <blt_tx_empty_packet>
20007cfc:	192404a3          	sb	s2,393(s0)
20007d00:	3f341023          	sh	s3,992(s0)
20007d04:	3ef421a3          	sw	a5,995(s0)
20007d08:	3ee42423          	sw	a4,1000(s0)
20007d0c:	3ed42623          	sw	a3,1004(s0)
20007d10:	3e0403a3          	sb	zero,999(s0)
20007d14:	dfff9097          	auipc	ra,0xdfff9
20007d18:	5d4080e7          	jalr	1492(ra) # 12e8 <smemcpy>
20007d1c:	000017b7          	lui	a5,0x1
20007d20:	17878713          	addi	a4,a5,376 # 1178 <blt_buff_ll_rx+0xf4>
20007d24:	19240423          	sb	s2,392(s0)
20007d28:	a8870713          	addi	a4,a4,-1400
20007d2c:	1ae42023          	sw	a4,416(s0)
20007d30:	468d                	c.li	a3,3
20007d32:	18d409a3          	sb	a3,403(s0)
20007d36:	192401a3          	sb	s2,387(s0)
20007d3a:	19c40683          	lb	a3,412(s0)
20007d3e:	70800613          	li	a2,1800
20007d42:	3b341623          	sh	s3,940(s0)
20007d46:	3ae42c23          	sw	a4,952(s0)
20007d4a:	000019b7          	lui	s3,0x1
20007d4e:	3ac42823          	sw	a2,944(s0)
20007d52:	0ff6f713          	andi	a4,a3,255
20007d56:	8bc98993          	addi	s3,s3,-1860 # 8bc <bltMac>
20007d5a:	17878913          	addi	s2,a5,376
20007d5e:	e319                	c.bnez	a4,20007d64 <user_init_normal+0x3a8>
20007d60:	19440e23          	sb	s4,412(s0)
20007d64:	19d40783          	lb	a5,413(s0)
20007d68:	0ff7f793          	andi	a5,a5,255
20007d6c:	e781                	c.bnez	a5,20007d74 <user_init_normal+0x3b8>
20007d6e:	47ed                	c.li	a5,27
20007d70:	18f40ea3          	sb	a5,413(s0)
20007d74:	18840783          	lb	a5,392(s0)
20007d78:	0ff7f793          	andi	a5,a5,255
20007d7c:	cb91                	c.beqz	a5,20007d90 <user_init_normal+0x3d4>
20007d7e:	19c40783          	lb	a5,412(s0)
20007d82:	476d                	c.li	a4,27
20007d84:	0ff7f793          	andi	a5,a5,255
20007d88:	00f77e63          	bgeu	a4,a5,20007da4 <user_init_normal+0x3e8>
20007d8c:	0b00006f          	j	20007e3c <user_init_normal+0x480>
20007d90:	18a40783          	lb	a5,394(s0)
20007d94:	0ff7f793          	andi	a5,a5,255
20007d98:	e7d5                	c.bnez	a5,20007e44 <user_init_normal+0x488>
20007d9a:	18b40783          	lb	a5,395(s0)
20007d9e:	0ff7f793          	andi	a5,a5,255
20007da2:	e3cd                	c.bnez	a5,20007e44 <user_init_normal+0x488>
20007da4:	18940783          	lb	a5,393(s0)
20007da8:	0ff7f793          	andi	a5,a5,255
20007dac:	cb91                	c.beqz	a5,20007dc0 <user_init_normal+0x404>
20007dae:	19d40783          	lb	a5,413(s0)
20007db2:	02600713          	li	a4,38
20007db6:	0ff7f793          	andi	a5,a5,255
20007dba:	00f77d63          	bgeu	a4,a5,20007dd4 <user_init_normal+0x418>
20007dbe:	a079                	c.j	20007e4c <user_init_normal+0x490>
20007dc0:	18a40783          	lb	a5,394(s0)
20007dc4:	0ff7f793          	andi	a5,a5,255
20007dc8:	e7d1                	c.bnez	a5,20007e54 <user_init_normal+0x498>
20007dca:	18b40783          	lb	a5,395(s0)
20007dce:	0ff7f793          	andi	a5,a5,255
20007dd2:	e3c9                	c.bnez	a5,20007e54 <user_init_normal+0x498>
20007dd4:	19c40703          	lb	a4,412(s0)
20007dd8:	19d40783          	lb	a5,413(s0)
20007ddc:	46ed                	c.li	a3,27
20007dde:	0ff7f793          	andi	a5,a5,255
20007de2:	3cd40623          	sb	a3,972(s0)
20007de6:	001b06b7          	lui	a3,0x1b0
20007dea:	0ff77713          	andi	a4,a4,255
20007dee:	06ed                	c.addi	a3,27
20007df0:	3cf41123          	sh	a5,962(s0)
20007df4:	3cf41523          	sh	a5,970(s0)
20007df8:	00100793          	li	a5,1
20007dfc:	3ad42e23          	sw	a3,956(s0)
20007e00:	3ce41023          	sh	a4,960(s0)
20007e04:	3ce41423          	sh	a4,968(s0)
20007e08:	16f40223          	sb	a5,356(s0)
20007e0c:	3c041723          	sh	zero,974(s0)
20007e10:	dfff9097          	auipc	ra,0xdfff9
20007e14:	3f0080e7          	jalr	1008(ra) # 1200 <rf_set_power_level_index.constprop.37>
20007e18:	6785                	c.lui	a5,0x1
20007e1a:	b0a78793          	addi	a5,a5,-1270 # b0a <app_acl_txfifo+0x23a>
20007e1e:	3af41423          	sh	a5,936(s0)
20007e22:	47b1                	c.li	a5,12
20007e24:	3af40523          	sb	a5,938(s0)
20007e28:	dfff9097          	auipc	ra,0xdfff9
20007e2c:	3d8080e7          	jalr	984(ra) # 1200 <rf_set_power_level_index.constprop.37>
20007e30:	00049783          	lh	a5,0(s1)
20007e34:	0857f45b          	bbc	a5,5,20007ebc <user_init_normal+0x500>
20007e38:	0300006f          	j	20007e68 <user_init_normal+0x4ac>
20007e3c:	0e200793          	li	a5,226
20007e40:	0180006f          	j	20007e58 <user_init_normal+0x49c>
20007e44:	0e000793          	li	a5,224
20007e48:	0100006f          	j	20007e58 <user_init_normal+0x49c>
20007e4c:	0e600793          	li	a5,230
20007e50:	0080006f          	j	20007e58 <user_init_normal+0x49c>
20007e54:	0e300793          	li	a5,227
20007e58:	88880737          	lui	a4,0x88880
20007e5c:	00e7e7b3          	or	a5,a5,a4
20007e60:	00f02a23          	sw	a5,20(zero) # 14 <_ITB_BASE_+0x14>
20007e64:	0000006f          	j	20007e64 <user_init_normal+0x4a8>
20007e68:	20009537          	lui	a0,0x20009
20007e6c:	73450513          	addi	a0,a0,1844 # 20009734 <days_in_month+0x594>
20007e70:	5a8000ef          	jal	ra,20008418 <printf>
20007e74:	20009a37          	lui	s4,0x20009
20007e78:	02f00593          	li	a1,47
20007e7c:	534a0513          	addi	a0,s4,1332 # 20009534 <days_in_month+0x394>
20007e80:	5b6000ef          	jal	ra,20008436 <strrchr>
20007e84:	534a0593          	addi	a1,s4,1332
20007e88:	c901                	c.beqz	a0,20007e98 <user_init_normal+0x4dc>
20007e8a:	02f00593          	li	a1,47
20007e8e:	534a0513          	addi	a0,s4,1332
20007e92:	2355                	c.jal	20008436 <strrchr>
20007e94:	00150593          	addi	a1,a0,1
20007e98:	20009637          	lui	a2,0x20009
20007e9c:	20009537          	lui	a0,0x20009
20007ea0:	10e00693          	li	a3,270
20007ea4:	0e860613          	addi	a2,a2,232 # 200090e8 <__FUNCTION__.13198>
20007ea8:	73c50513          	addi	a0,a0,1852 # 2000973c <days_in_month+0x59c>
20007eac:	56c000ef          	jal	ra,20008418 <printf>
20007eb0:	20009537          	lui	a0,0x20009
20007eb4:	4b450513          	addi	a0,a0,1204 # 200094b4 <days_in_month+0x314>
20007eb8:	560000ef          	jal	ra,20008418 <printf>
20007ebc:	801f978b          	addigp	a5,-2048 # 80000 <_DATA_VMA_START>
20007ec0:	00478703          	lb	a4,4(a5)
20007ec4:	4689                	c.li	a3,2
20007ec6:	00678a13          	addi	s4,a5,6
20007eca:	1cd42223          	sw	a3,452(s0)
20007ece:	200076b7          	lui	a3,0x20007
20007ed2:	fbf77713          	andi	a4,a4,-65
20007ed6:	72468693          	addi	a3,a3,1828 # 20007724 <fl_controller_event_callback>
20007eda:	4619                	c.li	a2,6
20007edc:	85ce                	c.mv	a1,s3
20007ede:	8552                	c.mv	a0,s4
20007ee0:	00e78223          	sb	a4,4(a5)
20007ee4:	1ad42c23          	sw	a3,440(s0)
20007ee8:	380418a3          	sh	zero,913(s0)
20007eec:	dfff9097          	auipc	ra,0xdfff9
20007ef0:	3fc080e7          	jalr	1020(ra) # 12e8 <smemcpy>
20007ef4:	000027b7          	lui	a5,0x2
20007ef8:	76878793          	addi	a5,a5,1896 # 2768 <irq_scan_rx_primary_channel>
20007efc:	3cf42a23          	sw	a5,980(s0)
20007f00:	200057b7          	lui	a5,0x20005
20007f04:	4b878793          	addi	a5,a5,1208 # 200054b8 <blt_leg_scan_mainloop_task>
20007f08:	44f42c23          	sw	a5,1112(s0)
20007f0c:	000027b7          	lui	a5,0x2
20007f10:	4619                	c.li	a2,6
20007f12:	85ce                	c.mv	a1,s3
20007f14:	e0078793          	addi	a5,a5,-512 # 1e00 <blt_setScan_enter_manaul_rx>
20007f18:	01400533          	add	a0,zero,s4
20007f1c:	4af42a23          	sw	a5,1204(s0)
20007f20:	dfff9097          	auipc	ra,0xdfff9
20007f24:	3c8080e7          	jalr	968(ra) # 12e8 <smemcpy>
20007f28:	c0890793          	addi	a5,s2,-1016
20007f2c:	39640703          	lb	a4,918(s0)
20007f30:	1cf42023          	sw	a5,448(s0)
20007f34:	38f42e23          	sw	a5,924(s0)
20007f38:	4791                	c.li	a5,4
20007f3a:	38f40c23          	sb	a5,920(s0)
20007f3e:	000277b7          	lui	a5,0x27
20007f42:	02076713          	ori	a4,a4,32
20007f46:	10078793          	addi	a5,a5,256 # 27100 <BIN_SIZE+0x1d7de>
20007f4a:	70800693          	li	a3,1800
20007f4e:	4505                	c.li	a0,1
20007f50:	3af42223          	sw	a5,932(s0)
20007f54:	38e40b23          	sb	a4,918(s0)
20007f58:	1ad42e23          	sw	a3,444(s0)
20007f5c:	815f990b          	addigp	s2,-2028 # 80014 <G_DATA_CONTAINER>
20007f60:	dfffa097          	auipc	ra,0xdfffa
20007f64:	9ec080e7          	jalr	-1556(ra) # 194c <bls_ll_setAdvEnable>
20007f68:	00092503          	lw	a0,0(s2)
20007f6c:	4601                	c.li	a2,0
20007f6e:	4581                	c.li	a1,0
20007f70:	3fe000ef          	jal	ra,2000836e <memset>
20007f74:	473d                	c.li	a4,15
20007f76:	00049783          	lh	a5,0(s1)
20007f7a:	00e92223          	sw	a4,4(s2)
20007f7e:	0477fb5b          	bbc	a5,7,20007fd4 <user_init_normal+0x618>
20007f82:	20009537          	lui	a0,0x20009
20007f86:	48850513          	addi	a0,a0,1160 # 20009488 <days_in_month+0x2e8>
20007f8a:	2179                	c.jal	20008418 <printf>
20007f8c:	20009937          	lui	s2,0x20009
20007f90:	02f00593          	li	a1,47
20007f94:	45890513          	addi	a0,s2,1112 # 20009458 <days_in_month+0x2b8>
20007f98:	49e000ef          	jal	ra,20008436 <strrchr>
20007f9c:	45890593          	addi	a1,s2,1112
20007fa0:	c901                	c.beqz	a0,20007fb0 <user_init_normal+0x5f4>
20007fa2:	02f00593          	li	a1,47
20007fa6:	45890513          	addi	a0,s2,1112
20007faa:	2171                	c.jal	20008436 <strrchr>
20007fac:	00150593          	addi	a1,a0,1
20007fb0:	20009637          	lui	a2,0x20009
20007fb4:	20009537          	lui	a0,0x20009
20007fb8:	09800693          	li	a3,152
20007fbc:	0a060613          	addi	a2,a2,160 # 200090a0 <__FUNCTION__.13086>
20007fc0:	76c50513          	addi	a0,a0,1900 # 2000976c <days_in_month+0x5cc>
20007fc4:	454000ef          	jal	ra,20008418 <printf>
20007fc8:	20009537          	lui	a0,0x20009
20007fcc:	4b450513          	addi	a0,a0,1204 # 200094b4 <days_in_month+0x314>
20007fd0:	448000ef          	jal	ra,20008418 <printf>
20007fd4:	81df990b          	addigp	s2,-2020 # 8001c <G_HANDLE_MASTER_CONTAINER>
20007fd8:	00092503          	lw	a0,0(s2)
20007fdc:	4601                	c.li	a2,0
20007fde:	4581                	c.li	a1,0
20007fe0:	38e000ef          	jal	ra,2000836e <memset>
20007fe4:	471d                	c.li	a4,7
20007fe6:	00e92223          	sw	a4,4(s2)
20007fea:	374de737          	lui	a4,0x374de
20007fee:	875f978b          	addigp	a5,-1932 # 80074 <G_DEV_LIST>
20007ff2:	37770713          	addi	a4,a4,887 # 374de377 <_DATA_LMA_START+0x174d4a9f>
20007ff6:	c398                	c.sw	a4,0(a5)
20007ff8:	001e85b7          	lui	a1,0x1e8
20007ffc:	20006537          	lui	a0,0x20006
20008000:	fa416737          	lui	a4,0xfa416
20008004:	00100693          	li	a3,1
20008008:	67770713          	addi	a4,a4,1655 # fa416677 <_DATA_LMA_START+0xda40cd9f>
2000800c:	48058593          	addi	a1,a1,1152 # 1e8480 <FLASH_SIZE+0xe8480>
20008010:	6a450513          	addi	a0,a0,1700 # 200066a4 <fl_send_collection_req>
20008014:	00e7a2a3          	sw	a4,5(a5)
20008018:	00d78223          	sb	a3,4(a5)
2000801c:	00d784a3          	sb	a3,9(a5)
20008020:	ad4fe0ef          	jal	ra,200062f4 <blt_soft_timer_add>
20008024:	04e00513          	li	a0,78
20008028:	00012c23          	sw	zero,24(sp)
2000802c:	dfffb097          	auipc	ra,0xdfffb
20008030:	adc080e7          	jalr	-1316(ra) # 2b08 <analog_read_reg8>
20008034:	89aa                	c.mv	s3,a0
20008036:	4515                	c.li	a0,5
20008038:	dfffb097          	auipc	ra,0xdfffb
2000803c:	ad0080e7          	jalr	-1328(ra) # 2b08 <analog_read_reg8>
20008040:	07f9f593          	andi	a1,s3,127
20008044:	00a00933          	add	s2,zero,a0
20008048:	04e00513          	li	a0,78
2000804c:	dfffb097          	auipc	ra,0xdfffb
20008050:	97c080e7          	jalr	-1668(ra) # 29c8 <analog_write_reg8>
20008054:	0fc97593          	andi	a1,s2,252
20008058:	0025e593          	ori	a1,a1,2
2000805c:	00500513          	li	a0,5
20008060:	dfffb097          	auipc	ra,0xdfffb
20008064:	968080e7          	jalr	-1688(ra) # 29c8 <analog_write_reg8>
20008068:	9b5fd0ef          	jal	ra,20005a1c <clock_cal_32k_rc>
2000806c:	54442783          	lw	a5,1348(s0)
20008070:	000ff937          	lui	s2,0xff
20008074:	0830                	c.addi4spn	a2,sp,24
20008076:	4591                	c.li	a1,4
20008078:	10090513          	addi	a0,s2,256 # ff100 <_STACK_TOP+0x5f100>
2000807c:	9782                	c.jalr	a5
2000807e:	4562                	c.lwsp	a0,24(sp)
20008080:	182c                	c.addi4spn	a1,sp,56
20008082:	dc02                	c.swsp	zero,56(sp)
20008084:	02011e23          	sh	zero,60(sp)
20008088:	02010f23          	sb	zero,62(sp)
2000808c:	f80fd0ef          	jal	ra,2000580c <fl_rtc_timestamp_to_datetime>
20008090:	03815703          	lhu	a4,56(sp)
20008094:	7e800793          	li	a5,2024
20008098:	02e7ee63          	bltu	a5,a4,200080d4 <user_init_normal+0x718>
2000809c:	73c42783          	lw	a5,1852(s0)
200080a0:	54042703          	lw	a4,1344(s0)
200080a4:	0087d893          	srli	a7,a5,0x8
200080a8:	0107d813          	srli	a6,a5,0x10
200080ac:	0187d693          	srli	a3,a5,0x18
200080b0:	10090513          	addi	a0,s2,256
200080b4:	4591                	c.li	a1,4
200080b6:	1810                	c.addi4spn	a2,sp,48
200080b8:	cc3e                	c.swsp	a5,24(sp)
200080ba:	02f10823          	sb	a5,48(sp)
200080be:	031108a3          	sb	a7,49(sp)
200080c2:	03010923          	sb	a6,50(sp)
200080c6:	02d109a3          	sb	a3,51(sp)
200080ca:	9702                	c.jalr	a4
200080cc:	4562                	c.lwsp	a0,24(sp)
200080ce:	182c                	c.addi4spn	a1,sp,56
200080d0:	f3cfd0ef          	jal	ra,2000580c <fl_rtc_timestamp_to_datetime>
200080d4:	4762                	c.lwsp	a4,24(sp)
200080d6:	00049783          	lh	a5,0(s1)
200080da:	72e42e23          	sw	a4,1852(s0)
200080de:	0427fd5b          	bbc	a5,2,20008138 <user_init_normal+0x77c>
200080e2:	20009537          	lui	a0,0x20009
200080e6:	1ac50513          	addi	a0,a0,428 # 200091ac <days_in_month+0xc>
200080ea:	263d                	c.jal	20008418 <printf>
200080ec:	20009937          	lui	s2,0x20009
200080f0:	02f00593          	li	a1,47
200080f4:	70490513          	addi	a0,s2,1796 # 20009704 <days_in_month+0x564>
200080f8:	33e000ef          	jal	ra,20008436 <strrchr>
200080fc:	70490593          	addi	a1,s2,1796
20008100:	c901                	c.beqz	a0,20008110 <user_init_normal+0x754>
20008102:	02f00593          	li	a1,47
20008106:	70490513          	addi	a0,s2,1796
2000810a:	2635                	c.jal	20008436 <strrchr>
2000810c:	00150593          	addi	a1,a0,1
20008110:	73c42703          	lw	a4,1852(s0)
20008114:	20009637          	lui	a2,0x20009
20008118:	20009537          	lui	a0,0x20009
2000811c:	04b00693          	li	a3,75
20008120:	11c60613          	addi	a2,a2,284 # 2000911c <__FUNCTION__.9829>
20008124:	14450513          	addi	a0,a0,324 # 20009144 <__FUNCTION__.9829+0x28>
20008128:	2f0000ef          	jal	ra,20008418 <printf>
2000812c:	20009537          	lui	a0,0x20009
20008130:	4b450513          	addi	a0,a0,1204 # 200094b4 <days_in_month+0x314>
20008134:	2e4000ef          	jal	ra,20008418 <printf>
20008138:	00049783          	lh	a5,0(s1)
2000813c:	0627fa5b          	bbc	a5,2,200081b0 <user_init_normal+0x7f4>
20008140:	20009537          	lui	a0,0x20009
20008144:	1ac50513          	addi	a0,a0,428 # 200091ac <days_in_month+0xc>
20008148:	2d0000ef          	jal	ra,20008418 <printf>
2000814c:	20009437          	lui	s0,0x20009
20008150:	02f00593          	li	a1,47
20008154:	70440513          	addi	a0,s0,1796 # 20009704 <days_in_month+0x564>
20008158:	2de000ef          	jal	ra,20008436 <strrchr>
2000815c:	70440593          	addi	a1,s0,1796
20008160:	c901                	c.beqz	a0,20008170 <user_init_normal+0x7b4>
20008162:	02f00593          	li	a1,47
20008166:	70440513          	addi	a0,s0,1796
2000816a:	24f1                	c.jal	20008436 <strrchr>
2000816c:	00150593          	addi	a1,a0,1
20008170:	03e14e03          	lbu	t3,62(sp)
20008174:	03d14303          	lbu	t1,61(sp)
20008178:	03c14883          	lbu	a7,60(sp)
2000817c:	03b14803          	lbu	a6,59(sp)
20008180:	03a14783          	lbu	a5,58(sp)
20008184:	03815703          	lhu	a4,56(sp)
20008188:	20009637          	lui	a2,0x20009
2000818c:	20009537          	lui	a0,0x20009
20008190:	04c00693          	li	a3,76
20008194:	11c60613          	addi	a2,a2,284 # 2000911c <__FUNCTION__.9829>
20008198:	16450513          	addi	a0,a0,356 # 20009164 <__FUNCTION__.9829+0x48>
2000819c:	c272                	c.swsp	t3,4(sp)
2000819e:	c01a                	c.swsp	t1,0(sp)
200081a0:	278000ef          	jal	ra,20008418 <printf>
200081a4:	20009537          	lui	a0,0x20009
200081a8:	4b450513          	addi	a0,a0,1204 # 200094b4 <days_in_month+0x314>
200081ac:	26c000ef          	jal	ra,20008418 <printf>
200081b0:	000f45b7          	lui	a1,0xf4
200081b4:	20008537          	lui	a0,0x20008
200081b8:	24058593          	addi	a1,a1,576 # f4240 <_STACK_TOP+0x54240>
200081bc:	88050513          	addi	a0,a0,-1920 # 20007880 <app_system_time_sync>
200081c0:	934fe0ef          	jal	ra,200062f4 <blt_soft_timer_add>
200081c4:	40f6                	c.lwsp	ra,92(sp)
200081c6:	4466                	c.lwsp	s0,88(sp)
200081c8:	44d6                	c.lwsp	s1,84(sp)
200081ca:	4946                	c.lwsp	s2,80(sp)
200081cc:	49b6                	c.lwsp	s3,76(sp)
200081ce:	4a26                	c.lwsp	s4,72(sp)
200081d0:	4a96                	c.lwsp	s5,68(sp)
200081d2:	6125                	c.addi16sp	sp,96
200081d4:	8082                	c.jr	ra
200081d6:	0001                	c.nop

200081d8 <_write>:
200081d8:	1141                	c.addi	sp,-16
200081da:	c606                	c.swsp	ra,12(sp)
200081dc:	c422                	c.swsp	s0,8(sp)
200081de:	c226                	c.swsp	s1,4(sp)
200081e0:	c04a                	c.swsp	s2,0(sp)
200081e2:	02c05963          	blez	a2,20008214 <_write+0x3c>
200081e6:	8932                	c.mv	s2,a2
200081e8:	00b00433          	add	s0,zero,a1
200081ec:	00c584b3          	add	s1,a1,a2
200081f0:	00044503          	lbu	a0,0(s0)
200081f4:	00140413          	addi	s0,s0,1
200081f8:	dfffb097          	auipc	ra,0xdfffb
200081fc:	5b4080e7          	jalr	1460(ra) # 37ac <dr_putchar>
20008200:	fe9418e3          	bne	s0,s1,200081f0 <_write+0x18>
20008204:	40b2                	c.lwsp	ra,12(sp)
20008206:	4422                	c.lwsp	s0,8(sp)
20008208:	854a                	c.mv	a0,s2
2000820a:	4492                	c.lwsp	s1,4(sp)
2000820c:	4902                	c.lwsp	s2,0(sp)
2000820e:	0141                	c.addi	sp,16
20008210:	00008067          	ret
20008214:	40b2                	c.lwsp	ra,12(sp)
20008216:	4422                	c.lwsp	s0,8(sp)
20008218:	4901                	c.li	s2,0
2000821a:	854a                	c.mv	a0,s2
2000821c:	4492                	c.lwsp	s1,4(sp)
2000821e:	4902                	c.lwsp	s2,0(sp)
20008220:	0141                	c.addi	sp,16
20008222:	8082                	c.jr	ra

20008224 <memcmp>:
20008224:	00b567b3          	or	a5,a0,a1
20008228:	8b8d                	c.andi	a5,3
2000822a:	e39d                	c.bnez	a5,20008250 <memcmp+0x2c>
2000822c:	00265793          	srli	a5,a2,0x2
20008230:	c385                	c.beqz	a5,20008250 <memcmp+0x2c>
20008232:	078a                	c.slli	a5,0x2
20008234:	97aa                	c.add	a5,a0
20008236:	8a0d                	c.andi	a2,3
20008238:	4114                	c.lw	a3,0(a0)
2000823a:	0511                	c.addi	a0,4
2000823c:	4198                	c.lw	a4,0(a1)
2000823e:	0591                	c.addi	a1,4
20008240:	00e69563          	bne	a3,a4,2000824a <memcmp+0x26>
20008244:	fef51ae3          	bne	a0,a5,20008238 <memcmp+0x14>
20008248:	a021                	c.j	20008250 <memcmp+0x2c>
2000824a:	1571                	c.addi	a0,-4
2000824c:	15f1                	c.addi	a1,-4
2000824e:	0611                	c.addi	a2,4
20008250:	00c507b3          	add	a5,a0,a2
20008254:	00f50d63          	beq	a0,a5,2000826e <memcmp+0x4a>
20008258:	00054683          	lbu	a3,0(a0)
2000825c:	0505                	c.addi	a0,1
2000825e:	0005c703          	lbu	a4,0(a1)
20008262:	0585                	c.addi	a1,1
20008264:	fee688e3          	beq	a3,a4,20008254 <memcmp+0x30>
20008268:	40e68533          	sub	a0,a3,a4
2000826c:	8082                	c.jr	ra
2000826e:	4501                	c.li	a0,0
20008270:	8082                	c.jr	ra
	...

20008274 <memcpy>:
20008274:	00a5c7b3          	xor	a5,a1,a0
20008278:	8b8d                	c.andi	a5,3
2000827a:	00c508b3          	add	a7,a0,a2
2000827e:	ebb9                	c.bnez	a5,200082d4 <memcpy+0x60>
20008280:	478d                	c.li	a5,3
20008282:	04c7f963          	bgeu	a5,a2,200082d4 <memcpy+0x60>
20008286:	00357713          	andi	a4,a0,3
2000828a:	87aa                	c.mv	a5,a0
2000828c:	06071263          	bnez	a4,200082f0 <memcpy+0x7c>
20008290:	ffc8f813          	andi	a6,a7,-4
20008294:	40f806b3          	sub	a3,a6,a5
20008298:	02000713          	li	a4,32
2000829c:	02000393          	li	t2,32
200082a0:	06d74c63          	blt	a4,a3,20008318 <memcpy+0xa4>
200082a4:	0307f463          	bgeu	a5,a6,200082cc <memcpy+0x58>
200082a8:	86ae                	c.mv	a3,a1
200082aa:	873e                	c.mv	a4,a5
200082ac:	4290                	c.lw	a2,0(a3)
200082ae:	0711                	c.addi	a4,4
200082b0:	fec72e23          	sw	a2,-4(a4)
200082b4:	0691                	c.addi	a3,4
200082b6:	ff076be3          	bltu	a4,a6,200082ac <memcpy+0x38>
200082ba:	fff7c713          	not	a4,a5
200082be:	983a                	c.add	a6,a4
200082c0:	ffc87813          	andi	a6,a6,-4
200082c4:	0811                	c.addi	a6,4
200082c6:	97c2                	c.add	a5,a6
200082c8:	010585b3          	add	a1,a1,a6
200082cc:	0117e863          	bltu	a5,a7,200082dc <memcpy+0x68>
200082d0:	00008067          	ret
200082d4:	ff157ee3          	bgeu	a0,a7,200082d0 <memcpy+0x5c>
200082d8:	00a007b3          	add	a5,zero,a0
200082dc:	0005c703          	lbu	a4,0(a1)
200082e0:	0785                	c.addi	a5,1
200082e2:	fee78fa3          	sb	a4,-1(a5)
200082e6:	0585                	c.addi	a1,1
200082e8:	ff17eae3          	bltu	a5,a7,200082dc <memcpy+0x68>
200082ec:	00008067          	ret
200082f0:	0005c703          	lbu	a4,0(a1)
200082f4:	0785                	c.addi	a5,1
200082f6:	fee78fa3          	sb	a4,-1(a5)
200082fa:	0037f713          	andi	a4,a5,3
200082fe:	0585                	c.addi	a1,1
20008300:	db41                	c.beqz	a4,20008290 <memcpy+0x1c>
20008302:	0005c703          	lbu	a4,0(a1)
20008306:	0785                	c.addi	a5,1
20008308:	fee78fa3          	sb	a4,-1(a5)
2000830c:	0037f713          	andi	a4,a5,3
20008310:	0585                	c.addi	a1,1
20008312:	ff79                	c.bnez	a4,200082f0 <memcpy+0x7c>
20008314:	f7dff06f          	j	20008290 <memcpy+0x1c>
20008318:	4dd8                	c.lw	a4,28(a1)
2000831a:	0005a283          	lw	t0,0(a1)
2000831e:	0045af83          	lw	t6,4(a1)
20008322:	0085af03          	lw	t5,8(a1)
20008326:	00c5ae83          	lw	t4,12(a1)
2000832a:	0105ae03          	lw	t3,16(a1)
2000832e:	0145a303          	lw	t1,20(a1)
20008332:	4d90                	c.lw	a2,24(a1)
20008334:	02458593          	addi	a1,a1,36
20008338:	ffc5a683          	lw	a3,-4(a1)
2000833c:	02478793          	addi	a5,a5,36
20008340:	fee7ac23          	sw	a4,-8(a5)
20008344:	fc57ae23          	sw	t0,-36(a5)
20008348:	fff7a023          	sw	t6,-32(a5)
2000834c:	ffe7a223          	sw	t5,-28(a5)
20008350:	ffd7a423          	sw	t4,-24(a5)
20008354:	ffc7a623          	sw	t3,-20(a5)
20008358:	fe67a823          	sw	t1,-16(a5)
2000835c:	fec7aa23          	sw	a2,-12(a5)
20008360:	40f80733          	sub	a4,a6,a5
20008364:	fed7ae23          	sw	a3,-4(a5)
20008368:	fae3c8e3          	blt	t2,a4,20008318 <memcpy+0xa4>
2000836c:	bf25                	c.j	200082a4 <memcpy+0x30>

2000836e <memset>:
2000836e:	433d                	c.li	t1,15
20008370:	872a                	c.mv	a4,a0
20008372:	02c37363          	bgeu	t1,a2,20008398 <memset+0x2a>
20008376:	00f77793          	andi	a5,a4,15
2000837a:	e3c1                	c.bnez	a5,200083fa <memset+0x8c>
2000837c:	e5b5                	c.bnez	a1,200083e8 <memset+0x7a>
2000837e:	ff067693          	andi	a3,a2,-16
20008382:	8a3d                	c.andi	a2,15
20008384:	96ba                	c.add	a3,a4
20008386:	c30c                	c.sw	a1,0(a4)
20008388:	c34c                	c.sw	a1,4(a4)
2000838a:	c70c                	c.sw	a1,8(a4)
2000838c:	c74c                	c.sw	a1,12(a4)
2000838e:	0741                	c.addi	a4,16
20008390:	fed76be3          	bltu	a4,a3,20008386 <memset+0x18>
20008394:	e211                	c.bnez	a2,20008398 <memset+0x2a>
20008396:	8082                	c.jr	ra
20008398:	40c306b3          	sub	a3,t1,a2
2000839c:	068a                	c.slli	a3,0x2
2000839e:	00000297          	auipc	t0,0x0
200083a2:	005686b3          	add	a3,a3,t0
200083a6:	00c68067          	jr	12(a3)
200083aa:	00b70723          	sb	a1,14(a4)
200083ae:	00b706a3          	sb	a1,13(a4)
200083b2:	00b70623          	sb	a1,12(a4)
200083b6:	00b705a3          	sb	a1,11(a4)
200083ba:	00b70523          	sb	a1,10(a4)
200083be:	00b704a3          	sb	a1,9(a4)
200083c2:	00b70423          	sb	a1,8(a4)
200083c6:	00b703a3          	sb	a1,7(a4)
200083ca:	00b70323          	sb	a1,6(a4)
200083ce:	00b702a3          	sb	a1,5(a4)
200083d2:	00b70223          	sb	a1,4(a4)
200083d6:	00b701a3          	sb	a1,3(a4)
200083da:	00b70123          	sb	a1,2(a4)
200083de:	00b700a3          	sb	a1,1(a4)
200083e2:	00b70023          	sb	a1,0(a4)
200083e6:	8082                	c.jr	ra
200083e8:	0ff5f593          	andi	a1,a1,255
200083ec:	00859693          	slli	a3,a1,0x8
200083f0:	8dd5                	c.or	a1,a3
200083f2:	01059693          	slli	a3,a1,0x10
200083f6:	8dd5                	c.or	a1,a3
200083f8:	b759                	c.j	2000837e <memset+0x10>
200083fa:	00279693          	slli	a3,a5,0x2
200083fe:	00000297          	auipc	t0,0x0
20008402:	9696                	c.add	a3,t0
20008404:	8286                	c.mv	t0,ra
20008406:	fa8680e7          	jalr	-88(a3)
2000840a:	8096                	c.mv	ra,t0
2000840c:	17c1                	c.addi	a5,-16
2000840e:	8f1d                	c.sub	a4,a5
20008410:	963e                	c.add	a2,a5
20008412:	f8c373e3          	bgeu	t1,a2,20008398 <memset+0x2a>
20008416:	b79d                	c.j	2000837c <memset+0xe>

20008418 <printf>:
20008418:	7139                	c.addi16sp	sp,-64
2000841a:	d22e                	c.swsp	a1,36(sp)
2000841c:	104c                	c.addi4spn	a1,sp,36
2000841e:	ce06                	c.swsp	ra,28(sp)
20008420:	d432                	c.swsp	a2,40(sp)
20008422:	d636                	c.swsp	a3,44(sp)
20008424:	d83a                	c.swsp	a4,48(sp)
20008426:	da3e                	c.swsp	a5,52(sp)
20008428:	dc42                	c.swsp	a6,56(sp)
2000842a:	de46                	c.swsp	a7,60(sp)
2000842c:	c62e                	c.swsp	a1,12(sp)
2000842e:	20b5                	c.jal	2000849a <vprintf>
20008430:	40f2                	c.lwsp	ra,28(sp)
20008432:	6121                	c.addi16sp	sp,64
20008434:	8082                	c.jr	ra

20008436 <strrchr>:
20008436:	387002ef          	jal	t0,20008fbc <__riscv_save_0>
2000843a:	e185                	c.bnez	a1,2000845a <strrchr+0x24>
2000843c:	225000ef          	jal	ra,20008e60 <strchr>
20008440:	842a                	c.mv	s0,a0
20008442:	a809                	c.j	20008454 <strrchr+0x1e>
20008444:	00150793          	addi	a5,a0,1
20008448:	842a                	c.mv	s0,a0
2000844a:	85a6                	c.mv	a1,s1
2000844c:	853e                	c.mv	a0,a5
2000844e:	213000ef          	jal	ra,20008e60 <strchr>
20008452:	f96d                	c.bnez	a0,20008444 <strrchr+0xe>
20008454:	8522                	c.mv	a0,s0
20008456:	38b0006f          	j	20008fe0 <__riscv_restore_0>
2000845a:	87aa                	c.mv	a5,a0
2000845c:	84ae                	c.mv	s1,a1
2000845e:	4401                	c.li	s0,0
20008460:	b7ed                	c.j	2000844a <strrchr+0x14>

20008462 <__vprintf_help>:
20008462:	35b002ef          	jal	t0,20008fbc <__riscv_save_0>
20008466:	873fa7ab          	lwgp	a5,-1936 # 80070 <__printf_count>
2000846a:	0785                	c.addi	a5,1
2000846c:	86ffc9ab          	swgp	a5,-1936 # 80070 <__printf_count>
20008470:	86df940b          	addigp	s0,-1940 # 8006c <__vprintf_buf_len>
20008474:	86bfa5ab          	lwgp	a1,-1944 # 80068 <__vprintf_buf>
20008478:	401c                	c.lw	a5,0(s0)
2000847a:	00178713          	addi	a4,a5,1
2000847e:	97ae                	c.add	a5,a1
20008480:	c018                	c.sw	a4,0(s0)
20008482:	00a78023          	sb	a0,0(a5)
20008486:	4007685b          	bnec	a4,64,20008496 <__vprintf_help+0x34>
2000848a:	04000613          	li	a2,64
2000848e:	4505                	c.li	a0,1
20008490:	33a1                	c.jal	200081d8 <_write>
20008492:	00042023          	sw	zero,0(s0)
20008496:	34b0006f          	j	20008fe0 <__riscv_restore_0>

2000849a <vprintf>:
2000849a:	1141                	c.addi	sp,-16
2000849c:	c606                	c.swsp	ra,12(sp)
2000849e:	c422                	c.swsp	s0,8(sp)
200084a0:	c226                	c.swsp	s1,4(sp)
200084a2:	c04a                	c.swsp	s2,0(sp)
200084a4:	0800                	c.addi4spn	s0,sp,16
200084a6:	715d                	c.addi16sp	sp,-80
200084a8:	00f10793          	addi	a5,sp,15
200084ac:	20008637          	lui	a2,0x20008
200084b0:	9bc1                	c.andi	a5,-16
200084b2:	869f948b          	addigp	s1,-1944 # 80068 <__vprintf_buf>
200084b6:	86df990b          	addigp	s2,-1940 # 8006c <__vprintf_buf_len>
200084ba:	46260613          	addi	a2,a2,1122 # 20008462 <__vprintf_help>
200084be:	c09c                	c.sw	a5,0(s1)
200084c0:	00092023          	sw	zero,0(s2)
200084c4:	20b5                	c.jal	20008530 <__printf_impl>
200084c6:	00092603          	lw	a2,0(s2)
200084ca:	408c                	c.lw	a1,0(s1)
200084cc:	4505                	c.li	a0,1
200084ce:	3329                	c.jal	200081d8 <_write>
200084d0:	873fa52b          	lwgp	a0,-1936 # 80070 <__printf_count>
200084d4:	ff040113          	addi	sp,s0,-16
200084d8:	40b2                	c.lwsp	ra,12(sp)
200084da:	4422                	c.lwsp	s0,8(sp)
200084dc:	4492                	c.lwsp	s1,4(sp)
200084de:	4902                	c.lwsp	s2,0(sp)
200084e0:	0141                	c.addi	sp,16
200084e2:	8082                	c.jr	ra

200084e4 <__print_integral>:
200084e4:	2d9002ef          	jal	t0,20008fbc <__riscv_save_0>
200084e8:	1101                	c.addi	sp,-32
200084ea:	842a                	c.mv	s0,a0
200084ec:	84ae                	c.mv	s1,a1
200084ee:	8932                	c.mv	s2,a2
200084f0:	c636                	c.swsp	a3,12(sp)
200084f2:	85be                	c.mv	a1,a5
200084f4:	ca32                	c.swsp	a2,20(sp)
200084f6:	853a                	c.mv	a0,a4
200084f8:	0830                	c.addi4spn	a2,sp,24
200084fa:	294d                	c.jal	200089ac <__int_to_poly>
200084fc:	46b2                	c.lwsp	a3,12(sp)
200084fe:	882a                	c.mv	a6,a0
20008500:	083c                	c.addi4spn	a5,sp,24
20008502:	0858                	c.addi4spn	a4,sp,20
20008504:	864a                	c.mv	a2,s2
20008506:	85a6                	c.mv	a1,s1
20008508:	8522                	c.mv	a0,s0
2000850a:	21c9                	c.jal	200089cc <__print_integral_poly>
2000850c:	200097b7          	lui	a5,0x20009
20008510:	7a478793          	addi	a5,a5,1956 # 200097a4 <__digits>
20008514:	00a46563          	bltu	s0,a0,2000851e <__print_integral+0x3a>
20008518:	6105                	c.addi16sp	sp,32
2000851a:	2c70006f          	j	20008fe0 <__riscv_restore_0>
2000851e:	00044703          	lbu	a4,0(s0)
20008522:	0405                	c.addi	s0,1
20008524:	973e                	c.add	a4,a5
20008526:	00070703          	lb	a4,0(a4)
2000852a:	fee40fa3          	sb	a4,-1(s0)
2000852e:	b7dd                	c.j	20008514 <__print_integral+0x30>

20008530 <__printf_impl>:
20008530:	25d002ef          	jal	t0,20008f8c <__riscv_save_12>
20008534:	a6010113          	addi	sp,sp,-1440
20008538:	6b05                	c.lui	s6,0x1
2000853a:	892a                	c.mv	s2,a0
2000853c:	842e                	c.mv	s0,a1
2000853e:	89b2                	c.mv	s3,a2
20008540:	01c10a13          	addi	s4,sp,28
20008544:	800b0b13          	addi	s6,s6,-2048 # 800 <blt_buff_prepare_write+0xb8>
20008548:	860fc9ab          	swgp	zero,-1936 # 80070 <__printf_count>
2000854c:	c456                	c.swsp	s5,8(sp)
2000854e:	00094503          	lbu	a0,0(s2)
20008552:	e509                	c.bnez	a0,2000855c <__printf_impl+0x2c>
20008554:	5a010113          	addi	sp,sp,1440
20008558:	2710006f          	j	20008fc8 <__riscv_restore_12>
2000855c:	00190493          	addi	s1,s2,1
20008560:	005555db          	beqc	a0,37,2000856a <__printf_impl+0x3a>
20008564:	9982                	c.jalr	s3
20008566:	8926                	c.mv	s2,s1
20008568:	b7dd                	c.j	2000854e <__printf_impl+0x1e>
2000856a:	00194783          	lbu	a5,1(s2)
2000856e:	0057e8db          	bnec	a5,37,2000857e <__printf_impl+0x4e>
20008572:	02500513          	li	a0,37
20008576:	9982                	c.jalr	s3
20008578:	00290493          	addi	s1,s2,2
2000857c:	b7ed                	c.j	20008566 <__printf_impl+0x36>
2000857e:	4681                	c.li	a3,0
20008580:	4701                	c.li	a4,0
20008582:	d002                	c.swsp	zero,32(sp)
20008584:	0004c783          	lbu	a5,0(s1)
20008588:	0007e7db          	bnec	a5,32,20008596 <__printf_impl+0x66>
2000858c:	00276713          	ori	a4,a4,2
20008590:	0485                	c.addi	s1,1
20008592:	4685                	c.li	a3,1
20008594:	bfc5                	c.j	20008584 <__printf_impl+0x54>
20008596:	00d7e5db          	bnec	a5,45,200085a0 <__printf_impl+0x70>
2000859a:	00476713          	ori	a4,a4,4
2000859e:	bfcd                	c.j	20008590 <__printf_impl+0x60>
200085a0:	00b7e5db          	bnec	a5,43,200085aa <__printf_impl+0x7a>
200085a4:	00876713          	ori	a4,a4,8
200085a8:	b7e5                	c.j	20008590 <__printf_impl+0x60>
200085aa:	0037e5db          	bnec	a5,35,200085b4 <__printf_impl+0x84>
200085ae:	01076713          	ori	a4,a4,16
200085b2:	bff9                	c.j	20008590 <__printf_impl+0x60>
200085b4:	0107e5db          	bnec	a5,48,200085be <__printf_impl+0x8e>
200085b8:	02076713          	ori	a4,a4,32
200085bc:	bfd1                	c.j	20008590 <__printf_impl+0x60>
200085be:	c291                	c.beqz	a3,200085c2 <__printf_impl+0x92>
200085c0:	d03a                	c.swsp	a4,32(sp)
200085c2:	04a7eadb          	bnec	a5,42,20008616 <__printf_impl+0xe6>
200085c6:	00042b83          	lw	s7,0(s0)
200085ca:	00440713          	addi	a4,s0,4
200085ce:	000bd863          	bgez	s7,200085de <__printf_impl+0xae>
200085d2:	5782                	c.lwsp	a5,32(sp)
200085d4:	41700bb3          	neg	s7,s7
200085d8:	0047e793          	ori	a5,a5,4
200085dc:	d03e                	c.swsp	a5,32(sp)
200085de:	0485                	c.addi	s1,1
200085e0:	843a                	c.mv	s0,a4
200085e2:	0004c783          	lbu	a5,0(s1)
200085e6:	5cfd                	c.li	s9,-1
200085e8:	06e7e8db          	bnec	a5,46,20008658 <__printf_impl+0x128>
200085ec:	0014c783          	lbu	a5,1(s1)
200085f0:	04a7dbdb          	beqc	a5,42,20008646 <__printf_impl+0x116>
200085f4:	0485                	c.addi	s1,1
200085f6:	4c81                	c.li	s9,0
200085f8:	4725                	c.li	a4,9
200085fa:	4629                	c.li	a2,10
200085fc:	0004c783          	lbu	a5,0(s1)
20008600:	fd078793          	addi	a5,a5,-48
20008604:	0ff7f693          	andi	a3,a5,255
20008608:	04d76863          	bltu	a4,a3,20008658 <__printf_impl+0x128>
2000860c:	02cc8cb3          	mul	s9,s9,a2
20008610:	0485                	c.addi	s1,1
20008612:	9cbe                	c.add	s9,a5
20008614:	b7e5                	c.j	200085fc <__printf_impl+0xcc>
20008616:	fd078793          	addi	a5,a5,-48
2000861a:	0ff7f793          	andi	a5,a5,255
2000861e:	4725                	c.li	a4,9
20008620:	4b81                	c.li	s7,0
20008622:	fcf760e3          	bltu	a4,a5,200085e2 <__printf_impl+0xb2>
20008626:	4725                	c.li	a4,9
20008628:	4629                	c.li	a2,10
2000862a:	a029                	c.j	20008634 <__printf_impl+0x104>
2000862c:	02cb8bb3          	mul	s7,s7,a2
20008630:	0485                	c.addi	s1,1
20008632:	9bbe                	c.add	s7,a5
20008634:	0004c783          	lbu	a5,0(s1)
20008638:	fd078793          	addi	a5,a5,-48
2000863c:	0ff7f693          	andi	a3,a5,255
20008640:	fed776e3          	bgeu	a4,a3,2000862c <__printf_impl+0xfc>
20008644:	bf79                	c.j	200085e2 <__printf_impl+0xb2>
20008646:	00042c83          	lw	s9,0(s0)
2000864a:	00440793          	addi	a5,s0,4
2000864e:	000cd363          	bgez	s9,20008654 <__printf_impl+0x124>
20008652:	5cfd                	c.li	s9,-1
20008654:	0489                	c.addi	s1,2
20008656:	843e                	c.mv	s0,a5
20008658:	43200793          	li	a5,1074
2000865c:	8666                	c.mv	a2,s9
2000865e:	0197d463          	bge	a5,s9,20008666 <__printf_impl+0x136>
20008662:	43200613          	li	a2,1074
20008666:	0004c783          	lbu	a5,0(s1)
2000866a:	4487efdb          	bnec	a5,104,200086c8 <__printf_impl+0x198>
2000866e:	5782                	c.lwsp	a5,32(sp)
20008670:	0014c703          	lbu	a4,1(s1)
20008674:	448764db          	bnec	a4,104,200086bc <__printf_impl+0x18c>
20008678:	0407e793          	ori	a5,a5,64
2000867c:	00248913          	addi	s2,s1,2
20008680:	d03e                	c.swsp	a5,32(sp)
20008682:	00094683          	lbu	a3,0(s2)
20008686:	06700793          	li	a5,103
2000868a:	08d7ee63          	bltu	a5,a3,20008726 <__printf_impl+0x1f6>
2000868e:	06500793          	li	a5,101
20008692:	06f6fd63          	bgeu	a3,a5,2000870c <__printf_impl+0x1dc>
20008696:	05800793          	li	a5,88
2000869a:	5786d35b          	beqc	a3,88,20008800 <__printf_impl+0x2d0>
2000869e:	04d7ef63          	bltu	a5,a3,200086fc <__printf_impl+0x1cc>
200086a2:	04100793          	li	a5,65
200086a6:	4616d35b          	beqc	a3,65,2000870c <__printf_impl+0x1dc>
200086aa:	00f6e763          	bltu	a3,a5,200086b8 <__printf_impl+0x188>
200086ae:	fbb68793          	addi	a5,a3,-69
200086b2:	4709                	c.li	a4,2
200086b4:	04f77c63          	bgeu	a4,a5,2000870c <__printf_impl+0x1dc>
200086b8:	84a2                	c.mv	s1,s0
200086ba:	ac3d                	c.j	200088f8 <__printf_impl+0x3c8>
200086bc:	0807e793          	ori	a5,a5,128
200086c0:	d03e                	c.swsp	a5,32(sp)
200086c2:	00148913          	addi	s2,s1,1
200086c6:	bf75                	c.j	20008682 <__printf_impl+0x152>
200086c8:	40c7eddb          	bnec	a5,108,200086e2 <__printf_impl+0x1b2>
200086cc:	5782                	c.lwsp	a5,32(sp)
200086ce:	0014c703          	lbu	a4,1(s1)
200086d2:	40c765db          	bnec	a4,108,200086dc <__printf_impl+0x1ac>
200086d6:	2007e793          	ori	a5,a5,512
200086da:	b74d                	c.j	2000867c <__printf_impl+0x14c>
200086dc:	1007e793          	ori	a5,a5,256
200086e0:	b7c5                	c.j	200086c0 <__printf_impl+0x190>
200086e2:	00148913          	addi	s2,s1,1
200086e6:	41a7e7db          	bnec	a5,122,200086f4 <__printf_impl+0x1c4>
200086ea:	5782                	c.lwsp	a5,32(sp)
200086ec:	1007e793          	ori	a5,a5,256
200086f0:	d03e                	c.swsp	a5,32(sp)
200086f2:	bf41                	c.j	20008682 <__printf_impl+0x152>
200086f4:	ff47dbdb          	beqc	a5,116,200086ea <__printf_impl+0x1ba>
200086f8:	8926                	c.mv	s2,s1
200086fa:	b761                	c.j	20008682 <__printf_impl+0x152>
200086fc:	06300793          	li	a5,99
20008700:	5036dadb          	beqc	a3,99,20008814 <__printf_impl+0x2e4>
20008704:	04d7e063          	bltu	a5,a3,20008744 <__printf_impl+0x214>
20008708:	fa16e8db          	bnec	a3,97,200086b8 <__printf_impl+0x188>
2000870c:	041d                	c.addi	s0,7
2000870e:	9861                	c.andi	s0,-8
20008710:	0206fc13          	andi	s8,a3,32
20008714:	87b6                	c.mv	a5,a3
20008716:	4058                	c.lw	a4,4(s0)
20008718:	4014                	c.lw	a3,0(s0)
2000871a:	100c                	c.addi4spn	a1,sp,32
2000871c:	1048                	c.addi4spn	a0,sp,36
2000871e:	00840493          	addi	s1,s0,8
20008722:	2e2d                	c.jal	20008a5c <__printf_float_impl>
20008724:	aa5d                	c.j	200088da <__printf_impl+0x3aa>
20008726:	07000793          	li	a5,112
2000872a:	4d06dbdb          	beqc	a3,112,20008800 <__printf_impl+0x2d0>
2000872e:	04d7e163          	bltu	a5,a3,20008770 <__printf_impl+0x240>
20008732:	06e00793          	li	a5,110
20008736:	5ae6d6db          	beqc	a3,110,200088e2 <__printf_impl+0x3b2>
2000873a:	45a1                	c.li	a1,8
2000873c:	0cd7e363          	bltu	a5,a3,20008802 <__printf_impl+0x2d2>
20008740:	f696ecdb          	bnec	a3,105,200086b8 <__printf_impl+0x188>
20008744:	5682                	c.lwsp	a3,32(sp)
20008746:	0e66f25b          	bbc	a3,6,2000882a <__printf_impl+0x2fa>
2000874a:	00040703          	lb	a4,0(s0)
2000874e:	00440493          	addi	s1,s0,4
20008752:	41f75793          	srai	a5,a4,0x1f
20008756:	1007d163          	bgez	a5,20008858 <__printf_impl+0x328>
2000875a:	40e00733          	neg	a4,a4
2000875e:	00e035b3          	snez	a1,a4
20008762:	40f007b3          	neg	a5,a5
20008766:	8f8d                	c.sub	a5,a1
20008768:	4006e693          	ori	a3,a3,1024
2000876c:	d036                	c.swsp	a3,32(sp)
2000876e:	a0ed                	c.j	20008858 <__printf_impl+0x328>
20008770:	5156d5db          	beqc	a3,117,2000887a <__printf_impl+0x34a>
20008774:	4986d6db          	beqc	a3,120,20008800 <__printf_impl+0x2d0>
20008778:	f536e0db          	bnec	a3,115,200086b8 <__printf_impl+0x188>
2000877c:	00042a83          	lw	s5,0(s0)
20008780:	85b2                	c.mv	a1,a2
20008782:	8556                	c.mv	a0,s5
20008784:	c632                	c.swsp	a2,12(sp)
20008786:	78c000ef          	jal	ra,20008f12 <strnlen>
2000878a:	57fd                	c.li	a5,-1
2000878c:	00440493          	addi	s1,s0,4
20008790:	00fc8663          	beq	s9,a5,2000879c <__printf_impl+0x26c>
20008794:	4632                	c.lwsp	a2,12(sp)
20008796:	00a65363          	bge	a2,a0,2000879c <__printf_impl+0x26c>
2000879a:	8532                	c.mv	a0,a2
2000879c:	00aa8433          	add	s0,s5,a0
200087a0:	4c01                	c.li	s8,0
200087a2:	5782                	c.lwsp	a5,32(sp)
200087a4:	02d00693          	li	a3,45
200087a8:	40a7fb5b          	bbs	a5,10,200087be <__printf_impl+0x28e>
200087ac:	02b00693          	li	a3,43
200087b0:	4037f75b          	bbs	a5,3,200087be <__printf_impl+0x28e>
200087b4:	8cd2                	c.mv	s9,s4
200087b6:	0017f85b          	bbc	a5,1,200087c6 <__printf_impl+0x296>
200087ba:	02000693          	li	a3,32
200087be:	01d10c93          	addi	s9,sp,29
200087c2:	00d10e23          	sb	a3,28(sp)
200087c6:	0167f6b3          	and	a3,a5,s6
200087ca:	ca91                	c.beqz	a3,200087de <__printf_impl+0x2ae>
200087cc:	03000693          	li	a3,48
200087d0:	00dc8023          	sb	a3,0(s9)
200087d4:	05800693          	li	a3,88
200087d8:	00dc80a3          	sb	a3,1(s9)
200087dc:	0c89                	c.addi	s9,2
200087de:	5627f45b          	bbs	a5,2,20008946 <__printf_impl+0x416>
200087e2:	41540db3          	sub	s11,s0,s5
200087e6:	4057fa5b          	bbs	a5,5,200087fa <__printf_impl+0x2ca>
200087ea:	41bb8d33          	sub	s10,s7,s11
200087ee:	414c87b3          	sub	a5,s9,s4
200087f2:	40fd0d33          	sub	s10,s10,a5
200087f6:	17a04763          	bgtz	s10,20008964 <__printf_impl+0x434>
200087fa:	8d52                	c.mv	s10,s4
200087fc:	9bd2                	c.add	s7,s4
200087fe:	aab5                	c.j	2000897a <__printf_impl+0x44a>
20008800:	45c1                	c.li	a1,16
20008802:	5782                	c.lwsp	a5,32(sp)
20008804:	0667fd5b          	bbc	a5,6,2000887e <__printf_impl+0x34e>
20008808:	00044703          	lbu	a4,0(s0)
2000880c:	00440493          	addi	s1,s0,4
20008810:	4781                	c.li	a5,0
20008812:	a859                	c.j	200088a8 <__printf_impl+0x378>
20008814:	401c                	c.lw	a5,0(s0)
20008816:	00440493          	addi	s1,s0,4
2000881a:	4c01                	c.li	s8,0
2000881c:	02510413          	addi	s0,sp,37
20008820:	02f10223          	sb	a5,36(sp)
20008824:	02410a93          	addi	s5,sp,36
20008828:	bfad                	c.j	200087a2 <__printf_impl+0x272>
2000882a:	0076f75b          	bbc	a3,7,20008838 <__printf_impl+0x308>
2000882e:	00440493          	addi	s1,s0,4
20008832:	00041703          	lh	a4,0(s0)
20008836:	bf31                	c.j	20008752 <__printf_impl+0x222>
20008838:	0086f65b          	bbc	a3,8,20008844 <__printf_impl+0x314>
2000883c:	00440493          	addi	s1,s0,4
20008840:	4018                	c.lw	a4,0(s0)
20008842:	bf01                	c.j	20008752 <__printf_impl+0x222>
20008844:	be96fc5b          	bbc	a3,9,2000883c <__printf_impl+0x30c>
20008848:	041d                	c.addi	s0,7
2000884a:	9861                	c.andi	s0,-8
2000884c:	405c                	c.lw	a5,4(s0)
2000884e:	00840493          	addi	s1,s0,8
20008852:	4018                	c.lw	a4,0(s0)
20008854:	0007c963          	bltz	a5,20008866 <__printf_impl+0x336>
20008858:	56fd                	c.li	a3,-1
2000885a:	45a9                	c.li	a1,10
2000885c:	4c01                	c.li	s8,0
2000885e:	04dc9a63          	bne	s9,a3,200088b2 <__printf_impl+0x382>
20008862:	4605                	c.li	a2,1
20008864:	a0b5                	c.j	200088d0 <__printf_impl+0x3a0>
20008866:	ee071ae3          	bnez	a4,2000875a <__printf_impl+0x22a>
2000886a:	800005b7          	lui	a1,0x80000
2000886e:	eeb796e3          	bne	a5,a1,2000875a <__printf_impl+0x22a>
20008872:	4701                	c.li	a4,0
20008874:	800007b7          	lui	a5,0x80000
20008878:	bdc5                	c.j	20008768 <__printf_impl+0x238>
2000887a:	45a9                	c.li	a1,10
2000887c:	b759                	c.j	20008802 <__printf_impl+0x2d2>
2000887e:	0077f75b          	bbc	a5,7,2000888c <__printf_impl+0x35c>
20008882:	00440493          	addi	s1,s0,4
20008886:	00045703          	lhu	a4,0(s0)
2000888a:	b759                	c.j	20008810 <__printf_impl+0x2e0>
2000888c:	0087f65b          	bbc	a5,8,20008898 <__printf_impl+0x368>
20008890:	00440493          	addi	s1,s0,4
20008894:	4018                	c.lw	a4,0(s0)
20008896:	bfad                	c.j	20008810 <__printf_impl+0x2e0>
20008898:	be97fc5b          	bbc	a5,9,20008890 <__printf_impl+0x360>
2000889c:	041d                	c.addi	s0,7
2000889e:	9861                	c.andi	s0,-8
200088a0:	4018                	c.lw	a4,0(s0)
200088a2:	405c                	c.lw	a5,4(s0)
200088a4:	00840493          	addi	s1,s0,8
200088a8:	0206fc13          	andi	s8,a3,32
200088ac:	56fd                	c.li	a3,-1
200088ae:	02dc8863          	beq	s9,a3,200088de <__printf_impl+0x3ae>
200088b2:	5682                	c.lwsp	a3,32(sp)
200088b4:	fdf6f693          	andi	a3,a3,-33
200088b8:	d036                	c.swsp	a3,32(sp)
200088ba:	0105eb5b          	bnec	a1,16,200088d0 <__printf_impl+0x3a0>
200088be:	5682                	c.lwsp	a3,32(sp)
200088c0:	0046f85b          	bbc	a3,4,200088d0 <__printf_impl+0x3a0>
200088c4:	00f76533          	or	a0,a4,a5
200088c8:	c501                	c.beqz	a0,200088d0 <__printf_impl+0x3a0>
200088ca:	0166e6b3          	or	a3,a3,s6
200088ce:	d036                	c.swsp	a3,32(sp)
200088d0:	86b2                	c.mv	a3,a2
200088d2:	5602                	c.lwsp	a2,32(sp)
200088d4:	1048                	c.addi4spn	a0,sp,36
200088d6:	c0fff0ef          	jal	ra,200084e4 <__print_integral>
200088da:	842a                	c.mv	s0,a0
200088dc:	b7a1                	c.j	20008824 <__printf_impl+0x2f4>
200088de:	4605                	c.li	a2,1
200088e0:	bfe9                	c.j	200088ba <__printf_impl+0x38a>
200088e2:	45a2                	c.lwsp	a1,8(sp)
200088e4:	5682                	c.lwsp	a3,32(sp)
200088e6:	00440493          	addi	s1,s0,4
200088ea:	873fa7ab          	lwgp	a5,-1936 # 80070 <__printf_count>
200088ee:	4018                	c.lw	a4,0(s0)
200088f0:	0066f85b          	bbc	a3,6,20008900 <__printf_impl+0x3d0>
200088f4:	00f70023          	sb	a5,0(a4)
200088f8:	1040                	c.addi4spn	s0,sp,36
200088fa:	4c01                	c.li	s8,0
200088fc:	8aa2                	c.mv	s5,s0
200088fe:	b555                	c.j	200087a2 <__printf_impl+0x272>
20008900:	0076f55b          	bbc	a3,7,2000890a <__printf_impl+0x3da>
20008904:	00f71023          	sh	a5,0(a4)
20008908:	bfc5                	c.j	200088f8 <__printf_impl+0x3c8>
2000890a:	c31c                	c.sw	a5,0(a4)
2000890c:	fe86f65b          	bbs	a3,8,200088f8 <__printf_impl+0x3c8>
20008910:	be96f45b          	bbc	a3,9,200088f8 <__printf_impl+0x3c8>
20008914:	87fd                	c.srai	a5,0x1f
20008916:	c35c                	c.sw	a5,4(a4)
20008918:	b7c5                	c.j	200088f8 <__printf_impl+0x3c8>
2000891a:	000dc503          	lbu	a0,0(s11)
2000891e:	0d85                	c.addi	s11,1
20008920:	01856533          	or	a0,a0,s8
20008924:	9982                	c.jalr	s3
20008926:	41bb8d33          	sub	s10,s7,s11
2000892a:	ff9de8e3          	bltu	s11,s9,2000891a <__printf_impl+0x3ea>
2000892e:	8bd6                	c.mv	s7,s5
20008930:	01741e63          	bne	s0,s7,2000894c <__printf_impl+0x41c>
20008934:	41540433          	sub	s0,s0,s5
20008938:	408d0433          	sub	s0,s10,s0
2000893c:	00804f63          	bgtz	s0,2000895a <__printf_impl+0x42a>
20008940:	0905                	c.addi	s2,1
20008942:	8426                	c.mv	s0,s1
20008944:	b129                	c.j	2000854e <__printf_impl+0x1e>
20008946:	8dd2                	c.mv	s11,s4
20008948:	9bd2                	c.add	s7,s4
2000894a:	bff1                	c.j	20008926 <__printf_impl+0x3f6>
2000894c:	000bc503          	lbu	a0,0(s7)
20008950:	0b85                	c.addi	s7,1
20008952:	01856533          	or	a0,a0,s8
20008956:	9982                	c.jalr	s3
20008958:	bfe1                	c.j	20008930 <__printf_impl+0x400>
2000895a:	02000513          	li	a0,32
2000895e:	9982                	c.jalr	s3
20008960:	147d                	c.addi	s0,-1
20008962:	bfe9                	c.j	2000893c <__printf_impl+0x40c>
20008964:	02000513          	li	a0,32
20008968:	9982                	c.jalr	s3
2000896a:	1d7d                	c.addi	s10,-1
2000896c:	b569                	c.j	200087f6 <__printf_impl+0x2c6>
2000896e:	000d4503          	lbu	a0,0(s10)
20008972:	0d05                	c.addi	s10,1
20008974:	01856533          	or	a0,a0,s8
20008978:	9982                	c.jalr	s3
2000897a:	41ab87b3          	sub	a5,s7,s10
2000897e:	ff9d68e3          	bltu	s10,s9,2000896e <__printf_impl+0x43e>
20008982:	5682                	c.lwsp	a3,32(sp)
20008984:	0056f65b          	bbc	a3,5,20008990 <__printf_impl+0x460>
20008988:	41b78db3          	sub	s11,a5,s11
2000898c:	01b04b63          	bgtz	s11,200089a2 <__printf_impl+0x472>
20008990:	fb5408e3          	beq	s0,s5,20008940 <__printf_impl+0x410>
20008994:	000ac503          	lbu	a0,0(s5)
20008998:	0a85                	c.addi	s5,1
2000899a:	01856533          	or	a0,a0,s8
2000899e:	9982                	c.jalr	s3
200089a0:	bfc5                	c.j	20008990 <__printf_impl+0x460>
200089a2:	03000513          	li	a0,48
200089a6:	9982                	c.jalr	s3
200089a8:	1dfd                	c.addi	s11,-1
200089aa:	b7cd                	c.j	2000898c <__printf_impl+0x45c>

200089ac <__int_to_poly>:
200089ac:	87aa                	c.mv	a5,a0
200089ae:	4501                	c.li	a0,0
200089b0:	00b7e733          	or	a4,a5,a1
200089b4:	e311                	c.bnez	a4,200089b8 <__int_to_poly+0xc>
200089b6:	8082                	c.jr	ra
200089b8:	00f61023          	sh	a5,0(a2)
200089bc:	01059713          	slli	a4,a1,0x10
200089c0:	83c1                	c.srli	a5,0x10
200089c2:	0505                	c.addi	a0,1
200089c4:	8fd9                	c.or	a5,a4
200089c6:	81c1                	c.srli	a1,0x10
200089c8:	0609                	c.addi	a2,2
200089ca:	b7dd                	c.j	200089b0 <__int_to_poly+0x4>

200089cc <__print_integral_poly>:
200089cc:	5f0002ef          	jal	t0,20008fbc <__riscv_save_0>
200089d0:	88c2                	c.mv	a7,a6
200089d2:	84ba                	c.mv	s1,a4
200089d4:	187d                	c.addi	a6,-1
200089d6:	0b17875b          	lea.h	a4,a5,a7
200089da:	8342                	c.mv	t1,a6
200089dc:	4401                	c.li	s0,0
200089de:	8e3a                	c.mv	t3,a4
200089e0:	1779                	c.addi	a4,-2
200089e2:	02035463          	bgez	t1,20008a0a <__print_integral_poly+0x3e>
200089e6:	05105063          	blez	a7,20008a26 <__print_integral_poly+0x5a>
200089ea:	ffee5703          	lhu	a4,-2(t3)
200089ee:	eb15                	c.bnez	a4,20008a22 <__print_integral_poly+0x56>
200089f0:	03005b63          	blez	a6,20008a26 <__print_integral_poly+0x5a>
200089f4:	8726                	c.mv	a4,s1
200089f6:	16fd                	c.addi	a3,-1
200089f8:	3fd1                	c.jal	200089cc <__print_integral_poly>
200089fa:	87aa                	c.mv	a5,a0
200089fc:	0505                	c.addi	a0,1
200089fe:	00878023          	sb	s0,0(a5) # 80000000 <_DATA_LMA_START+0x5fff6728>
20008a02:	409c                	c.lw	a5,0(s1)
20008a04:	0785                	c.addi	a5,1
20008a06:	c09c                	c.sw	a5,0(s1)
20008a08:	abe1                	c.j	20008fe0 <__riscv_restore_0>
20008a0a:	00075e83          	lhu	t4,0(a4)
20008a0e:	0442                	c.slli	s0,0x10
20008a10:	9476                	c.add	s0,t4
20008a12:	02b45eb3          	divu	t4,s0,a1
20008a16:	137d                	c.addi	t1,-1
20008a18:	02b47433          	remu	s0,s0,a1
20008a1c:	01d71023          	sh	t4,0(a4)
20008a20:	b7c1                	c.j	200089e0 <__print_integral_poly+0x14>
20008a22:	8846                	c.mv	a6,a7
20008a24:	bfc1                	c.j	200089f4 <__print_integral_poly+0x28>
20008a26:	c011                	c.beqz	s0,20008a2a <__print_integral_poly+0x5e>
20008a28:	16fd                	c.addi	a3,-1
20008a2a:	00d04763          	bgtz	a3,20008a38 <__print_integral_poly+0x6c>
20008a2e:	0085ee5b          	bnec	a1,8,20008a4a <__print_integral_poly+0x7e>
20008a32:	00467c5b          	bbc	a2,4,20008a4a <__print_integral_poly+0x7e>
20008a36:	4685                	c.li	a3,1
20008a38:	87aa                	c.mv	a5,a0
20008a3a:	40a78733          	sub	a4,a5,a0
20008a3e:	00d74b63          	blt	a4,a3,20008a54 <__print_integral_poly+0x88>
20008a42:	0006d363          	bgez	a3,20008a48 <__print_integral_poly+0x7c>
20008a46:	4681                	c.li	a3,0
20008a48:	9536                	c.add	a0,a3
20008a4a:	dc45                	c.beqz	s0,20008a02 <__print_integral_poly+0x36>
20008a4c:	00850023          	sb	s0,0(a0)
20008a50:	0505                	c.addi	a0,1
20008a52:	bf45                	c.j	20008a02 <__print_integral_poly+0x36>
20008a54:	0785                	c.addi	a5,1
20008a56:	fe078fa3          	sb	zero,-1(a5)
20008a5a:	b7c5                	c.j	20008a3a <__print_integral_poly+0x6e>

20008a5c <__printf_float_impl>:
20008a5c:	530002ef          	jal	t0,20008f8c <__riscv_save_12>
20008a60:	0df7fc13          	andi	s8,a5,223
20008a64:	7169                	c.addi16sp	sp,-304
20008a66:	8b2a                	c.mv	s6,a0
20008a68:	89ae                	c.mv	s3,a1
20008a6a:	84b2                	c.mv	s1,a2
20008a6c:	8abe                	c.mv	s5,a5
20008a6e:	467c6c5b          	bnec	s8,71,20008ae6 <__printf_float_impl+0x8a>
20008a72:	0005aa03          	lw	s4,0(a1) # 80000000 <_DATA_LMA_START+0x5fff6728>
20008a76:	010a4a13          	xori	s4,s4,16
20008a7a:	104a2a5b          	bfoz	s4,s4,4,4
20008a7e:	0604da63          	bgez	s1,20008af2 <__printf_float_impl+0x96>
20008a82:	4499                	c.li	s1,6
20008a84:	401c635b          	bnec	s8,65,20008a8a <__printf_float_impl+0x2e>
20008a88:	44b5                	c.li	s1,13
20008a8a:	8936                	c.mv	s2,a3
20008a8c:	7947245b          	bfoz	s0,a4,30,20
20008a90:	4c072d5b          	bfoz	s10,a4,19,0
20008a94:	00075863          	bgez	a4,20008aa4 <__printf_float_impl+0x48>
20008a98:	0009a783          	lw	a5,0(s3)
20008a9c:	4007e793          	ori	a5,a5,1024
20008aa0:	00f9a023          	sw	a5,0(s3)
20008aa4:	401c6a5b          	bnec	s8,65,20008ab8 <__printf_float_impl+0x5c>
20008aa8:	0009a783          	lw	a5,0(s3)
20008aac:	6705                	c.lui	a4,0x1
20008aae:	80070713          	addi	a4,a4,-2048 # 800 <blt_buff_prepare_write+0xb8>
20008ab2:	8fd9                	c.or	a5,a4
20008ab4:	00f9a023          	sw	a5,0(s3)
20008ab8:	7ff00793          	li	a5,2047
20008abc:	04f41663          	bne	s0,a5,20008b08 <__printf_float_impl+0xac>
20008ac0:	0009a783          	lw	a5,0(s3)
20008ac4:	01a96933          	or	s2,s2,s10
20008ac8:	fdf7f793          	andi	a5,a5,-33
20008acc:	00f9a023          	sw	a5,0(s3)
20008ad0:	02090763          	beqz	s2,20008afe <__printf_float_impl+0xa2>
20008ad4:	200095b7          	lui	a1,0x20009
20008ad8:	7b458593          	addi	a1,a1,1972 # 200097b4 <__digits+0x10>
20008adc:	855a                	c.mv	a0,s6
20008ade:	2e5d                	c.jal	20008e94 <strcpy>
20008ae0:	050d                	c.addi	a0,3
20008ae2:	6155                	c.addi16sp	sp,304
20008ae4:	a1d5                	c.j	20008fc8 <__riscv_restore_12>
20008ae6:	4a01                	c.li	s4,0
20008ae8:	f81c6b5b          	bnec	s8,65,20008a7e <__printf_float_impl+0x22>
20008aec:	01f65a13          	srli	s4,a2,0x1f
20008af0:	b779                	c.j	20008a7e <__printf_float_impl+0x22>
20008af2:	fcc1                	c.bnez	s1,20008a8a <__printf_float_impl+0x2e>
20008af4:	fb9c0493          	addi	s1,s8,-71
20008af8:	0014b493          	seqz	s1,s1
20008afc:	b779                	c.j	20008a8a <__printf_float_impl+0x2e>
20008afe:	200095b7          	lui	a1,0x20009
20008b02:	7b858593          	addi	a1,a1,1976 # 200097b8 <__digits+0x14>
20008b06:	bfd9                	c.j	20008adc <__printf_float_impl+0x80>
20008b08:	e811                	c.bnez	s0,20008b1c <__printf_float_impl+0xc0>
20008b0a:	01a967b3          	or	a5,s2,s10
20008b0e:	c0300413          	li	s0,-1021
20008b12:	18079463          	bnez	a5,20008c9a <__printf_float_impl+0x23e>
20008b16:	03500413          	li	s0,53
20008b1a:	a819                	c.j	20008b30 <__printf_float_impl+0xd4>
20008b1c:	001007b7          	lui	a5,0x100
20008b20:	01a7ed33          	or	s10,a5,s10
20008b24:	c0240413          	addi	s0,s0,-1022
20008b28:	03400793          	li	a5,52
20008b2c:	1687d563          	bge	a5,s0,20008c96 <__printf_float_impl+0x23a>
20008b30:	fcb40413          	addi	s0,s0,-53
20008b34:	00445b93          	srli	s7,s0,0x4
20008b38:	001b9c93          	slli	s9,s7,0x1
20008b3c:	8666                	c.mv	a2,s9
20008b3e:	4581                	c.li	a1,0
20008b40:	1008                	c.addi4spn	a0,sp,32
20008b42:	82dff0ef          	jal	ra,2000836e <memset>
20008b46:	883d                	c.andi	s0,15
20008b48:	1a0c                	c.addi4spn	a1,sp,304
20008b4a:	9cae                	c.add	s9,a1
20008b4c:	8622                	c.mv	a2,s0
20008b4e:	854a                	c.mv	a0,s2
20008b50:	85ea                	c.mv	a1,s10
20008b52:	2129                	c.jal	20008f5c <__ashldi3>
20008b54:	4641                	c.li	a2,16
20008b56:	eeac9823          	sh	a0,-272(s9)
20008b5a:	1014                	c.addi4spn	a3,sp,32
20008b5c:	0b85                	c.addi	s7,1
20008b5e:	8e01                	c.sub	a2,s0
20008b60:	854a                	c.mv	a0,s2
20008b62:	85ea                	c.mv	a1,s10
20008b64:	0b768cdb          	lea.h	s9,a3,s7
20008b68:	26d1                	c.jal	20008f2c <__lshrdi3>
20008b6a:	8666                	c.mv	a2,s9
20008b6c:	3581                	c.jal	200089ac <__int_to_poly>
20008b6e:	4c81                	c.li	s9,0
20008b70:	9baa                	c.add	s7,a0
20008b72:	57fd                	c.li	a5,-1
20008b74:	ce3e                	c.swsp	a5,28(sp)
20008b76:	4429                	c.li	s0,10
20008b78:	401c635b          	bnec	s8,65,20008b7e <__printf_float_impl+0x122>
20008b7c:	4441                	c.li	s0,16
20008b7e:	885e                	c.mv	a6,s7
20008b80:	101c                	c.addi4spn	a5,sp,32
20008b82:	4685                	c.li	a3,1
20008b84:	0878                	c.addi4spn	a4,sp,28
20008b86:	4601                	c.li	a2,0
20008b88:	85a2                	c.mv	a1,s0
20008b8a:	855a                	c.mv	a0,s6
20008b8c:	3581                	c.jal	200089cc <__print_integral_poly>
20008b8e:	02e00793          	li	a5,46
20008b92:	00f50023          	sb	a5,0(a0)
20008b96:	001bbb93          	seqz	s7,s7
20008b9a:	0dbafa93          	andi	s5,s5,219
20008b9e:	00150693          	addi	a3,a0,1
20008ba2:	87de                	c.mv	a5,s7
20008ba4:	401ad35b          	beqc	s5,65,20008baa <__printf_float_impl+0x14e>
20008ba8:	4781                	c.li	a5,0
20008baa:	00148713          	addi	a4,s1,1
20008bae:	973e                	c.add	a4,a5
20008bb0:	fffc8313          	addi	t1,s9,-1
20008bb4:	001c9613          	slli	a2,s9,0x1
20008bb8:	112c                	c.addi4spn	a1,sp,168
20008bba:	95b2                	c.add	a1,a2
20008bbc:	881a                	c.mv	a6,t1
20008bbe:	4781                	c.li	a5,0
20008bc0:	15f9                	c.addi	a1,-2
20008bc2:	18085263          	bgez	a6,20008d46 <__printf_float_impl+0x2ea>
20008bc6:	01905863          	blez	s9,20008bd6 <__printf_float_impl+0x17a>
20008bca:	1a0c                	c.addi4spn	a1,sp,304
20008bcc:	962e                	c.add	a2,a1
20008bce:	f7665603          	lhu	a2,-138(a2)
20008bd2:	e211                	c.bnez	a2,20008bd6 <__printf_float_impl+0x17a>
20008bd4:	8c9a                	c.mv	s9,t1
20008bd6:	180b8263          	beqz	s7,20008d5a <__printf_float_impl+0x2fe>
20008bda:	4672                	c.lwsp	a2,28(sp)
20008bdc:	0017bb93          	seqz	s7,a5
20008be0:	167d                	c.addi	a2,-1
20008be2:	ce32                	c.swsp	a2,28(sp)
20008be4:	0685                	c.addi	a3,1
20008be6:	fef68fa3          	sb	a5,-1(a3)
20008bea:	f379                	c.bnez	a4,20008bb0 <__printf_float_impl+0x154>
20008bec:	567c6a5b          	bnec	s8,71,20008d60 <__printf_float_impl+0x304>
20008bf0:	47f2                	c.lwsp	a5,28(sp)
20008bf2:	fff48713          	addi	a4,s1,-1
20008bf6:	1897d763          	bge	a5,s1,20008d84 <__printf_float_impl+0x328>
20008bfa:	5671                	c.li	a2,-4
20008bfc:	18c7c463          	blt	a5,a2,20008d84 <__printf_float_impl+0x328>
20008c00:	40f704b3          	sub	s1,a4,a5
20008c04:	04600c13          	li	s8,70
20008c08:	0489                	c.addi	s1,2
20008c0a:	9526                	c.add	a0,s1
20008c0c:	fff54683          	lbu	a3,-1(a0)
20008c10:	40145713          	srai	a4,s0,0x1
20008c14:	fff50793          	addi	a5,a0,-1
20008c18:	00e6a6b3          	slt	a3,a3,a4
20008c1c:	0016c693          	xori	a3,a3,1
20008c20:	863e                	c.mv	a2,a5
20008c22:	1acb7c63          	bgeu	s6,a2,20008dda <__printf_float_impl+0x37e>
20008c26:	18069863          	bnez	a3,20008db6 <__printf_float_impl+0x35a>
20008c2a:	17fd                	c.addi	a5,-1
20008c2c:	00178513          	addi	a0,a5,1 # 100001 <FLASH_SIZE+0x1>
20008c30:	00fb7763          	bgeu	s6,a5,20008c3e <__printf_float_impl+0x1e2>
20008c34:	000a0563          	beqz	s4,20008c3e <__printf_float_impl+0x1e2>
20008c38:	0007c703          	lbu	a4,0(a5)
20008c3c:	d77d                	c.beqz	a4,20008c2a <__printf_float_impl+0x1ce>
20008c3e:	fff54783          	lbu	a5,-1(a0)
20008c42:	00e7e7db          	bnec	a5,46,20008c50 <__printf_float_impl+0x1f4>
20008c46:	0009a783          	lw	a5,0(s3)
20008c4a:	4047f35b          	bbs	a5,4,20008c50 <__printf_float_impl+0x1f4>
20008c4e:	157d                	c.addi	a0,-1
20008c50:	20009737          	lui	a4,0x20009
20008c54:	46bd                	c.li	a3,15
20008c56:	7a470713          	addi	a4,a4,1956 # 200097a4 <__digits>
20008c5a:	1aab6e63          	bltu	s6,a0,20008e16 <__printf_float_impl+0x3ba>
20008c5e:	5c5c675b          	bnec	s8,69,20008e2c <__printf_float_impl+0x3d0>
20008c62:	01850023          	sb	s8,0(a0)
20008c66:	4772                	c.lwsp	a4,28(sp)
20008c68:	02d00793          	li	a5,45
20008c6c:	00074463          	bltz	a4,20008c74 <__printf_float_impl+0x218>
20008c70:	02b00793          	li	a5,43
20008c74:	00f500a3          	sb	a5,1(a0)
20008c78:	47f2                	c.lwsp	a5,28(sp)
20008c7a:	4689                	c.li	a3,2
20008c7c:	41f7d713          	srai	a4,a5,0x1f
20008c80:	8fb9                	c.xor	a5,a4
20008c82:	40e78733          	sub	a4,a5,a4
20008c86:	41f75793          	srai	a5,a4,0x1f
20008c8a:	4601                	c.li	a2,0
20008c8c:	45a9                	c.li	a1,10
20008c8e:	0509                	c.addi	a0,2
20008c90:	855ff0ef          	jal	ra,200084e4 <__print_integral>
20008c94:	b5b9                	c.j	20008ae2 <__printf_float_impl+0x86>
20008c96:	06804363          	bgtz	s0,20008cfc <__printf_float_impl+0x2a0>
20008c9a:	40800433          	neg	s0,s0
20008c9e:	00445b93          	srli	s7,s0,0x4
20008ca2:	001b9d93          	slli	s11,s7,0x1
20008ca6:	866e                	c.mv	a2,s11
20008ca8:	4581                	c.li	a1,0
20008caa:	1128                	c.addi4spn	a0,sp,168
20008cac:	ec2ff0ef          	jal	ra,2000836e <memset>
20008cb0:	112c                	c.addi4spn	a1,sp,168
20008cb2:	883d                	c.andi	s0,15
20008cb4:	9dae                	c.add	s11,a1
20008cb6:	02540413          	addi	s0,s0,37
20008cba:	876e                	c.mv	a4,s11
20008cbc:	4c81                	c.li	s9,0
20008cbe:	001c8793          	addi	a5,s9,1
20008cc2:	8622                	c.mv	a2,s0
20008cc4:	854a                	c.mv	a0,s2
20008cc6:	85ea                	c.mv	a1,s10
20008cc8:	c63a                	c.swsp	a4,12(sp)
20008cca:	c43e                	c.swsp	a5,8(sp)
20008ccc:	2485                	c.jal	20008f2c <__lshrdi3>
20008cce:	4732                	c.lwsp	a4,12(sp)
20008cd0:	1441                	c.addi	s0,-16
20008cd2:	00a71023          	sh	a0,0(a4)
20008cd6:	47a2                	c.lwsp	a5,8(sp)
20008cd8:	0709                	c.addi	a4,2
20008cda:	00045f63          	bgez	s0,20008cf8 <__printf_float_impl+0x29c>
20008cde:	0afd8ddb          	lea.h	s11,s11,a5
20008ce2:	40800633          	neg	a2,s0
20008ce6:	854a                	c.mv	a0,s2
20008ce8:	85ea                	c.mv	a1,s10
20008cea:	0c89                	c.addi	s9,2
20008cec:	2c85                	c.jal	20008f5c <__ashldi3>
20008cee:	9cde                	c.add	s9,s7
20008cf0:	00ad9023          	sh	a0,0(s11)
20008cf4:	4b81                	c.li	s7,0
20008cf6:	bdb5                	c.j	20008b72 <__printf_float_impl+0x116>
20008cf8:	8cbe                	c.mv	s9,a5
20008cfa:	b7d1                	c.j	20008cbe <__printf_float_impl+0x262>
20008cfc:	03500613          	li	a2,53
20008d00:	8e01                	c.sub	a2,s0
20008d02:	854a                	c.mv	a0,s2
20008d04:	85ea                	c.mv	a1,s10
20008d06:	241d                	c.jal	20008f2c <__lshrdi3>
20008d08:	1010                	c.addi4spn	a2,sp,32
20008d0a:	ca3ff0ef          	jal	ra,200089ac <__int_to_poly>
20008d0e:	02500793          	li	a5,37
20008d12:	8baa                	c.mv	s7,a0
20008d14:	40878433          	sub	s0,a5,s0
20008d18:	0a810d93          	addi	s11,sp,168
20008d1c:	4c81                	c.li	s9,0
20008d1e:	0c85                	c.addi	s9,1
20008d20:	00045a63          	bgez	s0,20008d34 <__printf_float_impl+0x2d8>
20008d24:	40800633          	neg	a2,s0
20008d28:	854a                	c.mv	a0,s2
20008d2a:	85ea                	c.mv	a1,s10
20008d2c:	2c05                	c.jal	20008f5c <__ashldi3>
20008d2e:	00ad9023          	sh	a0,0(s11)
20008d32:	b581                	c.j	20008b72 <__printf_float_impl+0x116>
20008d34:	8622                	c.mv	a2,s0
20008d36:	854a                	c.mv	a0,s2
20008d38:	85ea                	c.mv	a1,s10
20008d3a:	2acd                	c.jal	20008f2c <__lshrdi3>
20008d3c:	1441                	c.addi	s0,-16
20008d3e:	00ad9023          	sh	a0,0(s11)
20008d42:	0d89                	c.addi	s11,2
20008d44:	bfe9                	c.j	20008d1e <__printf_float_impl+0x2c2>
20008d46:	0005d883          	lhu	a7,0(a1)
20008d4a:	187d                	c.addi	a6,-1
20008d4c:	028888b3          	mul	a7,a7,s0
20008d50:	97c6                	c.add	a5,a7
20008d52:	00f59023          	sh	a5,0(a1)
20008d56:	83c1                	c.srli	a5,0x10
20008d58:	b5a5                	c.j	20008bc0 <__printf_float_impl+0x164>
20008d5a:	177d                	c.addi	a4,-1
20008d5c:	4b81                	c.li	s7,0
20008d5e:	b559                	c.j	20008be4 <__printf_float_impl+0x188>
20008d60:	8726                	c.mv	a4,s1
20008d62:	ea6c535b          	beqc	s8,70,20008c08 <__printf_float_impl+0x1ac>
20008d66:	47f2                	c.lwsp	a5,28(sp)
20008d68:	001b0613          	addi	a2,s6,1
20008d6c:	02f04463          	bgtz	a5,20008d94 <__printf_float_impl+0x338>
20008d70:	c785                	c.beqz	a5,20008d98 <__printf_float_impl+0x33c>
20008d72:	40f507b3          	sub	a5,a0,a5
20008d76:	02d7e963          	bltu	a5,a3,20008da8 <__printf_float_impl+0x34c>
20008d7a:	001b0783          	lb	a5,1(s6)
20008d7e:	00fb0023          	sb	a5,0(s6)
20008d82:	a819                	c.j	20008d98 <__printf_float_impl+0x33c>
20008d84:	04500c13          	li	s8,69
20008d88:	bff9                	c.j	20008d66 <__printf_float_impl+0x30a>
20008d8a:	fff50783          	lb	a5,-1(a0)
20008d8e:	157d                	c.addi	a0,-1
20008d90:	00f500a3          	sb	a5,1(a0)
20008d94:	fec51be3          	bne	a0,a2,20008d8a <__printf_float_impl+0x32e>
20008d98:	02e00793          	li	a5,46
20008d9c:	001b0513          	addi	a0,s6,1
20008da0:	00fb00a3          	sb	a5,1(s6)
20008da4:	84ba                	c.mv	s1,a4
20008da6:	b58d                	c.j	20008c08 <__printf_float_impl+0x1ac>
20008da8:	0785                	c.addi	a5,1
20008daa:	fff7c603          	lbu	a2,-1(a5)
20008dae:	0505                	c.addi	a0,1
20008db0:	fec50fa3          	sb	a2,-1(a0)
20008db4:	b7c9                	c.j	20008d76 <__printf_float_impl+0x31a>
20008db6:	167d                	c.addi	a2,-1
20008db8:	00064703          	lbu	a4,0(a2)
20008dbc:	a6e753db          	beqc	a4,46,20008c22 <__printf_float_impl+0x1c6>
20008dc0:	0705                	c.addi	a4,1
20008dc2:	0ff77713          	andi	a4,a4,255
20008dc6:	00875663          	bge	a4,s0,20008dd2 <__printf_float_impl+0x376>
20008dca:	00e60023          	sb	a4,0(a2)
20008dce:	4681                	c.li	a3,0
20008dd0:	bd89                	c.j	20008c22 <__printf_float_impl+0x1c6>
20008dd2:	8f01                	c.sub	a4,s0
20008dd4:	00e60023          	sb	a4,0(a2)
20008dd8:	b5a9                	c.j	20008c22 <__printf_float_impl+0x1c6>
20008dda:	873e                	c.mv	a4,a5
20008ddc:	e40687e3          	beqz	a3,20008c2a <__printf_float_impl+0x1ce>
20008de0:	02eb6363          	bltu	s6,a4,20008e06 <__printf_float_impl+0x3aa>
20008de4:	4705                	c.li	a4,1
20008de6:	00eb0023          	sb	a4,0(s6)
20008dea:	4772                	c.lwsp	a4,28(sp)
20008dec:	0705                	c.addi	a4,1
20008dee:	ce3a                	c.swsp	a4,28(sp)
20008df0:	426c515b          	beqc	s8,70,20008e12 <__printf_float_impl+0x3b6>
20008df4:	001b0703          	lb	a4,1(s6)
20008df8:	00eb0123          	sb	a4,2(s6)
20008dfc:	02e00713          	li	a4,46
20008e00:	00eb00a3          	sb	a4,1(s6)
20008e04:	b51d                	c.j	20008c2a <__printf_float_impl+0x1ce>
20008e06:	fff70683          	lb	a3,-1(a4)
20008e0a:	177d                	c.addi	a4,-1
20008e0c:	00d700a3          	sb	a3,1(a4)
20008e10:	bfc1                	c.j	20008de0 <__printf_float_impl+0x384>
20008e12:	87aa                	c.mv	a5,a0
20008e14:	bd19                	c.j	20008c2a <__printf_float_impl+0x1ce>
20008e16:	000b4783          	lbu	a5,0(s6)
20008e1a:	00f6e763          	bltu	a3,a5,20008e28 <__printf_float_impl+0x3cc>
20008e1e:	97ba                	c.add	a5,a4
20008e20:	00078783          	lb	a5,0(a5)
20008e24:	00fb0023          	sb	a5,0(s6)
20008e28:	0b05                	c.addi	s6,1
20008e2a:	bd05                	c.j	20008c5a <__printf_float_impl+0x1fe>
20008e2c:	ca1c6b5b          	bnec	s8,65,20008ae2 <__printf_float_impl+0x86>
20008e30:	05000793          	li	a5,80
20008e34:	00f50023          	sb	a5,0(a0)
20008e38:	4772                	c.lwsp	a4,28(sp)
20008e3a:	02d00793          	li	a5,45
20008e3e:	00074463          	bltz	a4,20008e46 <__printf_float_impl+0x3ea>
20008e42:	02b00793          	li	a5,43
20008e46:	00f500a3          	sb	a5,1(a0)
20008e4a:	47f2                	c.lwsp	a5,28(sp)
20008e4c:	41f7d693          	srai	a3,a5,0x1f
20008e50:	00f6c733          	xor	a4,a3,a5
20008e54:	8f15                	c.sub	a4,a3
20008e56:	070a                	c.slli	a4,0x2
20008e58:	41f75793          	srai	a5,a4,0x1f
20008e5c:	4685                	c.li	a3,1
20008e5e:	b535                	c.j	20008c8a <__printf_float_impl+0x22e>

20008e60 <strchr>:
20008e60:	00357713          	andi	a4,a0,3
20008e64:	00071c63          	bnez	a4,20008e7c <strchr+0x1c>
20008e68:	4110                	c.lw	a2,0(a0)
20008e6a:	20b606db          	ffb	a3,a2,a1
20008e6e:	e699                	c.bnez	a3,20008e7c <strchr+0x1c>
20008e70:	200606db          	ffb	a3,a2,zero
20008e74:	ea91                	c.bnez	a3,20008e88 <strchr+0x28>
20008e76:	0511                	c.addi	a0,4
20008e78:	ff1ff06f          	j	20008e68 <strchr+0x8>
20008e7c:	00054783          	lbu	a5,0(a0)
20008e80:	0505                	c.addi	a0,1
20008e82:	00b78563          	beq	a5,a1,20008e8c <strchr+0x2c>
20008e86:	fbfd                	c.bnez	a5,20008e7c <strchr+0x1c>
20008e88:	4501                	c.li	a0,0
20008e8a:	8082                	c.jr	ra
20008e8c:	157d                	c.addi	a0,-1
20008e8e:	8082                	c.jr	ra
20008e90:	0001                	c.nop
	...

20008e94 <strcpy>:
20008e94:	00b567b3          	or	a5,a0,a1
20008e98:	8b8d                	c.andi	a5,3
20008e9a:	e3ad                	c.bnez	a5,20008efc <strcpy+0x68>
20008e9c:	4198                	c.lw	a4,0(a1)
20008e9e:	200707db          	ffb	a5,a4,zero
20008ea2:	e3a9                	c.bnez	a5,20008ee4 <strcpy+0x50>
20008ea4:	00a007b3          	add	a5,zero,a0
20008ea8:	0591                	c.addi	a1,4
20008eaa:	0791                	c.addi	a5,4
20008eac:	fee7ae23          	sw	a4,-4(a5)
20008eb0:	4198                	c.lw	a4,0(a1)
20008eb2:	200706db          	ffb	a3,a4,zero
20008eb6:	daed                	c.beqz	a3,20008ea8 <strcpy+0x14>
20008eb8:	0005c703          	lbu	a4,0(a1)
20008ebc:	0015c683          	lbu	a3,1(a1)
20008ec0:	0025c603          	lbu	a2,2(a1)
20008ec4:	00e78023          	sb	a4,0(a5)
20008ec8:	00070863          	beqz	a4,20008ed8 <strcpy+0x44>
20008ecc:	00d780a3          	sb	a3,1(a5)
20008ed0:	c681                	c.beqz	a3,20008ed8 <strcpy+0x44>
20008ed2:	00c78123          	sb	a2,2(a5)
20008ed6:	e219                	c.bnez	a2,20008edc <strcpy+0x48>
20008ed8:	00008067          	ret
20008edc:	000781a3          	sb	zero,3(a5)
20008ee0:	00008067          	ret
20008ee4:	0005c703          	lbu	a4,0(a1)
20008ee8:	87aa                	c.mv	a5,a0
20008eea:	0015c683          	lbu	a3,1(a1)
20008eee:	0025c603          	lbu	a2,2(a1)
20008ef2:	00e78023          	sb	a4,0(a5)
20008ef6:	fb79                	c.bnez	a4,20008ecc <strcpy+0x38>
20008ef8:	fe1ff06f          	j	20008ed8 <strcpy+0x44>
20008efc:	00a007b3          	add	a5,zero,a0
20008f00:	0005c703          	lbu	a4,0(a1)
20008f04:	0785                	c.addi	a5,1
20008f06:	fee78fa3          	sb	a4,-1(a5)
20008f0a:	0585                	c.addi	a1,1
20008f0c:	fb75                	c.bnez	a4,20008f00 <strcpy+0x6c>
20008f0e:	8082                	c.jr	ra
20008f10:	0001                	c.nop

20008f12 <strnlen>:
20008f12:	95aa                	c.add	a1,a0
20008f14:	87aa                	c.mv	a5,a0
20008f16:	00b78563          	beq	a5,a1,20008f20 <strnlen+0xe>
20008f1a:	0007c703          	lbu	a4,0(a5)
20008f1e:	e701                	c.bnez	a4,20008f26 <strnlen+0x14>
20008f20:	40a78533          	sub	a0,a5,a0
20008f24:	8082                	c.jr	ra
20008f26:	0785                	c.addi	a5,1
20008f28:	b7fd                	c.j	20008f16 <strnlen+0x4>
	...

20008f2c <__lshrdi3>:
20008f2c:	ce11                	c.beqz	a2,20008f48 <__lshrdi3+0x1c>
20008f2e:	02000793          	li	a5,32
20008f32:	8f91                	c.sub	a5,a2
20008f34:	00f05c63          	blez	a5,20008f4c <__lshrdi3+0x20>
20008f38:	00c55533          	srl	a0,a0,a2
20008f3c:	00f597b3          	sll	a5,a1,a5
20008f40:	00c5d633          	srl	a2,a1,a2
20008f44:	8d5d                	c.or	a0,a5
20008f46:	85b2                	c.mv	a1,a2
20008f48:	00008067          	ret
20008f4c:	40f00533          	neg	a0,a5
20008f50:	4601                	c.li	a2,0
20008f52:	00a5d533          	srl	a0,a1,a0
20008f56:	85b2                	c.mv	a1,a2
20008f58:	bfc5                	c.j	20008f48 <__lshrdi3+0x1c>
20008f5a:	0001                	c.nop

20008f5c <__ashldi3>:
20008f5c:	ce11                	c.beqz	a2,20008f78 <__ashldi3+0x1c>
20008f5e:	02000793          	li	a5,32
20008f62:	8f91                	c.sub	a5,a2
20008f64:	00f05c63          	blez	a5,20008f7c <__ashldi3+0x20>
20008f68:	00c595b3          	sll	a1,a1,a2
20008f6c:	00f557b3          	srl	a5,a0,a5
20008f70:	00c51633          	sll	a2,a0,a2
20008f74:	8ddd                	c.or	a1,a5
20008f76:	8532                	c.mv	a0,a2
20008f78:	00008067          	ret
20008f7c:	40f005b3          	neg	a1,a5
20008f80:	4601                	c.li	a2,0
20008f82:	00b515b3          	sll	a1,a0,a1
20008f86:	8532                	c.mv	a0,a2
20008f88:	bfc5                	c.j	20008f78 <__ashldi3+0x1c>
20008f8a:	0001                	c.nop

20008f8c <__riscv_save_12>:
20008f8c:	7139                	c.addi16sp	sp,-64
20008f8e:	4301                	c.li	t1,0
20008f90:	c66e                	c.swsp	s11,12(sp)
20008f92:	a019                	c.j	20008f98 <__riscv_save_10+0x4>

20008f94 <__riscv_save_10>:
20008f94:	7139                	c.addi16sp	sp,-64
20008f96:	5341                	c.li	t1,-16
20008f98:	c86a                	c.swsp	s10,16(sp)
20008f9a:	ca66                	c.swsp	s9,20(sp)
20008f9c:	cc62                	c.swsp	s8,24(sp)
20008f9e:	ce5e                	c.swsp	s7,28(sp)
20008fa0:	a019                	c.j	20008fa6 <__riscv_save_4+0x4>

20008fa2 <__riscv_save_4>:
20008fa2:	7139                	c.addi16sp	sp,-64
20008fa4:	5301                	c.li	t1,-32
20008fa6:	d05a                	c.swsp	s6,32(sp)
20008fa8:	d256                	c.swsp	s5,36(sp)
20008faa:	d452                	c.swsp	s4,40(sp)
20008fac:	d64e                	c.swsp	s3,44(sp)
20008fae:	d84a                	c.swsp	s2,48(sp)
20008fb0:	da26                	c.swsp	s1,52(sp)
20008fb2:	dc22                	c.swsp	s0,56(sp)
20008fb4:	de06                	c.swsp	ra,60(sp)
20008fb6:	40610133          	sub	sp,sp,t1
20008fba:	8282                	c.jr	t0

20008fbc <__riscv_save_0>:
20008fbc:	1141                	c.addi	sp,-16
20008fbe:	c04a                	c.swsp	s2,0(sp)
20008fc0:	c226                	c.swsp	s1,4(sp)
20008fc2:	c422                	c.swsp	s0,8(sp)
20008fc4:	c606                	c.swsp	ra,12(sp)
20008fc6:	8282                	c.jr	t0

20008fc8 <__riscv_restore_12>:
20008fc8:	4db2                	c.lwsp	s11,12(sp)
20008fca:	0141                	c.addi	sp,16

20008fcc <__riscv_restore_10>:
20008fcc:	4d02                	c.lwsp	s10,0(sp)
20008fce:	4c92                	c.lwsp	s9,4(sp)
20008fd0:	4c22                	c.lwsp	s8,8(sp)
20008fd2:	4bb2                	c.lwsp	s7,12(sp)
20008fd4:	0141                	c.addi	sp,16

20008fd6 <__riscv_restore_4>:
20008fd6:	4b02                	c.lwsp	s6,0(sp)
20008fd8:	4a92                	c.lwsp	s5,4(sp)
20008fda:	4a22                	c.lwsp	s4,8(sp)
20008fdc:	49b2                	c.lwsp	s3,12(sp)
20008fde:	0141                	c.addi	sp,16

20008fe0 <__riscv_restore_0>:
20008fe0:	4902                	c.lwsp	s2,0(sp)
20008fe2:	4492                	c.lwsp	s1,4(sp)
20008fe4:	4422                	c.lwsp	s0,8(sp)
20008fe6:	40b2                	c.lwsp	ra,12(sp)
20008fe8:	0141                	c.addi	sp,16
20008fea:	8082                	c.jr	ra
