
FrL_Network_Master.elf:     file format elf32-littleriscv
FrL_Network_Master.elf
architecture: riscv:rv32, flags 0x00000112:
EXEC_P, HAS_SYMS, D_PAGED
start address 0x20000000

Program Header:
    LOAD off    0x00001000 vaddr 0x20000000 paddr 0x20000000 align 2**12
         filesz 0x0000018a memsz 0x0000018a flags r-x
    LOAD off    0x00002000 vaddr 0x00000000 paddr 0x20000190 align 2**12
         filesz 0x00000154 memsz 0x00000178 flags rwx
    LOAD off    0x00002178 vaddr 0x00000178 paddr 0x200002e8 align 2**12
         filesz 0x000010c0 memsz 0x000010c0 flags rw-
    LOAD off    0x00003300 vaddr 0x00001300 paddr 0x200013a8 align 2**12
         filesz 0x00005002 memsz 0x00005002 flags r-x
    LOAD off    0x000083b0 vaddr 0x200063b0 paddr 0x200063b0 align 2**12
         filesz 0x00008384 memsz 0x00008384 flags r-x
    LOAD off    0x00011000 vaddr 0x00080000 paddr 0x2000e734 align 2**12
         filesz 0x000000bc memsz 0x00000348 flags rw-
0x70000000 off    0x00049dbc vaddr 0x00000000 paddr 0x00000000 align 2**0
         filesz 0x0000003b memsz 0x00000000 flags r--

Sections:
Idx Name          Size      VMA       LMA       File off  Algn
  0 .vectors      0000018a  20000000  20000000  00001000  2**2
                  CONTENTS, ALLOC, LOAD, READONLY, CODE
  1 .retention_reset 00000154  00000000  20000190  00002000  2**2
                  CONTENTS, ALLOC, LOAD, READONLY, CODE
  2 .aes_data     00000020  00000158  200002e8  00002154  2**2
                  ALLOC
  3 .retention_data 000010c0  00000178  200002e8  00002178  2**2
                  CONTENTS, ALLOC, LOAD, DATA
  4 .ram_code     00005002  00001300  200013a8  00003300  2**8
                  CONTENTS, ALLOC, LOAD, READONLY, CODE
  5 .text         00007946  200063b0  200063b0  000083b0  2**2
                  CONTENTS, ALLOC, LOAD, READONLY, CODE
  6 .rodata       000008f0  2000dcf8  2000dcf8  0000fcf8  2**2
                  CONTENTS, ALLOC, LOAD, READONLY, DATA
  7 .eh_frame     00000134  2000e600  2000e600  00010600  2**2
                  CONTENTS, ALLOC, LOAD, READONLY, DATA
  8 .data         000000bc  00080000  2000e734  00011000  2**2
                  CONTENTS, ALLOC, LOAD, DATA
  9 .sbss         00000040  000800c0  2000e7f4  000110bc  2**2
                  ALLOC
 10 .bss          00000248  00080100  2000e834  000110bc  2**2
                  ALLOC
 11 .debug_info   00015915  00000000  00000000  000110bc  2**0
                  CONTENTS, READONLY, DEBUGGING
 12 .debug_abbrev 000013e6  00000000  00000000  000269d1  2**0
                  CONTENTS, READONLY, DEBUGGING
 13 .debug_loc    0000b830  00000000  00000000  00027db7  2**0
                  CONTENTS, READONLY, DEBUGGING
 14 .debug_aranges 00000680  00000000  00000000  000335e8  2**3
                  CONTENTS, READONLY, DEBUGGING
 15 .debug_ranges 00002c08  00000000  00000000  00033c68  2**3
                  CONTENTS, READONLY, DEBUGGING
 16 .debug_line   0000ad9f  00000000  00000000  00036870  2**0
                  CONTENTS, READONLY, DEBUGGING
 17 .debug_str    00008776  00000000  00000000  0004160f  2**0
                  CONTENTS, READONLY, DEBUGGING
 18 .comment      00000037  00000000  00000000  00049d85  2**0
                  CONTENTS, READONLY
 19 .riscv.attributes 0000003b  00000000  00000000  00049dbc  2**0
                  CONTENTS, READONLY
 20 .debug_frame  000019b4  00000000  00000000  00049df8  2**2
                  CONTENTS, READONLY, DEBUGGING
SYMBOL TABLE:
20000000 l    d  .vectors	00000000 .vectors
00000000 l    d  .retention_reset	00000000 .retention_reset
00000158 l    d  .aes_data	00000000 .aes_data
00000178 l    d  .retention_data	00000000 .retention_data
00001300 l    d  .ram_code	00000000 .ram_code
200063b0 l    d  .text	00000000 .text
2000dcf8 l    d  .rodata	00000000 .rodata
2000e600 l    d  .eh_frame	00000000 .eh_frame
00080000 l    d  .data	00000000 .data
000800c0 l    d  .sbss	00000000 .sbss
00080100 l    d  .bss	00000000 .bss
00000000 l    d  .debug_info	00000000 .debug_info
00000000 l    d  .debug_abbrev	00000000 .debug_abbrev
00000000 l    d  .debug_loc	00000000 .debug_loc
00000000 l    d  .debug_aranges	00000000 .debug_aranges
00000000 l    d  .debug_ranges	00000000 .debug_ranges
00000000 l    d  .debug_line	00000000 .debug_line
00000000 l    d  .debug_str	00000000 .debug_str
00000000 l    d  .comment	00000000 .comment
00000000 l    d  .riscv.attributes	00000000 .riscv.attributes
00000000 l    d  .debug_frame	00000000 .debug_frame
00000000 l    df *ABS*	00000000 ./boot/B91/cstartup_B91.o
20000028 l       .vectors	00000000 _START
20000030 l       .vectors	00000000 _SWS_USB_DIS
2000008e l       .vectors	00000000 _RETENTION_RESET_INIT
200000a6 l       .vectors	00000000 _RETENTION_RESET_BEGIN
200000b8 l       .vectors	00000000 _RETENTION_DATA_INIT
200000cc l       .vectors	00000000 _RETENTION_DATA_INIT_BEGIN
200000de l       .vectors	00000000 _RAMCODE_INIT
200000f6 l       .vectors	00000000 _RAMCODE_INIT_BEGIN
20000108 l       .vectors	00000000 _DATA_INIT
20000120 l       .vectors	00000000 _DATA_INIT_BEGIN
20000132 l       .vectors	00000000 _ZERO_BSS
20000146 l       .vectors	00000000 _ZERO_BSS_BEGIN
20000152 l       .vectors	00000000 _ZERO_AES
20000166 l       .vectors	00000000 _ZERO_AES_BEGIN
20000172 l       .vectors	00000000 _FILL_STK
20000172 l       .vectors	00000000 _MAIN_FUNC
20000188 l       .vectors	00000000 _END
00000022 l       .retention_reset	00000000 _ISTART
0000002a l       .retention_reset	00000000 _ISWS_USB_DIS
00000088 l       .retention_reset	00000000 _WAKEUP_FLASH
000000a2 l       .retention_reset	00000000 _MSPI_WAIT
000000bc l       .retention_reset	00000000 _WAIT_EFUSE_LOAD_FINISH
000000c2 l       .retention_reset	00000000 _MULTI_ADDRESS_BEGIN
000000d2 l       .retention_reset	00000000 _IDATA_INIT
000000ea l       .retention_reset	00000000 _IDATA_INIT_BEGIN
000000fc l       .retention_reset	00000000 _IZERO_BSS
00000110 l       .retention_reset	00000000 _IZERO_BSS_BEGIN
0000011c l       .retention_reset	00000000 _IZERO_AES
00000130 l       .retention_reset	00000000 _IZERO_AES_BEGIN
0000013c l       .retention_reset	00000000 _IFILL_STK
0000013c l       .retention_reset	00000000 _IMAIN_FUNC
00000152 l       .retention_reset	00000000 _IEND
00000040 l       *ABS*	00000000 irqno
00000000 l    df *ABS*	00000000 
00001300 l     F .ram_code	00000034 rf_set_power_level_index.constprop.37
00001334 l     F .ram_code	00000024 blt_reset_conn_phy_param.constprop.17
20006450 l     F .text	00000030 blt_ll_unknown_rsp.constprop.16
00001358 l     F .ram_code	00000010 smemset.constprop.15
20006484 l     F .text	0000006c blc_gatt_requestServiceAccess.constprop.4
200064f4 l     F .text	00000014 blc_gap_send_event
2000650c l     F .text	0000008a att_Find_end_group
20006598 l     F .text	0000009e l2cap_att_search
00001368 l     F .ram_code	00000018 smemcpy
00001380 l     F .ram_code	000001bc aes_ccmAuthTran.constprop.14
0000153c l     F .ram_code	000001b4 aes_ccmBaseTran.isra.0.constprop.13
000016f0 l     F .ram_code	000000d4 aes_ll_ccm_decryption.constprop.12
20006638 l     F .text	00000076 aes_ll_encryption
200066b0 l     F .text	000000e6 blt_smp_alg_c1.constprop.1
20006798 l     F .text	00000052 blc_smp_procParingEnd
200067ec l     F .text	00000014 blc_hci_send_event
20006804 l     F .text	00000148 blt_leg_scan_mainloop_task
000017c4 l     F .ram_code	0000007c blt_ll_searchAddr_in_WhiteList
2000694c l     F .text	00000066 bls_ll_send_read_remote_feature_event.part.5
00001840 l     F .ram_code	00000090 blt_terminate_proc
000018d0 l     F .ram_code	00000084 blt_terminate_pending_proc
00001954 l     F .ram_code	000000ac bls_ll_setNewConnection_timing
00001a00 l     F .ram_code	00000138 blt_brx_timing_update
00001b38 l     F .ram_code	00000044 blt_brx_timing_update_init
00001b7c l     F .ram_code	00000078 blt_set_fsmTimeout_intLevel
00001bf4 l     F .ram_code	00000194 blt_ll_channel_conn_update
00001d88 l     F .ram_code	00000050 bls_ll_procUpdateReq
00001dd8 l     F .ram_code	000001b4 irq_blc_slave_rx_data
00001f8c l     F .ram_code	00000060 irq_blc_slave_tx
00001fec l     F .ram_code	000000e4 blt_push_fifo_hw
000020d0 l     F .ram_code	00000048 blc_calc_remapping_table
00002118 l     F .ram_code	000000a4 blt_ll_channelTable_calc
000021bc l     F .ram_code	0000011c connUpdate_mapUpdate_proc
000022d8 l     F .ram_code	00000150 blt_brx_post
00002428 l     F .ram_code	000000f8 blt_ll_connect_common
200069b4 l     F .text	00000226 blt_connect
00002520 l     F .ram_code	000000d0 bls_ll_setAdvEnable
000025f0 l     F .ram_code	00000024 irq_ll_system_timer
20006bdc l     F .text	000000a4 blt_ll_exchangeDataLength
20006c84 l     F .text	0000019e blt_slave_main_loop_post
00002614 l     F .ram_code	00000040 blt_event_callback_func
00002654 l     F .ram_code	0000004c trng_rand
000026a0 l     F .ram_code	00000040 rf_set_rxmode
000026e0 l     F .ram_code	00000048 pm_tim_recover_32k_rc
00002728 l     F .ram_code	00000048 pm_get_32k_rc_calib
00002770 l     F .ram_code	0000005c pm_update_32k_rc_sleep_tick
000027cc l     F .ram_code	00000138 rf_set_ble_channel
00002904 l     F .ram_code	000000b0 blt_ll_start_common
000029b4 l     F .ram_code	00000060 rf_start_fsm
00002a14 l     F .ram_code	0000001c ble_rx_dma_config
00002a30 l     F .ram_code	0000001c ble_tx_dma_config
00002a4c l     F .ram_code	00000050 blc_ll_initBasicMCU
00002a9c l     F .ram_code	00000048 ble_rf_set_tx_dma
00002ae4 l     F .ram_code	00000048 ble_rf_set_rx_dma
00002b2c l     F .ram_code	000000cc blt_setScan_enter_manaul_rx
00002bf8 l     F .ram_code	00000114 blt_brx_start
00002d0c l     F .ram_code	0000015c irq_slave_system_timer
00002e68 l     F .ram_code	000001e8 irq_blc_ll_rx
00003050 l     F .ram_code	000001b0 irq_blt_sdk_handler
20006e24 l     F .text	00000048 generateRandomNum
00003200 l     F .ram_code	00000004 stimer_irq_handler
00003204 l     F .ram_code	00000004 rf_irq_handler
00003208 l     F .ram_code	00000024 delay_ms
20006e6c l     F .text	00000068 pwm_kick_32k_pad.constprop.22
0000322c l     F .ram_code	0000001c delay_us
00003248 l     F .ram_code	00000044 flash_send_addr
0000328c l     F .ram_code	0000004c flash_send_cmd
000032d8 l     F .ram_code	00000168 flash_mspi_read_ram
20006ed4 l     F .text	000000b2 blc_readFlashSize_autoConfigCustomFlashSector
00003440 l     F .ram_code	00000048 flash_wait_done
00003488 l     F .ram_code	000000c8 flash_mspi_write_ram.constprop.41
200063b0 l     F .text	00000058 flash_page_program
20006408 l     F .text	0000002c flash_dread
00003550 l     F .ram_code	00000060 clock_set_32k_tick
20006f88 l     F .text	00000042 analog_read_reg32.constprop.43
000035b0 l     F .ram_code	00000030 clock_get_32k_tick
000035e0 l     F .ram_code	00000098 smp_quickResolvPrivateAddr
00003678 l     F .ram_code	00000070 blt_ll_searchAddr_in_ResolvingList
000036e8 l     F .ram_code	0000002c ll_searchAddr_in_WhiteList_and_ResolvingList
00003714 l     F .ram_code	00000154 irq_scan_rx_primary_channel
20006fcc l     F .text	000001be bls_ll_pushTxFifo
2000718c l     F .text	00000096 bls_ll_pushEncPkt
00003868 l     F .ram_code	00000060 blt_ll_getRealTxFifoNumber
000038c8 l     F .ram_code	00000078 blc_ll_getTxFifoNumber
00003940 l     F .ram_code	00000094 cpu_stall_WakeUp_By_RF_SystemTick
000039d4 l     F .ram_code	0000003c analog_write_reg8
20007224 l     F .text	00000080 pwm_kick_32k_pad_times.constprop.21
00003a10 l     F .ram_code	00000104 rf_drv_ble_init
00003b14 l     F .ram_code	00000044 analog_read_reg8
00003b58 l     F .ram_code	00000140 clock_init.constprop.42
00003c98 l     F .ram_code	000000b4 pm_wait_bbpll_done
00003d4c l     F .ram_code	000001a4 pm_sleep_start
00003ef0 l     F .ram_code	0000046c cpu_sleep_wakeup_32k_rc_ram
20006434 l     F .text	0000001a cpu_sleep_wakeup_32k_rc
200072a8 l     F .text	000001a6 cpu_wakeup_no_deepretn_back_init
0000435c l     F .ram_code	0000008c clock_cal_24m_rc
000043e8 l     F .ram_code	000003cc blt_sdk_main_loop
000047b4 l     F .ram_code	000000d8 dr_putchar
0000488c l     F .ram_code	00000254 sys_init.constprop.20
00004ae0 l     F .ram_code	000002b8 bls_ll_procRxPacket.constprop.18
20007450 l     F .text	000004d4 blt_send_adv
20007924 l     F .text	0000006e smp_write_flash_page
20007994 l     F .text	00000346 bls_smp_pairing_success.part.3
20007cdc l     F .text	00000822 blt_slave_main_loop_data
20008500 l     F .text	00000192 blt_soft_timer_process
20008694 l     F .text	00001674 blc_l2cap_packet_receive
20009d0c l     F .text	000001c2 fl_controller_event_callback
20009ed0 l     F .text	00000546 user_init_normal
2000a418 l     F .text	00000732 main_loop
00000158 l     O .aes_data	00000020 aes_data_buff
00080100 l     O .bss	00000208 g_data_array
00080000 l     O .data	00000012 pkt_scan_req
00000178 l     O .retention_data	0000000c blt_conn_phy
00000184 l     O .retention_data	00000010 bltPHYs
00000194 l     O .retention_data	00000004 ll_push_tx_fifo_handler
00000198 l     O .retention_data	00000070 tbl_bondDevice
00000208 l     O .retention_data	00000028 blc_cyrpt_para
00000230 l     O .retention_data	00000004 blc_gap_event_handler
00000234 l     O .retention_data	00000004 gAttributes
00000238 l     O .retention_data	00000048 smp_param_own
00000280 l     O .retention_data	00000050 smp_param_peer
000002d0 l     O .retention_data	00000018 blc_smpMng
000002e8 l     O .retention_data	0000002c bltParam
00000314 l     O .retention_data	00000001 smp_DistributeKeyInit
00000318 l     O .retention_data	00000001 smp_DistributeKeyResp
0000031c l     O .retention_data	00000004 smp_phase_record
00000320 l     O .retention_data	00000004 gap_eventMask
00000324 l     O .retention_data	00000004 blc_hci_event_handler
00000328 l     O .retention_data	00000008 scan_priRxFifo
00000330 l     O .retention_data	00000004 hci_le_eventMask
00000334 l     O .retention_data	00000022 ll_whiteList_tbl
00000358 l     O .retention_data	00000068 bltc
000003c0 l     O .retention_data	00000004 blc_tlkEvent_pending
000003c4 l     O .retention_data	00000014 bltData
000003d8 l     O .retention_data	00000058 blttcon
00000430 l     O .retention_data	00000004 pFunc_ll_SetAdv_Enable
00000434 l     O .retention_data	00000030 bltPm
00000464 l     O .retention_data	00000010 blt_txfifo
00000474 l     O .retention_data	00000004 pkt_slave_terminate
00000478 l     O .retention_data	00000010 bls_timing
00000488 l     O .retention_data	00000004 CONN_SHORT_TOLERANCE_TIME
0000048c l     O .retention_data	00000004 blt_miscParam
00000490 l     O .retention_data	00000010 blc_tlkEvent_data
000004a0 l     O .retention_data	00000018 blt_buff_conn
000004b8 l     O .retention_data	00000004 blt_bb
000004bc l     O .retention_data	00000001 blt_smp_empty_pkt_entry
000004bd l     O .retention_data	00000001 g_num_used_chans
000004c0 l     O .retention_data	00000004 ll_conn_phy_update_cb
000004c4 l     O .retention_data	00000004 blc_rf_pa_cb
000004c8 l     O .retention_data	00000004 lmp_tick
000004cc l     O .retention_data	00000004 lmp_timeout
000004d0 l     O .retention_data	00000001 bls_peer_start_enc_flag
000004d4 l     O .retention_data	00000001 blt_ll_version_ind_rsp_flag
000004d8 l     O .retention_data	00000004 blc_rcvd_connReq_tick
000004dc l     O .retention_data	00000004 blt_pconn
000004e0 l     O .retention_data	00000004 ll_connComplete_handler
000004e4 l     O .retention_data	00000004 ble_first_rx_tick_last
000004e8 l     O .retention_data	00000004 ble_first_rx_tick_pre
000004ec l     O .retention_data	00000004 ble_actual_conn_interval_tick
000004f0 l     O .retention_data	00000004 blt_advExpectTime
000004f4 l     O .retention_data	00000018 blta
0000050c l     O .retention_data	00000004 ll_irq_systemTick_conn_cb
00000510 l     O .retention_data	00000004 blt_dleSendTime_tick
00000514 l     O .retention_data	00000004 ll_connTerminate_handler
00000518 l     O .retention_data	00000004 blt_p_event_callback
0000051c l     O .retention_data	00000004 hci_eventMask
00000520 l     O .retention_data	00000004 hci_tlk_module_eventMask
00000524 l     O .retention_data	00000050 blt_event_func
00000574 l     O .retention_data	00000004 g_rnd_m_w
00000578 l     O .retention_data	00000004 g_rnd_m_z
0000057c l     O .retention_data	00000029 pmcd
000005a8 l     O .retention_data	00000004 g_pm_tick_32k_calib
000005ac l     O .retention_data	00000001 g_pm_long_suspend
000005b0 l     O .retention_data	00000004 ll_chn_index_calc_cb
000005b4 l     O .retention_data	00000004 ll_conn_phy_swicth_cb
000005b8 l     O .retention_data	00000004 ll_phy_switch_cb
000005bc l     O .retention_data	00000018 blts
000005d4 l     O .retention_data	00000003 blc_adv_channel
000005d8 l     O .retention_data	00000004 tx_stl_auto_mode_high_freq
000005dc l     O .retention_data	00000004 tx_stl_auto_mode
000005e0 l     O .retention_data	00000004 ll_module_advSlave_cb
000005e4 l     O .retention_data	00000004 ll_enter_pri_chn_scan_cb
000005e8 l     O .retention_data	00000001 x_freertos_on
000005ec l     O .retention_data	00000010 blt_rxfifo
000005fc l     O .retention_data	00000004 ll_irq_rx_data_cb
00000600 l     O .retention_data	00000004 ll_irq_scan_rx_pri_chn_cb
00000604 l     O .retention_data	00000004 ll_irq_tx_cb
00000608 l     O .retention_data	00000004 flash_sector_mac_address
0000060c l     O .retention_data	00000004 flash_sector_calibration
00000610 l     O .retention_data	00000032 ll_resolvingList_tbl
00000644 l     O .retention_data	00000008 enc_skds
0000064c l     O .retention_data	00000004 enc_ivs
00000650 l     O .retention_data	00000004 pm_get_32k_tick
00000654 l     O .retention_data	00000001 g_pm_suspend_power_cfg
00000658 l     O .retention_data	00000004 func_before_suspend
0000065c l     O .retention_data	00000004 g_pm_tick_32k_cur
00000660 l     O .retention_data	00000004 g_pm_tick_cur
00000668 l     O .retention_data	00000006 adc_vref_cfg
00000670 l     O .retention_data	00000004 blc_main_loop_phyTest_cb
00000674 l     O .retention_data	00000004 blc_main_loop_data_cb
00000678 l     O .retention_data	00000004 ll_leg_scan_mlp_task_cb
0000067c l     O .retention_data	00000004 blc_main_loop_post_cb
00000680 l     O .retention_data	00000004 ll_host_main_loop_cb
00000684 l     O .retention_data	00000004 blc_hci_rx_handler
00000688 l     O .retention_data	00000004 blc_hci_tx_handler
0000068c l     O .retention_data	00000004 pm_check_32k_clk_stable
00000690 l     O .retention_data	00000004 ll_module_pm_cb
00000694 l     O .retention_data	00000004 ll_module_adv_cb
00000698 l     O .retention_data	00000004 tick_rc24mCal
0000069c l     O .retention_data	00000004 pm_tim_recover
000006a0 l     O .retention_data	00000004 cpu_sleep_wakeup
000006a4 l     O .retention_data	00000040 adv_rx_buff
000006e4 l     O .retention_data	0000002b pkt_adv
00000710 l     O .retention_data	0000002b pkt_scan_rsp
0000073b l     O .retention_data	00000001 adv_peak_current_opt
0000073c l     O .retention_data	00000004 ll_adv2conn_cb
00000740 l     O .retention_data	00000004 advertise_prepare_handler
00000744 l     O .retention_data	00000001 adv_decrease_time_opt
00000748 l     O .retention_data	00000004 flash_write_page
0000074c l     O .retention_data	00000004 flash_read_page
00000750 l     O .retention_data	00000024 mlDevMng
00000774 l     O .retention_data	00000004 bond_device_flash_cfg_idx
00000778 l     O .retention_data	00000004 smp_param_current_start_addr
0000077c l     O .retention_data	00000001 restart_encryption
00000780 l     O .retention_data	00000008 enc_skdm
00000788 l     O .retention_data	00000004 enc_ivm
0000078c l     O .retention_data	00000004 blt_ltk_request
00000790 l     O .retention_data	00000004 ll_encryption_done_cb
00000794 l     O .retention_data	00000004 LL_FEATURE_MASK_0
00000798 l     O .retention_data	00000004 LL_FEATURE_MASK_1
0000079c l     O .retention_data	00000004 blc_l2cap_handler
000007a0 l     O .retention_data	00000010 enc_ltk
000007b0 l     O .retention_data	00000031 blt_timer
000007e4 l     O .retention_data	0000001c smpResSignalPkt
00000800 l     O .retention_data	0000000b pkt_errRsp
0000080c l     O .retention_data	00000100 blt_buff_prepare_write
0000090c l     O .retention_data	00000009 pkt_mtu_rsp
00000918 l     O .retention_data	0000000c l2cap_buff
00001138 l     O .retention_data	00000100 blt_buff_ll_rx
00001038 l     O .retention_data	00000100 blt_buff_att_tx
00000924 l     O .retention_data	00000010 smpOwnRand_const
00000934 l     O .retention_data	00000001 smpPkShftCnt
00000938 l     O .retention_data	00000004 func_smp_sc_pushPkt_proc
0000093c l     O .retention_data	00000010 smpOwnParingConfirm
0000094c l     O .retention_data	00000004 func_smp_sc_proc
00000950 l     O .retention_data	0000000a bltAtt
0000095c l     O .retention_data	00000004 pAppPrepareWriteBuff
00000960 l     O .retention_data	00000002 prepare_pkt_current_len
00000962 l     O .retention_data	00000002 pAppPrepareWrite_max_len
00000964 l     O .retention_data	00000004 hid_reportmap_psrc
00000968 l     O .retention_data	00000004 hid_reportmap_len
0000096c l     O .retention_data	00000004 att_client_handler
00000970 l     O .retention_data	00000004 att_sig_hander
00000974 l     O .retention_data	00000004 l2cap_connUpdateRsp_cb
00000978 l     O .retention_data	0000000c bltMac
00000984 l     O .retention_data	00000330 app_acl_txfifo
00000cb4 l     O .retention_data	00000180 app_acl_rxfifo
00000e34 l     O .retention_data	00000200 scan_pri_chn_rx_fifo
00001034 l     O .retention_data	00000001 g_plic_preempt_en
2000de90 l     O .rodata	0000001d __FUNCTION__.12968
2000deb0 l     O .rodata	00000014 __FUNCTION__.13075
2000dec4 l     O .rodata	00000011 __FUNCTION__.13105
2000ded8 l     O .rodata	0000000b __FUNCTION__.13306
2000dee4 l     O .rodata	00000010 att_access_err_enc
2000def4 l     O .rodata	00000010 att_access_err_no_enc
2000df04 l     O .rodata	0000001a cmd_length_array
2000dfc0 l     O .rodata	00000064 gen_method_legacy
2000e024 l     O .rodata	00000064 gen_method_sc
000800c0 l     O .sbss	00000004 g_chip_version
000800c4 l     O .sbss	00000004 g_pm_status_info
000800c8 l     O .sbss	00000001 g_single_tong_freqoffset
000800cc l     O .sbss	00000004 mcause
000800d0 l     O .sbss	00000004 mepc
00080074 l     O .data	00000002 FmDebug
00080078 l     O .data	00000008 G_DATA_CONTAINER
00080080 l     O .data	00000004 TXADDR
00080084 l     O .data	00000006 blt_tx_empty_packet
0008008c l     O .data	00000008 g_pm_early_wakeup_time_us
00080094 l     O .data	00000004 g_pm_r_delay_cycle
00080098 l     O .data	00000006 sys_clk
2000e5e0 l     O .rodata	00000004 rf_rx_dma_config
2000e5e4 l     O .rodata	00000004 rf_tx_dma_config
00000000 l    df *ABS*	00000000 lcltime.c
00000000 l    df *ABS*	00000000 lcltime_r.c
00000000 l    df *ABS*	00000000 memcpy.c
00000000 l    df *ABS*	00000000 printf.c
00000000 l    df *ABS*	00000000 strlen.c
00000000 l    df *ABS*	00000000 strncmp.c
00000000 l    df *ABS*	00000000 strrchr.c
00000000 l    df *ABS*	00000000 tzcalc_limits.c
00000000 l    df *ABS*	00000000 tzlock.c
00000000 l    df *ABS*	00000000 tzset.c
00000000 l    df *ABS*	00000000 tzset_r.c
0008032c l     O .bss	0000000b __tzname_dst
00080338 l     O .bss	0000000b __tzname_std
000800d4 l     O .sbss	00000004 prev_tzenv
00000000 l    df *ABS*	00000000 vprintf.c
2000b4ee l     F .text	0000003a __vprintf_help
000800e0 l     O .sbss	00000004 __vprintf_buf
000800e4 l     O .sbss	00000004 __vprintf_buf_len
00000000 l    df *ABS*	00000000 getenv_r.c
00000000 l    df *ABS*	00000000 gettzinfo.c
00080014 l     O .data	00000040 tzinfo
00000000 l    df *ABS*	00000000 gmtime_r.c
00000000 l    df *ABS*	00000000 malloc.c
00000000 l    df *ABS*	00000000 nano-mallocr.c
00000000 l    df *ABS*	00000000 nano-mallocr.c
00000000 l    df *ABS*	00000000 printf_impl.c
00000000 l    df *ABS*	00000000 printf_impl_float.c
00000000 l    df *ABS*	00000000 siscanf.c
00000000 l    df *ABS*	00000000 stdio.c
00000000 l    df *ABS*	00000000 strcpy.c
00000000 l    df *ABS*	00000000 strnlen.c
00000000 l    df *ABS*	00000000 strtoul.c
00000000 l    df *ABS*	00000000 vfscanf.c
2000e3b8 l     O .rodata	00000022 basefix.4397
00000000 l    df *ABS*	00000000 ungetc.c
00000000 l    df *ABS*	00000000 envlock.c
00000000 l    df *ABS*	00000000 iswspace.c
00000000 l    df *ABS*	00000000 locale.c
00080054 l     O .data	00000020 lc_ctype_charset
00000000 l    df *ABS*	00000000 mbrtowc.c
00000000 l    df *ABS*	00000000 mbtowc_r.c
00000000 l    df *ABS*	00000000 nano-mallocr.c
00000000 l    df *ABS*	00000000 sccl.c
00000000 l    df *ABS*	00000000 strtol_common.c
00000000 l    df *ABS*	00000000 strtol_r.c
00000000 l    df *ABS*	00000000 strtoll_r.c
00000000 l    df *ABS*	00000000 strtoul_r.c
00000000 l    df *ABS*	00000000 strtoull_r.c
00000000 l    df *ABS*	00000000 nano-mallocr.c
00000000 l    df *ABS*	00000000 nds_isalpha.c
00000000 l    df *ABS*	00000000 nds_isdigit.c
00000000 l    df *ABS*	00000000 nds_isspace.c
00000000 l    df *ABS*	00000000 nds_isupper.c
00000000 l    df *ABS*	00000000 _sbrk.c
000800fc l     O .sbss	00000004 heap_end.2408
00000000 l    df *ABS*	00000000 libgcc2.c
00000000 l    df *ABS*	00000000 libgcc2.c
00000000 l    df *ABS*	00000000 libgcc2.c
00000000 l    df *ABS*	00000000 libgcc2.c
00000000 l    df *ABS*	00000000 month_lengths.c
00000000 l    df *ABS*	00000000 printf_data.c
00000000 l    df *ABS*	00000000 ctype_.c
00000000 l    df *ABS*	00000000 libgcc2.c
00000000 l    df *ABS*	00000000 tzvars.c
00000000 l    df *ABS*	00000000 impure.c
00080344 l     O .bss	00000000 impure_data
00000000 l    df *ABS*	00000000 environ.c
000800f4 l     O .sbss	00000004 initial_env
2000d46e g     F .text	00000014 _malloc_usable_size_r
000052f8 g     F .ram_code	00000048 entry_irq55
00005cf0 g     F .ram_code	00000044 entry_irq13
2000c314 g     F .text	0000007c strcpy
00005bd8 g     F .ram_code	000000d4 entry_irq15
2000d50c g     F .text	0000002e .hidden __ashldi3
000058a8 g     F .ram_code	00000044 entry_irq27
00005190 g     F .ram_code	00000048 entry_irq60
00006020 g     F .ram_code	000000d4 entry_irq1
000053d0 g     F .ram_code	00000048 entry_irq52
00005460 g     F .ram_code	00000048 entry_irq50
00005100 g     F .ram_code	00000048 entry_irq62
2000af7c g     F .text	0000001e printf
00080800 g       .data	00000000 __global_pointer$
2000dc9e g       .text	00000000 .hidden __riscv_save_8
00005220 g     F .ram_code	00000048 entry_irq58
000800d8 g     O .sbss	00000004 _daylight
2000dcea g       .text	00000000 .hidden __riscv_restore_3
00001238 g       .retention_data	00000000 _RETENTION_DATA_VMA_END
2000c486 g     F .text	00000068 _sfread_r
2000dcd6 g       .text	00000000 .hidden __riscv_restore_10
2000dc9e g       .text	00000000 .hidden __riscv_save_11
2000b880 g     F .text	0000004c __print_integral
00000000 g       .retention_reset	00000000 _RETENTION_RESET_VMA_START
2000c25e g     F .text	00000004 __seofread
00005dbc g     F .ram_code	00000044 entry_irq10
00005a40 g     F .ram_code	00000044 entry_irq21
00000158 g       .aes_data	00000000 _AES_VMA_START
000054ac g     F .ram_code	00000004 entry_irq48
2000dcea g       .text	00000000 .hidden __riscv_restore_2
00005e44 g     F .ram_code	00000044 entry_irq8
00005708 g     F .ram_code	00000048 entry_irq33
00080348 g       .bss	00000000 _BSS_VMA_END
2000add8 g     F .text	000000fa memcpy
20000190 g       *ABS*	00000000 _RETENTION_RESET_LMA_START
2000b8cc g     F .text	0000047c __printf_impl
00005d34 g     F .ram_code	00000044 entry_irq12
2000ccfe g     F .text	0000001a iswspace
00005cac g     F .ram_code	00000044 entry_irq14
2000cd18 g     F .text	00000006 __locale_charset
2000dc96 g       .text	00000000 .hidden __riscv_save_12
2000c444 g     F .text	00000042 __ssrefill_r
2000c3aa g     F .text	0000000e strtoul
000800b4 g     O .data	00000004 __mb_cur_max
2000d316 g     F .text	00000158 _strtoull_r
00005fdc g     F .ram_code	00000044 entry_irq2
00005418 g     F .ram_code	00000048 entry_irq51
2000dcd6 g       .text	00000000 .hidden __riscv_restore_11
00005864 g     F .ram_code	00000044 entry_irq28
00005548 g     F .ram_code	00000048 entry_irq43
2000dcc6 g       .text	00000000 .hidden __riscv_save_1
2000dcea g       .text	00000000 .hidden __riscv_restore_0
00005a84 g     F .ram_code	00000044 entry_irq20
2000dcac g       .text	00000000 .hidden __riscv_save_7
000800c0 g       .sbss	00000000 _BSS_VMA_START
000050b8 g     F .ram_code	00000048 entry_irq63
000800bc g       .data	00000000 _DATA_VMA_END
000054b4 g     F .ram_code	00000048 entry_irq46
00005798 g     F .ram_code	00000044 entry_irq31
2000d8f8 g     F .text	0000039e .hidden __umoddi3
00005b94 g     F .ram_code	00000044 entry_irq16
00100000 g       *ABS*	00000000 FLASH_SIZE
2000dce0 g       .text	00000000 .hidden __riscv_restore_5
2000cdb0 g     F .text	00000050 _realloc_r
00080000 g       .data	00000000 _DATA_VMA_START
2000d53c g     F .text	000003ba .hidden __udivdi3
2000ce7e g     F .text	0000012e strtol_common
2000d4b4  w    F .text	00000028 _sbrk
00005388 g     F .ram_code	00000048 entry_irq53
00005d78 g     F .ram_code	00000044 entry_irq11
2000b5f8 g     F .text	00000138 gmtime_r
00000154 g       .retention_reset	00000000 _RETENTION_RESET_VMA_END
2000c392 g     F .text	00000018 strnlen
2000d482 g     F .text	0000000e nds_isalpha
2000dce0 g       .text	00000000 .hidden __riscv_restore_6
2000b1b0 g     F .text	00000002 __tz_unlock
2000b062 g     F .text	0000002c strrchr
00005f10 g     F .ram_code	00000044 entry_irq5
000059b8 g     F .ram_code	00000044 entry_irq23
000056c0 g     F .ram_code	00000048 entry_irq34
000800a0 g     O .data	00000008 _tzname
000800b0 g     O .data	00000004 environ
2000d4dc g     F .text	0000002e .hidden __lshrdi3
00005630 g     F .ram_code	00000048 entry_irq36
2000dc9e g       .text	00000000 .hidden __riscv_save_9
00005500 g     F .ram_code	00000048 entry_irq44
2000b528 g     F .text	0000004c vprintf
000054fc g     F .ram_code	00000004 entry_irq45
000058ec g     F .ram_code	00000044 entry_irq26
2000dcac g       .text	00000000 .hidden __riscv_save_4
000055d8 g     F .ram_code	00000004 entry_irq41
00005148 g     F .ram_code	00000048 entry_irq61
20000000 g       .vectors	00000000 BIN_BEGIN
2000b740 g     F .text	00000090 _free_r
2000cd1e g     F .text	00000006 __locale_mb_cur_max
2000dcc6 g       .text	00000000 .hidden __riscv_save_3
2000c3b8 g     F .text	0000008c _sungetc_r
2000d0b0 g     F .text	0000016c _strtoll_r
000055e4 g     F .ram_code	00000004 entry_irq38
00006200 g       .ram_code	00000000 __vectors
0000e7f0 g       *ABS*	00000000 BIN_SIZE
2000affc g     F .text	00000064 strncmp
2000d490 g     F .text	0000000a nds_isdigit
2000e2ec g     O .rodata	00000060 __month_lengths
2000e3a0 g     O .rodata	00000010 __digits
200013a8 g       *ABS*	00000000 _RAMCODE_LMA_START
2000d21c g     F .text	000000fa _strtoul_r
000800f0 g     O .sbss	00000004 __printf_count
000051d8 g     F .ram_code	00000048 entry_irq59
00080308 g     O .bss	00000024 __mculib_REENT_localtime_buf
2000ad88 g     F .text	0000004e memcmp
00005ecc g     F .ram_code	00000044 entry_irq6
2000dc9e g       .text	00000000 .hidden __riscv_save_10
000800f8 g     O .sbss	00000004 __mculib_REENT_errno
2000e734 g       *ABS*	00000000 _DATA_LMA_START
2000d49a g     F .text	00000010 nds_isspace
2000bd68 g     F .text	00000092 __print_integral_poly
20000000 g       *ABS*	00000000 NDS_SAG_LMA_FLASH
2000dce0 g       .text	00000000 .hidden __riscv_restore_4
2000dcd6 g       .text	00000000 .hidden __riscv_restore_8
2000dcac g       .text	00000000 .hidden __riscv_save_6
2000b1ae g     F .text	00000002 __tz_lock
20000000  w      .vectors	00000000 _RELAX_END_
2000ab98 g     F .text	0000000e localtime
2000bdfa g     F .text	00000414 __printf_float_impl
2000aed2 g     F .text	000000aa memset
2000dcd6 g       .text	00000000 .hidden __riscv_restore_9
2000dce0 g       .text	00000000 .hidden __riscv_restore_7
00004d98 g     F .ram_code	00000320 main
00005f98 g     F .ram_code	00000044 entry_irq3
000060f4 g     F .ram_code	00000034 trap_entry
00000178 g       .aes_data	00000000 _AES_VMA_END
2000d4aa g     F .text	0000000a nds_isupper
2000cfac g     F .text	00000104 _strtol_r
2000b574 g     F .text	0000006e _findenv_r
000055e0 g     F .ram_code	00000004 entry_irq39
000054a8 g     F .ram_code	00000004 entry_irq49
2000b7d0 g     F .text	000000b0 _malloc_r
2000cc86 g     F .text	00000074 __submore
00000664 g     O .retention_data	00000004 g_pm_multi_addr
2000ccfc g     F .text	00000002 __env_unlock
00005268 g     F .ram_code	00000048 entry_irq57
000054b0 g     F .ram_code	00000004 entry_irq47
200002e8 g       *ABS*	00000000 _RETENTION_DATA_LMA_START
2000b1b2 g     F .text	0000000e _tzset_unlocked
2000c298 g     F .text	0000007c strcmp
2000c20e g     F .text	00000050 siscanf
20000000 g     F .vectors	00000000 _RESET_ENTRY
00000178 g       .retention_data	00000000 _RETENTION_DATA_VMA_START
2000e4e0 g     O .rodata	00000100 .hidden __clz_tab
00005f54 g     F .ram_code	00000044 entry_irq4
000a0000 g       *ABS*	00000000 _STACK_TOP
000059fc g     F .ram_code	00000044 entry_irq22
000057dc g     F .ram_code	00000044 entry_irq30
000800a8 g     O .data	00000004 _impure_ptr
2000cd24 g     F .text	00000052 _mbrtowc_r
00005590 g     F .ram_code	00000048 entry_irq42
2000cd76 g     F .text	0000003a __ascii_mbtowc
00005974 g     F .ram_code	00000044 entry_irq24
2000dcc6 g       .text	00000000 .hidden __riscv_save_2
00006302 g       .ram_code	00000000 _RAMCODE_VMA_END
000800dc g     O .sbss	00000004 _timezone
2000aba6 g     F .text	000001e2 localtime_r
2000c4ee g     F .text	00000798 __ssvfiscanf_r
00000000  w      *ABS*	00000000 _ITB_BASE_
2000dcac g       .text	00000000 .hidden __riscv_save_5
00005ac8 g     F .ram_code	00000044 entry_irq19
2000ab4c g     F .text	0000004c _write
00080348 g       .bss	00000000 _end
00005b50 g     F .ram_code	00000044 entry_irq17
2000b1c0 g     F .text	0000032e _tzset_unlocked_r
00005e00 g     F .ram_code	00000044 entry_irq9
000052b0 g     F .ram_code	00000048 entry_irq56
00005678 g     F .ram_code	00000048 entry_irq35
000055e8 g     F .ram_code	00000048 entry_irq37
00005340 g     F .ram_code	00000048 entry_irq54
000055dc g     F .ram_code	00000004 entry_irq40
000800ac g     O .data	00000004 __ctype_ptr__
2000ce00 g     F .text	0000007e __sccl
2000dcd2 g       .text	00000000 .hidden __riscv_restore_12
2000e3dc g     O .rodata	00000101 _ctype_
00001300 g       .ram_code	00000000 _RAMCODE_VMA_START
000800b8 g     O .data	00000004 __mbtowc
2000dcc6 g       .text	00000000 .hidden __riscv_save_0
2000af9c g     F .text	0000005e strlen
00005820 g     F .ram_code	00000044 entry_irq29
000800ec g     O .sbss	00000004 __malloc_sbrk_start
2000c264 g     F .text	00000030 strchr
000800e8 g     O .sbss	00000004 __malloc_free_list
2000dcea g       .text	00000000 .hidden __riscv_restore_1
2000ccfa g     F .text	00000002 __env_lock
2000b08e g     F .text	00000120 __tzcalc_limits
00005e88 g     F .ram_code	00000044 entry_irq7
00005750 g     F .ram_code	00000048 entry_irq32
00000000 g     F .retention_reset	00000000 _IRESET_ENTRY
00005b0c g     F .ram_code	00000044 entry_irq18
2000b5f2 g     F .text	00000006 __gettzinfo
2000bd48 g     F .text	00000020 __int_to_poly
2000b730 g     F .text	00000010 free
00005930 g     F .ram_code	00000044 entry_irq25
2000b5e2 g     F .text	00000010 _getenv_r



Disassembly of section .vectors:

20000000 <_RESET_ENTRY>:
20000000:	a025                	c.j	20000028 <_START>
	...
20000016:	0000                	unimp
20000018:	e7f0                	c.fsw	fa2,76(a5)
2000001a:	0000                	unimp
2000001c:	0000                	unimp
2000001e:	0000                	unimp
20000020:	544c4e4b          	fnmsub.h	ft8,fs8,ft4,fa0,rmm
20000024:	0000                	unimp
20000026:	          	sllw	a4,zero,zero

20000028 <_START>:
20000028:	e0080197          	auipc	gp,0xe0080
2000002c:	7d818193          	addi	gp,gp,2008 # 80800 <__global_pointer$>

20000030 <_SWS_USB_DIS>:
20000030:	801002b7          	lui	t0,0x80100
20000034:	70028293          	addi	t0,t0,1792 # 80100700 <_DATA_LMA_START+0x600f1fcc>
20000038:	04000313          	li	t1,64
2000003c:	506280a3          	sb	t1,1281(t0)
20000040:	e00a0297          	auipc	t0,0xe00a0
20000044:	fc028293          	addi	t0,t0,-64 # a0000 <_STACK_TOP>
20000048:	8116                	c.mv	sp,t0
2000004a:	e0000297          	auipc	t0,0xe0000
2000004e:	fb628293          	addi	t0,t0,-74 # 0 <_ITB_BASE_>
20000052:	80029073          	csrw	uitb,t0
20000056:	6299                	c.lui	t0,0x6
20000058:	3002a2f3          	csrrs	t0,mstatus,t0
2000005c:	00301073          	fssr	zero
20000060:	e0006297          	auipc	t0,0xe0006
20000064:	1a028293          	addi	t0,t0,416 # 6200 <__vectors>
20000068:	30529073          	csrw	mtvec,t0
2000006c:	7d016073          	csrsi	mmisc_ctl,2
20000070:	e40002b7          	lui	t0,0xe4000
20000074:	430d                	c.li	t1,3
20000076:	0062a023          	sw	t1,0(t0) # e4000000 <_DATA_LMA_START+0xc3ff18cc>
2000007a:	7ca022f3          	csrr	t0,mcache_ctl
2000007e:	0012e293          	ori	t0,t0,1
20000082:	0022e293          	ori	t0,t0,2
20000086:	7ca29073          	csrw	mcache_ctl,t0
2000008a:	0000100f          	fence.i

2000008e <_RETENTION_RESET_INIT>:
2000008e:	00000317          	auipc	t1,0x0
20000092:	10230313          	addi	t1,t1,258 # 20000190 <_RETENTION_RESET_LMA_START>
20000096:	e0000397          	auipc	t2,0xe0000
2000009a:	f6a38393          	addi	t2,t2,-150 # 0 <_ITB_BASE_>
2000009e:	e0000e17          	auipc	t3,0xe0000
200000a2:	0b6e0e13          	addi	t3,t3,182 # 154 <_RETENTION_RESET_VMA_END>

200000a6 <_RETENTION_RESET_BEGIN>:
200000a6:	01c3f963          	bgeu	t2,t3,200000b8 <_RETENTION_DATA_INIT>
200000aa:	00032283          	lw	t0,0(t1)
200000ae:	0053a023          	sw	t0,0(t2)
200000b2:	0311                	c.addi	t1,4
200000b4:	0391                	c.addi	t2,4
200000b6:	bfc5                	c.j	200000a6 <_RETENTION_RESET_BEGIN>

200000b8 <_RETENTION_DATA_INIT>:
200000b8:	00000317          	auipc	t1,0x0
200000bc:	23030313          	addi	t1,t1,560 # 200002e8 <_RETENTION_DATA_LMA_START>
200000c0:	17800393          	li	t2,376
200000c4:	e0001e17          	auipc	t3,0xe0001
200000c8:	174e0e13          	addi	t3,t3,372 # 1238 <_RETENTION_DATA_VMA_END>

200000cc <_RETENTION_DATA_INIT_BEGIN>:
200000cc:	01c3f963          	bgeu	t2,t3,200000de <_RAMCODE_INIT>
200000d0:	00032283          	lw	t0,0(t1)
200000d4:	0053a023          	sw	t0,0(t2)
200000d8:	0311                	c.addi	t1,4
200000da:	0391                	c.addi	t2,4
200000dc:	bfc5                	c.j	200000cc <_RETENTION_DATA_INIT_BEGIN>

200000de <_RAMCODE_INIT>:
200000de:	00001317          	auipc	t1,0x1
200000e2:	2ca30313          	addi	t1,t1,714 # 200013a8 <_RAMCODE_LMA_START>
200000e6:	e0001397          	auipc	t2,0xe0001
200000ea:	21a38393          	addi	t2,t2,538 # 1300 <rf_set_power_level_index.constprop.37>
200000ee:	e0006e17          	auipc	t3,0xe0006
200000f2:	214e0e13          	addi	t3,t3,532 # 6302 <_RAMCODE_VMA_END>

200000f6 <_RAMCODE_INIT_BEGIN>:
200000f6:	01c3f963          	bgeu	t2,t3,20000108 <_DATA_INIT>
200000fa:	00032283          	lw	t0,0(t1)
200000fe:	0053a023          	sw	t0,0(t2)
20000102:	0311                	c.addi	t1,4
20000104:	0391                	c.addi	t2,4
20000106:	bfc5                	c.j	200000f6 <_RAMCODE_INIT_BEGIN>

20000108 <_DATA_INIT>:
20000108:	0000e317          	auipc	t1,0xe
2000010c:	62c30313          	addi	t1,t1,1580 # 2000e734 <_DATA_LMA_START>
20000110:	e0080397          	auipc	t2,0xe0080
20000114:	ef038393          	addi	t2,t2,-272 # 80000 <_DATA_VMA_START>
20000118:	e0080e17          	auipc	t3,0xe0080
2000011c:	fa4e0e13          	addi	t3,t3,-92 # 800bc <_DATA_VMA_END>

20000120 <_DATA_INIT_BEGIN>:
20000120:	01c3f963          	bgeu	t2,t3,20000132 <_ZERO_BSS>
20000124:	00032283          	lw	t0,0(t1)
20000128:	0053a023          	sw	t0,0(t2)
2000012c:	0311                	c.addi	t1,4
2000012e:	0391                	c.addi	t2,4
20000130:	bfc5                	c.j	20000120 <_DATA_INIT_BEGIN>

20000132 <_ZERO_BSS>:
20000132:	000002b7          	lui	t0,0x0
20000136:	e0080397          	auipc	t2,0xe0080
2000013a:	f8a38393          	addi	t2,t2,-118 # 800c0 <_BSS_VMA_START>
2000013e:	e0080e17          	auipc	t3,0xe0080
20000142:	20ae0e13          	addi	t3,t3,522 # 80348 <_BSS_VMA_END>

20000146 <_ZERO_BSS_BEGIN>:
20000146:	01c3f663          	bgeu	t2,t3,20000152 <_ZERO_AES>
2000014a:	0053a023          	sw	t0,0(t2)
2000014e:	0391                	c.addi	t2,4
20000150:	bfdd                	c.j	20000146 <_ZERO_BSS_BEGIN>

20000152 <_ZERO_AES>:
20000152:	000002b7          	lui	t0,0x0
20000156:	e0000397          	auipc	t2,0xe0000
2000015a:	00238393          	addi	t2,t2,2 # 158 <_AES_VMA_START>
2000015e:	e0000e17          	auipc	t3,0xe0000
20000162:	01ae0e13          	addi	t3,t3,26 # 178 <_AES_VMA_END>

20000166 <_ZERO_AES_BEGIN>:
20000166:	01c3f663          	bgeu	t2,t3,20000172 <_FILL_STK>
2000016a:	0053a023          	sw	t0,0(t2)
2000016e:	0391                	c.addi	t2,4
20000170:	bfdd                	c.j	20000166 <_ZERO_AES_BEGIN>

20000172 <_FILL_STK>:
20000172:	0001                	c.nop
20000174:	e0005297          	auipc	t0,0xe0005
20000178:	c2428293          	addi	t0,t0,-988 # 4d98 <main>
2000017c:	9282                	c.jalr	t0
2000017e:	0001                	c.nop
20000180:	0001                	c.nop
20000182:	0001                	c.nop
20000184:	0001                	c.nop
20000186:	0001                	c.nop

20000188 <_END>:
20000188:	a001                	c.j	20000188 <_END>

Disassembly of section .retention_reset:

00000000 <_IRESET_ENTRY>:
   0:	a00d                	c.j	22 <_ISTART>
	...

00000022 <_ISTART>:
  22:	00080197          	auipc	gp,0x80
  26:	7de18193          	addi	gp,gp,2014 # 80800 <__global_pointer$>

0000002a <_ISWS_USB_DIS>:
  2a:	801002b7          	lui	t0,0x80100
  2e:	70028293          	addi	t0,t0,1792 # 80100700 <_DATA_LMA_START+0x600f1fcc>
  32:	04000313          	li	t1,64
  36:	506280a3          	sb	t1,1281(t0)
  3a:	000a0297          	auipc	t0,0xa0
  3e:	fc628293          	addi	t0,t0,-58 # a0000 <_STACK_TOP>
  42:	8116                	c.mv	sp,t0
  44:	00000297          	auipc	t0,0x0
  48:	fbc28293          	addi	t0,t0,-68 # 0 <_IRESET_ENTRY>
  4c:	80029073          	csrw	uitb,t0
  50:	6299                	c.lui	t0,0x6
  52:	3002a2f3          	csrrs	t0,mstatus,t0
  56:	00301073          	fssr	zero
  5a:	00006297          	auipc	t0,0x6
  5e:	1a628293          	addi	t0,t0,422 # 6200 <__vectors>
  62:	30529073          	csrw	mtvec,t0
  66:	7d016073          	csrsi	mmisc_ctl,2
  6a:	e40002b7          	lui	t0,0xe4000
  6e:	430d                	c.li	t1,3
  70:	0062a023          	sw	t1,0(t0) # e4000000 <_DATA_LMA_START+0xc3ff18cc>
  74:	7ca022f3          	csrr	t0,mcache_ctl
  78:	0012e293          	ori	t0,t0,1
  7c:	0022e293          	ori	t0,t0,2
  80:	7ca29073          	csrw	mcache_ctl,t0
  84:	0000100f          	fence.i

00000088 <_WAKEUP_FLASH>:
  88:	801402b7          	lui	t0,0x80140
  8c:	0ff00313          	li	t1,255
  90:	4381                	c.li	t2,0
  92:	0ab00e13          	li	t3,171
  96:	326284a3          	sb	t1,809(t0) # 80140329 <_DATA_LMA_START+0x60131bf5>
  9a:	107280a3          	sb	t2,257(t0)
  9e:	11c28023          	sb	t3,256(t0)

000000a2 <_MSPI_WAIT>:
  a2:	801402b7          	lui	t0,0x80140
  a6:	10228383          	lb	t2,258(t0) # 80140102 <_DATA_LMA_START+0x601319ce>
  aa:	4e05                	c.li	t3,1
  ac:	4ec1                	c.li	t4,16
  ae:	fe7e0ae3          	beq	t3,t2,a2 <_MSPI_WAIT>
  b2:	11d280a3          	sb	t4,257(t0)
  b6:	4281                	c.li	t0,0
  b8:	0e200313          	li	t1,226

000000bc <_WAIT_EFUSE_LOAD_FINISH>:
  bc:	0285                	c.addi	t0,1
  be:	fe537fe3          	bgeu	t1,t0,bc <_WAIT_EFUSE_LOAD_FINISH>

000000c2 <_MULTI_ADDRESS_BEGIN>:
  c2:	801402b7          	lui	t0,0x80140
  c6:	66400313          	li	t1,1636
  ca:	00032383          	lw	t2,0(t1)
  ce:	1072a223          	sw	t2,260(t0) # 80140104 <_DATA_LMA_START+0x601319d0>

000000d2 <_IDATA_INIT>:
  d2:	2000e317          	auipc	t1,0x2000e
  d6:	66230313          	addi	t1,t1,1634 # 2000e734 <_DATA_LMA_START>
  da:	00080397          	auipc	t2,0x80
  de:	f2638393          	addi	t2,t2,-218 # 80000 <_DATA_VMA_START>
  e2:	00080e17          	auipc	t3,0x80
  e6:	fdae0e13          	addi	t3,t3,-38 # 800bc <_DATA_VMA_END>

000000ea <_IDATA_INIT_BEGIN>:
  ea:	01c3f963          	bgeu	t2,t3,fc <_IZERO_BSS>
  ee:	00032283          	lw	t0,0(t1)
  f2:	0053a023          	sw	t0,0(t2)
  f6:	0311                	c.addi	t1,4
  f8:	0391                	c.addi	t2,4
  fa:	bfc5                	c.j	ea <_IDATA_INIT_BEGIN>

000000fc <_IZERO_BSS>:
  fc:	000002b7          	lui	t0,0x0
 100:	00080397          	auipc	t2,0x80
 104:	fc038393          	addi	t2,t2,-64 # 800c0 <_BSS_VMA_START>
 108:	00080e17          	auipc	t3,0x80
 10c:	240e0e13          	addi	t3,t3,576 # 80348 <_BSS_VMA_END>

00000110 <_IZERO_BSS_BEGIN>:
 110:	01c3f663          	bgeu	t2,t3,11c <_IZERO_AES>
 114:	0053a023          	sw	t0,0(t2)
 118:	0391                	c.addi	t2,4
 11a:	bfdd                	c.j	110 <_IZERO_BSS_BEGIN>

0000011c <_IZERO_AES>:
 11c:	000002b7          	lui	t0,0x0
 120:	00000397          	auipc	t2,0x0
 124:	03838393          	addi	t2,t2,56 # 158 <_AES_VMA_START>
 128:	00000e17          	auipc	t3,0x0
 12c:	050e0e13          	addi	t3,t3,80 # 178 <_AES_VMA_END>

00000130 <_IZERO_AES_BEGIN>:
 130:	01c3f663          	bgeu	t2,t3,13c <_IFILL_STK>
 134:	0053a023          	sw	t0,0(t2)
 138:	0391                	c.addi	t2,4
 13a:	bfdd                	c.j	130 <_IZERO_AES_BEGIN>

0000013c <_IFILL_STK>:
 13c:	0001                	c.nop
 13e:	00005297          	auipc	t0,0x5
 142:	c5a28293          	addi	t0,t0,-934 # 4d98 <main>
 146:	9282                	c.jalr	t0
 148:	0001                	c.nop
 14a:	0001                	c.nop
 14c:	0001                	c.nop
 14e:	0001                	c.nop
 150:	0001                	c.nop

00000152 <_IEND>:
 152:	a001                	c.j	152 <_IEND>

Disassembly of section .ram_code:

00001300 <rf_set_power_level_index.constprop.37>:
    1300:	801417b7          	lui	a5,0x80141
    1304:	e3c78703          	lb	a4,-452(a5) # 80140e3c <_DATA_LMA_START+0x60132708>
    1308:	0ff77713          	andi	a4,a4,255
    130c:	04076713          	ori	a4,a4,64
    1310:	e2e78e23          	sb	a4,-452(a5)
    1314:	e2678703          	lb	a4,-474(a5)
    1318:	07f77713          	andi	a4,a4,127
    131c:	e2e78323          	sb	a4,-474(a5)
    1320:	e2778703          	lb	a4,-473(a5)
    1324:	0e077713          	andi	a4,a4,224
    1328:	01276713          	ori	a4,a4,18
    132c:	e2e783a3          	sb	a4,-473(a5)
    1330:	00008067          	ret

00001334 <blt_reset_conn_phy_param.constprop.17>:
    1334:	000007b7          	lui	a5,0x0
    1338:	17878793          	addi	a5,a5,376 # 178 <_AES_VMA_END>
    133c:	4685                	c.li	a3,1
    133e:	00f7c703          	lbu	a4,15(a5)
    1342:	00d780a3          	sb	a3,1(a5)
    1346:	e319                	c.bnez	a4,134c <blt_reset_conn_phy_param.constprop.17+0x18>
    1348:	00800713          	li	a4,8
    134c:	00e781a3          	sb	a4,3(a5)
    1350:	0007a223          	sw	zero,4(a5)
    1354:	4501                	c.li	a0,0
    1356:	8082                	c.jr	ra

00001358 <smemset.constprop.15>:
    1358:	00a585b3          	add	a1,a1,a0
    135c:	0505                	c.addi	a0,1
    135e:	fe050fa3          	sb	zero,-1(a0)
    1362:	fea59de3          	bne	a1,a0,135c <smemset.constprop.15+0x4>
    1366:	8082                	c.jr	ra

00001368 <smemcpy>:
    1368:	ca11                	c.beqz	a2,137c <smemcpy+0x14>
    136a:	962e                	c.add	a2,a1
    136c:	0585                	c.addi	a1,1
    136e:	fff5c783          	lbu	a5,-1(a1)
    1372:	0505                	c.addi	a0,1
    1374:	fef50fa3          	sb	a5,-1(a0)
    1378:	feb61ae3          	bne	a2,a1,136c <smemcpy+0x4>
    137c:	00008067          	ret

00001380 <aes_ccmAuthTran.constprop.14>:
    1380:	7119                	c.addi16sp	sp,-128
    1382:	dca2                	c.swsp	s0,120(sp)
    1384:	c22a                	c.swsp	a0,4(sp)
    1386:	842e                	c.mv	s0,a1
    1388:	0808                	c.addi4spn	a0,sp,16
    138a:	03000593          	li	a1,48
    138e:	de86                	c.swsp	ra,124(sp)
    1390:	c636                	c.swsp	a3,12(sp)
    1392:	daa6                	c.swsp	s1,116(sp)
    1394:	d8ca                	c.swsp	s2,112(sp)
    1396:	84b2                	c.mv	s1,a2
    1398:	d6ce                	c.swsp	s3,108(sp)
    139a:	d4d2                	c.swsp	s4,104(sp)
    139c:	d2d6                	c.swsp	s5,100(sp)
    139e:	d0da                	c.swsp	s6,96(sp)
    13a0:	cede                	c.swsp	s7,92(sp)
    13a2:	cce2                	c.swsp	s8,88(sp)
    13a4:	cae6                	c.swsp	s9,84(sp)
    13a6:	c8ea                	c.swsp	s10,80(sp)
    13a8:	c6ee                	c.swsp	s11,76(sp)
    13aa:	377d                	c.jal	1358 <smemset.constprop.15>
    13ac:	000005b7          	lui	a1,0x0
    13b0:	04900793          	li	a5,73
    13b4:	4635                	c.li	a2,13
    13b6:	22058593          	addi	a1,a1,544 # 220 <blc_cyrpt_para+0x18>
    13ba:	01110513          	addi	a0,sp,17
    13be:	00f10823          	sb	a5,16(sp)
    13c2:	375d                	c.jal	1368 <smemcpy>
    13c4:	10000793          	li	a5,256
    13c8:	85a6                	c.mv	a1,s1
    13ca:	4605                	c.li	a2,1
    13cc:	03210513          	addi	a0,sp,50
    13d0:	02f11823          	sh	a5,48(sp)
    13d4:	00010f23          	sb	zero,30(sp)
    13d8:	00810fa3          	sb	s0,31(sp)
    13dc:	f8dff0ef          	jal	ra,1368 <smemcpy>
    13e0:	45c1                	c.li	a1,16
    13e2:	1008                	c.addi4spn	a0,sp,32
    13e4:	f75ff0ef          	jal	ra,1358 <smemset.constprop.15>
    13e8:	01040493          	addi	s1,s0,16
    13ec:	00f47793          	andi	a5,s0,15
    13f0:	3c04a4db          	bfoz	s1,s1,15,0
    13f4:	c791                	c.beqz	a5,1400 <aes_ccmAuthTran.constprop.14+0x80>
    13f6:	98c1                	c.andi	s1,-16
    13f8:	01048493          	addi	s1,s1,16
    13fc:	3c04a4db          	bfoz	s1,s1,15,0
    1400:	00000e37          	lui	t3,0x0
    1404:	00000937          	lui	s2,0x0
    1408:	00000cb7          	lui	s9,0x0
    140c:	04bd                	c.addi	s1,15
    140e:	158e0b93          	addi	s7,t3,344 # 158 <_AES_VMA_START>
    1412:	4b01                	c.li	s6,0
    1414:	4a81                	c.li	s5,0
    1416:	430d                	c.li	t1,3
    1418:	03010d13          	addi	s10,sp,48
    141c:	01c10c13          	addi	s8,sp,28
    1420:	17790913          	addi	s2,s2,375 # 177 <_AES_VMA_START+0x1f>
    1424:	167c8c93          	addi	s9,s9,359 # 167 <_AES_VMA_START+0xf>
    1428:	80160db7          	lui	s11,0x80160
    142c:	4985                	c.li	s3,1
    142e:	4a39                	c.li	s4,14
    1430:	1014                	c.addi4spn	a3,sp,32
    1432:	87b6                	c.mv	a5,a3
    1434:	00078703          	lb	a4,0(a5)
    1438:	ff078603          	lb	a2,-16(a5)
    143c:	0785                	c.addi	a5,1
    143e:	8f31                	c.xor	a4,a2
    1440:	fee78fa3          	sb	a4,-1(a5)
    1444:	fefd18e3          	bne	s10,a5,1434 <aes_ccmAuthTran.constprop.14+0xb4>
    1448:	855e                	c.mv	a0,s7
    144a:	1078                	c.addi4spn	a4,sp,44
    144c:	00274783          	lbu	a5,2(a4)
    1450:	00174583          	lbu	a1,1(a4)
    1454:	00374f03          	lbu	t5,3(a4)
    1458:	00074603          	lbu	a2,0(a4)
    145c:	07a2                	c.slli	a5,0x8
    145e:	05c2                	c.slli	a1,0x10
    1460:	8fcd                	c.or	a5,a1
    1462:	01e7e7b3          	or	a5,a5,t5
    1466:	0662                	c.slli	a2,0x18
    1468:	8fd1                	c.or	a5,a2
    146a:	c11c                	c.sw	a5,0(a0)
    146c:	1771                	c.addi	a4,-4
    146e:	0511                	c.addi	a0,4
    1470:	fd871ee3          	bne	a4,s8,144c <aes_ccmAuthTran.constprop.14+0xcc>
    1474:	0d7da223          	sw	s7,196(s11) # 801600c4 <_DATA_LMA_START+0x60151990>
    1478:	0b3da823          	sw	s3,176(s11)
    147c:	0b0da783          	lw	a5,176(s11)
    1480:	fe07fe5b          	bbs	a5,0,147c <aes_ccmAuthTran.constprop.14+0xfc>
    1484:	012007b3          	add	a5,zero,s2
    1488:	00078703          	lb	a4,0(a5)
    148c:	0685                	c.addi	a3,1
    148e:	17fd                	c.addi	a5,-1
    1490:	fee68fa3          	sb	a4,-1(a3)
    1494:	fefc9ae3          	bne	s9,a5,1488 <aes_ccmAuthTran.constprop.14+0x108>
    1498:	fff30793          	addi	a5,t1,-1
    149c:	3c07a7db          	bfoz	a5,a5,15,0
    14a0:	06fa7c63          	bgeu	s4,a5,1518 <aes_ccmAuthTran.constprop.14+0x198>
    14a4:	4512                	c.lwsp	a0,4(sp)
    14a6:	004b1593          	slli	a1,s6,0x4
    14aa:	95aa                	c.add	a1,a0
    14ac:	453d                	c.li	a0,15
    14ae:	04857963          	bgeu	a0,s0,1500 <aes_ccmAuthTran.constprop.14+0x180>
    14b2:	4641                	c.li	a2,16
    14b4:	0808                	c.addi4spn	a0,sp,16
    14b6:	3d4d                	c.jal	1368 <smemcpy>
    14b8:	001b0e93          	addi	t4,s6,1
    14bc:	ff040413          	addi	s0,s0,-16
    14c0:	0ffefb13          	andi	s6,t4,255
    14c4:	3c04245b          	bfoz	s0,s0,15,0
    14c8:	010a8813          	addi	a6,s5,16
    14cc:	3c082adb          	bfoz	s5,a6,15,0
    14d0:	4301                	c.li	t1,0
    14d2:	f554dfe3          	bge	s1,s5,1430 <aes_ccmAuthTran.constprop.14+0xb0>
    14d6:	4532                	c.lwsp	a0,12(sp)
    14d8:	100c                	c.addi4spn	a1,sp,32
    14da:	4611                	c.li	a2,4
    14dc:	e8dff0ef          	jal	ra,1368 <smemcpy>
    14e0:	50f6                	c.lwsp	ra,124(sp)
    14e2:	5466                	c.lwsp	s0,120(sp)
    14e4:	54d6                	c.lwsp	s1,116(sp)
    14e6:	5946                	c.lwsp	s2,112(sp)
    14e8:	59b6                	c.lwsp	s3,108(sp)
    14ea:	5a26                	c.lwsp	s4,104(sp)
    14ec:	5a96                	c.lwsp	s5,100(sp)
    14ee:	5b06                	c.lwsp	s6,96(sp)
    14f0:	4bf6                	c.lwsp	s7,92(sp)
    14f2:	4c66                	c.lwsp	s8,88(sp)
    14f4:	4cd6                	c.lwsp	s9,84(sp)
    14f6:	4d46                	c.lwsp	s10,80(sp)
    14f8:	4db6                	c.lwsp	s11,76(sp)
    14fa:	4501                	c.li	a0,0
    14fc:	6109                	c.addi16sp	sp,128
    14fe:	8082                	c.jr	ra
    1500:	0808                	c.addi4spn	a0,sp,16
    1502:	8622                	c.mv	a2,s0
    1504:	e65ff0ef          	jal	ra,1368 <smemcpy>
    1508:	0808                	c.addi4spn	a0,sp,16
    150a:	45c1                	c.li	a1,16
    150c:	8d81                	c.sub	a1,s0
    150e:	9522                	c.add	a0,s0
    1510:	e49ff0ef          	jal	ra,1358 <smemset.constprop.15>
    1514:	fb5ff06f          	j	14c8 <aes_ccmAuthTran.constprop.14+0x148>
    1518:	861a                	c.mv	a2,t1
    151a:	015d05b3          	add	a1,s10,s5
    151e:	0808                	c.addi4spn	a0,sp,16
    1520:	c41a                	c.swsp	t1,8(sp)
    1522:	3599                	c.jal	1368 <smemcpy>
    1524:	4322                	c.lwsp	t1,8(sp)
    1526:	4541                	c.li	a0,16
    1528:	406505b3          	sub	a1,a0,t1
    152c:	0808                	c.addi4spn	a0,sp,16
    152e:	951a                	c.add	a0,t1
    1530:	e29ff0ef          	jal	ra,1358 <smemset.constprop.15>
    1534:	00000b13          	li	s6,0
    1538:	f91ff06f          	j	14c8 <aes_ccmAuthTran.constprop.14+0x148>

0000153c <aes_ccmBaseTran.isra.0.constprop.13>:
    153c:	7139                	c.addi16sp	sp,-64
    153e:	da26                	c.swsp	s1,52(sp)
    1540:	84ae                	c.mv	s1,a1
    1542:	000005b7          	lui	a1,0x0
    1546:	dc22                	c.swsp	s0,56(sp)
    1548:	d84a                	c.swsp	s2,48(sp)
    154a:	4785                	c.li	a5,1
    154c:	842a                	c.mv	s0,a0
    154e:	8932                	c.mv	s2,a2
    1550:	00110513          	addi	a0,sp,1
    1554:	4635                	c.li	a2,13
    1556:	22058593          	addi	a1,a1,544 # 220 <blc_cyrpt_para+0x18>
    155a:	de06                	c.swsp	ra,60(sp)
    155c:	00f10023          	sb	a5,0(sp)
    1560:	e09ff0ef          	jal	ra,1368 <smemcpy>
    1564:	00000637          	lui	a2,0x0
    1568:	15860e93          	addi	t4,a2,344 # 158 <_AES_VMA_START>
    156c:	15860f13          	addi	t5,a2,344
    1570:	4681                	c.li	a3,0
    1572:	15860613          	addi	a2,a2,344
    1576:	4801                	c.li	a6,0
    1578:	0078                	c.addi4spn	a4,sp,12
    157a:	850a                	c.mv	a0,sp
    157c:	00011723          	sh	zero,14(sp)
    1580:	00174783          	lbu	a5,1(a4)
    1584:	00074583          	lbu	a1,0(a4)
    1588:	06a2                	c.slli	a3,0x8
    158a:	0106e6b3          	or	a3,a3,a6
    158e:	07c2                	c.slli	a5,0x10
    1590:	8fd5                	c.or	a5,a3
    1592:	01859693          	slli	a3,a1,0x18
    1596:	8fd5                	c.or	a5,a3
    1598:	c21c                	c.sw	a5,0(a2)
    159a:	0611                	c.addi	a2,4
    159c:	00a70863          	beq	a4,a0,15ac <aes_ccmBaseTran.isra.0.constprop.13+0x70>
    15a0:	1771                	c.addi	a4,-4
    15a2:	00374803          	lbu	a6,3(a4)
    15a6:	00274683          	lbu	a3,2(a4)
    15aa:	bfd9                	c.j	1580 <aes_ccmBaseTran.isra.0.constprop.13+0x44>
    15ac:	801607b7          	lui	a5,0x80160
    15b0:	0dd7a223          	sw	t4,196(a5) # 801600c4 <_DATA_LMA_START+0x60151990>
    15b4:	00100693          	li	a3,1
    15b8:	80160737          	lui	a4,0x80160
    15bc:	0ad7a823          	sw	a3,176(a5)
    15c0:	0b072783          	lw	a5,176(a4) # 801600b0 <_DATA_LMA_START+0x6015197c>
    15c4:	fe07fe5b          	bbs	a5,0,15c0 <aes_ccmBaseTran.isra.0.constprop.13+0x84>
    15c8:	0f7d                	c.addi	t5,31
    15ca:	00fe8693          	addi	a3,t4,15
    15ce:	081c                	c.addi4spn	a5,sp,16
    15d0:	01e005b3          	add	a1,zero,t5
    15d4:	00058703          	lb	a4,0(a1)
    15d8:	0785                	c.addi	a5,1
    15da:	15fd                	c.addi	a1,-1
    15dc:	fee78fa3          	sb	a4,-1(a5)
    15e0:	feb69ae3          	bne	a3,a1,15d4 <aes_ccmBaseTran.isra.0.constprop.13+0x98>
    15e4:	864a                	c.mv	a2,s2
    15e6:	00490813          	addi	a6,s2,4
    15ea:	872a                	c.mv	a4,a0
    15ec:	00060783          	lb	a5,0(a2)
    15f0:	01070683          	lb	a3,16(a4)
    15f4:	0605                	c.addi	a2,1
    15f6:	8fb5                	c.xor	a5,a3
    15f8:	fef60fa3          	sb	a5,-1(a2)
    15fc:	0705                	c.addi	a4,1
    15fe:	fec817e3          	bne	a6,a2,15ec <aes_ccmBaseTran.isra.0.constprop.13+0xb0>
    1602:	10000793          	li	a5,256
    1606:	00f11723          	sh	a5,14(sp)
    160a:	00f4f793          	andi	a5,s1,15
    160e:	8826                	c.mv	a6,s1
    1610:	cbe1                	c.beqz	a5,16e0 <aes_ccmBaseTran.isra.0.constprop.13+0x1a4>
    1612:	98c1                	c.andi	s1,-16
    1614:	01048493          	addi	s1,s1,16
    1618:	3c04a4db          	bfoz	s1,s1,15,0
    161c:	4681                	c.li	a3,0
    161e:	4885                	c.li	a7,1
    1620:	4301                	c.li	t1,0
    1622:	ffc10e13          	addi	t3,sp,-4
    1626:	02050513          	addi	a0,a0,32
    162a:	80160637          	lui	a2,0x80160
    162e:	4f85                	c.li	t6,1
    1630:	0ff8f913          	andi	s2,a7,255
    1634:	83f6                	c.mv	t2,t4
    1636:	0078                	c.addi4spn	a4,sp,12
    1638:	00174783          	lbu	a5,1(a4)
    163c:	00074283          	lbu	t0,0(a4)
    1640:	06a2                	c.slli	a3,0x8
    1642:	0126e6b3          	or	a3,a3,s2
    1646:	07c2                	c.slli	a5,0x10
    1648:	8fd5                	c.or	a5,a3
    164a:	01829693          	slli	a3,t0,0x18
    164e:	8fd5                	c.or	a5,a3
    1650:	00f3a023          	sw	a5,0(t2)
    1654:	1771                	c.addi	a4,-4
    1656:	0391                	c.addi	t2,4
    1658:	01c70863          	beq	a4,t3,1668 <aes_ccmBaseTran.isra.0.constprop.13+0x12c>
    165c:	00374903          	lbu	s2,3(a4)
    1660:	00274683          	lbu	a3,2(a4)
    1664:	fd5ff06f          	j	1638 <aes_ccmBaseTran.isra.0.constprop.13+0xfc>
    1668:	0dd62223          	sw	t4,196(a2) # 801600c4 <_DATA_LMA_START+0x60151990>
    166c:	0bf62823          	sw	t6,176(a2)
    1670:	0b062783          	lw	a5,176(a2)
    1674:	fe07fe5b          	bbs	a5,0,1670 <aes_ccmBaseTran.isra.0.constprop.13+0x134>
    1678:	0818                	c.addi4spn	a4,sp,16
    167a:	87fa                	c.mv	a5,t5
    167c:	00078683          	lb	a3,0(a5)
    1680:	0705                	c.addi	a4,1
    1682:	17fd                	c.addi	a5,-1
    1684:	fed70fa3          	sb	a3,-1(a4)
    1688:	fef59ae3          	bne	a1,a5,167c <aes_ccmBaseTran.isra.0.constprop.13+0x140>
    168c:	006407b3          	add	a5,s0,t1
    1690:	0818                	c.addi4spn	a4,sp,16
    1692:	a829                	c.j	16ac <aes_ccmBaseTran.isra.0.constprop.13+0x170>
    1694:	00078683          	lb	a3,0(a5)
    1698:	00070283          	lb	t0,0(a4)
    169c:	0785                	c.addi	a5,1
    169e:	0056c6b3          	xor	a3,a3,t0
    16a2:	0705                	c.addi	a4,1
    16a4:	fed78fa3          	sb	a3,-1(a5)
    16a8:	00e50663          	beq	a0,a4,16b4 <aes_ccmBaseTran.isra.0.constprop.13+0x178>
    16ac:	408786b3          	sub	a3,a5,s0
    16b0:	ff06c2e3          	blt	a3,a6,1694 <aes_ccmBaseTran.isra.0.constprop.13+0x158>
    16b4:	0885                	c.addi	a7,1
    16b6:	3c08a8db          	bfoz	a7,a7,15,0
    16ba:	0088d693          	srli	a3,a7,0x8
    16be:	0341                	c.addi	t1,16
    16c0:	00d10723          	sb	a3,14(sp)
    16c4:	011107a3          	sb	a7,15(sp)
    16c8:	3c03235b          	bfoz	t1,t1,15,0
    16cc:	f69362e3          	bltu	t1,s1,1630 <aes_ccmBaseTran.isra.0.constprop.13+0xf4>
    16d0:	50f2                	c.lwsp	ra,60(sp)
    16d2:	5462                	c.lwsp	s0,56(sp)
    16d4:	54d2                	c.lwsp	s1,52(sp)
    16d6:	5942                	c.lwsp	s2,48(sp)
    16d8:	4501                	c.li	a0,0
    16da:	6121                	c.addi16sp	sp,64
    16dc:	00008067          	ret
    16e0:	fc95                	c.bnez	s1,161c <aes_ccmBaseTran.isra.0.constprop.13+0xe0>
    16e2:	50f2                	c.lwsp	ra,60(sp)
    16e4:	5462                	c.lwsp	s0,56(sp)
    16e6:	54d2                	c.lwsp	s1,52(sp)
    16e8:	5942                	c.lwsp	s2,48(sp)
    16ea:	4501                	c.li	a0,0
    16ec:	6121                	c.addi16sp	sp,64
    16ee:	8082                	c.jr	ra

000016f0 <aes_ll_ccm_decryption.constprop.12>:
    16f0:	00154783          	lbu	a5,1(a0)
    16f4:	4711                	c.li	a4,4
    16f6:	0cf77563          	bgeu	a4,a5,17c0 <aes_ll_ccm_decryption.constprop.12+0xd0>
    16fa:	1101                	c.addi	sp,-32
    16fc:	17f1                	c.addi	a5,-4
    16fe:	00000637          	lui	a2,0x0
    1702:	ca26                	c.swsp	s1,20(sp)
    1704:	ce06                	c.swsp	ra,28(sp)
    1706:	cc22                	c.swsp	s0,24(sp)
    1708:	01212823          	sw	s2,16(sp)
    170c:	17860613          	addi	a2,a2,376 # 178 <_AES_VMA_END>
    1710:	00050703          	lb	a4,0(a0)
    1714:	0ff7f593          	andi	a1,a5,255
    1718:	00b500a3          	sb	a1,1(a0)
    171c:	09462803          	lw	a6,148(a2)
    1720:	00377793          	andi	a5,a4,3
    1724:	00160337          	lui	t1,0x160
    1728:	00180893          	addi	a7,a6,1
    172c:	00250493          	addi	s1,a0,2
    1730:	0b430693          	addi	a3,t1,180 # 1600b4 <FLASH_SIZE+0x600b4>
    1734:	00f103a3          	sb	a5,7(sp)
    1738:	0a460713          	addi	a4,a2,164
    173c:	f8000793          	li	a5,-128
    1740:	80000537          	lui	a0,0x80000
    1744:	0c430313          	addi	t1,t1,196
    1748:	09162a23          	sw	a7,148(a2)
    174c:	0b062423          	sw	a6,168(a2)
    1750:	0af60623          	sb	a5,172(a2)
    1754:	00274783          	lbu	a5,2(a4)
    1758:	00174883          	lbu	a7,1(a4)
    175c:	00374603          	lbu	a2,3(a4)
    1760:	00074803          	lbu	a6,0(a4)
    1764:	07a2                	c.slli	a5,0x8
    1766:	08c2                	c.slli	a7,0x10
    1768:	0117e7b3          	or	a5,a5,a7
    176c:	8fd1                	c.or	a5,a2
    176e:	0862                	c.slli	a6,0x18
    1770:	00a6e633          	or	a2,a3,a0
    1774:	0107e7b3          	or	a5,a5,a6
    1778:	c21c                	c.sw	a5,0(a2)
    177a:	0691                	c.addi	a3,4
    177c:	1771                	c.addi	a4,-4
    177e:	fc669be3          	bne	a3,t1,1754 <aes_ll_ccm_decryption.constprop.12+0x64>
    1782:	00b48433          	add	s0,s1,a1
    1786:	3c05a95b          	bfoz	s2,a1,15,0
    178a:	8622                	c.mv	a2,s0
    178c:	85ca                	c.mv	a1,s2
    178e:	8526                	c.mv	a0,s1
    1790:	dadff0ef          	jal	ra,153c <aes_ccmBaseTran.isra.0.constprop.13>
    1794:	0034                	c.addi4spn	a3,sp,8
    1796:	00710613          	addi	a2,sp,7
    179a:	85ca                	c.mv	a1,s2
    179c:	8526                	c.mv	a0,s1
    179e:	36cd                	c.jal	1380 <aes_ccmAuthTran.constprop.14>
    17a0:	0068                	c.addi4spn	a0,sp,12
    17a2:	85a2                	c.mv	a1,s0
    17a4:	4611                	c.li	a2,4
    17a6:	36c9                	c.jal	1368 <smemcpy>
    17a8:	4532                	c.lwsp	a0,12(sp)
    17aa:	47a2                	c.lwsp	a5,8(sp)
    17ac:	40f2                	c.lwsp	ra,28(sp)
    17ae:	4462                	c.lwsp	s0,24(sp)
    17b0:	8d1d                	c.sub	a0,a5
    17b2:	44d2                	c.lwsp	s1,20(sp)
    17b4:	4942                	c.lwsp	s2,16(sp)
    17b6:	00a03533          	snez	a0,a0
    17ba:	6105                	c.addi16sp	sp,32
    17bc:	00008067          	ret
    17c0:	4505                	c.li	a0,1
    17c2:	8082                	c.jr	ra

000017c4 <blt_ll_searchAddr_in_WhiteList>:
    17c4:	00000737          	lui	a4,0x0
    17c8:	17870713          	addi	a4,a4,376 # 178 <_AES_VMA_END>
    17cc:	1dc74603          	lbu	a2,476(a4)
    17d0:	c635                	c.beqz	a2,183c <blt_ll_searchAddr_in_WhiteList+0x78>
    17d2:	1bc70893          	addi	a7,a4,444
    17d6:	87c6                	c.mv	a5,a7
    17d8:	4701                	c.li	a4,0
    17da:	a029                	c.j	17e4 <blt_ll_searchAddr_in_WhiteList+0x20>
    17dc:	0705                	c.addi	a4,1
    17de:	07a1                	c.addi	a5,8
    17e0:	04c75e63          	bge	a4,a2,183c <blt_ll_searchAddr_in_WhiteList+0x78>
    17e4:	0007c683          	lbu	a3,0(a5)
    17e8:	fea69ae3          	bne	a3,a0,17dc <blt_ll_searchAddr_in_WhiteList+0x18>
    17ec:	0017c803          	lbu	a6,1(a5)
    17f0:	0005c683          	lbu	a3,0(a1)
    17f4:	fed814e3          	bne	a6,a3,17dc <blt_ll_searchAddr_in_WhiteList+0x18>
    17f8:	0027c803          	lbu	a6,2(a5)
    17fc:	0015c683          	lbu	a3,1(a1)
    1800:	fcd81ee3          	bne	a6,a3,17dc <blt_ll_searchAddr_in_WhiteList+0x18>
    1804:	0037c803          	lbu	a6,3(a5)
    1808:	0025c683          	lbu	a3,2(a1)
    180c:	fcd818e3          	bne	a6,a3,17dc <blt_ll_searchAddr_in_WhiteList+0x18>
    1810:	0047c803          	lbu	a6,4(a5)
    1814:	0035c683          	lbu	a3,3(a1)
    1818:	fcd812e3          	bne	a6,a3,17dc <blt_ll_searchAddr_in_WhiteList+0x18>
    181c:	0057c803          	lbu	a6,5(a5)
    1820:	0045c683          	lbu	a3,4(a1)
    1824:	fad81ce3          	bne	a6,a3,17dc <blt_ll_searchAddr_in_WhiteList+0x18>
    1828:	0067c803          	lbu	a6,6(a5)
    182c:	0055c683          	lbu	a3,5(a1)
    1830:	fad816e3          	bne	a6,a3,17dc <blt_ll_searchAddr_in_WhiteList+0x18>
    1834:	0ee8855b          	lea.d	a0,a7,a4
    1838:	00008067          	ret
    183c:	4501                	c.li	a0,0
    183e:	8082                	c.jr	ra

00001840 <blt_terminate_proc>:
    1840:	1141                	c.addi	sp,-16
    1842:	c422                	c.swsp	s0,8(sp)
    1844:	00000437          	lui	s0,0x0
    1848:	c606                	c.swsp	ra,12(sp)
    184a:	17840413          	addi	s0,s0,376 # 178 <_AES_VMA_END>
    184e:	1ef44783          	lbu	a5,495(s0)
    1852:	0647d95b          	beqc	a5,4,18c4 <blt_terminate_proc+0x84>
    1856:	0027d55b          	beqc	a5,2,1860 <blt_terminate_proc+0x20>
    185a:	47a1                	c.li	a5,8
    185c:	1ef406a3          	sb	a5,493(s0)
    1860:	24842783          	lw	a5,584(s0)
    1864:	2b842703          	lw	a4,696(s0)
    1868:	0107e793          	ori	a5,a5,16
    186c:	24f42423          	sw	a5,584(s0)
    1870:	001b07b7          	lui	a5,0x1b0
    1874:	07ed                	c.addi	a5,27
    1876:	24f42623          	sw	a5,588(s0)
    187a:	57fd                	c.li	a5,-1
    187c:	24041ea3          	sh	zero,605(s0)
    1880:	24040fa3          	sb	zero,607(s0)
    1884:	1e040623          	sb	zero,492(s0)
    1888:	1e041723          	sh	zero,494(s0)
    188c:	26040523          	sb	zero,618(s0)
    1890:	22042023          	sw	zero,544(s0)
    1894:	1ef41923          	sh	a5,498(s0)
    1898:	260400a3          	sb	zero,609(s0)
    189c:	22042223          	sw	zero,548(s0)
    18a0:	cb11                	c.beqz	a4,18b4 <blt_terminate_proc+0x74>
    18a2:	17040783          	lb	a5,368(s0)
    18a6:	01000537          	lui	a0,0x1000
    18aa:	0ff7f793          	andi	a5,a5,255
    18ae:	8d5d                	c.or	a0,a5
    18b0:	000700e7          	jalr	a4
    18b4:	1e0401a3          	sb	zero,483(s0)
    18b8:	2a040f23          	sb	zero,702(s0)
    18bc:	40b2                	c.lwsp	ra,12(sp)
    18be:	4422                	c.lwsp	s0,8(sp)
    18c0:	0141                	c.addi	sp,16
    18c2:	8082                	c.jr	ra
    18c4:	02200793          	li	a5,34
    18c8:	1ef406a3          	sb	a5,493(s0)
    18cc:	f95ff06f          	j	1860 <blt_terminate_proc+0x20>

000018d0 <blt_terminate_pending_proc>:
    18d0:	000007b7          	lui	a5,0x0
    18d4:	17878793          	addi	a5,a5,376 # 178 <_AES_VMA_END>
    18d8:	1ec7c703          	lbu	a4,492(a5)
    18dc:	cb11                	c.beqz	a4,18f0 <blt_terminate_pending_proc+0x20>
    18de:	0705                	c.addi	a4,1
    18e0:	0ff77713          	andi	a4,a4,255
    18e4:	1ee78623          	sb	a4,492(a5)
    18e8:	00200693          	li	a3,2
    18ec:	06e6e063          	bltu	a3,a4,194c <blt_terminate_pending_proc+0x7c>
    18f0:	1ee7c703          	lbu	a4,494(a5)
    18f4:	0017545b          	beqc	a4,1,18fc <blt_terminate_pending_proc+0x2c>
    18f8:	00008067          	ret
    18fc:	801006b7          	lui	a3,0x80100
    1900:	50068703          	lb	a4,1280(a3) # 80100500 <_DATA_LMA_START+0x600f1dcc>
    1904:	50168683          	lb	a3,1281(a3)
    1908:	8f15                	c.sub	a4,a3
    190a:	8b7d                	c.andi	a4,31
    190c:	00071863          	bnez	a4,191c <blt_terminate_pending_proc+0x4c>
    1910:	2f37c683          	lbu	a3,755(a5)
    1914:	2f27c703          	lbu	a4,754(a5)
    1918:	02e68063          	beq	a3,a4,1938 <blt_terminate_pending_proc+0x68>
    191c:	80140737          	lui	a4,0x80140
    1920:	20072683          	lw	a3,512(a4) # 80140200 <_DATA_LMA_START+0x60131acc>
    1924:	22c7a703          	lw	a4,556(a5)
    1928:	40e686b3          	sub	a3,a3,a4
    192c:	007a1737          	lui	a4,0x7a1
    1930:	20070713          	addi	a4,a4,512 # 7a1200 <FLASH_SIZE+0x6a1200>
    1934:	fcd772e3          	bgeu	a4,a3,18f8 <blt_terminate_pending_proc+0x28>
    1938:	2ff78703          	lb	a4,767(a5)
    193c:	20000693          	li	a3,512
    1940:	1ed79723          	sh	a3,494(a5)
    1944:	1ee786a3          	sb	a4,493(a5)
    1948:	00008067          	ret
    194c:	1ed787a3          	sb	a3,495(a5)
    1950:	00008067          	ret

00001954 <bls_ll_setNewConnection_timing>:
    1954:	000007b7          	lui	a5,0x0
    1958:	8d0d                	c.sub	a0,a1
    195a:	17878793          	addi	a5,a5,376 # 178 <_AES_VMA_END>
    195e:	4685                	c.li	a3,1
    1960:	6715                	c.lui	a4,0x5
    1962:	e2070713          	addi	a4,a4,-480 # 4e20 <main+0x88>
    1966:	1ed784a3          	sb	a3,489(a5)
    196a:	3c05255b          	bfoz	a0,a0,15,0
    196e:	480d                	c.li	a6,3
    1970:	02e585b3          	mul	a1,a1,a4
    1974:	04a86a63          	bltu	a6,a0,19c8 <bls_ll_setNewConnection_timing+0x74>
    1978:	6705                	c.lui	a4,0x1
    197a:	00150813          	addi	a6,a0,1 # 1000001 <FLASH_SIZE+0xf00001>
    197e:	fa070713          	addi	a4,a4,-96 # fa0 <scan_pri_chn_rx_fifo+0x16c>
    1982:	6889                	c.lui	a7,0x2
    1984:	02e80733          	mul	a4,a6,a4
    1988:	f4088893          	addi	a7,a7,-192 # 1f40 <irq_blc_slave_rx_data+0x168>
    198c:	00b00333          	add	t1,zero,a1
    1990:	c518137f          	maddr32	t1,a6,a7
    1994:	2ad78f23          	sb	a3,702(a5)
    1998:	2067aa23          	sw	t1,532(a5)
    199c:	22e7a023          	sw	a4,544(a5)
    19a0:	e215                	c.bnez	a2,19c4 <bls_ll_setNewConnection_timing+0x70>
    19a2:	4709                	c.li	a4,2
    19a4:	02a76e63          	bltu	a4,a0,19e0 <bls_ll_setNewConnection_timing+0x8c>
    19a8:	00156e5b          	bnec	a0,1,19c4 <bls_ll_setNewConnection_timing+0x70>
    19ac:	6709                	c.lui	a4,0x2
    19ae:	f4070713          	addi	a4,a4,-192 # 1f40 <irq_blc_slave_rx_data+0x168>
    19b2:	95ba                	c.add	a1,a4
    19b4:	6705                	c.lui	a4,0x1
    19b6:	fa070713          	addi	a4,a4,-96 # fa0 <scan_pri_chn_rx_fifo+0x16c>
    19ba:	22e7a023          	sw	a4,544(a5)
    19be:	20b7aa23          	sw	a1,532(a5)
    19c2:	8082                	c.jr	ra
    19c4:	00008067          	ret
    19c8:	6741                	c.lui	a4,0x10
    19ca:	a0070713          	addi	a4,a4,-1536 # fa00 <BIN_SIZE+0x1210>
    19ce:	66a1                	c.lui	a3,0x8
    19d0:	972e                	c.add	a4,a1
    19d2:	d0068693          	addi	a3,a3,-768 # 7d00 <_RAMCODE_VMA_END+0x19fe>
    19d6:	22d7a023          	sw	a3,544(a5)
    19da:	20e7aa23          	sw	a4,532(a5)
    19de:	b7c9                	c.j	19a0 <bls_ll_setNewConnection_timing+0x4c>
    19e0:	6719                	c.lui	a4,0x6
    19e2:	dc070713          	addi	a4,a4,-576 # 5dc0 <entry_irq10+0x4>
    19e6:	95ba                	c.add	a1,a4
    19e8:	670d                	c.lui	a4,0x3
    19ea:	ee070713          	addi	a4,a4,-288 # 2ee0 <irq_blc_ll_rx+0x78>
    19ee:	22e7a023          	sw	a4,544(a5)
    19f2:	4705                	c.li	a4,1
    19f4:	20b7aa23          	sw	a1,532(a5)
    19f8:	2ae78f23          	sb	a4,702(a5)
    19fc:	00008067          	ret

00001a00 <blt_brx_timing_update>:
    1a00:	000007b7          	lui	a5,0x0
    1a04:	17878793          	addi	a5,a5,376 # 178 <_AES_VMA_END>
    1a08:	30078703          	lb	a4,768(a5)
    1a0c:	0625dc5b          	beqc	a1,2,1a84 <blt_brx_timing_update+0x84>
    1a10:	30178683          	lb	a3,769(a5)
    1a14:	1e47c603          	lbu	a2,484(a5)
    1a18:	30078123          	sb	zero,770(a5)
    1a1c:	00c6d863          	bge	a3,a2,1a2c <blt_brx_timing_update+0x2c>
    1a20:	0685                	c.addi	a3,1
    1a22:	1c06b65b          	bfos	a2,a3,7,0
    1a26:	86b2                	c.mv	a3,a2
    1a28:	30c780a3          	sb	a2,769(a5)
    1a2c:	4605                	c.li	a2,1
    1a2e:	04e65363          	bge	a2,a4,1a74 <blt_brx_timing_update+0x74>
    1a32:	30c7a603          	lw	a2,780(a5)
    1a36:	1779                	c.addi	a4,-2
    1a38:	30e78023          	sb	a4,768(a5)
    1a3c:	3107a703          	lw	a4,784(a5)
    1a40:	2007a503          	lw	a0,512(a5)
    1a44:	20c7a583          	lw	a1,524(a5)
    1a48:	c4c6977f          	maddr32	a4,a3,a2
    1a4c:	2287a603          	lw	a2,552(a5)
    1a50:	6689                	c.lui	a3,0x2
    1a52:	f4068693          	addi	a3,a3,-192 # 1f40 <irq_blc_slave_rx_data+0x168>
    1a56:	22e7a023          	sw	a4,544(a5)
    1a5a:	9736                	c.add	a4,a3
    1a5c:	952e                	c.add	a0,a1
    1a5e:	0706                	c.slli	a4,0x1
    1a60:	20a7a023          	sw	a0,512(a5)
    1a64:	20e7aa23          	sw	a4,532(a5)
    1a68:	30c7a223          	sw	a2,772(a5)
    1a6c:	2a078fa3          	sb	zero,703(a5)
    1a70:	00008067          	ret
    1a74:	6719                	c.lui	a4,0x6
    1a76:	dc070713          	addi	a4,a4,-576 # 5dc0 <entry_irq10+0x4>
    1a7a:	863a                	c.mv	a2,a4
    1a7c:	30e7a623          	sw	a4,780(a5)
    1a80:	fbdff06f          	j	1a3c <blt_brx_timing_update+0x3c>
    1a84:	300780a3          	sb	zero,769(a5)
    1a88:	00500693          	li	a3,5
    1a8c:	0ae6d063          	bge	a3,a4,1b2c <blt_brx_timing_update+0x12c>
    1a90:	3107a703          	lw	a4,784(a5)
    1a94:	30e7a623          	sw	a4,780(a5)
    1a98:	3027c683          	lbu	a3,770(a5)
    1a9c:	1c06b65b          	bfos	a2,a3,7,0
    1aa0:	00064663          	bltz	a2,1aac <blt_brx_timing_update+0xac>
    1aa4:	00168693          	addi	a3,a3,1
    1aa8:	30d78123          	sb	a3,770(a5)
    1aac:	3157c683          	lbu	a3,789(a5)
    1ab0:	2287a603          	lw	a2,552(a5)
    1ab4:	20c7a583          	lw	a1,524(a5)
    1ab8:	dec1                	c.beqz	a3,1a50 <blt_brx_timing_update+0x50>
    1aba:	3027c803          	lbu	a6,770(a5)
    1abe:	4685                	c.li	a3,1
    1ac0:	f906f8e3          	bgeu	a3,a6,1a50 <blt_brx_timing_update+0x50>
    1ac4:	2bf7c683          	lbu	a3,703(a5)
    1ac8:	f6c1                	c.bnez	a3,1a50 <blt_brx_timing_update+0x50>
    1aca:	3047a683          	lw	a3,772(a5)
    1ace:	40d60833          	sub	a6,a2,a3
    1ad2:	001876b7          	lui	a3,0x187
    1ad6:	a0068693          	addi	a3,a3,-1536 # 186a00 <FLASH_SIZE+0x86a00>
    1ada:	f706dbe3          	bge	a3,a6,1a50 <blt_brx_timing_update+0x50>
    1ade:	3087ae03          	lw	t3,776(a5)
    1ae2:	6691                	c.lui	a3,0x4
    1ae4:	030e0eb3          	mul	t4,t3,a6
    1ae8:	fff68313          	addi	t1,a3,-1 # 3fff <cpu_sleep_wakeup_32k_rc_ram+0x10f>
    1aec:	2007a683          	lw	a3,512(a5)
    1af0:	40d506b3          	sub	a3,a0,a3
    1af4:	41fed893          	srai	a7,t4,0x1f
    1af8:	0068f8b3          	and	a7,a7,t1
    1afc:	98f6                	c.add	a7,t4
    1afe:	40e8d893          	srai	a7,a7,0xe
    1b02:	96c6                	c.add	a3,a7
    1b04:	06ba                	c.slli	a3,0xe
    1b06:	0306c6b3          	div	a3,a3,a6
    1b0a:	41c686b3          	sub	a3,a3,t3
    1b0e:	8685                	c.srai	a3,0x1
    1b10:	96f2                	c.add	a3,t3
    1b12:	02d58833          	mul	a6,a1,a3
    1b16:	30d7a423          	sw	a3,776(a5)
    1b1a:	41f85693          	srai	a3,a6,0x1f
    1b1e:	0066f6b3          	and	a3,a3,t1
    1b22:	96c2                	c.add	a3,a6
    1b24:	86b9                	c.srai	a3,0xe
    1b26:	20d7a223          	sw	a3,516(a5)
    1b2a:	b71d                	c.j	1a50 <blt_brx_timing_update+0x50>
    1b2c:	0705                	c.addi	a4,1
    1b2e:	30e78023          	sb	a4,768(a5)
    1b32:	30c7a703          	lw	a4,780(a5)
    1b36:	b78d                	c.j	1a98 <blt_brx_timing_update+0x98>

00001b38 <blt_brx_timing_update_init>:
    1b38:	000007b7          	lui	a5,0x0
    1b3c:	17878793          	addi	a5,a5,376 # 178 <_AES_VMA_END>
    1b40:	2007a683          	lw	a3,512(a5)
    1b44:	20c7a583          	lw	a1,524(a5)
    1b48:	80141637          	lui	a2,0x80141
    1b4c:	96ae                	c.add	a3,a1
    1b4e:	a0360703          	lb	a4,-1533(a2) # 80140a03 <_DATA_LMA_START+0x601322cf>
    1b52:	20d7a023          	sw	a3,512(a5)
    1b56:	6699                	c.lui	a3,0x6
    1b58:	dc068693          	addi	a3,a3,-576 # 5dc0 <entry_irq10+0x4>
    1b5c:	0fe77713          	andi	a4,a4,254
    1b60:	30079023          	sh	zero,768(a5)
    1b64:	30078123          	sb	zero,770(a5)
    1b68:	3007a423          	sw	zero,776(a5)
    1b6c:	30d7a623          	sw	a3,780(a5)
    1b70:	2007a223          	sw	zero,516(a5)
    1b74:	a0e601a3          	sb	a4,-1533(a2)
    1b78:	00008067          	ret

00001b7c <blt_set_fsmTimeout_intLevel>:
    1b7c:	479d                	c.li	a5,7
    1b7e:	02a7e163          	bltu	a5,a0,1ba0 <blt_set_fsmTimeout_intLevel+0x24>
    1b82:	000007b7          	lui	a5,0x0
    1b86:	17878793          	addi	a5,a5,376 # 178 <_AES_VMA_END>
    1b8a:	4705                	c.li	a4,1
    1b8c:	1ee78223          	sb	a4,484(a5)
    1b90:	157d                	c.addi	a0,-1
    1b92:	4e200713          	li	a4,1250
    1b96:	02e50533          	mul	a0,a0,a4
    1b9a:	24a7a223          	sw	a0,580(a5)
    1b9e:	8082                	c.jr	ra
    1ba0:	04f00793          	li	a5,79
    1ba4:	02a7f863          	bgeu	a5,a0,1bd4 <blt_set_fsmTimeout_intLevel+0x58>
    1ba8:	000007b7          	lui	a5,0x0
    1bac:	17878793          	addi	a5,a5,376 # 178 <_AES_VMA_END>
    1bb0:	00300713          	li	a4,3
    1bb4:	1ee78223          	sb	a4,484(a5)
    1bb8:	4741                	c.li	a4,16
    1bba:	fca77be3          	bgeu	a4,a0,1b90 <blt_set_fsmTimeout_intLevel+0x14>
    1bbe:	02000713          	li	a4,32
    1bc2:	02a77163          	bgeu	a4,a0,1be4 <blt_set_fsmTimeout_intLevel+0x68>
    1bc6:	27100713          	li	a4,625
    1bca:	02e50533          	mul	a0,a0,a4
    1bce:	24a7a223          	sw	a0,580(a5)
    1bd2:	8082                	c.jr	ra
    1bd4:	000007b7          	lui	a5,0x0
    1bd8:	17878793          	addi	a5,a5,376 # 178 <_AES_VMA_END>
    1bdc:	4709                	c.li	a4,2
    1bde:	1ee78223          	sb	a4,484(a5)
    1be2:	bfd9                	c.j	1bb8 <blt_set_fsmTimeout_intLevel+0x3c>
    1be4:	1571                	c.addi	a0,-4
    1be6:	4e200713          	li	a4,1250
    1bea:	02e50533          	mul	a0,a0,a4
    1bee:	24a7a223          	sw	a0,580(a5)
    1bf2:	8082                	c.jr	ra

00001bf4 <blt_ll_channel_conn_update>:
    1bf4:	1141                	c.addi	sp,-16
    1bf6:	c422                	c.swsp	s0,8(sp)
    1bf8:	00000437          	lui	s0,0x0
    1bfc:	17840413          	addi	s0,s0,376 # 178 <_AES_VMA_END>
    1c00:	c226                	c.swsp	s1,4(sp)
    1c02:	c606                	c.swsp	ra,12(sp)
    1c04:	c04a                	c.swsp	s2,0(sp)
    1c06:	0b644783          	lbu	a5,182(s0)
    1c0a:	84aa                	c.mv	s1,a0
    1c0c:	08079463          	bnez	a5,1c94 <blt_ll_channel_conn_update+0xa0>
    1c10:	0024c783          	lbu	a5,2(s1)
    1c14:	4705                	c.li	a4,1
    1c16:	0a17d35b          	beqc	a5,1,1cbc <blt_ll_channel_conn_update+0xc8>
    1c1a:	e78d                	c.bnez	a5,1c44 <blt_ll_channel_conn_update+0x50>
    1c1c:	00c4d683          	lhu	a3,12(s1)
    1c20:	27c41783          	lh	a5,636(s0)
    1c24:	26d41f23          	sh	a3,638(s0)
    1c28:	40f687b3          	sub	a5,a3,a5
    1c2c:	3c07b7db          	bfos	a5,a5,15,0
    1c30:	0cf04c63          	bgtz	a5,1d08 <blt_ll_channel_conn_update+0x114>
    1c34:	00000513          	li	a0,0
    1c38:	40b2                	c.lwsp	ra,12(sp)
    1c3a:	4422                	c.lwsp	s0,8(sp)
    1c3c:	4492                	c.lwsp	s1,4(sp)
    1c3e:	4902                	c.lwsp	s2,0(sp)
    1c40:	0141                	c.addi	sp,16
    1c42:	8082                	c.jr	ra
    1c44:	bf87e85b          	bnec	a5,24,1c34 <blt_ll_channel_conn_update+0x40>
    1c48:	0064c783          	lbu	a5,6(s1)
    1c4c:	0054c603          	lbu	a2,5(s1)
    1c50:	27c41683          	lh	a3,636(s0)
    1c54:	07a2                	c.slli	a5,0x8
    1c56:	8fd1                	c.or	a5,a2
    1c58:	40d786b3          	sub	a3,a5,a3
    1c5c:	3c06b6db          	bfos	a3,a3,15,0
    1c60:	fcd05ae3          	blez	a3,1c34 <blt_ll_channel_conn_update+0x40>
    1c64:	00348683          	lb	a3,3(s1)
    1c68:	00448583          	lb	a1,4(s1)
    1c6c:	460d                	c.li	a2,3
    1c6e:	8eed                	c.and	a3,a1
    1c70:	1ee403a3          	sb	a4,487(s0)
    1c74:	0ff6f693          	andi	a3,a3,255
    1c78:	26c400a3          	sb	a2,609(s0)
    1c7c:	26f41f23          	sh	a5,638(s0)
    1c80:	4e06f45b          	bbs	a3,0,1d68 <blt_ll_channel_conn_update+0x174>
    1c84:	4e16f65b          	bbs	a3,1,1d70 <blt_ll_channel_conn_update+0x17c>
    1c88:	0e26fa5b          	bbc	a3,2,1d7c <blt_ll_channel_conn_update+0x188>
    1c8c:	00c40123          	sb	a2,2(s0)
    1c90:	fa5ff06f          	j	1c34 <blt_ll_channel_conn_update+0x40>
    1c94:	09442903          	lw	s2,148(s0)
    1c98:	23442783          	lw	a5,564(s0)
    1c9c:	08f42a23          	sw	a5,148(s0)
    1ca0:	a51ff0ef          	jal	ra,16f0 <aes_ll_ccm_decryption.constprop.12>
    1ca4:	09242a23          	sw	s2,148(s0)
    1ca8:	d525                	c.beqz	a0,1c10 <blt_ll_channel_conn_update+0x1c>
    1caa:	4785                	c.li	a5,1
    1cac:	0af40ba3          	sb	a5,183(s0)
    1cb0:	40b2                	c.lwsp	ra,12(sp)
    1cb2:	4422                	c.lwsp	s0,8(sp)
    1cb4:	4492                	c.lwsp	s1,4(sp)
    1cb6:	4902                	c.lwsp	s2,0(sp)
    1cb8:	0141                	c.addi	sp,16
    1cba:	8082                	c.jr	ra
    1cbc:	0084d683          	lhu	a3,8(s1)
    1cc0:	27c41703          	lh	a4,636(s0)
    1cc4:	26d41f23          	sh	a3,638(s0)
    1cc8:	40e68733          	sub	a4,a3,a4
    1ccc:	3c07375b          	bfos	a4,a4,15,0
    1cd0:	f6e052e3          	blez	a4,1c34 <blt_ll_channel_conn_update+0x40>
    1cd4:	27340513          	addi	a0,s0,627
    1cd8:	00348593          	addi	a1,s1,3
    1cdc:	00500613          	li	a2,5
    1ce0:	1ef403a3          	sb	a5,487(s0)
    1ce4:	26f400a3          	sb	a5,609(s0)
    1ce8:	e80ff0ef          	jal	ra,1368 <smemcpy>
    1cec:	24842783          	lw	a5,584(s0)
    1cf0:	4501                	c.li	a0,0
    1cf2:	4007e793          	ori	a5,a5,1024
    1cf6:	24f42423          	sw	a5,584(s0)
    1cfa:	40b2                	c.lwsp	ra,12(sp)
    1cfc:	4422                	c.lwsp	s0,8(sp)
    1cfe:	4492                	c.lwsp	s1,4(sp)
    1d00:	4902                	c.lwsp	s2,0(sp)
    1d02:	0141                	c.addi	sp,16
    1d04:	00008067          	ret
    1d08:	1ee403a3          	sb	a4,487(s0)
    1d0c:	0034c783          	lbu	a5,3(s1)
    1d10:	31840513          	addi	a0,s0,792
    1d14:	1ef40523          	sb	a5,490(s0)
    1d18:	0044d783          	lhu	a5,4(s1)
    1d1c:	4709                	c.li	a4,2
    1d1e:	1ef41a23          	sh	a5,500(s0)
    1d22:	0064d783          	lhu	a5,6(s1)
    1d26:	85a6                	c.mv	a1,s1
    1d28:	1ef41b23          	sh	a5,502(s0)
    1d2c:	0084d783          	lhu	a5,8(s1)
    1d30:	00e00613          	li	a2,14
    1d34:	1ef41c23          	sh	a5,504(s0)
    1d38:	00a4d783          	lhu	a5,10(s1)
    1d3c:	26e400a3          	sb	a4,609(s0)
    1d40:	1ef41d23          	sh	a5,506(s0)
    1d44:	e24ff0ef          	jal	ra,1368 <smemcpy>
    1d48:	24842783          	lw	a5,584(s0)
    1d4c:	6705                	c.lui	a4,0x1
    1d4e:	80070713          	addi	a4,a4,-2048 # 800 <pkt_errRsp>
    1d52:	8fd9                	c.or	a5,a4
    1d54:	24f42423          	sw	a5,584(s0)
    1d58:	40b2                	c.lwsp	ra,12(sp)
    1d5a:	4422                	c.lwsp	s0,8(sp)
    1d5c:	4492                	c.lwsp	s1,4(sp)
    1d5e:	4902                	c.lwsp	s2,0(sp)
    1d60:	4501                	c.li	a0,0
    1d62:	0141                	c.addi	sp,16
    1d64:	00008067          	ret
    1d68:	00e40123          	sb	a4,2(s0)
    1d6c:	4501                	c.li	a0,0
    1d6e:	b5e9                	c.j	1c38 <blt_ll_channel_conn_update+0x44>
    1d70:	4789                	c.li	a5,2
    1d72:	00f40123          	sb	a5,2(s0)
    1d76:	4501                	c.li	a0,0
    1d78:	ec1ff06f          	j	1c38 <blt_ll_channel_conn_update+0x44>
    1d7c:	00140783          	lb	a5,1(s0)
    1d80:	4501                	c.li	a0,0
    1d82:	00f40123          	sb	a5,2(s0)
    1d86:	bd4d                	c.j	1c38 <blt_ll_channel_conn_update+0x44>

00001d88 <bls_ll_procUpdateReq>:
    1d88:	1141                	c.addi	sp,-16
    1d8a:	c422                	c.swsp	s0,8(sp)
    1d8c:	00000437          	lui	s0,0x0
    1d90:	17840413          	addi	s0,s0,376 # 178 <_AES_VMA_END>
    1d94:	c226                	c.swsp	s1,4(sp)
    1d96:	32840493          	addi	s1,s0,808
    1d9a:	00450593          	addi	a1,a0,4
    1d9e:	4661                	c.li	a2,24
    1da0:	8526                	c.mv	a0,s1
    1da2:	c606                	c.swsp	ra,12(sp)
    1da4:	dc4ff0ef          	jal	ra,1368 <smemcpy>
    1da8:	0b644783          	lbu	a5,182(s0)
    1dac:	c385                	c.beqz	a5,1dcc <bls_ll_procUpdateReq+0x44>
    1dae:	23042703          	lw	a4,560(s0)
    1db2:	4785                	c.li	a5,1
    1db4:	22e42a23          	sw	a4,564(s0)
    1db8:	24f42023          	sw	a5,576(s0)
    1dbc:	16f40b23          	sb	a5,374(s0)
    1dc0:	40b2                	c.lwsp	ra,12(sp)
    1dc2:	4422                	c.lwsp	s0,8(sp)
    1dc4:	4492                	c.lwsp	s1,4(sp)
    1dc6:	0141                	c.addi	sp,16
    1dc8:	00008067          	ret
    1dcc:	4422                	c.lwsp	s0,8(sp)
    1dce:	40b2                	c.lwsp	ra,12(sp)
    1dd0:	8526                	c.mv	a0,s1
    1dd2:	4492                	c.lwsp	s1,4(sp)
    1dd4:	0141                	c.addi	sp,16
    1dd6:	bd39                	c.j	1bf4 <blt_ll_channel_conn_update>

00001dd8 <irq_blc_slave_rx_data>:
    1dd8:	1141                	c.addi	sp,-16
    1dda:	c422                	c.swsp	s0,8(sp)
    1ddc:	00000437          	lui	s0,0x0
    1de0:	17840413          	addi	s0,s0,376 # 178 <_AES_VMA_END>
    1de4:	c606                	c.swsp	ra,12(sp)
    1de6:	c226                	c.swsp	s1,4(sp)
    1de8:	17940783          	lb	a5,377(s0)
    1dec:	00554483          	lbu	s1,5(a0)
    1df0:	0ff7f793          	andi	a5,a5,255
    1df4:	00454803          	lbu	a6,4(a0)
    1df8:	c3a1                	c.beqz	a5,1e38 <irq_blc_slave_rx_data+0x60>
    1dfa:	80140737          	lui	a4,0x80140
    1dfe:	801417b7          	lui	a5,0x80141
    1e02:	f8000693          	li	a3,-128
    1e06:	a0d78023          	sb	a3,-1536(a5) # 80140a00 <_DATA_LMA_START+0x601322cc>
    1e0a:	20072783          	lw	a5,512(a4) # 80140200 <_DATA_LMA_START+0x60131acc>
    1e0e:	4689                	c.li	a3,2
    1e10:	32078793          	addi	a5,a5,800
    1e14:	34d40023          	sb	a3,832(s0)
    1e18:	20f72223          	sw	a5,516(a4)
    1e1c:	18240783          	lb	a5,386(s0)
    1e20:	00000713          	li	a4,0
    1e24:	0ff7f793          	andi	a5,a5,255
    1e28:	0457de5b          	beqc	a5,5,1e84 <irq_blc_slave_rx_data+0xac>
    1e2c:	40b2                	c.lwsp	ra,12(sp)
    1e2e:	4422                	c.lwsp	s0,8(sp)
    1e30:	4492                	c.lwsp	s1,4(sp)
    1e32:	853a                	c.mv	a0,a4
    1e34:	0141                	c.addi	sp,16
    1e36:	8082                	c.jr	ra
    1e38:	80141737          	lui	a4,0x80141
    1e3c:	a2270783          	lb	a5,-1502(a4) # 80140a22 <_DATA_LMA_START+0x601322ee>
    1e40:	a2370703          	lb	a4,-1501(a4)
    1e44:	801006b7          	lui	a3,0x80100
    1e48:	0487275b          	bfoz	a4,a4,1,8
    1e4c:	02077713          	andi	a4,a4,32
    1e50:	0047a7db          	bfoz	a5,a5,0,4
    1e54:	50168603          	lb	a2,1281(a3) # 80100501 <_DATA_LMA_START+0x600f1dcd>
    1e58:	8fd9                	c.or	a5,a4
    1e5a:	50068683          	lb	a3,1280(a3)
    1e5e:	34f400a3          	sb	a5,833(s0)
    1e62:	18240783          	lb	a5,386(s0)
    1e66:	01f6f713          	andi	a4,a3,31
    1e6a:	8a7d                	c.andi	a2,31
    1e6c:	4685                	c.li	a3,1
    1e6e:	34e401a3          	sb	a4,835(s0)
    1e72:	34d40023          	sb	a3,832(s0)
    1e76:	34c40123          	sb	a2,834(s0)
    1e7a:	0ff7f793          	andi	a5,a5,255
    1e7e:	4701                	c.li	a4,0
    1e80:	ba57e65b          	bnec	a5,5,1e2c <irq_blc_slave_rx_data+0x54>
    1e84:	17940783          	lb	a5,377(s0)
    1e88:	0ff7f793          	andi	a5,a5,255
    1e8c:	f3c5                	c.bnez	a5,1e2c <irq_blc_slave_rx_data+0x54>
    1e8e:	801417b7          	lui	a5,0x80141
    1e92:	8507a703          	lw	a4,-1968(a5) # 80140850 <_DATA_LMA_START+0x6013211c>
    1e96:	22442783          	lw	a5,548(s0)
    1e9a:	eb8d                	c.bnez	a5,1ecc <irq_blc_slave_rx_data+0xf4>
    1e9c:	26444783          	lbu	a5,612(s0)
    1ea0:	e795                	c.bnez	a5,1ecc <irq_blc_slave_rx_data+0xf4>
    1ea2:	01644783          	lbu	a5,22(s0)
    1ea6:	8d99                	c.sub	a1,a4
    1ea8:	029787b3          	mul	a5,a5,s1
    1eac:	3e878793          	addi	a5,a5,1000
    1eb0:	0792                	c.slli	a5,0x4
    1eb2:	00f5fd63          	bgeu	a1,a5,1ecc <irq_blc_slave_rx_data+0xf4>
    1eb6:	01a45783          	lhu	a5,26(s0)
    1eba:	0792                	c.slli	a5,0x4
    1ebc:	8f1d                	c.sub	a4,a5
    1ebe:	00176713          	ori	a4,a4,1
    1ec2:	4785                	c.li	a5,1
    1ec4:	22e42223          	sw	a4,548(s0)
    1ec8:	2cf40f23          	sb	a5,734(s0)
    1ecc:	801407b7          	lui	a5,0x80140
    1ed0:	2007a783          	lw	a5,512(a5) # 80140200 <_DATA_LMA_START+0x60131acc>
    1ed4:	1e644703          	lbu	a4,486(s0)
    1ed8:	28f42023          	sw	a5,640(s0)
    1edc:	00454783          	lbu	a5,4(a0)
    1ee0:	00387813          	andi	a6,a6,3
    1ee4:	0c37a7db          	bfoz	a5,a5,3,3
    1ee8:	02f70e63          	beq	a4,a5,1f24 <irq_blc_slave_rx_data+0x14c>
    1eec:	1ef40323          	sb	a5,486(s0)
    1ef0:	10000793          	li	a5,256
    1ef4:	1e9400a3          	sb	s1,481(s0)
    1ef8:	1ef413a3          	sh	a5,487(s0)
    1efc:	ec95                	c.bnez	s1,1f38 <irq_blc_slave_rx_data+0x160>
    1efe:	34444783          	lbu	a5,836(s0)
    1f02:	e7ad                	c.bnez	a5,1f6c <irq_blc_slave_rx_data+0x194>
    1f04:	00000713          	li	a4,0
    1f08:	1e944783          	lbu	a5,489(s0)
    1f0c:	d385                	c.beqz	a5,1e2c <irq_blc_slave_rx_data+0x54>
    1f0e:	1e0404a3          	sb	zero,489(s0)
    1f12:	2a040f23          	sb	zero,702(s0)
    1f16:	40b2                	c.lwsp	ra,12(sp)
    1f18:	4422                	c.lwsp	s0,8(sp)
    1f1a:	4492                	c.lwsp	s1,4(sp)
    1f1c:	853a                	c.mv	a0,a4
    1f1e:	0141                	c.addi	sp,16
    1f20:	00008067          	ret
    1f24:	d0e5                	c.beqz	s1,1f04 <irq_blc_slave_rx_data+0x12c>
    1f26:	1e144783          	lbu	a5,481(s0)
    1f2a:	ffe9                	c.bnez	a5,1f04 <irq_blc_slave_rx_data+0x12c>
    1f2c:	10000793          	li	a5,256
    1f30:	1e9400a3          	sb	s1,481(s0)
    1f34:	1ef413a3          	sh	a5,487(s0)
    1f38:	04000793          	li	a5,64
    1f3c:	00f50123          	sb	a5,2(a0)
    1f40:	00386e5b          	bnec	a6,3,1f5c <irq_blc_slave_rx_data+0x184>
    1f44:	0b644783          	lbu	a5,182(s0)
    1f48:	02078863          	beqz	a5,1f78 <irq_blc_slave_rx_data+0x1a0>
    1f4c:	0294dc5b          	beqc	s1,9,1f84 <irq_blc_slave_rx_data+0x1ac>
    1f50:	02c4da5b          	beqc	s1,12,1f84 <irq_blc_slave_rx_data+0x1ac>
    1f54:	0304d85b          	beqc	s1,16,1f84 <irq_blc_slave_rx_data+0x1ac>
    1f58:	00048e63          	beqz	s1,1f74 <irq_blc_slave_rx_data+0x19c>
    1f5c:	23042783          	lw	a5,560(s0)
    1f60:	4705                	c.li	a4,1
    1f62:	0785                	c.addi	a5,1
    1f64:	22f42823          	sw	a5,560(s0)
    1f68:	fa1ff06f          	j	1f08 <irq_blc_slave_rx_data+0x130>
    1f6c:	04000793          	li	a5,64
    1f70:	00f50123          	sb	a5,2(a0)
    1f74:	4705                	c.li	a4,1
    1f76:	bf49                	c.j	1f08 <irq_blc_slave_rx_data+0x130>
    1f78:	0054d65b          	beqc	s1,5,1f84 <irq_blc_slave_rx_data+0x1ac>
    1f7c:	0fb4f793          	andi	a5,s1,251
    1f80:	bc87ec5b          	bnec	a5,8,1f58 <irq_blc_slave_rx_data+0x180>
    1f84:	e05ff0ef          	jal	ra,1d88 <bls_ll_procUpdateReq>
    1f88:	f8f1                	c.bnez	s1,1f5c <irq_blc_slave_rx_data+0x184>
    1f8a:	b7ed                	c.j	1f74 <irq_blc_slave_rx_data+0x19c>

00001f8c <irq_blc_slave_tx>:
    1f8c:	1141                	c.addi	sp,-16
    1f8e:	c422                	c.swsp	s0,8(sp)
    1f90:	00000437          	lui	s0,0x0
    1f94:	17840413          	addi	s0,s0,376 # 178 <_AES_VMA_END>
    1f98:	c606                	c.swsp	ra,12(sp)
    1f9a:	24042783          	lw	a5,576(s0)
    1f9e:	c799                	c.beqz	a5,1fac <irq_blc_slave_tx+0x20>
    1fa0:	18240783          	lb	a5,386(s0)
    1fa4:	0ff7f793          	andi	a5,a5,255
    1fa8:	0057d65b          	beqc	a5,5,1fb4 <irq_blc_slave_tx+0x28>
    1fac:	40b2                	c.lwsp	ra,12(sp)
    1fae:	4422                	c.lwsp	s0,8(sp)
    1fb0:	0141                	c.addi	sp,16
    1fb2:	8082                	c.jr	ra
    1fb4:	23c42783          	lw	a5,572(s0)
    1fb8:	80141737          	lui	a4,0x80141
    1fbc:	f8000693          	li	a3,-128
    1fc0:	a0d70023          	sb	a3,-1536(a4) # 80140a00 <_DATA_LMA_START+0x601322cc>
    1fc4:	00078e63          	beqz	a5,1fe0 <irq_blc_slave_tx+0x54>
    1fc8:	32840793          	addi	a5,s0,808
    1fcc:	22f42c23          	sw	a5,568(s0)
    1fd0:	24042023          	sw	zero,576(s0)
    1fd4:	16040b23          	sb	zero,374(s0)
    1fd8:	40b2                	c.lwsp	ra,12(sp)
    1fda:	4422                	c.lwsp	s0,8(sp)
    1fdc:	0141                	c.addi	sp,16
    1fde:	8082                	c.jr	ra
    1fe0:	32840513          	addi	a0,s0,808
    1fe4:	c11ff0ef          	jal	ra,1bf4 <blt_ll_channel_conn_update>
    1fe8:	fe9ff06f          	j	1fd0 <irq_blc_slave_tx+0x44>

00001fec <blt_push_fifo_hw>:
    1fec:	1101                	c.addi	sp,-32
    1fee:	801416b7          	lui	a3,0x80141
    1ff2:	cc22                	c.swsp	s0,24(sp)
    1ff4:	c84a                	c.swsp	s2,16(sp)
    1ff6:	ce06                	c.swsp	ra,28(sp)
    1ff8:	ca26                	c.swsp	s1,20(sp)
    1ffa:	c64e                	c.swsp	s3,12(sp)
    1ffc:	a0368783          	lb	a5,-1533(a3) # 80140a03 <_DATA_LMA_START+0x601322cf>
    2000:	00000437          	lui	s0,0x0
    2004:	17840413          	addi	s0,s0,376 # 178 <_AES_VMA_END>
    2008:	0cf7f793          	andi	a5,a5,207
    200c:	a0f681a3          	sb	a5,-1533(a3)
    2010:	a0368583          	lb	a1,-1533(a3)
    2014:	34140703          	lb	a4,833(s0)
    2018:	34240783          	lb	a5,834(s0)
    201c:	8f4d                	c.or	a4,a1
    201e:	34340603          	lb	a2,835(s0)
    2022:	0ff77713          	andi	a4,a4,255
    2026:	0207e793          	ori	a5,a5,32
    202a:	a0e681a3          	sb	a4,-1533(a3)
    202e:	80100937          	lui	s2,0x80100
    2032:	0ff7f793          	andi	a5,a5,255
    2036:	50f900a3          	sb	a5,1281(s2) # 80100501 <_DATA_LMA_START+0x600f1dcd>
    203a:	01f67793          	andi	a5,a2,31
    203e:	50f90023          	sb	a5,1280(s2)
    2042:	50090783          	lb	a5,1280(s2)
    2046:	50190683          	lb	a3,1281(s2)
    204a:	2f240483          	lb	s1,754(s0)
    204e:	2f344703          	lbu	a4,755(s0)
    2052:	8f95                	c.sub	a5,a3
    2054:	8c99                	c.sub	s1,a4
    2056:	34040023          	sb	zero,832(s0)
    205a:	8bfd                	c.andi	a5,31
    205c:	88fd                	c.andi	s1,31
    205e:	e399                	c.bnez	a5,2064 <blt_push_fifo_hw+0x78>
    2060:	02049863          	bnez	s1,2090 <blt_push_fifo_hw+0xa4>
    2064:	80100737          	lui	a4,0x80100
    2068:	50070783          	lb	a5,1280(a4) # 80100500 <_DATA_LMA_START+0x600f1dcc>
    206c:	2f340683          	lb	a3,755(s0)
    2070:	97a6                	c.add	a5,s1
    2072:	0ff7f793          	andi	a5,a5,255
    2076:	50f70023          	sb	a5,1280(a4)
    207a:	94b6                	c.add	s1,a3
    207c:	2e9409a3          	sb	s1,755(s0)
    2080:	40f2                	c.lwsp	ra,28(sp)
    2082:	4462                	c.lwsp	s0,24(sp)
    2084:	44d2                	c.lwsp	s1,20(sp)
    2086:	4942                	c.lwsp	s2,16(sp)
    2088:	49b2                	c.lwsp	s3,12(sp)
    208a:	6105                	c.addi16sp	sp,32
    208c:	00008067          	ret
    2090:	2f144783          	lbu	a5,753(s0)
    2094:	2ec45683          	lhu	a3,748(s0)
    2098:	2f842503          	lw	a0,760(s0)
    209c:	fff70993          	addi	s3,a4,-1
    20a0:	00f9f7b3          	and	a5,s3,a5
    20a4:	c4d7957f          	maddr32	a0,a5,a3
    20a8:	00600613          	li	a2,6
    20ac:	885f958b          	addigp	a1,-1916 # 80084 <blt_tx_empty_packet>
    20b0:	ab8ff0ef          	jal	ra,1368 <smemcpy>
    20b4:	01f9f713          	andi	a4,s3,31
    20b8:	02076713          	ori	a4,a4,32
    20bc:	50e900a3          	sb	a4,1281(s2)
    20c0:	50190783          	lb	a5,1281(s2)
    20c4:	0785                	c.addi	a5,1
    20c6:	0ff7f793          	andi	a5,a5,255
    20ca:	50f90023          	sb	a5,1280(s2)
    20ce:	bf59                	c.j	2064 <blt_push_fifo_hw+0x78>

000020d0 <blc_calc_remapping_table>:
    20d0:	00000837          	lui	a6,0x0
    20d4:	17880813          	addi	a6,a6,376 # 178 <_AES_VMA_END>
    20d8:	4581                	c.li	a1,0
    20da:	4601                	c.li	a2,0
    20dc:	00000793          	li	a5,0
    20e0:	340802a3          	sb	zero,837(a6)
    20e4:	4037d713          	srai	a4,a5,0x3
    20e8:	972a                	c.add	a4,a0
    20ea:	00074703          	lbu	a4,0(a4)
    20ee:	0077f693          	andi	a3,a5,7
    20f2:	40d75733          	sra	a4,a4,a3
    20f6:	00160693          	addi	a3,a2,1
    20fa:	0007755b          	bbc	a4,0,2104 <blc_calc_remapping_table+0x34>
    20fe:	0ff6f613          	andi	a2,a3,255
    2102:	4585                	c.li	a1,1
    2104:	0785                	c.addi	a5,1
    2106:	bc57efdb          	bnec	a5,37,20e4 <blc_calc_remapping_table+0x14>
    210a:	e199                	c.bnez	a1,2110 <blc_calc_remapping_table+0x40>
    210c:	4501                	c.li	a0,0
    210e:	8082                	c.jr	ra
    2110:	34c802a3          	sb	a2,837(a6)
    2114:	ff9ff06f          	j	210c <blc_calc_remapping_table+0x3c>

00002118 <blt_ll_channelTable_calc>:
    2118:	7179                	c.addi16sp	sp,-48
    211a:	4781                	c.li	a5,0
    211c:	00000693          	li	a3,0
    2120:	4037d713          	srai	a4,a5,0x3
    2124:	972a                	c.add	a4,a0
    2126:	00074703          	lbu	a4,0(a4)
    212a:	0077f813          	andi	a6,a5,7
    212e:	41075733          	sra	a4,a4,a6
    2132:	00168813          	addi	a6,a3,1
    2136:	0007795b          	bbc	a4,0,2148 <blt_ll_channelTable_calc+0x30>
    213a:	1818                	c.addi4spn	a4,sp,48
    213c:	00d70733          	add	a4,a4,a3
    2140:	0ff87693          	andi	a3,a6,255
    2144:	fcf70c23          	sb	a5,-40(a4)
    2148:	0785                	c.addi	a5,1
    214a:	bc57ebdb          	bnec	a5,37,2120 <blt_ll_channelTable_calc+0x8>
    214e:	02560313          	addi	t1,a2,37
    2152:	4701                	c.li	a4,0
    2154:	02400893          	li	a7,36
    2158:	0100006f          	j	2168 <blt_ll_channelTable_calc+0x50>
    215c:	00e60023          	sb	a4,0(a2)
    2160:	00160613          	addi	a2,a2,1
    2164:	04c30a63          	beq	t1,a2,21b8 <blt_ll_channelTable_calc+0xa0>
    2168:	00b70733          	add	a4,a4,a1
    216c:	0ff77713          	andi	a4,a4,255
    2170:	00e8f663          	bgeu	a7,a4,217c <blt_ll_channelTable_calc+0x64>
    2174:	fdb70713          	addi	a4,a4,-37
    2178:	0ff77713          	andi	a4,a4,255
    217c:	00375793          	srli	a5,a4,0x3
    2180:	97aa                	c.add	a5,a0
    2182:	0007c783          	lbu	a5,0(a5)
    2186:	00777813          	andi	a6,a4,7
    218a:	4107d7b3          	sra	a5,a5,a6
    218e:	fc07f75b          	bbs	a5,0,215c <blt_ll_channelTable_calc+0x44>
    2192:	87ba                	c.mv	a5,a4
    2194:	00d76863          	bltu	a4,a3,21a4 <blt_ll_channelTable_calc+0x8c>
    2198:	40d787b3          	sub	a5,a5,a3
    219c:	0ff7f793          	andi	a5,a5,255
    21a0:	fed7fce3          	bgeu	a5,a3,2198 <blt_ll_channelTable_calc+0x80>
    21a4:	03010f13          	addi	t5,sp,48
    21a8:	97fa                	c.add	a5,t5
    21aa:	fd878783          	lb	a5,-40(a5)
    21ae:	0605                	c.addi	a2,1
    21b0:	fef60fa3          	sb	a5,-1(a2)
    21b4:	fac31ae3          	bne	t1,a2,2168 <blt_ll_channelTable_calc+0x50>
    21b8:	6145                	c.addi16sp	sp,48
    21ba:	8082                	c.jr	ra

000021bc <connUpdate_mapUpdate_proc>:
    21bc:	1141                	c.addi	sp,-16
    21be:	c422                	c.swsp	s0,8(sp)
    21c0:	00000437          	lui	s0,0x0
    21c4:	c606                	c.swsp	ra,12(sp)
    21c6:	c226                	c.swsp	s1,4(sp)
    21c8:	17840413          	addi	s0,s0,376 # 178 <_AES_VMA_END>
    21cc:	26144783          	lbu	a5,609(s0)
    21d0:	0a17d05b          	beqc	a5,1,2270 <connUpdate_mapUpdate_proc+0xb4>
    21d4:	0227d05b          	beqc	a5,2,21f4 <connUpdate_mapUpdate_proc+0x38>
    21d8:	0037e85b          	bnec	a5,3,21e8 <connUpdate_mapUpdate_proc+0x2c>
    21dc:	27c45703          	lhu	a4,636(s0)
    21e0:	27e45783          	lhu	a5,638(s0)
    21e4:	0cf70a63          	beq	a4,a5,22b8 <connUpdate_mapUpdate_proc+0xfc>
    21e8:	40b2                	c.lwsp	ra,12(sp)
    21ea:	4422                	c.lwsp	s0,8(sp)
    21ec:	4492                	c.lwsp	s1,4(sp)
    21ee:	0141                	c.addi	sp,16
    21f0:	00008067          	ret
    21f4:	27c45703          	lhu	a4,636(s0)
    21f8:	27e45783          	lhu	a5,638(s0)
    21fc:	fef716e3          	bne	a4,a5,21e8 <connUpdate_mapUpdate_proc+0x2c>
    2200:	1fa45783          	lhu	a5,506(s0)
    2204:	00027737          	lui	a4,0x27
    2208:	10070713          	addi	a4,a4,256 # 27100 <BIN_SIZE+0x18910>
    220c:	02e787b3          	mul	a5,a5,a4
    2210:	1f645503          	lhu	a0,502(s0)
    2214:	1f845703          	lhu	a4,504(s0)
    2218:	260400a3          	sb	zero,609(s0)
    221c:	20e42823          	sw	a4,528(s0)
    2220:	20f42423          	sw	a5,520(s0)
    2224:	959ff0ef          	jal	ra,1b7c <blt_set_fsmTimeout_intLevel>
    2228:	1f645503          	lhu	a0,502(s0)
    222c:	6715                	c.lui	a4,0x5
    222e:	e2070713          	addi	a4,a4,-480 # 4e20 <main+0x88>
    2232:	02e506b3          	mul	a3,a0,a4
    2236:	20042783          	lw	a5,512(s0)
    223a:	20c42803          	lw	a6,524(s0)
    223e:	1f445603          	lhu	a2,500(s0)
    2242:	97c2                	c.add	a5,a6
    2244:	1ea44583          	lbu	a1,490(s0)
    2248:	c4e617ff          	maddr32	a5,a2,a4
    224c:	40d787b3          	sub	a5,a5,a3
    2250:	20f42023          	sw	a5,512(s0)
    2254:	20d42623          	sw	a3,524(s0)
    2258:	efcff0ef          	jal	ra,1954 <bls_ll_setNewConnection_timing>
    225c:	24842783          	lw	a5,584(s0)
    2260:	6709                	c.lui	a4,0x2
    2262:	8fd9                	c.or	a5,a4
    2264:	22042223          	sw	zero,548(s0)
    2268:	24f42423          	sw	a5,584(s0)
    226c:	f7dff06f          	j	21e8 <connUpdate_mapUpdate_proc+0x2c>
    2270:	27c45703          	lhu	a4,636(s0)
    2274:	27e45783          	lhu	a5,638(s0)
    2278:	f6f718e3          	bne	a4,a5,21e8 <connUpdate_mapUpdate_proc+0x2c>
    227c:	26e40493          	addi	s1,s0,622
    2280:	4615                	c.li	a2,5
    2282:	27340593          	addi	a1,s0,627
    2286:	8526                	c.mv	a0,s1
    2288:	260400a3          	sb	zero,609(s0)
    228c:	8dcff0ef          	jal	ra,1368 <smemcpy>
    2290:	26a44783          	lbu	a5,618(s0)
    2294:	ef95                	c.bnez	a5,22d0 <connUpdate_mapUpdate_proc+0x114>
    2296:	26d44583          	lbu	a1,621(s0)
    229a:	29040613          	addi	a2,s0,656
    229e:	8526                	c.mv	a0,s1
    22a0:	e79ff0ef          	jal	ra,2118 <blt_ll_channelTable_calc>
    22a4:	24842783          	lw	a5,584(s0)
    22a8:	6705                	c.lui	a4,0x1
    22aa:	8fd9                	c.or	a5,a4
    22ac:	22042223          	sw	zero,548(s0)
    22b0:	24f42423          	sw	a5,584(s0)
    22b4:	f35ff06f          	j	21e8 <connUpdate_mapUpdate_proc+0x2c>
    22b8:	34842303          	lw	t1,840(s0)
    22bc:	260400a3          	sb	zero,609(s0)
    22c0:	f20304e3          	beqz	t1,21e8 <connUpdate_mapUpdate_proc+0x2c>
    22c4:	4422                	c.lwsp	s0,8(sp)
    22c6:	40b2                	c.lwsp	ra,12(sp)
    22c8:	4492                	c.lwsp	s1,4(sp)
    22ca:	0141                	c.addi	sp,16
    22cc:	00030067          	jr	t1
    22d0:	8526                	c.mv	a0,s1
    22d2:	3bfd                	c.jal	20d0 <blc_calc_remapping_table>
    22d4:	fd1ff06f          	j	22a4 <connUpdate_mapUpdate_proc+0xe8>

000022d8 <blt_brx_post>:
    22d8:	1141                	c.addi	sp,-16
    22da:	c422                	c.swsp	s0,8(sp)
    22dc:	00000437          	lui	s0,0x0
    22e0:	17840413          	addi	s0,s0,376 # 178 <_AES_VMA_END>
    22e4:	c606                	c.swsp	ra,12(sp)
    22e6:	34c42783          	lw	a5,844(s0)
    22ea:	c399                	c.beqz	a5,22f0 <blt_brx_post+0x18>
    22ec:	4501                	c.li	a0,0
    22ee:	9782                	c.jalr	a5
    22f0:	27c41703          	lh	a4,636(s0)
    22f4:	26b40783          	lb	a5,619(s0)
    22f8:	801416b7          	lui	a3,0x80141
    22fc:	f8000613          	li	a2,-128
    2300:	a0c68023          	sb	a2,-1536(a3) # 80140a00 <_DATA_LMA_START+0x601322cc>
    2304:	567d                	c.li	a2,-1
    2306:	a2c69023          	sh	a2,-1504(a3)
    230a:	0705                	c.addi	a4,1
    230c:	0785                	c.addi	a5,1
    230e:	4699                	c.li	a3,6
    2310:	26e41e23          	sh	a4,636(s0)
    2314:	18d40123          	sb	a3,386(s0)
    2318:	0ff7f793          	andi	a5,a5,255
    231c:	02400713          	li	a4,36
    2320:	0af76c63          	bltu	a4,a5,23d8 <blt_brx_post+0x100>
    2324:	26f405a3          	sb	a5,619(s0)
    2328:	26144783          	lbu	a5,609(s0)
    232c:	0a079c63          	bnez	a5,23e4 <blt_brx_post+0x10c>
    2330:	1e944783          	lbu	a5,489(s0)
    2334:	0a079e63          	bnez	a5,23f0 <blt_brx_post+0x118>
    2338:	22442503          	lw	a0,548(s0)
    233c:	00a035b3          	snez	a1,a0
    2340:	00159593          	slli	a1,a1,0x1
    2344:	ebcff0ef          	jal	ra,1a00 <blt_brx_timing_update>
    2348:	35042783          	lw	a5,848(s0)
    234c:	cf81                	c.beqz	a5,2364 <blt_brx_post+0x8c>
    234e:	80140737          	lui	a4,0x80140
    2352:	20072683          	lw	a3,512(a4) # 80140200 <_DATA_LMA_START+0x60131acc>
    2356:	35442703          	lw	a4,852(s0)
    235a:	40f687b3          	sub	a5,a3,a5
    235e:	0712                	c.slli	a4,0x4
    2360:	0af76263          	bltu	a4,a5,2404 <blt_brx_post+0x12c>
    2364:	1ef44783          	lbu	a5,495(s0)
    2368:	0817d85b          	beqc	a5,1,23f8 <blt_brx_post+0x120>
    236c:	0627d25b          	beqc	a5,2,23d0 <blt_brx_post+0xf8>
    2370:	801407b7          	lui	a5,0x80140
    2374:	2007a783          	lw	a5,512(a5) # 80140200 <_DATA_LMA_START+0x60131acc>
    2378:	28042683          	lw	a3,640(s0)
    237c:	20842703          	lw	a4,520(s0)
    2380:	40d787b3          	sub	a5,a5,a3
    2384:	04f76663          	bltu	a4,a5,23d0 <blt_brx_post+0xf8>
    2388:	34044783          	lbu	a5,832(s0)
    238c:	ef95                	c.bnez	a5,23c8 <blt_brx_post+0xf0>
    238e:	80141737          	lui	a4,0x80141
    2392:	a2270783          	lb	a5,-1502(a4) # 80140a22 <_DATA_LMA_START+0x601322ee>
    2396:	a2370703          	lb	a4,-1501(a4)
    239a:	801006b7          	lui	a3,0x80100
    239e:	50168603          	lb	a2,1281(a3) # 80100501 <_DATA_LMA_START+0x600f1dcd>
    23a2:	0487275b          	bfoz	a4,a4,1,8
    23a6:	50068683          	lb	a3,1280(a3)
    23aa:	02077713          	andi	a4,a4,32
    23ae:	0047a7db          	bfoz	a5,a5,0,4
    23b2:	8fd9                	c.or	a5,a4
    23b4:	01f67613          	andi	a2,a2,31
    23b8:	01f6f713          	andi	a4,a3,31
    23bc:	34f400a3          	sb	a5,833(s0)
    23c0:	34c40123          	sb	a2,834(s0)
    23c4:	34e401a3          	sb	a4,835(s0)
    23c8:	40b2                	c.lwsp	ra,12(sp)
    23ca:	4422                	c.lwsp	s0,8(sp)
    23cc:	0141                	c.addi	sp,16
    23ce:	8082                	c.jr	ra
    23d0:	c70ff0ef          	jal	ra,1840 <blt_terminate_proc>
    23d4:	fb5ff06f          	j	2388 <blt_brx_post+0xb0>
    23d8:	26144783          	lbu	a5,609(s0)
    23dc:	260405a3          	sb	zero,619(s0)
    23e0:	f40788e3          	beqz	a5,2330 <blt_brx_post+0x58>
    23e4:	dd9ff0ef          	jal	ra,21bc <connUpdate_mapUpdate_proc>
    23e8:	1e944783          	lbu	a5,489(s0)
    23ec:	f40786e3          	beqz	a5,2338 <blt_brx_post+0x60>
    23f0:	f48ff0ef          	jal	ra,1b38 <blt_brx_timing_update_init>
    23f4:	f55ff06f          	j	2348 <blt_brx_post+0x70>
    23f8:	cd8ff0ef          	jal	ra,18d0 <blt_terminate_pending_proc>
    23fc:	1ef44783          	lbu	a5,495(s0)
    2400:	f6dff06f          	j	236c <blt_brx_post+0x94>
    2404:	00400793          	li	a5,4
    2408:	1ef407a3          	sb	a5,495(s0)
    240c:	34042823          	sw	zero,848(s0)
    2410:	34042a23          	sw	zero,852(s0)
    2414:	34040c23          	sb	zero,856(s0)
    2418:	c28ff0ef          	jal	ra,1840 <blt_terminate_proc>
    241c:	1ef44783          	lbu	a5,495(s0)
    2420:	b417e65b          	bnec	a5,1,236c <blt_brx_post+0x94>
    2424:	fd5ff06f          	j	23f8 <blt_brx_post+0x120>

00002428 <blt_ll_connect_common>:
    2428:	7179                	c.addi16sp	sp,-48
    242a:	d606                	c.swsp	ra,44(sp)
    242c:	d422                	c.swsp	s0,40(sp)
    242e:	d226                	c.swsp	s1,36(sp)
    2430:	d04a                	c.swsp	s2,32(sp)
    2432:	ce4e                	c.swsp	s3,28(sp)
    2434:	cc52                	c.swsp	s4,24(sp)
    2436:	0145c703          	lbu	a4,20(a1)
    243a:	0135c603          	lbu	a2,19(a1)
    243e:	0125c683          	lbu	a3,18(a1)
    2442:	0155c783          	lbu	a5,21(a1)
    2446:	0642                	c.slli	a2,0x10
    2448:	0722                	c.slli	a4,0x8
    244a:	8f51                	c.or	a4,a2
    244c:	8f5d                	c.or	a4,a5
    244e:	01258a13          	addi	s4,a1,18
    2452:	01869793          	slli	a5,a3,0x18
    2456:	84aa                	c.mv	s1,a0
    2458:	8fd9                	c.or	a5,a4
    245a:	842e                	c.mv	s0,a1
    245c:	4611                	c.li	a2,4
    245e:	85d2                	c.mv	a1,s4
    2460:	02450513          	addi	a0,a0,36
    2464:	02f4a423          	sw	a5,40(s1)
    2468:	f01fe0ef          	jal	ra,1368 <smemcpy>
    246c:	01640593          	addi	a1,s0,22
    2470:	00300613          	li	a2,3
    2474:	02c48513          	addi	a0,s1,44
    2478:	ef1fe0ef          	jal	ra,1368 <smemcpy>
    247c:	02740783          	lb	a5,39(s0)
    2480:	00e48993          	addi	s3,s1,14
    2484:	02240413          	addi	s0,s0,34
    2488:	8bfd                	c.andi	a5,31
    248a:	4615                	c.li	a2,5
    248c:	85a2                	c.mv	a1,s0
    248e:	854e                	c.mv	a0,s3
    2490:	00000937          	lui	s2,0x0
    2494:	00f486a3          	sb	a5,13(s1)
    2498:	17890913          	addi	s2,s2,376 # 178 <_AES_VMA_END>
    249c:	ecdfe0ef          	jal	ra,1368 <smemcpy>
    24a0:	18990783          	lb	a5,393(s2)
    24a4:	0ff7f793          	andi	a5,a5,255
    24a8:	cb81                	c.beqz	a5,24b8 <blt_ll_connect_common+0x90>
    24aa:	24892783          	lw	a5,584(s2)
    24ae:	80000737          	lui	a4,0x80000
    24b2:	8fd9                	c.or	a5,a4
    24b4:	24f92423          	sw	a5,584(s2)
    24b8:	18a90783          	lb	a5,394(s2)
    24bc:	0ff7f793          	andi	a5,a5,255
    24c0:	c791                	c.beqz	a5,24cc <blt_ll_connect_common+0xa4>
    24c2:	18990783          	lb	a5,393(s2)
    24c6:	0ff7f793          	andi	a5,a5,255
    24ca:	eb8d                	c.bnez	a5,24fc <blt_ll_connect_common+0xd4>
    24cc:	00d4c583          	lbu	a1,13(s1)
    24d0:	03048613          	addi	a2,s1,48
    24d4:	8522                	c.mv	a0,s0
    24d6:	00049523          	sh	zero,10(s1)
    24da:	393d                	c.jal	2118 <blt_ll_channelTable_calc>
    24dc:	e59fe0ef          	jal	ra,1334 <blt_reset_conn_phy_param.constprop.17>
    24e0:	00049e23          	sh	zero,28(s1)
    24e4:	50b2                	c.lwsp	ra,44(sp)
    24e6:	5422                	c.lwsp	s0,40(sp)
    24e8:	34090e23          	sb	zero,860(s2)
    24ec:	5492                	c.lwsp	s1,36(sp)
    24ee:	5902                	c.lwsp	s2,32(sp)
    24f0:	49f2                	c.lwsp	s3,28(sp)
    24f2:	4a62                	c.lwsp	s4,24(sp)
    24f4:	4501                	c.li	a0,0
    24f6:	6145                	c.addi16sp	sp,48
    24f8:	00008067          	ret
    24fc:	0068                	c.addi4spn	a0,sp,12
    24fe:	4785                	c.li	a5,1
    2500:	4611                	c.li	a2,4
    2502:	85d2                	c.mv	a1,s4
    2504:	00f48523          	sb	a5,10(s1)
    2508:	e61fe0ef          	jal	ra,1368 <smemcpy>
    250c:	4732                	c.lwsp	a4,12(sp)
    250e:	854e                	c.mv	a0,s3
    2510:	01075793          	srli	a5,a4,0x10
    2514:	8fb9                	c.xor	a5,a4
    2516:	00f49d23          	sh	a5,26(s1)
    251a:	3e5d                	c.jal	20d0 <blc_calc_remapping_table>
    251c:	fc1ff06f          	j	24dc <blt_ll_connect_common+0xb4>

00002520 <bls_ll_setAdvEnable>:
    2520:	000007b7          	lui	a5,0x0
    2524:	17878793          	addi	a5,a5,376 # 178 <_AES_VMA_END>
    2528:	17b78703          	lb	a4,379(a5)
    252c:	4c17705b          	bbs	a4,1,25ec <bls_ll_setAdvEnable+0xcc>
    2530:	0ff57613          	andi	a2,a0,255
    2534:	0785745b          	bbc	a0,24,259c <bls_ll_setAdvEnable+0x7c>
    2538:	80100737          	lui	a4,0x80100
    253c:	f8000693          	li	a3,-128
    2540:	50d700a3          	sb	a3,1281(a4) # 80100501 <_DATA_LMA_START+0x600f1dcd>
    2544:	80141737          	lui	a4,0x80141
    2548:	a0071e23          	sh	zero,-1508(a4) # 80140a1c <_DATA_LMA_START+0x601322e8>
    254c:	56fd                	c.li	a3,-1
    254e:	801405b7          	lui	a1,0x80140
    2552:	a2d71023          	sh	a3,-1504(a4)
    2556:	66a1                	c.lui	a3,0x8
    2558:	2005a703          	lw	a4,512(a1) # 80140200 <_DATA_LMA_START+0x60131acc>
    255c:	d0068693          	addi	a3,a3,-768 # 7d00 <_RAMCODE_VMA_END+0x19fe>
    2560:	9736                	c.add	a4,a3
    2562:	36e7ac23          	sw	a4,888(a5)
    2566:	18178703          	lb	a4,385(a5)
    256a:	0ff77713          	andi	a4,a4,255
    256e:	ce39                	c.beqz	a2,25cc <bls_ll_setAdvEnable+0xac>
    2570:	00175a5b          	beqc	a4,1,2584 <bls_ll_setAdvEnable+0x64>
    2574:	00100713          	li	a4,1
    2578:	18e780a3          	sb	a4,385(a5)
    257c:	2005a703          	lw	a4,512(a1)
    2580:	38e7a823          	sw	a4,912(a5)
    2584:	17b78703          	lb	a4,379(a5)
    2588:	4501                	c.li	a0,0
    258a:	0ff77713          	andi	a4,a4,255
    258e:	00176713          	ori	a4,a4,1
    2592:	16e78da3          	sb	a4,379(a5)
    2596:	16c78823          	sb	a2,368(a5)
    259a:	8082                	c.jr	ra
    259c:	18178703          	lb	a4,385(a5)
    25a0:	0ff77713          	andi	a4,a4,255
    25a4:	db51                	c.beqz	a4,2538 <bls_ll_setAdvEnable+0x18>
    25a6:	18178703          	lb	a4,385(a5)
    25aa:	0ff77713          	andi	a4,a4,255
    25ae:	b817555b          	beqc	a4,1,2538 <bls_ll_setAdvEnable+0x18>
    25b2:	17b78703          	lb	a4,379(a5)
    25b6:	4501                	c.li	a0,0
    25b8:	0ff77713          	andi	a4,a4,255
    25bc:	00176713          	ori	a4,a4,1
    25c0:	16e78da3          	sb	a4,379(a5)
    25c4:	16c78823          	sb	a2,368(a5)
    25c8:	00008067          	ret
    25cc:	df45                	c.beqz	a4,2584 <bls_ll_setAdvEnable+0x64>
    25ce:	180780a3          	sb	zero,385(a5)
    25d2:	17b78703          	lb	a4,379(a5)
    25d6:	4501                	c.li	a0,0
    25d8:	0ff77713          	andi	a4,a4,255
    25dc:	00176713          	ori	a4,a4,1
    25e0:	16e78da3          	sb	a4,379(a5)
    25e4:	16c78823          	sb	a2,368(a5)
    25e8:	00008067          	ret
    25ec:	4531                	c.li	a0,12
    25ee:	8082                	c.jr	ra

000025f0 <irq_ll_system_timer>:
    25f0:	000007b7          	lui	a5,0x0
    25f4:	17878793          	addi	a5,a5,376 # 178 <_AES_VMA_END>
    25f8:	18178703          	lb	a4,385(a5)
    25fc:	0ff77713          	andi	a4,a4,255
    2600:	0087545b          	beqc	a4,8,2608 <irq_ll_system_timer+0x18>
    2604:	00008067          	ret
    2608:	3947a303          	lw	t1,916(a5)
    260c:	fe030ce3          	beqz	t1,2604 <irq_ll_system_timer+0x14>
    2610:	00030067          	jr	t1

00002614 <blt_event_callback_func>:
    2614:	000007b7          	lui	a5,0x0
    2618:	17878793          	addi	a5,a5,376 # 178 <_AES_VMA_END>
    261c:	3a87a683          	lw	a3,936(a5)
    2620:	872a                	c.mv	a4,a0
    2622:	ca89                	c.beqz	a3,2634 <blt_event_callback_func+0x20>
    2624:	4785                	c.li	a5,1
    2626:	00a797b3          	sll	a5,a5,a0
    262a:	8ff5                	c.and	a5,a3
    262c:	00079c63          	bnez	a5,2644 <blt_event_callback_func+0x30>
    2630:	00008067          	ret
    2634:	0ca787db          	lea.w	a5,a5,a0
    2638:	3ac7a303          	lw	t1,940(a5)
    263c:	fe030ae3          	beqz	t1,2630 <blt_event_callback_func+0x1c>
    2640:	00030067          	jr	t1
    2644:	01000537          	lui	a0,0x1000
    2648:	00e56533          	or	a0,a0,a4
    264c:	20004317          	auipc	t1,0x20004
    2650:	1a030067          	jr	416(t1) # 200067ec <blc_hci_send_event>

00002654 <trng_rand>:
    2654:	000006b7          	lui	a3,0x0
    2658:	17868693          	addi	a3,a3,376 # 178 <_AES_VMA_END>
    265c:	4006a783          	lw	a5,1024(a3)
    2660:	6641                	c.lui	a2,0x10
    2662:	167d                	c.addi	a2,-1
    2664:	65a5                	c.lui	a1,0x9
    2666:	3fc6a703          	lw	a4,1020(a3)
    266a:	00c7f533          	and	a0,a5,a2
    266e:	06958593          	addi	a1,a1,105 # 9069 <_RAMCODE_VMA_END+0x2d67>
    2672:	83c1                	c.srli	a5,0x10
    2674:	c4b517ff          	maddr32	a5,a0,a1
    2678:	6591                	c.lui	a1,0x4
    267a:	8e79                	c.and	a2,a4
    267c:	65058593          	addi	a1,a1,1616 # 4650 <blt_sdk_main_loop+0x268>
    2680:	8341                	c.srli	a4,0x10
    2682:	c4b6177f          	maddr32	a4,a2,a1
    2686:	80140637          	lui	a2,0x80140
    268a:	20062503          	lw	a0,512(a2) # 80140200 <_DATA_LMA_START+0x60131acc>
    268e:	01079613          	slli	a2,a5,0x10
    2692:	963a                	c.add	a2,a4
    2694:	3ee6ae23          	sw	a4,1020(a3)
    2698:	40f6a023          	sw	a5,1024(a3)
    269c:	8d31                	c.xor	a0,a2
    269e:	8082                	c.jr	ra

000026a0 <rf_set_rxmode>:
    26a0:	801417b7          	lui	a5,0x80141
    26a4:	04500713          	li	a4,69
    26a8:	a0e78123          	sb	a4,-1534(a5) # 80140a02 <_DATA_LMA_START+0x601322ce>
    26ac:	c2078703          	lb	a4,-992(a5)
    26b0:	0ff77713          	andi	a4,a4,255
    26b4:	00876713          	ori	a4,a4,8
    26b8:	c2e78023          	sb	a4,-992(a5)
    26bc:	a0278703          	lb	a4,-1534(a5)
    26c0:	0ff77713          	andi	a4,a4,255
    26c4:	02076713          	ori	a4,a4,32
    26c8:	a0e78123          	sb	a4,-1534(a5)
    26cc:	82878703          	lb	a4,-2008(a5)
    26d0:	0ff77713          	andi	a4,a4,255
    26d4:	00176713          	ori	a4,a4,1
    26d8:	82e78423          	sb	a4,-2008(a5)
    26dc:	00008067          	ret

000026e0 <pm_tim_recover_32k_rc>:
    26e0:	000007b7          	lui	a5,0x0
    26e4:	17878793          	addi	a5,a5,376 # 178 <_AES_VMA_END>
    26e8:	4087a703          	lw	a4,1032(a5)
    26ec:	4347c603          	lbu	a2,1076(a5)
    26f0:	4047a583          	lw	a1,1028(a5)
    26f4:	40e50733          	sub	a4,a0,a4
    26f8:	4307a683          	lw	a3,1072(a5)
    26fc:	ee01                	c.bnez	a2,2714 <pm_tim_recover_32k_rc+0x34>
    26fe:	02d70633          	mul	a2,a4,a3
    2702:	42a7a023          	sw	a0,1056(a5)
    2706:	40e7ae23          	sw	a4,1052(a5)
    270a:	00465693          	srli	a3,a2,0x4
    270e:	95b6                	c.add	a1,a3
    2710:	852e                	c.mv	a0,a1
    2712:	8082                	c.jr	ra
    2714:	00475613          	srli	a2,a4,0x4
    2718:	c4d615ff          	maddr32	a1,a2,a3
    271c:	42a7a023          	sw	a0,1056(a5)
    2720:	40e7ae23          	sw	a4,1052(a5)
    2724:	852e                	c.mv	a0,a1
    2726:	8082                	c.jr	ra

00002728 <pm_get_32k_rc_calib>:
    2728:	801407b7          	lui	a5,0x80140
    272c:	2147a703          	lw	a4,532(a5) # 80140214 <_DATA_LMA_START+0x60131ae0>
    2730:	df75                	c.beqz	a4,272c <pm_get_32k_rc_calib+0x4>
    2732:	2147a503          	lw	a0,532(a5)
    2736:	000007b7          	lui	a5,0x0
    273a:	17878793          	addi	a5,a5,376 # 178 <_AES_VMA_END>
    273e:	4187a703          	lw	a4,1048(a5)
    2742:	42a7a423          	sw	a0,1064(a5)
    2746:	0512                	c.slli	a0,0x4
    2748:	cb11                	c.beqz	a4,275c <pm_get_32k_rc_calib+0x34>
    274a:	42c7c603          	lbu	a2,1068(a5)
    274e:	4691                	c.li	a3,4
    2750:	8d19                	c.sub	a0,a4
    2752:	8e91                	c.sub	a3,a2
    2754:	40d55533          	sra	a0,a0,a3
    2758:	00e50533          	add	a0,a0,a4
    275c:	40a7ac23          	sw	a0,1048(a5)
    2760:	40c7a783          	lw	a5,1036(a5)
    2764:	8511                	c.srai	a0,0x4
    2766:	02f507b3          	mul	a5,a0,a5
    276a:	87c9                	c.srai	a5,0x12
    276c:	953e                	c.add	a0,a5
    276e:	8082                	c.jr	ra

00002770 <pm_update_32k_rc_sleep_tick>:
    2770:	000007b7          	lui	a5,0x0
    2774:	17878793          	addi	a5,a5,376 # 178 <_AES_VMA_END>
    2778:	4207a703          	lw	a4,1056(a5)
    277c:	42c7c683          	lbu	a3,1068(a5)
    2780:	40e50733          	sub	a4,a0,a4
    2784:	42e7a223          	sw	a4,1060(a5)
    2788:	e681                	c.bnez	a3,2790 <pm_update_32k_rc_sleep_tick+0x20>
    278a:	4047a703          	lw	a4,1028(a5)
    278e:	eb19                	c.bnez	a4,27a4 <pm_update_32k_rc_sleep_tick+0x34>
    2790:	0015e593          	ori	a1,a1,1
    2794:	42078623          	sb	zero,1068(a5)
    2798:	40a7a423          	sw	a0,1032(a5)
    279c:	40b7a223          	sw	a1,1028(a5)
    27a0:	00008067          	ret
    27a4:	4087a703          	lw	a4,1032(a5)
    27a8:	6691                	c.lui	a3,0x4
    27aa:	40e50733          	sub	a4,a0,a4
    27ae:	6c07275b          	bfoz	a4,a4,27,0
    27b2:	e8068693          	addi	a3,a3,-384 # 3e80 <pm_sleep_start+0x134>
    27b6:	fee6f5e3          	bgeu	a3,a4,27a0 <pm_update_32k_rc_sleep_tick+0x30>
    27ba:	0015e593          	ori	a1,a1,1
    27be:	42078623          	sb	zero,1068(a5)
    27c2:	40a7a423          	sw	a0,1032(a5)
    27c6:	40b7a223          	sw	a1,1028(a5)
    27ca:	bfd9                	c.j	27a0 <pm_update_32k_rc_sleep_tick+0x30>

000027cc <rf_set_ble_channel>:
    27cc:	80141737          	lui	a4,0x80141
    27d0:	0ff57793          	andi	a5,a0,255
    27d4:	80f706a3          	sb	a5,-2035(a4) # 8014080d <_DATA_LMA_START+0x601320d9>
    27d8:	4729                	c.li	a4,10
    27da:	0aa75163          	bge	a4,a0,287c <rf_set_ble_channel+0xb0>
    27de:	02400693          	li	a3,36
    27e2:	02a6d363          	bge	a3,a0,2808 <rf_set_ble_channel+0x3c>
    27e6:	105553db          	beqc	a0,37,28ec <rf_set_ble_channel+0x120>
    27ea:	0e655bdb          	beqc	a0,38,28e0 <rf_set_ble_channel+0x114>
    27ee:	107555db          	beqc	a0,39,28f8 <rf_set_ble_channel+0x12c>
    27f2:	fcd78693          	addi	a3,a5,-51
    27f6:	0ff6f693          	andi	a3,a3,255
    27fa:	00d76b63          	bltu	a4,a3,2810 <rf_set_ble_channel+0x44>
    27fe:	fc378513          	addi	a0,a5,-61
    2802:	1c05355b          	bfos	a0,a0,7,0
    2806:	a029                	c.j	2810 <rf_set_ble_channel+0x44>
    2808:	00378513          	addi	a0,a5,3
    280c:	1c05355b          	bfos	a0,a0,7,0
    2810:	6785                	c.lui	a5,0x1
    2812:	96078713          	addi	a4,a5,-1696 # 960 <prepare_pkt_current_len>
    2816:	0475355b          	bfos	a0,a0,1,7
    281a:	953a                	c.add	a0,a4
    281c:	9d778713          	addi	a4,a5,-1577
    2820:	00151813          	slli	a6,a0,0x1
    2824:	02000693          	li	a3,32
    2828:	06a77c63          	bgeu	a4,a0,28a0 <rf_set_ble_channel+0xd4>
    282c:	801417b7          	lui	a5,0x80141
    2830:	e4478603          	lb	a2,-444(a5) # 80140e44 <_DATA_LMA_START+0x60132710>
    2834:	0ff67613          	andi	a2,a2,255
    2838:	8c9fa70b          	lbugp	a4,-1848 # 800c8 <g_single_tong_freqoffset>
    283c:	00166613          	ori	a2,a2,1
    2840:	e4c78223          	sb	a2,-444(a5)
    2844:	e4478583          	lb	a1,-444(a5)
    2848:	9742                	c.add	a4,a6
    284a:	0477265b          	bfoz	a2,a4,1,7
    284e:	8985                	c.andi	a1,1
    2850:	8e4d                	c.or	a2,a1
    2852:	e4c78223          	sb	a2,-444(a5)
    2856:	e4578603          	lb	a2,-443(a5)
    285a:	3877275b          	bfoz	a4,a4,14,7
    285e:	0c067613          	andi	a2,a2,192
    2862:	8f51                	c.or	a4,a2
    2864:	e4e782a3          	sb	a4,-443(a5)
    2868:	e2978703          	lb	a4,-471(a5)
    286c:	03f77713          	andi	a4,a4,63
    2870:	8ed9                	c.or	a3,a4
    2872:	0ff6f693          	andi	a3,a3,255
    2876:	e2d784a3          	sb	a3,-471(a5)
    287a:	8082                	c.jr	ra
    287c:	00278513          	addi	a0,a5,2
    2880:	1c05355b          	bfos	a0,a0,7,0
    2884:	6785                	c.lui	a5,0x1
    2886:	96078713          	addi	a4,a5,-1696 # 960 <prepare_pkt_current_len>
    288a:	0475355b          	bfos	a0,a0,1,7
    288e:	953a                	c.add	a0,a4
    2890:	9d778713          	addi	a4,a5,-1577
    2894:	00151813          	slli	a6,a0,0x1
    2898:	02000693          	li	a3,32
    289c:	f8a768e3          	bltu	a4,a0,282c <rf_set_ble_channel+0x60>
    28a0:	9be78713          	addi	a4,a5,-1602
    28a4:	04000693          	li	a3,64
    28a8:	f8a762e3          	bltu	a4,a0,282c <rf_set_ble_channel+0x60>
    28ac:	9a078713          	addi	a4,a5,-1632
    28b0:	06000693          	li	a3,96
    28b4:	f6a76ce3          	bltu	a4,a0,282c <rf_set_ble_channel+0x60>
    28b8:	98278713          	addi	a4,a5,-1662
    28bc:	f8000693          	li	a3,-128
    28c0:	f6a766e3          	bltu	a4,a0,282c <rf_set_ble_channel+0x60>
    28c4:	96478713          	addi	a4,a5,-1692
    28c8:	fa000693          	li	a3,-96
    28cc:	f6a760e3          	bltu	a4,a0,282c <rf_set_ble_channel+0x60>
    28d0:	94b78793          	addi	a5,a5,-1717
    28d4:	5681                	c.li	a3,-32
    28d6:	f4a7fbe3          	bgeu	a5,a0,282c <rf_set_ble_channel+0x60>
    28da:	fc000693          	li	a3,-64
    28de:	b7b9                	c.j	282c <rf_set_ble_channel+0x60>
    28e0:	6705                	c.lui	a4,0x1
    28e2:	2f470813          	addi	a6,a4,756 # 12f4 <_RETENTION_DATA_VMA_END+0xbc>
    28e6:	fa000693          	li	a3,-96
    28ea:	b789                	c.j	282c <rf_set_ble_channel+0x60>
    28ec:	6705                	c.lui	a4,0x1
    28ee:	2c470813          	addi	a6,a4,708 # 12c4 <_RETENTION_DATA_VMA_END+0x8c>
    28f2:	fc000693          	li	a3,-64
    28f6:	bf1d                	c.j	282c <rf_set_ble_channel+0x60>
    28f8:	6705                	c.lui	a4,0x1
    28fa:	36070813          	addi	a6,a4,864 # 1360 <smemset.constprop.15+0x8>
    28fe:	06000693          	li	a3,96
    2902:	b72d                	c.j	282c <rf_set_ble_channel+0x60>

00002904 <blt_ll_start_common>:
    2904:	1141                	c.addi	sp,-16
    2906:	c422                	c.swsp	s0,8(sp)
    2908:	c606                	c.swsp	ra,12(sp)
    290a:	c226                	c.swsp	s1,4(sp)
    290c:	801417b7          	lui	a5,0x80141
    2910:	47700713          	li	a4,1143
    2914:	a0e79e23          	sh	a4,-1508(a5) # 80140a1c <_DATA_LMA_START+0x601322e8>
    2918:	577d                	c.li	a4,-1
    291a:	a2e79023          	sh	a4,-1504(a5)
    291e:	00a54783          	lbu	a5,10(a0) # 100000a <FLASH_SIZE+0xf0000a>
    2922:	00051223          	sh	zero,4(a0)
    2926:	00050323          	sb	zero,6(a0)
    292a:	842a                	c.mv	s0,a0
    292c:	cba5                	c.beqz	a5,299c <blt_ll_start_common+0x98>
    292e:	000004b7          	lui	s1,0x0
    2932:	17848493          	addi	s1,s1,376 # 178 <_AES_VMA_END>
    2936:	01a55603          	lhu	a2,26(a0)
    293a:	01c55583          	lhu	a1,28(a0)
    293e:	4384a783          	lw	a5,1080(s1)
    2942:	0539                	c.addi	a0,14
    2944:	000780e7          	jalr	a5
    2948:	00a40623          	sb	a0,12(s0)
    294c:	1c05355b          	bfos	a0,a0,7,0
    2950:	e7dff0ef          	jal	ra,27cc <rf_set_ble_channel>
    2954:	24c4d783          	lhu	a5,588(s1)
    2958:	80141737          	lui	a4,0x80141
    295c:	0791                	c.addi	a5,4
    295e:	0ff7f793          	andi	a5,a5,255
    2962:	82f708a3          	sb	a5,-1999(a4) # 80140831 <_DATA_LMA_START+0x601320fd>
    2966:	43c4a783          	lw	a5,1084(s1)
    296a:	c399                	c.beqz	a5,2970 <blt_ll_start_common+0x6c>
    296c:	000780e7          	jalr	a5
    2970:	541c                	c.lw	a5,40(s0)
    2972:	80141737          	lui	a4,0x80141
    2976:	80f72423          	sw	a5,-2040(a4) # 80140808 <_DATA_LMA_START+0x601320d4>
    297a:	c2570783          	lb	a5,-987(a4)
    297e:	4501                	c.li	a0,0
    2980:	0ff7f793          	andi	a5,a5,255
    2984:	0017e793          	ori	a5,a5,1
    2988:	c2f702a3          	sb	a5,-987(a4)
    298c:	545c                	c.lw	a5,44(s0)
    298e:	82f72223          	sw	a5,-2012(a4)
    2992:	40b2                	c.lwsp	ra,12(sp)
    2994:	4422                	c.lwsp	s0,8(sp)
    2996:	4492                	c.lwsp	s1,4(sp)
    2998:	0141                	c.addi	sp,16
    299a:	8082                	c.jr	ra
    299c:	00b54783          	lbu	a5,11(a0)
    29a0:	000004b7          	lui	s1,0x0
    29a4:	97aa                	c.add	a5,a0
    29a6:	0307c503          	lbu	a0,48(a5)
    29aa:	17848493          	addi	s1,s1,376 # 178 <_AES_VMA_END>
    29ae:	00a40623          	sb	a0,12(s0)
    29b2:	bf69                	c.j	294c <blt_ll_start_common+0x48>

000029b4 <rf_start_fsm>:
    29b4:	ffb57713          	andi	a4,a0,-5
    29b8:	08200793          	li	a5,130
    29bc:	04f70463          	beq	a4,a5,2a04 <rf_start_fsm+0x50>
    29c0:	08400793          	li	a5,132
    29c4:	04f50063          	beq	a0,a5,2a04 <rf_start_fsm+0x50>
    29c8:	80141737          	lui	a4,0x80141
    29cc:	a0c72c23          	sw	a2,-1512(a4) # 80140a18 <_DATA_LMA_START+0x601322e4>
    29d0:	a1670783          	lb	a5,-1514(a4)
    29d4:	0ff57513          	andi	a0,a0,255
    29d8:	0ff7f793          	andi	a5,a5,255
    29dc:	0047e793          	ori	a5,a5,4
    29e0:	a0f70b23          	sb	a5,-1514(a4)
    29e4:	a0a70023          	sb	a0,-1536(a4)
    29e8:	cd81                	c.beqz	a1,2a00 <rf_start_fsm+0x4c>
    29ea:	000a07b7          	lui	a5,0xa0
    29ee:	00f5f563          	bgeu	a1,a5,29f8 <rf_start_fsm+0x44>
    29f2:	c01807b7          	lui	a5,0xc0180
    29f6:	95be                	c.add	a1,a5
    29f8:	801007b7          	lui	a5,0x80100
    29fc:	44b7a423          	sw	a1,1096(a5) # 80100448 <_DATA_LMA_START+0x600f1d14>
    2a00:	00008067          	ret
    2a04:	100007b7          	lui	a5,0x10000
    2a08:	80141737          	lui	a4,0x80141
    2a0c:	17fd                	c.addi	a5,-1
    2a0e:	a2f72423          	sw	a5,-1496(a4) # 80140a28 <_DATA_LMA_START+0x601322f4>
    2a12:	bf5d                	c.j	29c8 <rf_start_fsm+0x14>

00002a14 <ble_rx_dma_config>:
    2a14:	801006b7          	lui	a3,0x80100
    2a18:	2000e7b7          	lui	a5,0x2000e
    2a1c:	4586a703          	lw	a4,1112(a3) # 80100458 <_DATA_LMA_START+0x600f1d24>
    2a20:	5e07a783          	lw	a5,1504(a5) # 2000e5e0 <rf_rx_dma_config>
    2a24:	8b3d                	c.andi	a4,15
    2a26:	0792                	c.slli	a5,0x4
    2a28:	8fd9                	c.or	a5,a4
    2a2a:	44f6ac23          	sw	a5,1112(a3)
    2a2e:	8082                	c.jr	ra

00002a30 <ble_tx_dma_config>:
    2a30:	801006b7          	lui	a3,0x80100
    2a34:	2000e7b7          	lui	a5,0x2000e
    2a38:	4446a703          	lw	a4,1092(a3) # 80100444 <_DATA_LMA_START+0x600f1d10>
    2a3c:	5e47a783          	lw	a5,1508(a5) # 2000e5e4 <rf_tx_dma_config>
    2a40:	8b3d                	c.andi	a4,15
    2a42:	0792                	c.slli	a5,0x4
    2a44:	8fd9                	c.or	a5,a4
    2a46:	44f6a223          	sw	a5,1092(a3)
    2a4a:	8082                	c.jr	ra

00002a4c <blc_ll_initBasicMCU>:
    2a4c:	1141                	c.addi	sp,-16
    2a4e:	80140737          	lui	a4,0x80140
    2a52:	c606                	c.swsp	ra,12(sp)
    2a54:	20072783          	lw	a5,512(a4) # 80140200 <_DATA_LMA_START+0x60131acc>
    2a58:	800006b7          	lui	a3,0x80000
    2a5c:	97b6                	c.add	a5,a3
    2a5e:	20f72223          	sw	a5,516(a4)
    2a62:	20870783          	lb	a5,520(a4)
    2a66:	e40026b7          	lui	a3,0xe4002
    2a6a:	0ff7f793          	andi	a5,a5,255
    2a6e:	0017e793          	ori	a5,a5,1
    2a72:	20f70423          	sb	a5,520(a4)
    2a76:	429c                	c.lw	a5,0(a3)
    2a78:	6621                	c.lui	a2,0x8
    2a7a:	8fd1                	c.or	a5,a2
    2a7c:	c29c                	c.sw	a5,0(a3)
    2a7e:	e4000737          	lui	a4,0xe4000
    2a82:	4789                	c.li	a5,2
    2a84:	df5c                	c.sw	a5,60(a4)
    2a86:	c35c                	c.sw	a5,4(a4)
    2a88:	e42007b7          	lui	a5,0xe4200
    2a8c:	0007a023          	sw	zero,0(a5) # e4200000 <_DATA_LMA_START+0xc41f18cc>
    2a90:	fa1ff0ef          	jal	ra,2a30 <ble_tx_dma_config>
    2a94:	40b2                	c.lwsp	ra,12(sp)
    2a96:	0141                	c.addi	sp,16
    2a98:	f7dff06f          	j	2a14 <ble_rx_dma_config>

00002a9c <ble_rf_set_tx_dma>:
    2a9c:	80100737          	lui	a4,0x80100
    2aa0:	50c70783          	lb	a5,1292(a4) # 8010050c <_DATA_LMA_START+0x600f1dd8>
    2aa4:	0ff7f793          	andi	a5,a5,255
    2aa8:	0057e793          	ori	a5,a5,5
    2aac:	50f70623          	sb	a5,1292(a4)
    2ab0:	4ea709a3          	sb	a0,1267(a4)
    2ab4:	4eb70923          	sb	a1,1266(a4)
    2ab8:	883fa7ab          	lwgp	a5,-1920 # 80080 <TXADDR>
    2abc:	000a0737          	lui	a4,0xa0
    2ac0:	00e7f663          	bgeu	a5,a4,2acc <ble_rf_set_tx_dma+0x30>
    2ac4:	c0180737          	lui	a4,0xc0180
    2ac8:	00e787b3          	add	a5,a5,a4
    2acc:	80100737          	lui	a4,0x80100
    2ad0:	44f72423          	sw	a5,1096(a4) # 80100448 <_DATA_LMA_START+0x600f1d14>
    2ad4:	001417b7          	lui	a5,0x141
    2ad8:	88478793          	addi	a5,a5,-1916 # 140884 <FLASH_SIZE+0x40884>
    2adc:	44f72623          	sw	a5,1100(a4)
    2ae0:	00008067          	ret

00002ae4 <ble_rf_set_rx_dma>:
    2ae4:	801007b7          	lui	a5,0x80100
    2ae8:	50c78703          	lb	a4,1292(a5) # 8010050c <_DATA_LMA_START+0x600f1dd8>
    2aec:	0511                	c.addi	a0,4
    2aee:	0ff77713          	andi	a4,a4,255
    2af2:	00676713          	ori	a4,a4,6
    2af6:	50e78623          	sb	a4,1292(a5)
    2afa:	500786a3          	sb	zero,1293(a5)
    2afe:	00141737          	lui	a4,0x141
    2b02:	4eb78b23          	sb	a1,1270(a5)
    2b06:	88070713          	addi	a4,a4,-1920 # 140880 <FLASH_SIZE+0x40880>
    2b0a:	44e7ae23          	sw	a4,1116(a5)
    2b0e:	000a07b7          	lui	a5,0xa0
    2b12:	00f57563          	bgeu	a0,a5,2b1c <ble_rf_set_rx_dma+0x38>
    2b16:	c01807b7          	lui	a5,0xc0180
    2b1a:	953e                	c.add	a0,a5
    2b1c:	801007b7          	lui	a5,0x80100
    2b20:	46a7a023          	sw	a0,1120(a5) # 80100460 <_DATA_LMA_START+0x600f1d2c>
    2b24:	577d                	c.li	a4,-1
    2b26:	46e7a223          	sw	a4,1124(a5)
    2b2a:	8082                	c.jr	ra

00002b2c <blt_setScan_enter_manaul_rx>:
    2b2c:	1141                	c.addi	sp,-16
    2b2e:	c422                	c.swsp	s0,8(sp)
    2b30:	00000437          	lui	s0,0x0
    2b34:	17840413          	addi	s0,s0,376 # 178 <_AES_VMA_END>
    2b38:	c606                	c.swsp	ra,12(sp)
    2b3a:	c226                	c.swsp	s1,4(sp)
    2b3c:	4709                	c.li	a4,2
    2b3e:	44042783          	lw	a5,1088(s0)
    2b42:	18e40123          	sb	a4,386(s0)
    2b46:	cb89                	c.beqz	a5,2b58 <blt_setScan_enter_manaul_rx+0x2c>
    2b48:	01044703          	lbu	a4,16(s0)
    2b4c:	0017565b          	beqc	a4,1,2b58 <blt_setScan_enter_manaul_rx+0x2c>
    2b50:	4589                	c.li	a1,2
    2b52:	4505                	c.li	a0,1
    2b54:	000780e7          	jalr	a5
    2b58:	801406b7          	lui	a3,0x80140
    2b5c:	45442783          	lw	a5,1108(s0)
    2b60:	2006a703          	lw	a4,512(a3) # 80140200 <_DATA_LMA_START+0x60131acc>
    2b64:	45842603          	lw	a2,1112(s0)
    2b68:	8f1d                	c.sub	a4,a5
    2b6a:	44d44783          	lbu	a5,1101(s0)
    2b6e:	00e67f63          	bgeu	a2,a4,2b8c <blt_setScan_enter_manaul_rx+0x60>
    2b72:	2006a703          	lw	a4,512(a3)
    2b76:	0785                	c.addi	a5,1
    2b78:	44e42a23          	sw	a4,1108(s0)
    2b7c:	0ff7f793          	andi	a5,a5,255
    2b80:	4709                	c.li	a4,2
    2b82:	06f77763          	bgeu	a4,a5,2bf0 <blt_setScan_enter_manaul_rx+0xc4>
    2b86:	4781                	c.li	a5,0
    2b88:	440406a3          	sb	zero,1101(s0)
    2b8c:	97a2                	c.add	a5,s0
    2b8e:	801414b7          	lui	s1,0x80141
    2b92:	45c7c503          	lbu	a0,1116(a5)
    2b96:	02900793          	li	a5,41
    2b9a:	a0f48b23          	sb	a5,-1514(s1) # 80140a16 <_DATA_LMA_START+0x601322e2>
    2b9e:	f8000793          	li	a5,-128
    2ba2:	82f48423          	sb	a5,-2008(s1)
    2ba6:	1c05355b          	bfos	a0,a0,7,0
    2baa:	04500793          	li	a5,69
    2bae:	a0f48123          	sb	a5,-1534(s1)
    2bb2:	3929                	c.jal	27cc <rf_set_ble_channel>
    2bb4:	d6be97b7          	lui	a5,0xd6be9
    2bb8:	98e78793          	addi	a5,a5,-1650 # d6be898e <_DATA_LMA_START+0xb6bda25a>
    2bbc:	80f4a423          	sw	a5,-2040(s1)
    2bc0:	005557b7          	lui	a5,0x555
    2bc4:	44c44583          	lbu	a1,1100(s0)
    2bc8:	45042503          	lw	a0,1104(s0)
    2bcc:	55578793          	addi	a5,a5,1365 # 555555 <FLASH_SIZE+0x455555>
    2bd0:	82f4a223          	sw	a5,-2012(s1)
    2bd4:	02500793          	li	a5,37
    2bd8:	82f488a3          	sb	a5,-1999(s1)
    2bdc:	f09ff0ef          	jal	ra,2ae4 <ble_rf_set_rx_dma>
    2be0:	57fd                	c.li	a5,-1
    2be2:	a2f49023          	sh	a5,-1504(s1)
    2be6:	4422                	c.lwsp	s0,8(sp)
    2be8:	40b2                	c.lwsp	ra,12(sp)
    2bea:	4492                	c.lwsp	s1,4(sp)
    2bec:	0141                	c.addi	sp,16
    2bee:	bc4d                	c.j	26a0 <rf_set_rxmode>
    2bf0:	44f406a3          	sb	a5,1101(s0)
    2bf4:	f99ff06f          	j	2b8c <blt_setScan_enter_manaul_rx+0x60>

00002bf8 <blt_brx_start>:
    2bf8:	1141                	c.addi	sp,-16
    2bfa:	c422                	c.swsp	s0,8(sp)
    2bfc:	00000437          	lui	s0,0x0
    2c00:	17840413          	addi	s0,s0,376 # 178 <_AES_VMA_END>
    2c04:	c606                	c.swsp	ra,12(sp)
    2c06:	19442503          	lw	a0,404(s0)
    2c0a:	18740583          	lb	a1,391(s0)
    2c0e:	0ff5f593          	andi	a1,a1,255
    2c12:	3dc9                	c.jal	2ae4 <ble_rf_set_rx_dma>
    2c14:	801417b7          	lui	a5,0x80141
    2c18:	02900713          	li	a4,41
    2c1c:	a0e78b23          	sb	a4,-1514(a5) # 80140a16 <_DATA_LMA_START+0x601322e2>
    2c20:	f8000713          	li	a4,-128
    2c24:	82e78423          	sb	a4,-2008(a5)
    2c28:	04500693          	li	a3,69
    2c2c:	a0d78123          	sb	a3,-1534(a5)
    2c30:	a0e78023          	sb	a4,-1536(a5)
    2c34:	4705                	c.li	a4,1
    2c36:	a0e780a3          	sb	a4,-1535(a5)
    2c3a:	801407b7          	lui	a5,0x80140
    2c3e:	2007a783          	lw	a5,512(a5) # 80140200 <_DATA_LMA_START+0x60131acc>
    2c42:	36442503          	lw	a0,868(s0)
    2c46:	22f42423          	sw	a5,552(s0)
    2c4a:	22042223          	sw	zero,548(s0)
    2c4e:	1e040423          	sb	zero,488(s0)
    2c52:	394d                	c.jal	2904 <blt_ll_start_common>
    2c54:	b98ff0ef          	jal	ra,1fec <blt_push_fifo_hw>
    2c58:	89bf878b          	lbgp	a5,-1894 # 8009a <sys_clk+0x2>
    2c5c:	0df7f793          	andi	a5,a5,223
    2c60:	4807d45b          	beqc	a5,64,2ce8 <blt_brx_start+0xf0>
    2c64:	00144783          	lbu	a5,1(s0)
    2c68:	008787b3          	add	a5,a5,s0
    2c6c:	4647c783          	lbu	a5,1124(a5)
    2c70:	3c07a7db          	bfoz	a5,a5,15,0
    2c74:	80141737          	lui	a4,0x80141
    2c78:	a0f71223          	sh	a5,-1532(a4) # 80140a04 <_DATA_LMA_START+0x601322d0>
    2c7c:	25800713          	li	a4,600
    2c80:	00144783          	lbu	a5,1(s0)
    2c84:	0037d45b          	beqc	a5,3,2c8c <blt_brx_start+0x94>
    2c88:	0fa00713          	li	a4,250
    2c8c:	801417b7          	lui	a5,0x80141
    2c90:	1e944683          	lbu	a3,489(s0)
    2c94:	a0e79523          	sh	a4,-1526(a5) # 80140a0a <_DATA_LMA_START+0x601322d6>
    2c98:	a0378703          	lb	a4,-1533(a5)
    2c9c:	04068c63          	beqz	a3,2cf4 <blt_brx_start+0xfc>
    2ca0:	0fe77713          	andi	a4,a4,254
    2ca4:	a0e781a3          	sb	a4,-1533(a5)
    2ca8:	2ec45583          	lhu	a1,748(s0)
    2cac:	2ef44503          	lbu	a0,751(s0)
    2cb0:	2c45a5db          	bfoz	a1,a1,11,4
    2cb4:	de9ff0ef          	jal	ra,2a9c <ble_rf_set_tx_dma>
    2cb8:	801407b7          	lui	a5,0x80140
    2cbc:	2007a603          	lw	a2,512(a5) # 80140200 <_DATA_LMA_START+0x60131acc>
    2cc0:	2f442583          	lw	a1,756(s0)
    2cc4:	0629                	c.addi	a2,10
    2cc6:	08200513          	li	a0,130
    2cca:	31ed                	c.jal	29b4 <rf_start_fsm>
    2ccc:	34c42783          	lw	a5,844(s0)
    2cd0:	c781                	c.beqz	a5,2cd8 <blt_brx_start+0xe0>
    2cd2:	4509                	c.li	a0,2
    2cd4:	000780e7          	jalr	a5
    2cd8:	2e040523          	sb	zero,746(s0)
    2cdc:	40b2                	c.lwsp	ra,12(sp)
    2cde:	4422                	c.lwsp	s0,8(sp)
    2ce0:	4501                	c.li	a0,0
    2ce2:	0141                	c.addi	sp,16
    2ce4:	00008067          	ret
    2ce8:	00144783          	lbu	a5,1(s0)
    2cec:	97a2                	c.add	a5,s0
    2cee:	4607c783          	lbu	a5,1120(a5)
    2cf2:	bfbd                	c.j	2c70 <blt_brx_start+0x78>
    2cf4:	0ff77713          	andi	a4,a4,255
    2cf8:	24442683          	lw	a3,580(s0)
    2cfc:	00176713          	ori	a4,a4,1
    2d00:	a0e781a3          	sb	a4,-1533(a5)
    2d04:	a2d7a623          	sw	a3,-1492(a5)
    2d08:	fa1ff06f          	j	2ca8 <blt_brx_start+0xb0>

00002d0c <irq_slave_system_timer>:
    2d0c:	1141                	c.addi	sp,-16
    2d0e:	c422                	c.swsp	s0,8(sp)
    2d10:	00000437          	lui	s0,0x0
    2d14:	17840413          	addi	s0,s0,376 # 178 <_AES_VMA_END>
    2d18:	00112623          	sw	ra,12(sp)
    2d1c:	18140783          	lb	a5,385(s0)
    2d20:	0ff7f793          	andi	a5,a5,255
    2d24:	0087d65b          	beqc	a5,8,2d30 <irq_slave_system_timer+0x24>
    2d28:	40b2                	c.lwsp	ra,12(sp)
    2d2a:	4422                	c.lwsp	s0,8(sp)
    2d2c:	0141                	c.addi	sp,16
    2d2e:	8082                	c.jr	ra
    2d30:	18240783          	lb	a5,386(s0)
    2d34:	0ff7f793          	andi	a5,a5,255
    2d38:	0457d85b          	beqc	a5,5,2d88 <irq_slave_system_timer+0x7c>
    2d3c:	18240783          	lb	a5,386(s0)
    2d40:	0ff7f793          	andi	a5,a5,255
    2d44:	0067dc5b          	beqc	a5,6,2d5c <irq_slave_system_timer+0x50>
    2d48:	44a40783          	lb	a5,1098(s0)
    2d4c:	bc67fe5b          	bbc	a5,6,2d28 <irq_slave_system_timer+0x1c>
    2d50:	18240783          	lb	a5,386(s0)
    2d54:	0ff7f793          	andi	a5,a5,255
    2d58:	bc27e85b          	bnec	a5,2,2d28 <irq_slave_system_timer+0x1c>
    2d5c:	4785                	c.li	a5,1
    2d5e:	18f40223          	sb	a5,388(s0)
    2d62:	577d                	c.li	a4,-1
    2d64:	801417b7          	lui	a5,0x80141
    2d68:	a2e79023          	sh	a4,-1504(a5) # 80140a20 <_DATA_LMA_START+0x601322ec>
    2d6c:	4795                	c.li	a5,5
    2d6e:	18f40123          	sb	a5,386(s0)
    2d72:	3559                	c.jal	2bf8 <blt_brx_start>
    2d74:	80140737          	lui	a4,0x80140
    2d78:	20072783          	lw	a5,512(a4) # 80140200 <_DATA_LMA_START+0x60131acc>
    2d7c:	21442683          	lw	a3,532(s0)
    2d80:	97b6                	c.add	a5,a3
    2d82:	20f72223          	sw	a5,516(a4)
    2d86:	b74d                	c.j	2d28 <irq_slave_system_timer+0x1c>
    2d88:	801417b7          	lui	a5,0x80141
    2d8c:	84078783          	lb	a5,-1984(a5) # 80140840 <_DATA_LMA_START+0x6013210c>
    2d90:	4705                	c.li	a4,1
    2d92:	8b9d                	c.andi	a5,7
    2d94:	00f77a63          	bgeu	a4,a5,2da8 <irq_slave_system_timer+0x9c>
    2d98:	00144783          	lbu	a5,1(s0)
    2d9c:	0a37da5b          	beqc	a5,3,2e50 <irq_slave_system_timer+0x144>
    2da0:	25e44783          	lbu	a5,606(s0)
    2da4:	08079c63          	bnez	a5,2e3c <irq_slave_system_timer+0x130>
    2da8:	31544783          	lbu	a5,789(s0)
    2dac:	04078a63          	beqz	a5,2e00 <irq_slave_system_timer+0xf4>
    2db0:	d28ff0ef          	jal	ra,22d8 <blt_brx_post>
    2db4:	17140783          	lb	a5,369(s0)
    2db8:	0067f85b          	bbc	a5,6,2dc8 <irq_slave_system_timer+0xbc>
    2dbc:	46842783          	lw	a5,1128(s0)
    2dc0:	4705                	c.li	a4,1
    2dc2:	18e40123          	sb	a4,386(s0)
    2dc6:	9782                	c.jalr	a5
    2dc8:	44a40783          	lb	a5,1098(s0)
    2dcc:	0067f65b          	bbc	a5,6,2dd8 <irq_slave_system_timer+0xcc>
    2dd0:	46c42783          	lw	a5,1132(s0)
    2dd4:	000780e7          	jalr	a5
    2dd8:	18040223          	sb	zero,388(s0)
    2ddc:	18140783          	lb	a5,385(s0)
    2de0:	0ff7f793          	andi	a5,a5,255
    2de4:	0287dc5b          	beqc	a5,8,2e1c <irq_slave_system_timer+0x110>
    2de8:	e4002737          	lui	a4,0xe4002
    2dec:	801407b7          	lui	a5,0x80140
    2df0:	4685                	c.li	a3,1
    2df2:	20d784a3          	sb	a3,521(a5) # 80140209 <_DATA_LMA_START+0x60131ad5>
    2df6:	431c                	c.lw	a5,0(a4)
    2df8:	9bf5                	c.andi	a5,-3
    2dfa:	c31c                	c.sw	a5,0(a4)
    2dfc:	f2dff06f          	j	2d28 <irq_slave_system_timer+0x1c>
    2e00:	36c42703          	lw	a4,876(s0)
    2e04:	37042783          	lw	a5,880(s0)
    2e08:	faf704e3          	beq	a4,a5,2db0 <irq_slave_system_timer+0xa4>
    2e0c:	37442703          	lw	a4,884(s0)
    2e10:	20c42783          	lw	a5,524(s0)
    2e14:	97ba                	c.add	a5,a4
    2e16:	36f42a23          	sw	a5,884(s0)
    2e1a:	bf59                	c.j	2db0 <irq_slave_system_timer+0xa4>
    2e1c:	22042703          	lw	a4,544(s0)
    2e20:	20042783          	lw	a5,512(s0)
    2e24:	801406b7          	lui	a3,0x80140
    2e28:	8f99                	c.sub	a5,a4
    2e2a:	47044703          	lbu	a4,1136(s0)
    2e2e:	20f6a223          	sw	a5,516(a3) # 80140204 <_DATA_LMA_START+0x60131ad0>
    2e32:	ee070be3          	beqz	a4,2d28 <irq_slave_system_timer+0x1c>
    2e36:	2c040e23          	sb	zero,732(s0)
    2e3a:	b5fd                	c.j	2d28 <irq_slave_system_timer+0x1c>
    2e3c:	80140737          	lui	a4,0x80140
    2e40:	20072683          	lw	a3,512(a4) # 80140200 <_DATA_LMA_START+0x60131acc>
    2e44:	07e5                	c.addi	a5,25
    2e46:	079e                	c.slli	a5,0x7
    2e48:	97b6                	c.add	a5,a3
    2e4a:	20f72223          	sw	a5,516(a4)
    2e4e:	bde9                	c.j	2d28 <irq_slave_system_timer+0x1c>
    2e50:	801406b7          	lui	a3,0x80140
    2e54:	2006a783          	lw	a5,512(a3) # 80140200 <_DATA_LMA_START+0x60131acc>
    2e58:	6721                	c.lui	a4,0x8
    2e5a:	d0070713          	addi	a4,a4,-768 # 7d00 <_RAMCODE_VMA_END+0x19fe>
    2e5e:	97ba                	c.add	a5,a4
    2e60:	20f6a223          	sw	a5,516(a3)
    2e64:	ec5ff06f          	j	2d28 <irq_slave_system_timer+0x1c>

00002e68 <irq_blc_ll_rx>:
    2e68:	1141                	c.addi	sp,-16
    2e6a:	c422                	c.swsp	s0,8(sp)
    2e6c:	00000437          	lui	s0,0x0
    2e70:	17840413          	addi	s0,s0,376 # 178 <_AES_VMA_END>
    2e74:	c606                	c.swsp	ra,12(sp)
    2e76:	c226                	c.swsp	s1,4(sp)
    2e78:	47a44703          	lbu	a4,1146(s0)
    2e7c:	48042483          	lw	s1,1152(s0)
    2e80:	47944603          	lbu	a2,1145(s0)
    2e84:	47445683          	lhu	a3,1140(s0)
    2e88:	00170793          	addi	a5,a4,1
    2e8c:	0ff7f793          	andi	a5,a5,255
    2e90:	00c7f5b3          	and	a1,a5,a2
    2e94:	8526                	c.mv	a0,s1
    2e96:	c4d5957f          	maddr32	a0,a1,a3
    2e9a:	8f71                	c.and	a4,a2
    2e9c:	18a42a23          	sw	a0,404(s0)
    2ea0:	19442503          	lw	a0,404(s0)
    2ea4:	18740583          	lb	a1,391(s0)
    2ea8:	c4d714ff          	maddr32	s1,a4,a3
    2eac:	0ff5f593          	andi	a1,a1,255
    2eb0:	46f40d23          	sb	a5,1146(s0)
    2eb4:	c31ff0ef          	jal	ra,2ae4 <ble_rf_set_rx_dma>
    2eb8:	801417b7          	lui	a5,0x80141
    2ebc:	00100713          	li	a4,1
    2ec0:	a2e79023          	sh	a4,-1504(a5) # 80140a20 <_DATA_LMA_START+0x601322ec>
    2ec4:	801407b7          	lui	a5,0x80140
    2ec8:	2007a583          	lw	a1,512(a5) # 80140200 <_DATA_LMA_START+0x60131acc>
    2ecc:	00048123          	sb	zero,2(s1)
    2ed0:	18240783          	lb	a5,386(s0)
    2ed4:	0ff7f793          	andi	a5,a5,255
    2ed8:	1057d45b          	beqc	a5,5,2fe0 <irq_blc_ll_rx+0x178>
    2edc:	801417b7          	lui	a5,0x80141
    2ee0:	83178783          	lb	a5,-1999(a5) # 80140831 <_DATA_LMA_START+0x601320fd>
    2ee4:	0054c703          	lbu	a4,5(s1)
    2ee8:	0ff7f793          	andi	a5,a5,255
    2eec:	00e7e863          	bltu	a5,a4,2efc <irq_blc_ll_rx+0x94>
    2ef0:	00970733          	add	a4,a4,s1
    2ef4:	01070783          	lb	a5,16(a4)
    2ef8:	0207fa5b          	bbc	a5,0,2f2c <irq_blc_ll_rx+0xc4>
    2efc:	26440783          	lb	a5,612(s0)
    2f00:	00178793          	addi	a5,a5,1
    2f04:	26f40223          	sb	a5,612(s0)
    2f08:	47a40783          	lb	a5,1146(s0)
    2f0c:	18942a23          	sw	s1,404(s0)
    2f10:	17fd                	c.addi	a5,-1
    2f12:	46f40d23          	sb	a5,1146(s0)
    2f16:	19442503          	lw	a0,404(s0)
    2f1a:	18740583          	lb	a1,391(s0)
    2f1e:	4422                	c.lwsp	s0,8(sp)
    2f20:	40b2                	c.lwsp	ra,12(sp)
    2f22:	4492                	c.lwsp	s1,4(sp)
    2f24:	0ff5f593          	andi	a1,a1,255
    2f28:	0141                	c.addi	sp,16
    2f2a:	be6d                	c.j	2ae4 <ble_rf_set_rx_dma>
    2f2c:	18140783          	lb	a5,385(s0)
    2f30:	00000513          	li	a0,0
    2f34:	0ff7f793          	andi	a5,a5,255
    2f38:	0647d45b          	beqc	a5,4,2fa0 <irq_blc_ll_rx+0x138>
    2f3c:	18140783          	lb	a5,385(s0)
    2f40:	0ff7f793          	andi	a5,a5,255
    2f44:	0487ee5b          	bnec	a5,8,2fa0 <irq_blc_ll_rx+0x138>
    2f48:	18240783          	lb	a5,386(s0)
    2f4c:	0ff7f793          	andi	a5,a5,255
    2f50:	0057d85b          	beqc	a5,5,2f60 <irq_blc_ll_rx+0xf8>
    2f54:	18240783          	lb	a5,386(s0)
    2f58:	0ff7f793          	andi	a5,a5,255
    2f5c:	0437e25b          	bnec	a5,3,2fa0 <irq_blc_ll_rx+0x138>
    2f60:	48442703          	lw	a4,1156(s0)
    2f64:	4501                	c.li	a0,0
    2f66:	cf0d                	c.beqz	a4,2fa0 <irq_blc_ll_rx+0x138>
    2f68:	17840783          	lb	a5,376(s0)
    2f6c:	0ff7f793          	andi	a5,a5,255
    2f70:	0c078463          	beqz	a5,3038 <irq_blc_ll_rx+0x1d0>
    2f74:	17840783          	lb	a5,376(s0)
    2f78:	26444683          	lbu	a3,612(s0)
    2f7c:	0ff7f793          	andi	a5,a5,255
    2f80:	0af6ec63          	bltu	a3,a5,3038 <irq_blc_ll_rx+0x1d0>
    2f84:	24842783          	lw	a5,584(s0)
    2f88:	00100693          	li	a3,1
    2f8c:	0407e793          	ori	a5,a5,64
    2f90:	16d40ca3          	sb	a3,377(s0)
    2f94:	24f42423          	sw	a5,584(s0)
    2f98:	8526                	c.mv	a0,s1
    2f9a:	9702                	c.jalr	a4
    2f9c:	0ff57513          	andi	a0,a0,255
    2fa0:	16040ca3          	sb	zero,377(s0)
    2fa4:	17440703          	lb	a4,372(s0)
    2fa8:	0054c783          	lbu	a5,5(s1)
    2fac:	0ff77713          	andi	a4,a4,255
    2fb0:	97a6                	c.add	a5,s1
    2fb2:	00f7c683          	lbu	a3,15(a5)
    2fb6:	cf39                	c.beqz	a4,3014 <irq_blc_ll_rx+0x1ac>
    2fb8:	17440783          	lb	a5,372(s0)
    2fbc:	0ff7f793          	andi	a5,a5,255
    2fc0:	97b6                	c.add	a5,a3
    2fc2:	8385                	c.srli	a5,0x1
    2fc4:	16f40a23          	sb	a5,372(s0)
    2fc8:	26440783          	lb	a5,612(s0)
    2fcc:	0785                	c.addi	a5,1
    2fce:	26f40223          	sb	a5,612(s0)
    2fd2:	d91d                	c.beqz	a0,2f08 <irq_blc_ll_rx+0xa0>
    2fd4:	40b2                	c.lwsp	ra,12(sp)
    2fd6:	4422                	c.lwsp	s0,8(sp)
    2fd8:	4492                	c.lwsp	s1,4(sp)
    2fda:	0141                	c.addi	sp,16
    2fdc:	00008067          	ret
    2fe0:	00144783          	lbu	a5,1(s0)
    2fe4:	0437d65b          	beqc	a5,3,3030 <irq_blc_ll_rx+0x1c8>
    2fe8:	25f44783          	lbu	a5,607(s0)
    2fec:	cb85                	c.beqz	a5,301c <irq_blc_ll_rx+0x1b4>
    2fee:	80100737          	lui	a4,0x80100
    2ff2:	50070683          	lb	a3,1280(a4) # 80100500 <_DATA_LMA_START+0x600f1dcc>
    2ff6:	50170703          	lb	a4,1281(a4)
    2ffa:	0ff6f693          	andi	a3,a3,255
    2ffe:	0ff77713          	andi	a4,a4,255
    3002:	00e68d63          	beq	a3,a4,301c <irq_blc_ll_rx+0x1b4>
    3006:	6705                	c.lui	a4,0x1
    3008:	83470713          	addi	a4,a4,-1996 # 834 <blt_buff_prepare_write+0x28>
    300c:	0ef707db          	lea.d	a5,a4,a5
    3010:	0792                	c.slli	a5,0x4
    3012:	a809                	c.j	3024 <irq_blc_ll_rx+0x1bc>
    3014:	16d40a23          	sb	a3,372(s0)
    3018:	fb1ff06f          	j	2fc8 <irq_blc_ll_rx+0x160>
    301c:	000087b7          	lui	a5,0x8
    3020:	34078793          	addi	a5,a5,832 # 8340 <_RAMCODE_VMA_END+0x203e>
    3024:	97ae                	c.add	a5,a1
    3026:	80140737          	lui	a4,0x80140
    302a:	20f72223          	sw	a5,516(a4) # 80140204 <_DATA_LMA_START+0x60131ad0>
    302e:	b57d                	c.j	2edc <irq_blc_ll_rx+0x74>
    3030:	67d5                	c.lui	a5,0x15
    3032:	b4078793          	addi	a5,a5,-1216 # 14b40 <BIN_SIZE+0x6350>
    3036:	b7fd                	c.j	3024 <irq_blc_ll_rx+0x1bc>
    3038:	47a40783          	lb	a5,1146(s0)
    303c:	47b40603          	lb	a2,1147(s0)
    3040:	47844683          	lbu	a3,1144(s0)
    3044:	8f91                	c.sub	a5,a2
    3046:	03f7f793          	andi	a5,a5,63
    304a:	f4d7e7e3          	bltu	a5,a3,2f98 <irq_blc_ll_rx+0x130>
    304e:	bf1d                	c.j	2f84 <irq_blc_ll_rx+0x11c>

00003050 <irq_blt_sdk_handler>:
    3050:	1141                	c.addi	sp,-16
    3052:	c422                	c.swsp	s0,8(sp)
    3054:	00000437          	lui	s0,0x0
    3058:	17840413          	addi	s0,s0,376 # 178 <_AES_VMA_END>
    305c:	c606                	c.swsp	ra,12(sp)
    305e:	c226                	c.swsp	s1,4(sp)
    3060:	17240783          	lb	a5,370(s0)
    3064:	0ff7f793          	andi	a5,a5,255
    3068:	efe1                	c.bnez	a5,3140 <irq_blt_sdk_handler+0xf0>
    306a:	801417b7          	lui	a5,0x80141
    306e:	a2079483          	lh	s1,-1504(a5) # 80140a20 <_DATA_LMA_START+0x601322ec>
    3072:	3c04a4db          	bfoz	s1,s1,15,0
    3076:	0204f75b          	bbc	s1,0,30a4 <irq_blt_sdk_handler+0x54>
    307a:	18240783          	lb	a5,386(s0)
    307e:	0ff7f793          	andi	a5,a5,255
    3082:	1627eb5b          	bnec	a5,2,31f8 <irq_blt_sdk_handler+0x1a8>
    3086:	48842783          	lw	a5,1160(s0)
    308a:	9782                	c.jalr	a5
    308c:	34c42703          	lw	a4,844(s0)
    3090:	00070a63          	beqz	a4,30a4 <irq_blt_sdk_handler+0x54>
    3094:	18240783          	lb	a5,386(s0)
    3098:	0ff7f793          	andi	a5,a5,255
    309c:	1457e45b          	bnec	a5,5,31e4 <irq_blt_sdk_handler+0x194>
    30a0:	4505                	c.li	a0,1
    30a2:	9702                	c.jalr	a4
    30a4:	0414f25b          	bbc	s1,1,30e8 <irq_blt_sdk_handler+0x98>
    30a8:	34c42703          	lw	a4,844(s0)
    30ac:	801417b7          	lui	a5,0x80141
    30b0:	4689                	c.li	a3,2
    30b2:	a2d79023          	sh	a3,-1504(a5) # 80140a20 <_DATA_LMA_START+0x601322ec>
    30b6:	cb09                	c.beqz	a4,30c8 <irq_blt_sdk_handler+0x78>
    30b8:	18240783          	lb	a5,386(s0)
    30bc:	0ff7f793          	andi	a5,a5,255
    30c0:	1057ea5b          	bnec	a5,5,31d4 <irq_blt_sdk_handler+0x184>
    30c4:	4509                	c.li	a0,2
    30c6:	9702                	c.jalr	a4
    30c8:	48c42703          	lw	a4,1164(s0)
    30cc:	cb01                	c.beqz	a4,30dc <irq_blt_sdk_handler+0x8c>
    30ce:	17640783          	lb	a5,374(s0)
    30d2:	0ff7f793          	andi	a5,a5,255
    30d6:	c399                	c.beqz	a5,30dc <irq_blt_sdk_handler+0x8c>
    30d8:	000700e7          	jalr	a4
    30dc:	18140783          	lb	a5,385(s0)
    30e0:	0ff7f793          	andi	a5,a5,255
    30e4:	0887d65b          	beqc	a5,8,3170 <irq_blt_sdk_handler+0x120>
    30e8:	4744f493          	andi	s1,s1,1140
    30ec:	00048e63          	beqz	s1,3108 <irq_blt_sdk_handler+0xb8>
    30f0:	801417b7          	lui	a5,0x80141
    30f4:	47400713          	li	a4,1140
    30f8:	a2e79023          	sh	a4,-1504(a5) # 80140a20 <_DATA_LMA_START+0x601322ec>
    30fc:	18240783          	lb	a5,386(s0)
    3100:	0ff7f793          	andi	a5,a5,255
    3104:	0a57de5b          	beqc	a5,5,31c0 <irq_blt_sdk_handler+0x170>
    3108:	801407b7          	lui	a5,0x80140
    310c:	20978703          	lb	a4,521(a5) # 80140209 <_DATA_LMA_START+0x60131ad5>
    3110:	42077e5b          	bbs	a4,0,314c <irq_blt_sdk_handler+0xfc>
    3114:	80140737          	lui	a4,0x80140
    3118:	20472783          	lw	a5,516(a4) # 80140204 <_DATA_LMA_START+0x60131ad0>
    311c:	20072603          	lw	a2,512(a4)
    3120:	400006b7          	lui	a3,0x40000
    3124:	40c787b3          	sub	a5,a5,a2
    3128:	00f6fc63          	bgeu	a3,a5,3140 <irq_blt_sdk_handler+0xf0>
    312c:	18140783          	lb	a5,385(s0)
    3130:	8bb9                	c.andi	a5,14
    3132:	c799                	c.beqz	a5,3140 <irq_blt_sdk_handler+0xf0>
    3134:	20072783          	lw	a5,512(a4)
    3138:	7d078793          	addi	a5,a5,2000
    313c:	20f72223          	sw	a5,516(a4)
    3140:	40b2                	c.lwsp	ra,12(sp)
    3142:	4422                	c.lwsp	s0,8(sp)
    3144:	4492                	c.lwsp	s1,4(sp)
    3146:	0141                	c.addi	sp,16
    3148:	00008067          	ret
    314c:	00100713          	li	a4,1
    3150:	20e784a3          	sb	a4,521(a5)
    3154:	c9cff0ef          	jal	ra,25f0 <irq_ll_system_timer>
    3158:	80140737          	lui	a4,0x80140
    315c:	20472783          	lw	a5,516(a4) # 80140204 <_DATA_LMA_START+0x60131ad0>
    3160:	20072603          	lw	a2,512(a4)
    3164:	400006b7          	lui	a3,0x40000
    3168:	8f91                	c.sub	a5,a2
    316a:	fcf6e1e3          	bltu	a3,a5,312c <irq_blt_sdk_handler+0xdc>
    316e:	bfc9                	c.j	3140 <irq_blt_sdk_handler+0xf0>
    3170:	2f240783          	lb	a5,754(s0)
    3174:	2f340683          	lb	a3,755(s0)
    3178:	8f95                	c.sub	a5,a3
    317a:	8bfd                	c.andi	a5,31
    317c:	d7b5                	c.beqz	a5,30e8 <irq_blt_sdk_handler+0x98>
    317e:	80100637          	lui	a2,0x80100
    3182:	50060703          	lb	a4,1280(a2) # 80100500 <_DATA_LMA_START+0x600f1dcc>
    3186:	50160503          	lb	a0,1281(a2)
    318a:	4585                	c.li	a1,1
    318c:	8f09                	c.sub	a4,a0
    318e:	8b7d                	c.andi	a4,31
    3190:	177d                	c.addi	a4,-1
    3192:	f4e5ebe3          	bltu	a1,a4,30e8 <irq_blt_sdk_handler+0x98>
    3196:	50060703          	lb	a4,1280(a2)
    319a:	96be                	c.add	a3,a5
    319c:	97ba                	c.add	a5,a4
    319e:	2ed409a3          	sb	a3,755(s0)
    31a2:	0ff7f793          	andi	a5,a5,255
    31a6:	50f60023          	sb	a5,1280(a2)
    31aa:	50160703          	lb	a4,1281(a2)
    31ae:	50060783          	lb	a5,1280(a2)
    31b2:	8b7d                	c.andi	a4,31
    31b4:	8bfd                	c.andi	a5,31
    31b6:	34e40123          	sb	a4,834(s0)
    31ba:	34f401a3          	sb	a5,835(s0)
    31be:	b72d                	c.j	30e8 <irq_blt_sdk_handler+0x98>
    31c0:	80140737          	lui	a4,0x80140
    31c4:	20072783          	lw	a5,512(a4) # 80140200 <_DATA_LMA_START+0x60131acc>
    31c8:	0c878793          	addi	a5,a5,200
    31cc:	20f72223          	sw	a5,516(a4)
    31d0:	f39ff06f          	j	3108 <irq_blt_sdk_handler+0xb8>
    31d4:	18240783          	lb	a5,386(s0)
    31d8:	0ff7f793          	andi	a5,a5,255
    31dc:	ae37e65b          	bnec	a5,3,30c8 <irq_blt_sdk_handler+0x78>
    31e0:	ee5ff06f          	j	30c4 <irq_blt_sdk_handler+0x74>
    31e4:	18240783          	lb	a5,386(s0)
    31e8:	0ff7f793          	andi	a5,a5,255
    31ec:	aa37da5b          	beqc	a5,3,30a0 <irq_blt_sdk_handler+0x50>
    31f0:	ae14fc5b          	bbc	s1,1,30e8 <irq_blt_sdk_handler+0x98>
    31f4:	eb5ff06f          	j	30a8 <irq_blt_sdk_handler+0x58>
    31f8:	c71ff0ef          	jal	ra,2e68 <irq_blc_ll_rx>
    31fc:	e91ff06f          	j	308c <irq_blt_sdk_handler+0x3c>

00003200 <stimer_irq_handler>:
    3200:	e51ff06f          	j	3050 <irq_blt_sdk_handler>

00003204 <rf_irq_handler>:
    3204:	e4dff06f          	j	3050 <irq_blt_sdk_handler>

00003208 <delay_ms>:
    3208:	000047b7          	lui	a5,0x4
    320c:	e8078793          	addi	a5,a5,-384 # 3e80 <pm_sleep_start+0x134>
    3210:	02f50533          	mul	a0,a0,a5
    3214:	801407b7          	lui	a5,0x80140
    3218:	2007a683          	lw	a3,512(a5) # 80140200 <_DATA_LMA_START+0x60131acc>
    321c:	80140737          	lui	a4,0x80140
    3220:	20072783          	lw	a5,512(a4) # 80140200 <_DATA_LMA_START+0x60131acc>
    3224:	8f95                	c.sub	a5,a3
    3226:	fef57de3          	bgeu	a0,a5,3220 <delay_ms+0x18>
    322a:	8082                	c.jr	ra

0000322c <delay_us>:
    322c:	801407b7          	lui	a5,0x80140
    3230:	2007a683          	lw	a3,512(a5) # 80140200 <_DATA_LMA_START+0x60131acc>
    3234:	00451513          	slli	a0,a0,0x4
    3238:	80140737          	lui	a4,0x80140
    323c:	20072783          	lw	a5,512(a4) # 80140200 <_DATA_LMA_START+0x60131acc>
    3240:	8f95                	c.sub	a5,a3
    3242:	fef57de3          	bgeu	a0,a5,323c <delay_us+0x10>
    3246:	8082                	c.jr	ra

00003248 <flash_send_addr>:
    3248:	5d05275b          	bfoz	a4,a0,23,16
    324c:	801407b7          	lui	a5,0x80140
    3250:	801406b7          	lui	a3,0x80140
    3254:	10e78023          	sb	a4,256(a5) # 80140100 <_DATA_LMA_START+0x601319cc>
    3258:	10268783          	lb	a5,258(a3) # 80140102 <_DATA_LMA_START+0x601319ce>
    325c:	fe07fe5b          	bbs	a5,0,3258 <flash_send_addr+0x10>
    3260:	3c8527db          	bfoz	a5,a0,15,8
    3264:	80140737          	lui	a4,0x80140
    3268:	10f68023          	sb	a5,256(a3)
    326c:	10270783          	lb	a5,258(a4) # 80140102 <_DATA_LMA_START+0x601319ce>
    3270:	fe07fe5b          	bbs	a5,0,326c <flash_send_addr+0x24>
    3274:	0ff57513          	andi	a0,a0,255
    3278:	801406b7          	lui	a3,0x80140
    327c:	10a70023          	sb	a0,256(a4)
    3280:	10268783          	lb	a5,258(a3) # 80140102 <_DATA_LMA_START+0x601319ce>
    3284:	fe07fe5b          	bbs	a5,0,3280 <flash_send_addr+0x38>
    3288:	00008067          	ret

0000328c <flash_send_cmd>:
    328c:	801407b7          	lui	a5,0x80140
    3290:	10178703          	lb	a4,257(a5) # 80140101 <_DATA_LMA_START+0x601319cd>
    3294:	0ff77713          	andi	a4,a4,255
    3298:	01076713          	ori	a4,a4,16
    329c:	10e780a3          	sb	a4,257(a5)
    32a0:	0001                	c.nop
    32a2:	0001                	c.nop
    32a4:	0001                	c.nop
    32a6:	0001                	c.nop
    32a8:	0001                	c.nop
    32aa:	0001                	c.nop
    32ac:	0001                	c.nop
    32ae:	0001                	c.nop
    32b0:	0001                	c.nop
    32b2:	0001                	c.nop
    32b4:	10178683          	lb	a3,257(a5)
    32b8:	0ff57513          	andi	a0,a0,255
    32bc:	0ef6f693          	andi	a3,a3,239
    32c0:	10d780a3          	sb	a3,257(a5)
    32c4:	80140737          	lui	a4,0x80140
    32c8:	10a78023          	sb	a0,256(a5)
    32cc:	10270783          	lb	a5,258(a4) # 80140102 <_DATA_LMA_START+0x601319ce>
    32d0:	fe07fe5b          	bbs	a5,0,32cc <flash_send_cmd+0x40>
    32d4:	00008067          	ret

000032d8 <flash_mspi_read_ram>:
    32d8:	1101                	c.addi	sp,-32
    32da:	cc22                	c.swsp	s0,24(sp)
    32dc:	ca26                	c.swsp	s1,20(sp)
    32de:	c84a                	c.swsp	s2,16(sp)
    32e0:	c64e                	c.swsp	s3,12(sp)
    32e2:	c452                	c.swsp	s4,8(sp)
    32e4:	c256                	c.swsp	s5,4(sp)
    32e6:	ce06                	c.swsp	ra,28(sp)
    32e8:	89aa                	c.mv	s3,a0
    32ea:	843a                	c.mv	s0,a4
    32ec:	84be                	c.mv	s1,a5
    32ee:	4705                	c.li	a4,1
    32f0:	e42007b7          	lui	a5,0xe4200
    32f4:	8a2e                	c.mv	s4,a1
    32f6:	8ab2                	c.mv	s5,a2
    32f8:	8936                	c.mv	s2,a3
    32fa:	80140537          	lui	a0,0x80140
    32fe:	c398                	c.sw	a4,0(a5)
    3300:	10250703          	lb	a4,258(a0) # 80140102 <_DATA_LMA_START+0x601319ce>
    3304:	fe077e5b          	bbs	a4,0,3300 <flash_mspi_read_ram+0x28>
    3308:	10150783          	lb	a5,257(a0)
    330c:	80140837          	lui	a6,0x80140
    3310:	0ff7f793          	andi	a5,a5,255
    3314:	0107e793          	ori	a5,a5,16
    3318:	10f500a3          	sb	a5,257(a0)
    331c:	32880703          	lb	a4,808(a6) # 80140328 <_DATA_LMA_START+0x60131bf4>
    3320:	be377e5b          	bbc	a4,3,331c <flash_mspi_read_ram+0x44>
    3324:	10180783          	lb	a5,257(a6)
    3328:	854e                	c.mv	a0,s3
    332a:	0fd7f793          	andi	a5,a5,253
    332e:	10f800a3          	sb	a5,257(a6)
    3332:	10180783          	lb	a5,257(a6)
    3336:	0f37f793          	andi	a5,a5,243
    333a:	10f800a3          	sb	a5,257(a6)
    333e:	37b9                	c.jal	328c <flash_send_cmd>
    3340:	0e0a9c63          	bnez	s5,3438 <flash_mspi_read_ram+0x160>
    3344:	00000713          	li	a4,0
    3348:	801405b7          	lui	a1,0x80140
    334c:	01277c63          	bgeu	a4,s2,3364 <flash_mspi_read_ram+0x8c>
    3350:	00100713          	li	a4,1
    3354:	10058023          	sb	zero,256(a1) # 80140100 <_DATA_LMA_START+0x601319cc>
    3358:	10258603          	lb	a2,258(a1)
    335c:	fe067e5b          	bbs	a2,0,3358 <flash_mspi_read_ram+0x80>
    3360:	ff2768e3          	bltu	a4,s2,3350 <flash_mspi_read_ram+0x78>
    3364:	01b9ecdb          	bnec	s3,59,337c <flash_mspi_read_ram+0xa4>
    3368:	80140737          	lui	a4,0x80140
    336c:	10170783          	lb	a5,257(a4) # 80140101 <_DATA_LMA_START+0x601319cd>
    3370:	0f37f793          	andi	a5,a5,243
    3374:	0047e793          	ori	a5,a5,4
    3378:	10f700a3          	sb	a5,257(a4)
    337c:	80140737          	lui	a4,0x80140
    3380:	10170783          	lb	a5,257(a4) # 80140101 <_DATA_LMA_START+0x601319cd>
    3384:	801406b7          	lui	a3,0x80140
    3388:	0ff7f793          	andi	a5,a5,255
    338c:	0027e793          	ori	a5,a5,2
    3390:	10f700a3          	sb	a5,257(a4)
    3394:	10070023          	sb	zero,256(a4)
    3398:	10268703          	lb	a4,258(a3) # 80140102 <_DATA_LMA_START+0x601319ce>
    339c:	fe077e5b          	bbs	a4,0,3398 <flash_mspi_read_ram+0xc0>
    33a0:	10168703          	lb	a4,257(a3)
    33a4:	801407b7          	lui	a5,0x80140
    33a8:	0ff77713          	andi	a4,a4,255
    33ac:	00176713          	ori	a4,a4,1
    33b0:	10e680a3          	sb	a4,257(a3)
    33b4:	10278703          	lb	a4,258(a5) # 80140102 <_DATA_LMA_START+0x601319ce>
    33b8:	fe077e5b          	bbs	a4,0,33b4 <flash_mspi_read_ram+0xdc>
    33bc:	02048263          	beqz	s1,33e0 <flash_mspi_read_ram+0x108>
    33c0:	00940733          	add	a4,s0,s1
    33c4:	801406b7          	lui	a3,0x80140
    33c8:	10068783          	lb	a5,256(a3) # 80140100 <_DATA_LMA_START+0x601319cc>
    33cc:	00140413          	addi	s0,s0,1
    33d0:	fef40fa3          	sb	a5,-1(s0)
    33d4:	10268783          	lb	a5,258(a3)
    33d8:	fe07fe5b          	bbs	a5,0,33d4 <flash_mspi_read_ram+0xfc>
    33dc:	fee416e3          	bne	s0,a4,33c8 <flash_mspi_read_ram+0xf0>
    33e0:	801407b7          	lui	a5,0x80140
    33e4:	10178703          	lb	a4,257(a5) # 80140101 <_DATA_LMA_START+0x601319cd>
    33e8:	0fe77713          	andi	a4,a4,254
    33ec:	10e780a3          	sb	a4,257(a5)
    33f0:	01b9e8db          	bnec	s3,59,3400 <flash_mspi_read_ram+0x128>
    33f4:	10178703          	lb	a4,257(a5)
    33f8:	0f377713          	andi	a4,a4,243
    33fc:	10e780a3          	sb	a4,257(a5)
    3400:	80140737          	lui	a4,0x80140
    3404:	10170783          	lb	a5,257(a4) # 80140101 <_DATA_LMA_START+0x601319cd>
    3408:	0ff7f793          	andi	a5,a5,255
    340c:	0107e793          	ori	a5,a5,16
    3410:	10f700a3          	sb	a5,257(a4)
    3414:	0001                	c.nop
    3416:	0001                	c.nop
    3418:	0001                	c.nop
    341a:	0001                	c.nop
    341c:	0001                	c.nop
    341e:	e42007b7          	lui	a5,0xe4200
    3422:	0007a023          	sw	zero,0(a5) # e4200000 <_DATA_LMA_START+0xc41f18cc>
    3426:	40f2                	c.lwsp	ra,28(sp)
    3428:	4462                	c.lwsp	s0,24(sp)
    342a:	44d2                	c.lwsp	s1,20(sp)
    342c:	4942                	c.lwsp	s2,16(sp)
    342e:	49b2                	c.lwsp	s3,12(sp)
    3430:	4a22                	c.lwsp	s4,8(sp)
    3432:	4a92                	c.lwsp	s5,4(sp)
    3434:	6105                	c.addi16sp	sp,32
    3436:	8082                	c.jr	ra
    3438:	8552                	c.mv	a0,s4
    343a:	3539                	c.jal	3248 <flash_send_addr>
    343c:	f09ff06f          	j	3344 <flash_mspi_read_ram+0x6c>

00003440 <flash_wait_done>:
    3440:	1141                	c.addi	sp,-16
    3442:	4515                	c.li	a0,5
    3444:	c606                	c.swsp	ra,12(sp)
    3446:	3599                	c.jal	328c <flash_send_cmd>
    3448:	009896b7          	lui	a3,0x989
    344c:	68068693          	addi	a3,a3,1664 # 989680 <FLASH_SIZE+0x889680>
    3450:	80140737          	lui	a4,0x80140
    3454:	10070023          	sb	zero,256(a4) # 80140100 <_DATA_LMA_START+0x601319cc>
    3458:	10270783          	lb	a5,258(a4)
    345c:	fe07fe5b          	bbs	a5,0,3458 <flash_wait_done+0x18>
    3460:	10070783          	lb	a5,256(a4)
    3464:	0007f45b          	bbc	a5,0,346c <flash_wait_done+0x2c>
    3468:	16fd                	c.addi	a3,-1
    346a:	f6ed                	c.bnez	a3,3454 <flash_wait_done+0x14>
    346c:	80140737          	lui	a4,0x80140
    3470:	10170783          	lb	a5,257(a4) # 80140101 <_DATA_LMA_START+0x601319cd>
    3474:	0ff7f793          	andi	a5,a5,255
    3478:	0107e793          	ori	a5,a5,16
    347c:	10f700a3          	sb	a5,257(a4)
    3480:	40b2                	c.lwsp	ra,12(sp)
    3482:	0141                	c.addi	sp,16
    3484:	00008067          	ret

00003488 <flash_mspi_write_ram.constprop.41>:
    3488:	1141                	c.addi	sp,-16
    348a:	c422                	c.swsp	s0,8(sp)
    348c:	c226                	c.swsp	s1,4(sp)
    348e:	c04a                	c.swsp	s2,0(sp)
    3490:	c606                	c.swsp	ra,12(sp)
    3492:	e42007b7          	lui	a5,0xe4200
    3496:	4705                	c.li	a4,1
    3498:	84aa                	c.mv	s1,a0
    349a:	892e                	c.mv	s2,a1
    349c:	8432                	c.mv	s0,a2
    349e:	801406b7          	lui	a3,0x80140
    34a2:	c398                	c.sw	a4,0(a5)
    34a4:	10268783          	lb	a5,258(a3) # 80140102 <_DATA_LMA_START+0x601319ce>
    34a8:	fe07fe5b          	bbs	a5,0,34a4 <flash_mspi_write_ram.constprop.41+0x1c>
    34ac:	10168783          	lb	a5,257(a3)
    34b0:	80140737          	lui	a4,0x80140
    34b4:	0ff7f793          	andi	a5,a5,255
    34b8:	0107e793          	ori	a5,a5,16
    34bc:	10f680a3          	sb	a5,257(a3)
    34c0:	32870783          	lb	a5,808(a4) # 80140328 <_DATA_LMA_START+0x60131bf4>
    34c4:	be37fe5b          	bbc	a5,3,34c0 <flash_mspi_write_ram.constprop.41+0x38>
    34c8:	10170783          	lb	a5,257(a4)
    34cc:	4519                	c.li	a0,6
    34ce:	0fd7f793          	andi	a5,a5,253
    34d2:	10f700a3          	sb	a5,257(a4)
    34d6:	10170783          	lb	a5,257(a4)
    34da:	0f37f793          	andi	a5,a5,243
    34de:	10f700a3          	sb	a5,257(a4)
    34e2:	336d                	c.jal	328c <flash_send_cmd>
    34e4:	00200513          	li	a0,2
    34e8:	da5ff0ef          	jal	ra,328c <flash_send_cmd>
    34ec:	00900533          	add	a0,zero,s1
    34f0:	d59ff0ef          	jal	ra,3248 <flash_send_addr>
    34f4:	c015                	c.beqz	s0,3518 <flash_mspi_write_ram.constprop.41+0x90>
    34f6:	85ca                	c.mv	a1,s2
    34f8:	00890633          	add	a2,s2,s0
    34fc:	80140737          	lui	a4,0x80140
    3500:	0005c783          	lbu	a5,0(a1)
    3504:	10f70023          	sb	a5,256(a4) # 80140100 <_DATA_LMA_START+0x601319cc>
    3508:	10270783          	lb	a5,258(a4)
    350c:	fe07fe5b          	bbs	a5,0,3508 <flash_mspi_write_ram.constprop.41+0x80>
    3510:	00158593          	addi	a1,a1,1
    3514:	feb616e3          	bne	a2,a1,3500 <flash_mspi_write_ram.constprop.41+0x78>
    3518:	80140737          	lui	a4,0x80140
    351c:	10170783          	lb	a5,257(a4) # 80140101 <_DATA_LMA_START+0x601319cd>
    3520:	0ff7f793          	andi	a5,a5,255
    3524:	0107e793          	ori	a5,a5,16
    3528:	10f700a3          	sb	a5,257(a4)
    352c:	f15ff0ef          	jal	ra,3440 <flash_wait_done>
    3530:	0001                	c.nop
    3532:	0001                	c.nop
    3534:	0001                	c.nop
    3536:	0001                	c.nop
    3538:	0001                	c.nop
    353a:	e42007b7          	lui	a5,0xe4200
    353e:	0007a023          	sw	zero,0(a5) # e4200000 <_DATA_LMA_START+0xc41f18cc>
    3542:	40b2                	c.lwsp	ra,12(sp)
    3544:	4422                	c.lwsp	s0,8(sp)
    3546:	4492                	c.lwsp	s1,4(sp)
    3548:	4902                	c.lwsp	s2,0(sp)
    354a:	0141                	c.addi	sp,16
    354c:	00008067          	ret

00003550 <clock_set_32k_tick>:
    3550:	801406b7          	lui	a3,0x80140
    3554:	20a68703          	lb	a4,522(a3) # 8014020a <_DATA_LMA_START+0x60131ad6>
    3558:	801407b7          	lui	a5,0x80140
    355c:	0ff77713          	andi	a4,a4,255
    3560:	00176713          	ori	a4,a4,1
    3564:	20e68523          	sb	a4,522(a3)
    3568:	20b78703          	lb	a4,523(a5) # 8014020b <_DATA_LMA_START+0x60131ad7>
    356c:	20b78693          	addi	a3,a5,523
    3570:	fe677c5b          	bbs	a4,6,3568 <clock_set_32k_tick+0x18>
    3574:	20a7a623          	sw	a0,524(a5)
    3578:	47a1                	c.li	a5,8
    357a:	00f68023          	sb	a5,0(a3)
    357e:	0001                	c.nop
    3580:	0001                	c.nop
    3582:	0001                	c.nop
    3584:	0001                	c.nop
    3586:	0001                	c.nop
    3588:	0001                	c.nop
    358a:	0001                	c.nop
    358c:	0001                	c.nop
    358e:	0001                	c.nop
    3590:	0001                	c.nop
    3592:	0001                	c.nop
    3594:	0001                	c.nop
    3596:	0001                	c.nop
    3598:	0001                	c.nop
    359a:	0001                	c.nop
    359c:	00000013          	nop
    35a0:	80140737          	lui	a4,0x80140
    35a4:	20b70783          	lb	a5,523(a4) # 8014020b <_DATA_LMA_START+0x60131ad7>
    35a8:	fe37fe5b          	bbs	a5,3,35a4 <clock_set_32k_tick+0x54>
    35ac:	00008067          	ret

000035b0 <clock_get_32k_tick>:
    35b0:	1141                	c.addi	sp,-16
    35b2:	c422                	c.swsp	s0,8(sp)
    35b4:	00112623          	sw	ra,12(sp)
    35b8:	20004097          	auipc	ra,0x20004
    35bc:	9d0080e7          	jalr	-1584(ra) # 20006f88 <analog_read_reg32.constprop.43>
    35c0:	00a00433          	add	s0,zero,a0
    35c4:	20004097          	auipc	ra,0x20004
    35c8:	9c4080e7          	jalr	-1596(ra) # 20006f88 <analog_read_reg32.constprop.43>
    35cc:	40850733          	sub	a4,a0,s0
    35d0:	842a                	c.mv	s0,a0
    35d2:	be17695b          	bnec	a4,1,35c4 <clock_get_32k_tick+0x14>
    35d6:	40b2                	c.lwsp	ra,12(sp)
    35d8:	4422                	c.lwsp	s0,8(sp)
    35da:	0141                	c.addi	sp,16
    35dc:	00008067          	ret

000035e0 <smp_quickResolvPrivateAddr>:
    35e0:	30002873          	csrr	a6,mstatus
    35e4:	00887813          	andi	a6,a6,8
    35e8:	00080463          	beqz	a6,35f0 <smp_quickResolvPrivateAddr+0x10>
    35ec:	300477f3          	csrrci	a5,mstatus,8
    35f0:	411c                	c.lw	a5,0(a0)
    35f2:	80160637          	lui	a2,0x80160
    35f6:	0af62a23          	sw	a5,180(a2) # 801600b4 <_DATA_LMA_START+0x60151980>
    35fa:	415c                	c.lw	a5,4(a0)
    35fc:	00000737          	lui	a4,0x0
    3600:	0af62c23          	sw	a5,184(a2)
    3604:	451c                	c.lw	a5,8(a0)
    3606:	15870713          	addi	a4,a4,344 # 158 <_AES_VMA_START>
    360a:	0af62e23          	sw	a5,188(a2)
    360e:	455c                	c.lw	a5,12(a0)
    3610:	0cf62023          	sw	a5,192(a2)
    3614:	0045c783          	lbu	a5,4(a1)
    3618:	0055c683          	lbu	a3,5(a1)
    361c:	0035c503          	lbu	a0,3(a1)
    3620:	06c2                	c.slli	a3,0x10
    3622:	07a2                	c.slli	a5,0x8
    3624:	8fd5                	c.or	a5,a3
    3626:	8fc9                	c.or	a5,a0
    3628:	c31c                	c.sw	a5,0(a4)
    362a:	0ce62223          	sw	a4,196(a2)
    362e:	00072223          	sw	zero,4(a4)
    3632:	00072423          	sw	zero,8(a4)
    3636:	00072623          	sw	zero,12(a4)
    363a:	4785                	c.li	a5,1
    363c:	801606b7          	lui	a3,0x80160
    3640:	0af62823          	sw	a5,176(a2)
    3644:	0b06a783          	lw	a5,176(a3) # 801600b0 <_DATA_LMA_START+0x6015197c>
    3648:	fe07fe5b          	bbs	a5,0,3644 <smp_quickResolvPrivateAddr+0x64>
    364c:	00080463          	beqz	a6,3654 <smp_quickResolvPrivateAddr+0x74>
    3650:	30082873          	csrrs	a6,mstatus,a6
    3654:	0015c503          	lbu	a0,1(a1)
    3658:	0025c683          	lbu	a3,2(a1)
    365c:	0005c603          	lbu	a2,0(a1)
    3660:	06c2                	c.slli	a3,0x10
    3662:	4b1c                	c.lw	a5,16(a4)
    3664:	0522                	c.slli	a0,0x8
    3666:	8d55                	c.or	a0,a3
    3668:	8d51                	c.or	a0,a2
    366a:	5c07a7db          	bfoz	a5,a5,23,0
    366e:	8d1d                	c.sub	a0,a5
    3670:	00153513          	seqz	a0,a0
    3674:	00008067          	ret

00003678 <blt_ll_searchAddr_in_ResolvingList>:
    3678:	1101                	c.addi	sp,-32
    367a:	ce06                	c.swsp	ra,28(sp)
    367c:	cc22                	c.swsp	s0,24(sp)
    367e:	ca26                	c.swsp	s1,20(sp)
    3680:	c84a                	c.swsp	s2,16(sp)
    3682:	c64e                	c.swsp	s3,12(sp)
    3684:	c452                	c.swsp	s4,8(sp)
    3686:	04156f5b          	bnec	a0,1,36e4 <blt_ll_searchAddr_in_ResolvingList+0x6c>
    368a:	00558783          	lb	a5,5(a1)
    368e:	0c07f793          	andi	a5,a5,192
    3692:	4407e95b          	bnec	a5,64,36e4 <blt_ll_searchAddr_in_ResolvingList+0x6c>
    3696:	00000937          	lui	s2,0x0
    369a:	17890913          	addi	s2,s2,376 # 178 <_AES_VMA_END>
    369e:	4c994783          	lbu	a5,1225(s2)
    36a2:	c3a9                	c.beqz	a5,36e4 <blt_ll_searchAddr_in_ResolvingList+0x6c>
    36a4:	4c894783          	lbu	a5,1224(s2)
    36a8:	cf95                	c.beqz	a5,36e4 <blt_ll_searchAddr_in_ResolvingList+0x6c>
    36aa:	89ae                	c.mv	s3,a1
    36ac:	4a090413          	addi	s0,s2,1184
    36b0:	4481                	c.li	s1,0
    36b2:	a039                	c.j	36c0 <blt_ll_searchAddr_in_ResolvingList+0x48>
    36b4:	4c894783          	lbu	a5,1224(s2)
    36b8:	01840413          	addi	s0,s0,24
    36bc:	02f4d463          	bge	s1,a5,36e4 <blt_ll_searchAddr_in_ResolvingList+0x6c>
    36c0:	8522                	c.mv	a0,s0
    36c2:	85ce                	c.mv	a1,s3
    36c4:	0485                	c.addi	s1,1
    36c6:	8a22                	c.mv	s4,s0
    36c8:	f19ff0ef          	jal	ra,35e0 <smp_quickResolvPrivateAddr>
    36cc:	fe0504e3          	beqz	a0,36b4 <blt_ll_searchAddr_in_ResolvingList+0x3c>
    36d0:	40f2                	c.lwsp	ra,28(sp)
    36d2:	4462                	c.lwsp	s0,24(sp)
    36d4:	8552                	c.mv	a0,s4
    36d6:	44d2                	c.lwsp	s1,20(sp)
    36d8:	4942                	c.lwsp	s2,16(sp)
    36da:	49b2                	c.lwsp	s3,12(sp)
    36dc:	4a22                	c.lwsp	s4,8(sp)
    36de:	6105                	c.addi16sp	sp,32
    36e0:	00008067          	ret
    36e4:	4a01                	c.li	s4,0
    36e6:	b7ed                	c.j	36d0 <blt_ll_searchAddr_in_ResolvingList+0x58>

000036e8 <ll_searchAddr_in_WhiteList_and_ResolvingList>:
    36e8:	1141                	c.addi	sp,-16
    36ea:	c422                	c.swsp	s0,8(sp)
    36ec:	c226                	c.swsp	s1,4(sp)
    36ee:	c606                	c.swsp	ra,12(sp)
    36f0:	842a                	c.mv	s0,a0
    36f2:	84ae                	c.mv	s1,a1
    36f4:	8d0fe0ef          	jal	ra,17c4 <blt_ll_searchAddr_in_WhiteList>
    36f8:	c511                	c.beqz	a0,3704 <ll_searchAddr_in_WhiteList_and_ResolvingList+0x1c>
    36fa:	40b2                	c.lwsp	ra,12(sp)
    36fc:	4422                	c.lwsp	s0,8(sp)
    36fe:	4492                	c.lwsp	s1,4(sp)
    3700:	0141                	c.addi	sp,16
    3702:	8082                	c.jr	ra
    3704:	8522                	c.mv	a0,s0
    3706:	4422                	c.lwsp	s0,8(sp)
    3708:	40b2                	c.lwsp	ra,12(sp)
    370a:	85a6                	c.mv	a1,s1
    370c:	4492                	c.lwsp	s1,4(sp)
    370e:	0141                	c.addi	sp,16
    3710:	f69ff06f          	j	3678 <blt_ll_searchAddr_in_ResolvingList>

00003714 <irq_scan_rx_primary_channel>:
    3714:	1101                	c.addi	sp,-32
    3716:	c84a                	c.swsp	s2,16(sp)
    3718:	80141937          	lui	s2,0x80141
    371c:	ce06                	c.swsp	ra,28(sp)
    371e:	cc22                	c.swsp	s0,24(sp)
    3720:	ca26                	c.swsp	s1,20(sp)
    3722:	c64e                	c.swsp	s3,12(sp)
    3724:	84090783          	lb	a5,-1984(s2) # 80140840 <_DATA_LMA_START+0x6013210c>
    3728:	0817a7db          	bfoz	a5,a5,2,1
    372c:	cf81                	c.beqz	a5,3744 <irq_scan_rx_primary_channel+0x30>
    372e:	4785                	c.li	a5,1
    3730:	a2f91023          	sh	a5,-1504(s2)
    3734:	40f2                	c.lwsp	ra,28(sp)
    3736:	4462                	c.lwsp	s0,24(sp)
    3738:	44d2                	c.lwsp	s1,20(sp)
    373a:	4942                	c.lwsp	s2,16(sp)
    373c:	49b2                	c.lwsp	s3,12(sp)
    373e:	4501                	c.li	a0,0
    3740:	6105                	c.addi16sp	sp,32
    3742:	8082                	c.jr	ra
    3744:	00000437          	lui	s0,0x0
    3748:	17840413          	addi	s0,s0,376 # 178 <_AES_VMA_END>
    374c:	1b244683          	lbu	a3,434(s0)
    3750:	1b442483          	lw	s1,436(s0)
    3754:	00168713          	addi	a4,a3,1
    3758:	0ff77713          	andi	a4,a4,255
    375c:	188727db          	bfoz	a5,a4,6,8
    3760:	97a6                	c.add	a5,s1
    3762:	44c44583          	lbu	a1,1100(s0)
    3766:	1886a6db          	bfoz	a3,a3,6,8
    376a:	853e                	c.mv	a0,a5
    376c:	00d484b3          	add	s1,s1,a3
    3770:	1ae40923          	sb	a4,434(s0)
    3774:	44f42823          	sw	a5,1104(s0)
    3778:	b6cff0ef          	jal	ra,2ae4 <ble_rf_set_rx_dma>
    377c:	00100793          	li	a5,1
    3780:	a2f91023          	sh	a5,-1504(s2)
    3784:	00048123          	sb	zero,2(s1)
    3788:	83190783          	lb	a5,-1999(s2)
    378c:	0054c703          	lbu	a4,5(s1)
    3790:	0ff7f793          	andi	a5,a5,255
    3794:	0ae7ec63          	bltu	a5,a4,384c <irq_scan_rx_primary_channel+0x138>
    3798:	00e487b3          	add	a5,s1,a4
    379c:	01078683          	lb	a3,16(a5)
    37a0:	1b244783          	lbu	a5,434(s0)
    37a4:	0206f85b          	bbc	a3,0,37d4 <irq_scan_rx_primary_channel+0xc0>
    37a8:	44c44583          	lbu	a1,1100(s0)
    37ac:	17fd                	c.addi	a5,-1
    37ae:	8526                	c.mv	a0,s1
    37b0:	1af40923          	sb	a5,434(s0)
    37b4:	44942823          	sw	s1,1104(s0)
    37b8:	b2cff0ef          	jal	ra,2ae4 <ble_rf_set_rx_dma>
    37bc:	4785                	c.li	a5,1
    37be:	00f48023          	sb	a5,0(s1)
    37c2:	40f2                	c.lwsp	ra,28(sp)
    37c4:	4462                	c.lwsp	s0,24(sp)
    37c6:	44d2                	c.lwsp	s1,20(sp)
    37c8:	4942                	c.lwsp	s2,16(sp)
    37ca:	49b2                	c.lwsp	s3,12(sp)
    37cc:	4501                	c.li	a0,0
    37ce:	6105                	c.addi16sp	sp,32
    37d0:	00008067          	ret
    37d4:	1769                	c.addi	a4,-6
    37d6:	0ff77713          	andi	a4,a4,255
    37da:	46fd                	c.li	a3,31
    37dc:	fce6e6e3          	bltu	a3,a4,37a8 <irq_scan_rx_primary_channel+0x94>
    37e0:	1b340703          	lb	a4,435(s0)
    37e4:	1b044683          	lbu	a3,432(s0)
    37e8:	40e78733          	sub	a4,a5,a4
    37ec:	03f77713          	andi	a4,a4,63
    37f0:	fad77ce3          	bgeu	a4,a3,37a8 <irq_scan_rx_primary_channel+0x94>
    37f4:	00448703          	lb	a4,4(s1)
    37f8:	4905                	c.li	s2,1
    37fa:	8b3d                	c.andi	a4,15
    37fc:	00e91933          	sll	s2,s2,a4
    3800:	04797713          	andi	a4,s2,71
    3804:	d355                	c.beqz	a4,37a8 <irq_scan_rx_primary_channel+0x94>
    3806:	0044c503          	lbu	a0,4(s1)
    380a:	44644783          	lbu	a5,1094(s0)
    380e:	00755993          	srli	s3,a0,0x7
    3812:	e3a9                	c.bnez	a5,3854 <irq_scan_rx_primary_channel+0x140>
    3814:	ba29645b          	bnec	s2,2,37bc <irq_scan_rx_primary_channel+0xa8>
    3818:	801f978b          	addigp	a5,-2048 # 80000 <_DATA_VMA_START>
    381c:	0047a703          	lw	a4,4(a5)
    3820:	1867275b          	bfoz	a4,a4,6,6
    3824:	02e99463          	bne	s3,a4,384c <irq_scan_rx_primary_channel+0x138>
    3828:	00c4d683          	lhu	a3,12(s1)
    382c:	0067d703          	lhu	a4,6(a5)
    3830:	00e69e63          	bne	a3,a4,384c <irq_scan_rx_primary_channel+0x138>
    3834:	00e4d683          	lhu	a3,14(s1)
    3838:	0087d703          	lhu	a4,8(a5)
    383c:	00e69863          	bne	a3,a4,384c <irq_scan_rx_primary_channel+0x138>
    3840:	0104d703          	lhu	a4,16(s1)
    3844:	00a7d783          	lhu	a5,10(a5)
    3848:	f6f70ae3          	beq	a4,a5,37bc <irq_scan_rx_primary_channel+0xa8>
    384c:	1b244783          	lbu	a5,434(s0)
    3850:	f59ff06f          	j	37a8 <irq_scan_rx_primary_channel+0x94>
    3854:	00648593          	addi	a1,s1,6
    3858:	1865255b          	bfoz	a0,a0,6,6
    385c:	e8dff0ef          	jal	ra,36e8 <ll_searchAddr_in_WhiteList_and_ResolvingList>
    3860:	f955                	c.bnez	a0,3814 <irq_scan_rx_primary_channel+0x100>
    3862:	1b244783          	lbu	a5,434(s0)
    3866:	b789                	c.j	37a8 <irq_scan_rx_primary_channel+0x94>

00003868 <blt_ll_getRealTxFifoNumber>:
    3868:	300027f3          	csrr	a5,mstatus
    386c:	8ba1                	c.andi	a5,8
    386e:	cb8d                	c.beqz	a5,38a0 <blt_ll_getRealTxFifoNumber+0x38>
    3870:	30047773          	csrrci	a4,mstatus,8
    3874:	000006b7          	lui	a3,0x0
    3878:	80100637          	lui	a2,0x80100
    387c:	17868693          	addi	a3,a3,376 # 178 <_AES_VMA_END>
    3880:	50060703          	lb	a4,1280(a2) # 80100500 <_DATA_LMA_START+0x600f1dcc>
    3884:	2f268503          	lb	a0,754(a3)
    3888:	50160603          	lb	a2,1281(a2)
    388c:	2f368683          	lb	a3,755(a3)
    3890:	8f11                	c.sub	a4,a2
    3892:	8d15                	c.sub	a0,a3
    3894:	8b7d                	c.andi	a4,31
    3896:	897d                	c.andi	a0,31
    3898:	953a                	c.add	a0,a4
    389a:	3007a7f3          	csrrs	a5,mstatus,a5
    389e:	8082                	c.jr	ra
    38a0:	00000737          	lui	a4,0x0
    38a4:	801006b7          	lui	a3,0x80100
    38a8:	17870713          	addi	a4,a4,376 # 178 <_AES_VMA_END>
    38ac:	50068783          	lb	a5,1280(a3) # 80100500 <_DATA_LMA_START+0x600f1dcc>
    38b0:	2f270503          	lb	a0,754(a4)
    38b4:	50168683          	lb	a3,1281(a3)
    38b8:	2f370703          	lb	a4,755(a4)
    38bc:	8f95                	c.sub	a5,a3
    38be:	8d19                	c.sub	a0,a4
    38c0:	8bfd                	c.andi	a5,31
    38c2:	897d                	c.andi	a0,31
    38c4:	953e                	c.add	a0,a5
    38c6:	8082                	c.jr	ra

000038c8 <blc_ll_getTxFifoNumber>:
    38c8:	300027f3          	csrr	a5,mstatus
    38cc:	8ba1                	c.andi	a5,8
    38ce:	cf9d                	c.beqz	a5,390c <blc_ll_getTxFifoNumber+0x44>
    38d0:	30047773          	csrrci	a4,mstatus,8
    38d4:	000006b7          	lui	a3,0x0
    38d8:	80100637          	lui	a2,0x80100
    38dc:	17868693          	addi	a3,a3,376 # 178 <_AES_VMA_END>
    38e0:	50060703          	lb	a4,1280(a2) # 80100500 <_DATA_LMA_START+0x600f1dcc>
    38e4:	2f268503          	lb	a0,754(a3)
    38e8:	50160603          	lb	a2,1281(a2)
    38ec:	2f368683          	lb	a3,755(a3)
    38f0:	8f11                	c.sub	a4,a2
    38f2:	8d15                	c.sub	a0,a3
    38f4:	8b7d                	c.andi	a4,31
    38f6:	897d                	c.andi	a0,31
    38f8:	953a                	c.add	a0,a4
    38fa:	e709                	c.bnez	a4,3904 <blc_ll_getTxFifoNumber+0x3c>
    38fc:	00150513          	addi	a0,a0,1
    3900:	0ff57513          	andi	a0,a0,255
    3904:	3007a7f3          	csrrs	a5,mstatus,a5
    3908:	00008067          	ret
    390c:	00000737          	lui	a4,0x0
    3910:	801006b7          	lui	a3,0x80100
    3914:	17870713          	addi	a4,a4,376 # 178 <_AES_VMA_END>
    3918:	50068783          	lb	a5,1280(a3) # 80100500 <_DATA_LMA_START+0x600f1dcc>
    391c:	2f270503          	lb	a0,754(a4)
    3920:	50168683          	lb	a3,1281(a3)
    3924:	2f370703          	lb	a4,755(a4)
    3928:	8f95                	c.sub	a5,a3
    392a:	8d19                	c.sub	a0,a4
    392c:	8bfd                	c.andi	a5,31
    392e:	897d                	c.andi	a0,31
    3930:	953e                	c.add	a0,a5
    3932:	c399                	c.beqz	a5,3938 <blc_ll_getTxFifoNumber+0x70>
    3934:	00008067          	ret
    3938:	0505                	c.addi	a0,1
    393a:	0ff57513          	andi	a0,a0,255
    393e:	8082                	c.jr	ra

00003940 <cpu_stall_WakeUp_By_RF_SystemTick>:
    3940:	300027f3          	csrr	a5,mstatus
    3944:	8ba1                	c.andi	a5,8
    3946:	c399                	c.beqz	a5,394c <cpu_stall_WakeUp_By_RF_SystemTick+0xc>
    3948:	30047773          	csrrci	a4,mstatus,8
    394c:	e4002737          	lui	a4,0xe4002
    3950:	801418b7          	lui	a7,0x80141
    3954:	80140837          	lui	a6,0x80140
    3958:	a1c89e03          	lh	t3,-1508(a7) # 80140a1c <_DATA_LMA_START+0x601322e8>
    395c:	20880e83          	lb	t4,520(a6) # 80140208 <_DATA_LMA_START+0x60131ad4>
    3960:	00072303          	lw	t1,0(a4) # e4002000 <_DATA_LMA_START+0xc3ff38cc>
    3964:	4314                	c.lw	a3,0(a4)
    3966:	6f11                	c.lui	t5,0x4
    3968:	0026e693          	ori	a3,a3,2
    396c:	c314                	c.sw	a3,0(a4)
    396e:	4314                	c.lw	a3,0(a4)
    3970:	01e6e6b3          	or	a3,a3,t5
    3974:	00d72023          	sw	a3,0(a4)
    3978:	a0b89e23          	sh	a1,-1508(a7)
    397c:	00057c5b          	bbc	a0,0,3994 <cpu_stall_WakeUp_By_RF_SystemTick+0x54>
    3980:	20c82223          	sw	a2,516(a6)
    3984:	20880703          	lb	a4,520(a6)
    3988:	0ff77713          	andi	a4,a4,255
    398c:	00176713          	ori	a4,a4,1
    3990:	20e80423          	sb	a4,520(a6)
    3994:	10500073          	wfi
    3998:	80141837          	lui	a6,0x80141
    399c:	577d                	c.li	a4,-1
    399e:	a2e81023          	sh	a4,-1504(a6) # 80140a20 <_DATA_LMA_START+0x601322ec>
    39a2:	80140537          	lui	a0,0x80140
    39a6:	e4002737          	lui	a4,0xe4002
    39aa:	4685                	c.li	a3,1
    39ac:	20d504a3          	sb	a3,521(a0) # 80140209 <_DATA_LMA_START+0x60131ad5>
    39b0:	75f1                	c.lui	a1,0xffffc
    39b2:	4310                	c.lw	a2,0(a4)
    39b4:	15f5                	c.addi	a1,-3
    39b6:	8e6d                	c.and	a2,a1
    39b8:	c310                	c.sw	a2,0(a4)
    39ba:	4314                	c.lw	a3,0(a4)
    39bc:	0066e6b3          	or	a3,a3,t1
    39c0:	c314                	c.sw	a3,0(a4)
    39c2:	a1c81e23          	sh	t3,-1508(a6)
    39c6:	21d50423          	sb	t4,520(a0)
    39ca:	c399                	c.beqz	a5,39d0 <cpu_stall_WakeUp_By_RF_SystemTick+0x90>
    39cc:	3007a7f3          	csrrs	a5,mstatus,a5
    39d0:	4501                	c.li	a0,0
    39d2:	8082                	c.jr	ra

000039d4 <analog_write_reg8>:
    39d4:	30002673          	csrr	a2,mstatus
    39d8:	8a21                	c.andi	a2,8
    39da:	c219                	c.beqz	a2,39e0 <analog_write_reg8+0xc>
    39dc:	300477f3          	csrrci	a5,mstatus,8
    39e0:	80140737          	lui	a4,0x80140
    39e4:	18a70023          	sb	a0,384(a4) # 80140180 <_DATA_LMA_START+0x60131a4c>
    39e8:	18b70223          	sb	a1,388(a4)
    39ec:	06000693          	li	a3,96
    39f0:	801407b7          	lui	a5,0x80140
    39f4:	18d70123          	sb	a3,386(a4)
    39f8:	18278703          	lb	a4,386(a5) # 80140182 <_DATA_LMA_START+0x60131a4e>
    39fc:	fe777e5b          	bbs	a4,7,39f8 <analog_write_reg8+0x24>
    3a00:	18078123          	sb	zero,386(a5)
    3a04:	00060463          	beqz	a2,3a0c <analog_write_reg8+0x38>
    3a08:	30062673          	csrrs	a2,mstatus,a2
    3a0c:	00008067          	ret

00003a10 <rf_drv_ble_init>:
    3a10:	1141                	c.addi	sp,-16
    3a12:	6789                	c.lui	a5,0x2
    3a14:	c422                	c.swsp	s0,8(sp)
    3a16:	c226                	c.swsp	s1,4(sp)
    3a18:	80141437          	lui	s0,0x80141
    3a1c:	c04a                	c.swsp	s2,0(sp)
    3a1e:	c606                	c.swsp	ra,12(sp)
    3a20:	99b78793          	addi	a5,a5,-1637 # 199b <bls_ll_setNewConnection_timing+0x47>
    3a24:	ecf41923          	sh	a5,-302(s0) # 80140ed2 <_DATA_LMA_START+0x6013279e>
    3a28:	6905                	c.lui	s2,0x1
    3a2a:	47b9                	c.li	a5,14
    3a2c:	c6f40da3          	sb	a5,-901(s0)
    3a30:	90e90793          	addi	a5,s2,-1778 # 90e <pkt_mtu_rsp+0x2>
    3a34:	e4f41523          	sh	a5,-438(s0)
    3a38:	080c17b7          	lui	a5,0x80c1
    3a3c:	649d                	c.lui	s1,0x7
    3a3e:	90e78793          	addi	a5,a5,-1778 # 80c090e <FLASH_SIZE+0x7fc090e>
    3a42:	e4f42a23          	sw	a5,-428(s0)
    3a46:	35048793          	addi	a5,s1,848 # 7350 <_RAMCODE_VMA_END+0x104e>
    3a4a:	c6f41b23          	sh	a5,-906(s0)
    3a4e:	6799                	c.lui	a5,0x6
    3a50:	58678793          	addi	a5,a5,1414 # 6586 <_RAMCODE_VMA_END+0x284>
    3a54:	4591                	c.li	a1,4
    3a56:	08b00513          	li	a0,139
    3a5a:	82f41d23          	sh	a5,-1990(s0)
    3a5e:	3f9d                	c.jal	39d4 <analog_write_reg8>
    3a60:	06100793          	li	a5,97
    3a64:	e2f40ea3          	sb	a5,-451(s0)
    3a68:	232017b7          	lui	a5,0x23201
    3a6c:	a1678793          	addi	a5,a5,-1514 # 23200a16 <_DATA_LMA_START+0x31f22e2>
    3a70:	e2f42023          	sw	a5,-480(s0)
    3a74:	f8400793          	li	a5,-124
    3a78:	c2f40023          	sb	a5,-992(s0)
    3a7c:	c2040123          	sb	zero,-990(s0)
    3a80:	4785                	c.li	a5,1
    3a82:	c4f406a3          	sb	a5,-947(s0)
    3a86:	4779                	c.li	a4,30
    3a88:	c4e40723          	sb	a4,-946(s0)
    3a8c:	eb790913          	addi	s2,s2,-329
    3a90:	c3241b23          	sh	s2,-970(s0)
    3a94:	1c448493          	addi	s1,s1,452
    3a98:	c2941c23          	sh	s1,-968(s0)
    3a9c:	c6f409a3          	sb	a5,-909(s0)
    3aa0:	03800793          	li	a5,56
    3aa4:	c6f40ca3          	sb	a5,-903(s0)
    3aa8:	6795                	c.lui	a5,0x5
    3aaa:	c8040d23          	sb	zero,-870(s0)
    3aae:	b3978793          	addi	a5,a5,-1223 # 4b39 <bls_ll_procRxPacket.constprop.18+0x59>
    3ab2:	ccf41123          	sh	a5,-830(s0)
    3ab6:	796e67b7          	lui	a5,0x796e6
    3aba:	25678793          	addi	a5,a5,598 # 796e6256 <_DATA_LMA_START+0x596d7b22>
    3abe:	ccf42223          	sw	a5,-828(s0)
    3ac2:	444617b7          	lui	a5,0x44461
    3ac6:	81f78793          	addi	a5,a5,-2017 # 4446081f <_DATA_LMA_START+0x244520eb>
    3aca:	80f42023          	sw	a5,-2048(s0)
    3ace:	4f500793          	li	a5,1269
    3ad2:	80f41223          	sh	a5,-2044(s0)
    3ad6:	80042423          	sw	zero,-2040(s0)
    3ada:	47fd                	c.li	a5,31
    3adc:	c4f40723          	sb	a5,-946(s0)
    3ae0:	03600793          	li	a5,54
    3ae4:	82f40823          	sb	a5,-2000(s0)
    3ae8:	a0040323          	sb	zero,-1530(s0)
    3aec:	05000793          	li	a5,80
    3af0:	a0f40623          	sb	a5,-1524(s0)
    3af4:	a0040723          	sb	zero,-1522(s0)
    3af8:	a0040823          	sb	zero,-1520(s0)
    3afc:	c2040783          	lb	a5,-992(s0)
    3b00:	0bf7f793          	andi	a5,a5,191
    3b04:	c2f40023          	sb	a5,-992(s0)
    3b08:	40b2                	c.lwsp	ra,12(sp)
    3b0a:	4422                	c.lwsp	s0,8(sp)
    3b0c:	4492                	c.lwsp	s1,4(sp)
    3b0e:	4902                	c.lwsp	s2,0(sp)
    3b10:	0141                	c.addi	sp,16
    3b12:	8082                	c.jr	ra

00003b14 <analog_read_reg8>:
    3b14:	300026f3          	csrr	a3,mstatus
    3b18:	8aa1                	c.andi	a3,8
    3b1a:	c299                	c.beqz	a3,3b20 <analog_read_reg8+0xc>
    3b1c:	300477f3          	csrrci	a5,mstatus,8
    3b20:	801407b7          	lui	a5,0x80140
    3b24:	18a78023          	sb	a0,384(a5) # 80140180 <_DATA_LMA_START+0x60131a4c>
    3b28:	00100713          	li	a4,1
    3b2c:	18e781a3          	sb	a4,387(a5)
    3b30:	04000613          	li	a2,64
    3b34:	80140737          	lui	a4,0x80140
    3b38:	18c78123          	sb	a2,386(a5)
    3b3c:	18270783          	lb	a5,386(a4) # 80140182 <_DATA_LMA_START+0x60131a4e>
    3b40:	fe77fe5b          	bbs	a5,7,3b3c <analog_read_reg8+0x28>
    3b44:	18470503          	lb	a0,388(a4)
    3b48:	0ff57513          	andi	a0,a0,255
    3b4c:	00068463          	beqz	a3,3b54 <analog_read_reg8+0x40>
    3b50:	3006a6f3          	csrrs	a3,mstatus,a3
    3b54:	00008067          	ret

00003b58 <clock_init.constprop.42>:
    3b58:	1141                	c.addi	sp,-16
    3b5a:	08000513          	li	a0,128
    3b5e:	c606                	c.swsp	ra,12(sp)
    3b60:	c422                	c.swsp	s0,8(sp)
    3b62:	3f4d                	c.jal	3b14 <analog_read_reg8>
    3b64:	0e057593          	andi	a1,a0,224
    3b68:	0105e593          	ori	a1,a1,16
    3b6c:	08000513          	li	a0,128
    3b70:	e65ff0ef          	jal	ra,39d4 <analog_write_reg8>
    3b74:	00900513          	li	a0,9
    3b78:	f9dff0ef          	jal	ra,3b14 <analog_read_reg8>
    3b7c:	0f357593          	andi	a1,a0,243
    3b80:	0085e593          	ori	a1,a1,8
    3b84:	4525                	c.li	a0,9
    3b86:	35b9                	c.jal	39d4 <analog_write_reg8>
    3b88:	0c000793          	li	a5,192
    3b8c:	899f940b          	addigp	s0,-1896 # 80098 <sys_clk>
    3b90:	00f41023          	sh	a5,0(s0)
    3b94:	4711                	c.li	a4,4
    3b96:	801407b7          	lui	a5,0x80140
    3b9a:	08100513          	li	a0,129
    3b9e:	1ee78da3          	sb	a4,507(a5) # 801401fb <_DATA_LMA_START+0x60131ac7>
    3ba2:	3f8d                	c.jal	3b14 <analog_read_reg8>
    3ba4:	04056593          	ori	a1,a0,64
    3ba8:	0ff5f593          	andi	a1,a1,255
    3bac:	08100513          	li	a0,129
    3bb0:	e25ff0ef          	jal	ra,39d4 <analog_write_reg8>
    3bb4:	08800513          	li	a0,136
    3bb8:	f5dff0ef          	jal	ra,3b14 <analog_read_reg8>
    3bbc:	be557c5b          	bbc	a0,5,3bb4 <clock_init.constprop.42+0x5c>
    3bc0:	08100513          	li	a0,129
    3bc4:	f51ff0ef          	jal	ra,3b14 <analog_read_reg8>
    3bc8:	0bf57593          	andi	a1,a0,191
    3bcc:	08100513          	li	a0,129
    3bd0:	e05ff0ef          	jal	ra,39d4 <analog_write_reg8>
    3bd4:	80140737          	lui	a4,0x80140
    3bd8:	10270783          	lb	a5,258(a4) # 80140102 <_DATA_LMA_START+0x601319ce>
    3bdc:	fe07fe5b          	bbs	a5,0,3bd8 <clock_init.constprop.42+0x80>
    3be0:	10170683          	lb	a3,257(a4)
    3be4:	801407b7          	lui	a5,0x80140
    3be8:	0ff6f693          	andi	a3,a3,255
    3bec:	0106e693          	ori	a3,a3,16
    3bf0:	10d700a3          	sb	a3,257(a4)
    3bf4:	32878703          	lb	a4,808(a5) # 80140328 <_DATA_LMA_START+0x60131bf4>
    3bf8:	be377e5b          	bbc	a4,3,3bf4 <clock_init.constprop.42+0x9c>
    3bfc:	1e978703          	lb	a4,489(a5)
    3c00:	aaaab637          	lui	a2,0xaaaab
    3c04:	8b3d                	c.andi	a4,15
    3c06:	04076713          	ori	a4,a4,64
    3c0a:	1ee784a3          	sb	a4,489(a5)
    3c0e:	1e878703          	lb	a4,488(a5)
    3c12:	aab60613          	addi	a2,a2,-1365 # aaaaaaab <_DATA_LMA_START+0x8aa9c377>
    3c16:	f8076713          	ori	a4,a4,-128
    3c1a:	0ff77713          	andi	a4,a4,255
    3c1e:	1ee78423          	sb	a4,488(a5)
    3c22:	1e878703          	lb	a4,488(a5)
    3c26:	f8076713          	ori	a4,a4,-128
    3c2a:	0ff77713          	andi	a4,a4,255
    3c2e:	1ee78423          	sb	a4,488(a5)
    3c32:	1d878703          	lb	a4,472(a5)
    3c36:	00045683          	lhu	a3,0(s0)
    3c3a:	0fb77713          	andi	a4,a4,251
    3c3e:	1ce78c23          	sb	a4,472(a5)
    3c42:	1d878703          	lb	a4,472(a5)
    3c46:	8289                	c.srli	a3,0x2
    3c48:	00d402a3          	sb	a3,5(s0)
    3c4c:	0fc77713          	andi	a4,a4,252
    3c50:	1ce78c23          	sb	a4,472(a5)
    3c54:	1e878703          	lb	a4,488(a5)
    3c58:	0f077713          	andi	a4,a4,240
    3c5c:	00c76713          	ori	a4,a4,12
    3c60:	1ee78423          	sb	a4,488(a5)
    3c64:	00045703          	lhu	a4,0(s0)
    3c68:	1e878683          	lb	a3,488(a5)
    3c6c:	02c73733          	mulhu	a4,a4,a2
    3c70:	08f6f693          	andi	a3,a3,143
    3c74:	0206e693          	ori	a3,a3,32
    3c78:	1ed78423          	sb	a3,488(a5)
    3c7c:	00375793          	srli	a5,a4,0x3
    3c80:	00f40123          	sb	a5,2(s0)
    3c84:	0ff7f793          	andi	a5,a5,255
    3c88:	00f401a3          	sb	a5,3(s0)
    3c8c:	00f40223          	sb	a5,4(s0)
    3c90:	40b2                	c.lwsp	ra,12(sp)
    3c92:	4422                	c.lwsp	s0,8(sp)
    3c94:	0141                	c.addi	sp,16
    3c96:	8082                	c.jr	ra

00003c98 <pm_wait_bbpll_done>:
    3c98:	1101                	c.addi	sp,-32
    3c9a:	08100513          	li	a0,129
    3c9e:	cc22                	c.swsp	s0,24(sp)
    3ca0:	ca26                	c.swsp	s1,20(sp)
    3ca2:	c84a                	c.swsp	s2,16(sp)
    3ca4:	ce06                	c.swsp	ra,28(sp)
    3ca6:	35bd                	c.jal	3b14 <analog_read_reg8>
    3ca8:	04056593          	ori	a1,a0,64
    3cac:	892a                	c.mv	s2,a0
    3cae:	0ff5f593          	andi	a1,a1,255
    3cb2:	08100513          	li	a0,129
    3cb6:	0bf97913          	andi	s2,s2,191
    3cba:	4481                	c.li	s1,0
    3cbc:	4475                	c.li	s0,29
    3cbe:	3b19                	c.jal	39d4 <analog_write_reg8>
    3cc0:	000107a3          	sb	zero,15(sp)
    3cc4:	00f10783          	lb	a5,15(sp)
    3cc8:	0ff7f793          	andi	a5,a5,255
    3ccc:	02f46063          	bltu	s0,a5,3cec <pm_wait_bbpll_done+0x54>
    3cd0:	0001                	c.nop
    3cd2:	00f10783          	lb	a5,15(sp)
    3cd6:	0785                	c.addi	a5,1
    3cd8:	0ff7f793          	andi	a5,a5,255
    3cdc:	00f107a3          	sb	a5,15(sp)
    3ce0:	00f10783          	lb	a5,15(sp)
    3ce4:	0ff7f793          	andi	a5,a5,255
    3ce8:	fef474e3          	bgeu	s0,a5,3cd0 <pm_wait_bbpll_done+0x38>
    3cec:	08800513          	li	a0,136
    3cf0:	e25ff0ef          	jal	ra,3b14 <analog_read_reg8>
    3cf4:	4255765b          	bbs	a0,5,3d20 <pm_wait_bbpll_done+0x88>
    3cf8:	cc95                	c.beqz	s1,3d34 <pm_wait_bbpll_done+0x9c>
    3cfa:	0414d35b          	beqc	s1,1,3d40 <pm_wait_bbpll_done+0xa8>
    3cfe:	85ca                	c.mv	a1,s2
    3d00:	08100513          	li	a0,129
    3d04:	cd1ff0ef          	jal	ra,39d4 <analog_write_reg8>
    3d08:	0024d65b          	beqc	s1,2,3d14 <pm_wait_bbpll_done+0x7c>
    3d0c:	0485                	c.addi	s1,1
    3d0e:	0ff4f493          	andi	s1,s1,255
    3d12:	b77d                	c.j	3cc0 <pm_wait_bbpll_done+0x28>
    3d14:	40f2                	c.lwsp	ra,28(sp)
    3d16:	4462                	c.lwsp	s0,24(sp)
    3d18:	44d2                	c.lwsp	s1,20(sp)
    3d1a:	4942                	c.lwsp	s2,16(sp)
    3d1c:	6105                	c.addi16sp	sp,32
    3d1e:	8082                	c.jr	ra
    3d20:	4462                	c.lwsp	s0,24(sp)
    3d22:	40f2                	c.lwsp	ra,28(sp)
    3d24:	44d2                	c.lwsp	s1,20(sp)
    3d26:	85ca                	c.mv	a1,s2
    3d28:	4942                	c.lwsp	s2,16(sp)
    3d2a:	08100513          	li	a0,129
    3d2e:	6105                	c.addi16sp	sp,32
    3d30:	ca5ff06f          	j	39d4 <analog_write_reg8>
    3d34:	04600593          	li	a1,70
    3d38:	4505                	c.li	a0,1
    3d3a:	3969                	c.jal	39d4 <analog_write_reg8>
    3d3c:	fd1ff06f          	j	3d0c <pm_wait_bbpll_done+0x74>
    3d40:	04300593          	li	a1,67
    3d44:	4505                	c.li	a0,1
    3d46:	3179                	c.jal	39d4 <analog_write_reg8>
    3d48:	fc5ff06f          	j	3d0c <pm_wait_bbpll_done+0x74>

00003d4c <pm_sleep_start>:
    3d4c:	1101                	c.addi	sp,-32
    3d4e:	8c3fa72b          	lwgp	a4,-1856 # 800c0 <_BSS_VMA_START>
    3d52:	000006b7          	lui	a3,0x0
    3d56:	ce06                	c.swsp	ra,28(sp)
    3d58:	cc22                	c.swsp	s0,24(sp)
    3d5a:	0ff00793          	li	a5,255
    3d5e:	6546c583          	lbu	a1,1620(a3) # 654 <g_pm_suspend_power_cfg>
    3d62:	16f70f63          	beq	a4,a5,3ee0 <pm_sleep_start+0x194>
    3d66:	07d00513          	li	a0,125
    3d6a:	31ad                	c.jal	39d4 <analog_write_reg8>
    3d6c:	801406b7          	lui	a3,0x80140
    3d70:	10268783          	lb	a5,258(a3) # 80140102 <_DATA_LMA_START+0x601319ce>
    3d74:	fe07fe5b          	bbs	a5,0,3d70 <pm_sleep_start+0x24>
    3d78:	10168783          	lb	a5,257(a3)
    3d7c:	80140737          	lui	a4,0x80140
    3d80:	0ff7f793          	andi	a5,a5,255
    3d84:	0107e793          	ori	a5,a5,16
    3d88:	10f680a3          	sb	a5,257(a3)
    3d8c:	32870783          	lb	a5,808(a4) # 80140328 <_DATA_LMA_START+0x60131bf4>
    3d90:	be37fe5b          	bbc	a5,3,3d8c <pm_sleep_start+0x40>
    3d94:	10170783          	lb	a5,257(a4)
    3d98:	80140437          	lui	s0,0x80140
    3d9c:	0fd7f793          	andi	a5,a5,253
    3da0:	10f700a3          	sb	a5,257(a4)
    3da4:	10170783          	lb	a5,257(a4)
    3da8:	0ef7f793          	andi	a5,a5,239
    3dac:	10f700a3          	sb	a5,257(a4)
    3db0:	fb900793          	li	a5,-71
    3db4:	10f70023          	sb	a5,256(a4)
    3db8:	10240783          	lb	a5,258(s0) # 80140102 <_DATA_LMA_START+0x601319ce>
    3dbc:	fe07fe5b          	bbs	a5,0,3db8 <pm_sleep_start+0x6c>
    3dc0:	10140783          	lb	a5,257(s0)
    3dc4:	452d                	c.li	a0,11
    3dc6:	0ff7f793          	andi	a5,a5,255
    3dca:	0107e793          	ori	a5,a5,16
    3dce:	10f400a3          	sb	a5,257(s0)
    3dd2:	320404a3          	sb	zero,809(s0)
    3dd6:	3b3d                	c.jal	3b14 <analog_read_reg8>
    3dd8:	0fc57593          	andi	a1,a0,252
    3ddc:	452d                	c.li	a0,11
    3dde:	3edd                	c.jal	39d4 <analog_write_reg8>
    3de0:	08100513          	li	a0,129
    3de4:	d31ff0ef          	jal	ra,3b14 <analog_read_reg8>
    3de8:	f8056593          	ori	a1,a0,-128
    3dec:	0ff5f593          	andi	a1,a1,255
    3df0:	08100513          	li	a0,129
    3df4:	be1ff0ef          	jal	ra,39d4 <analog_write_reg8>
    3df8:	f8000793          	li	a5,-128
    3dfc:	1ef407a3          	sb	a5,495(s0)
    3e00:	c402                	c.swsp	zero,8(sp)
    3e02:	4722                	c.lwsp	a4,8(sp)
    3e04:	03f00793          	li	a5,63
    3e08:	00e7ec63          	bltu	a5,a4,3e20 <pm_sleep_start+0xd4>
    3e0c:	03f00713          	li	a4,63
    3e10:	0001                	c.nop
    3e12:	47a2                	c.lwsp	a5,8(sp)
    3e14:	0785                	c.addi	a5,1
    3e16:	c43e                	c.swsp	a5,8(sp)
    3e18:	00812783          	lw	a5,8(sp)
    3e1c:	fef77ae3          	bgeu	a4,a5,3e10 <pm_sleep_start+0xc4>
    3e20:	08100513          	li	a0,129
    3e24:	cf1ff0ef          	jal	ra,3b14 <analog_read_reg8>
    3e28:	07f57593          	andi	a1,a0,127
    3e2c:	08100513          	li	a0,129
    3e30:	ba5ff0ef          	jal	ra,39d4 <analog_write_reg8>
    3e34:	00b00513          	li	a0,11
    3e38:	cddff0ef          	jal	ra,3b14 <analog_read_reg8>
    3e3c:	00356593          	ori	a1,a0,3
    3e40:	0ff5f593          	andi	a1,a1,255
    3e44:	452d                	c.li	a0,11
    3e46:	3679                	c.jal	39d4 <analog_write_reg8>
    3e48:	08000593          	li	a1,128
    3e4c:	07d00513          	li	a0,125
    3e50:	b85ff0ef          	jal	ra,39d4 <analog_write_reg8>
    3e54:	c602                	c.swsp	zero,12(sp)
    3e56:	4732                	c.lwsp	a4,12(sp)
    3e58:	12b00793          	li	a5,299
    3e5c:	00e7ec63          	bltu	a5,a4,3e74 <pm_sleep_start+0x128>
    3e60:	12b00713          	li	a4,299
    3e64:	0001                	c.nop
    3e66:	47b2                	c.lwsp	a5,12(sp)
    3e68:	0785                	c.addi	a5,1
    3e6a:	c63e                	c.swsp	a5,12(sp)
    3e6c:	00c12783          	lw	a5,12(sp)
    3e70:	fef77ae3          	bgeu	a4,a5,3e64 <pm_sleep_start+0x118>
    3e74:	08800513          	li	a0,136
    3e78:	c9dff0ef          	jal	ra,3b14 <analog_read_reg8>
    3e7c:	be757c5b          	bbc	a0,7,3e74 <pm_sleep_start+0x128>
    3e80:	08800513          	li	a0,136
    3e84:	c91ff0ef          	jal	ra,3b14 <analog_read_reg8>
    3e88:	be757c5b          	bbc	a0,7,3e80 <pm_sleep_start+0x134>
    3e8c:	08800513          	li	a0,136
    3e90:	c85ff0ef          	jal	ra,3b14 <analog_read_reg8>
    3e94:	be757c5b          	bbc	a0,7,3e8c <pm_sleep_start+0x140>
    3e98:	e01ff0ef          	jal	ra,3c98 <pm_wait_bbpll_done>
    3e9c:	801407b7          	lui	a5,0x80140
    3ea0:	03f00713          	li	a4,63
    3ea4:	32e784a3          	sb	a4,809(a5) # 80140329 <_DATA_LMA_START+0x60131bf5>
    3ea8:	10178683          	lb	a3,257(a5)
    3eac:	80140737          	lui	a4,0x80140
    3eb0:	0ef6f693          	andi	a3,a3,239
    3eb4:	10d780a3          	sb	a3,257(a5)
    3eb8:	fab00693          	li	a3,-85
    3ebc:	10d78023          	sb	a3,256(a5)
    3ec0:	10270783          	lb	a5,258(a4) # 80140102 <_DATA_LMA_START+0x601319ce>
    3ec4:	fe07fe5b          	bbs	a5,0,3ec0 <pm_sleep_start+0x174>
    3ec8:	10170783          	lb	a5,257(a4)
    3ecc:	0ff7f793          	andi	a5,a5,255
    3ed0:	0107e793          	ori	a5,a5,16
    3ed4:	10f700a3          	sb	a5,257(a4)
    3ed8:	40f2                	c.lwsp	ra,28(sp)
    3eda:	4462                	c.lwsp	s0,24(sp)
    3edc:	6105                	c.addi16sp	sp,32
    3ede:	8082                	c.jr	ra
    3ee0:	0fe5f593          	andi	a1,a1,254
    3ee4:	07d00513          	li	a0,125
    3ee8:	aedff0ef          	jal	ra,39d4 <analog_write_reg8>
    3eec:	e81ff06f          	j	3d6c <pm_sleep_start+0x20>

00003ef0 <cpu_sleep_wakeup_32k_rc_ram>:
    3ef0:	7179                	c.addi16sp	sp,-48
    3ef2:	d422                	c.swsp	s0,40(sp)
    3ef4:	d226                	c.swsp	s1,36(sp)
    3ef6:	ce4e                	c.swsp	s3,28(sp)
    3ef8:	cc52                	c.swsp	s4,24(sp)
    3efa:	ca56                	c.swsp	s5,20(sp)
    3efc:	c266                	c.swsp	s9,4(sp)
    3efe:	c06a                	c.swsp	s10,0(sp)
    3f00:	d606                	c.swsp	ra,44(sp)
    3f02:	8d2e                	c.mv	s10,a1
    3f04:	d04a                	c.swsp	s2,32(sp)
    3f06:	c85a                	c.swsp	s6,16(sp)
    3f08:	c65e                	c.swsp	s7,12(sp)
    3f0a:	c462                	c.swsp	s8,8(sp)
    3f0c:	89aa                	c.mv	s3,a0
    3f0e:	8ab2                	c.mv	s5,a2
    3f10:	819fe0ef          	jal	ra,2728 <pm_get_32k_rc_calib>
    3f14:	801407b7          	lui	a5,0x80140
    3f18:	00000437          	lui	s0,0x0
    3f1c:	17840413          	addi	s0,s0,376 # 178 <_AES_VMA_END>
    3f20:	2007a483          	lw	s1,512(a5) # 80140200 <_DATA_LMA_START+0x60131acc>
    3f24:	020d7a13          	andi	s4,s10,32
    3f28:	42a42823          	sw	a0,1072(s0)
    3f2c:	00a00cb3          	add	s9,zero,a0
    3f30:	020a0063          	beqz	s4,3f50 <cpu_sleep_wakeup_32k_rc_ram+0x60>
    3f34:	409a84b3          	sub	s1,s5,s1
    3f38:	e0000737          	lui	a4,0xe0000
    3f3c:	34976463          	bltu	a4,s1,4284 <cpu_sleep_wakeup_32k_rc_ram+0x394>
    3f40:	88df970b          	addigp	a4,-1908 # 8008c <g_pm_early_wakeup_time_us>
    3f44:	00671703          	lh	a4,6(a4) # e0000006 <_DATA_LMA_START+0xbfff18d2>
    3f48:	1137275b          	bfoz	a4,a4,4,19
    3f4c:	34e4e463          	bltu	s1,a4,4294 <cpu_sleep_wakeup_32k_rc_ram+0x3a4>
    3f50:	300024f3          	csrr	s1,mstatus
    3f54:	88a1                	c.andi	s1,8
    3f56:	e88d                	c.bnez	s1,3f88 <cpu_sleep_wakeup_32k_rc_ram+0x98>
    3f58:	4e042783          	lw	a5,1248(s0)
    3f5c:	cb95                	c.beqz	a5,3f90 <cpu_sleep_wakeup_32k_rc_ram+0xa0>
    3f5e:	9782                	c.jalr	a5
    3f60:	e905                	c.bnez	a0,3f90 <cpu_sleep_wakeup_32k_rc_ram+0xa0>
    3f62:	4521                	c.li	a0,8
    3f64:	00048463          	beqz	s1,3f6c <cpu_sleep_wakeup_32k_rc_ram+0x7c>
    3f68:	3004a4f3          	csrrs	s1,mstatus,s1
    3f6c:	50b2                	c.lwsp	ra,44(sp)
    3f6e:	5422                	c.lwsp	s0,40(sp)
    3f70:	5492                	c.lwsp	s1,36(sp)
    3f72:	5902                	c.lwsp	s2,32(sp)
    3f74:	49f2                	c.lwsp	s3,28(sp)
    3f76:	4a62                	c.lwsp	s4,24(sp)
    3f78:	4ad2                	c.lwsp	s5,20(sp)
    3f7a:	4b42                	c.lwsp	s6,16(sp)
    3f7c:	4bb2                	c.lwsp	s7,12(sp)
    3f7e:	4c22                	c.lwsp	s8,8(sp)
    3f80:	4c92                	c.lwsp	s9,4(sp)
    3f82:	4d02                	c.lwsp	s10,0(sp)
    3f84:	6145                	c.addi16sp	sp,48
    3f86:	8082                	c.jr	ra
    3f88:	300477f3          	csrrci	a5,mstatus,8
    3f8c:	fcdff06f          	j	3f58 <cpu_sleep_wakeup_32k_rc_ram+0x68>
    3f90:	80140937          	lui	s2,0x80140
    3f94:	1e890b03          	lb	s6,488(s2) # 801401e8 <_DATA_LMA_START+0x60131ab4>
    3f98:	00f9fc13          	andi	s8,s3,15
    3f9c:	08fb7793          	andi	a5,s6,143
    3fa0:	1ef90423          	sb	a5,488(s2)
    3fa4:	1d890b83          	lb	s7,472(s2)
    3fa8:	0f8bf793          	andi	a5,s7,248
    3fac:	1cf90c23          	sb	a5,472(s2)
    3fb0:	20890783          	lb	a5,520(s2)
    3fb4:	0fe7f793          	andi	a5,a5,254
    3fb8:	20f90423          	sb	a5,520(s2)
    3fbc:	00100793          	li	a5,1
    3fc0:	20f90c23          	sb	a5,536(s2)
    3fc4:	20a90783          	lb	a5,522(s2)
    3fc8:	0f77f793          	andi	a5,a5,247
    3fcc:	20f90523          	sb	a5,522(s2)
    3fd0:	de0ff0ef          	jal	ra,35b0 <clock_get_32k_tick>
    3fd4:	4789                	c.li	a5,2
    3fd6:	20f905a3          	sb	a5,523(s2)
    3fda:	20092783          	lw	a5,512(s2)
    3fde:	4ea42223          	sw	a0,1252(s0)
    3fe2:	85be                	c.mv	a1,a5
    3fe4:	4ef42423          	sw	a5,1256(s0)
    3fe8:	f88fe0ef          	jal	ra,2770 <pm_update_32k_rc_sleep_tick>
    3fec:	0ffd7593          	andi	a1,s10,255
    3ff0:	04b00513          	li	a0,75
    3ff4:	9e1ff0ef          	jal	ra,39d4 <analog_write_reg8>
    3ff8:	45fd                	c.li	a1,31
    3ffa:	06400513          	li	a0,100
    3ffe:	3ad9                	c.jal	39d4 <analog_write_reg8>
    4000:	0ff9f593          	andi	a1,s3,255
    4004:	07e00513          	li	a0,126
    4008:	9cdff0ef          	jal	ra,39d4 <analog_write_reg8>
    400c:	040d7793          	andi	a5,s10,64
    4010:	1a0c1e63          	bnez	s8,41cc <cpu_sleep_wakeup_32k_rc_ram+0x2dc>
    4014:	2f09d6db          	beqc	s3,48,4300 <cpu_sleep_wakeup_32k_rc_ram+0x410>
    4018:	32078263          	beqz	a5,433c <cpu_sleep_wakeup_32k_rc_ram+0x44c>
    401c:	06000593          	li	a1,96
    4020:	04d00513          	li	a0,77
    4024:	9b1ff0ef          	jal	ra,39d4 <analog_write_reg8>
    4028:	4585                	c.li	a1,1
    402a:	07f00513          	li	a0,127
    402e:	325d                	c.jal	39d4 <analog_write_reg8>
    4030:	88df992b          	lhgp	s2,-1908 # 8008c <g_pm_early_wakeup_time_us>
    4034:	3c09295b          	bfoz	s2,s2,15,0
    4038:	00491913          	slli	s2,s2,0x4
    403c:	0e0d7d13          	andi	s10,s10,224
    4040:	412a8933          	sub	s2,s5,s2
    4044:	1c0d0063          	beqz	s10,4204 <cpu_sleep_wakeup_32k_rc_ram+0x314>
    4048:	0ee00593          	li	a1,238
    404c:	04c00513          	li	a0,76
    4050:	985ff0ef          	jal	ra,39d4 <analog_write_reg8>
    4054:	1d09d0db          	beqc	s3,48,4214 <cpu_sleep_wakeup_32k_rc_ram+0x324>
    4058:	895f978b          	addigp	a5,-1900 # 80094 <g_pm_r_delay_cycle>
    405c:	00279583          	lh	a1,2(a5)
    4060:	04000513          	li	a0,64
    4064:	0ff5f593          	andi	a1,a1,255
    4068:	96dff0ef          	jal	ra,39d4 <analog_write_reg8>
    406c:	40442783          	lw	a5,1028(s0)
    4070:	40f907b3          	sub	a5,s2,a5
    4074:	1a0a0e63          	beqz	s4,4230 <cpu_sleep_wakeup_32k_rc_ram+0x340>
    4078:	0ff00737          	lui	a4,0xff00
    407c:	26f77663          	bgeu	a4,a5,42e8 <cpu_sleep_wakeup_32k_rc_ram+0x3f8>
    4080:	00100713          	li	a4,1
    4084:	42e40a23          	sb	a4,1076(s0)
    4088:	43042683          	lw	a3,1072(s0)
    408c:	40842583          	lw	a1,1032(s0)
    4090:	02d7d533          	divu	a0,a5,a3
    4094:	4e442703          	lw	a4,1252(s0)
    4098:	40000637          	lui	a2,0x40000
    409c:	00370793          	addi	a5,a4,3 # ff00003 <FLASH_SIZE+0xfe00003>
    40a0:	0512                	c.slli	a0,0x4
    40a2:	952e                	c.add	a0,a1
    40a4:	8f89                	c.sub	a5,a0
    40a6:	02c7f163          	bgeu	a5,a2,40c8 <cpu_sleep_wakeup_32k_rc_ram+0x1d8>
    40aa:	4e842783          	lw	a5,1256(s0)
    40ae:	40e42423          	sw	a4,1032(s0)
    40b2:	0017e793          	ori	a5,a5,1
    40b6:	40f90533          	sub	a0,s2,a5
    40ba:	02d55533          	divu	a0,a0,a3
    40be:	40f42223          	sw	a5,1028(s0)
    40c2:	0512                	c.slli	a0,0x4
    40c4:	00e50533          	add	a0,a0,a4
    40c8:	c88ff0ef          	jal	ra,3550 <clock_set_32k_tick>
    40cc:	06400513          	li	a0,100
    40d0:	a45ff0ef          	jal	ra,3b14 <analog_read_reg8>
    40d4:	01f57513          	andi	a0,a0,31
    40d8:	00051a63          	bnez	a0,40ec <cpu_sleep_wakeup_32k_rc_ram+0x1fc>
    40dc:	240c1863          	bnez	s8,432c <cpu_sleep_wakeup_32k_rc_ram+0x43c>
    40e0:	c6dff0ef          	jal	ra,3d4c <pm_sleep_start>
    40e4:	4585                	c.li	a1,1
    40e6:	07f00513          	li	a0,127
    40ea:	30ed                	c.jal	39d4 <analog_write_reg8>
    40ec:	0109e8db          	bnec	s3,48,40fc <cpu_sleep_wakeup_32k_rc_ram+0x20c>
    40f0:	801407b7          	lui	a5,0x80140
    40f4:	02000713          	li	a4,32
    40f8:	1ee787a3          	sb	a4,495(a5) # 801401ef <_DATA_LMA_START+0x60131abb>
    40fc:	801407b7          	lui	a5,0x80140
    4100:	20878703          	lb	a4,520(a5) # 80140208 <_DATA_LMA_START+0x60131ad4>
    4104:	0ff77713          	andi	a4,a4,255
    4108:	00176713          	ori	a4,a4,1
    410c:	20e78423          	sb	a4,520(a5)
    4110:	00200713          	li	a4,2
    4114:	20e78c23          	sb	a4,536(a5)
    4118:	20a78703          	lb	a4,522(a5)
    411c:	0ff77713          	andi	a4,a4,255
    4120:	00c76713          	ori	a4,a4,12
    4124:	20e78523          	sb	a4,522(a5)
    4128:	c88ff0ef          	jal	ra,35b0 <clock_get_32k_tick>
    412c:	43444783          	lbu	a5,1076(s0)
    4130:	0505                	c.addi	a0,1
    4132:	18078b63          	beqz	a5,42c8 <cpu_sleep_wakeup_32k_rc_ram+0x3d8>
    4136:	4e442703          	lw	a4,1252(s0)
    413a:	4e842783          	lw	a5,1256(s0)
    413e:	43042683          	lw	a3,1072(s0)
    4142:	40e50733          	sub	a4,a0,a4
    4146:	8311                	c.srli	a4,0x4
    4148:	c4d717ff          	maddr32	a5,a4,a3
    414c:	4ef42423          	sw	a5,1256(s0)
    4150:	40842683          	lw	a3,1032(s0)
    4154:	00178793          	addi	a5,a5,1
    4158:	40d506b3          	sub	a3,a0,a3
    415c:	40d42e23          	sw	a3,1052(s0)
    4160:	42a42023          	sw	a0,1056(s0)
    4164:	801406b7          	lui	a3,0x80140
    4168:	80140737          	lui	a4,0x80140
    416c:	20f6a023          	sw	a5,512(a3) # 80140200 <_DATA_LMA_START+0x60131acc>
    4170:	20b70783          	lb	a5,523(a4) # 8014020b <_DATA_LMA_START+0x60131ad7>
    4174:	be77fe5b          	bbc	a5,7,4170 <cpu_sleep_wakeup_32k_rc_ram+0x280>
    4178:	06400513          	li	a0,100
    417c:	20070c23          	sb	zero,536(a4)
    4180:	995ff0ef          	jal	ra,3b14 <analog_read_reg8>
    4184:	00a00733          	add	a4,zero,a0
    4188:	00157e5b          	bbc	a0,1,41a4 <cpu_sleep_wakeup_32k_rc_ram+0x2b4>
    418c:	000a0c63          	beqz	s4,41a4 <cpu_sleep_wakeup_32k_rc_ram+0x2b4>
    4190:	80140637          	lui	a2,0x80140
    4194:	400006b7          	lui	a3,0x40000
    4198:	20062783          	lw	a5,512(a2) # 80140200 <_DATA_LMA_START+0x60131acc>
    419c:	415787b3          	sub	a5,a5,s5
    41a0:	fef6ece3          	bltu	a3,a5,4198 <cpu_sleep_wakeup_32k_rc_ram+0x2a8>
    41a4:	801407b7          	lui	a5,0x80140
    41a8:	1d778c23          	sb	s7,472(a5) # 801401d8 <_DATA_LMA_START+0x60131aa4>
    41ac:	1f678423          	sb	s6,488(a5)
    41b0:	00048463          	beqz	s1,41b8 <cpu_sleep_wakeup_32k_rc_ram+0x2c8>
    41b4:	3004a4f3          	csrrs	s1,mstatus,s1
    41b8:	08000513          	li	a0,128
    41bc:	da0708e3          	beqz	a4,3f6c <cpu_sleep_wakeup_32k_rc_ram+0x7c>
    41c0:	400007b7          	lui	a5,0x40000
    41c4:	00f76533          	or	a0,a4,a5
    41c8:	da5ff06f          	j	3f6c <cpu_sleep_wakeup_32k_rc_ram+0x7c>
    41cc:	12078263          	beqz	a5,42f0 <cpu_sleep_wakeup_32k_rc_ram+0x400>
    41d0:	0d000593          	li	a1,208
    41d4:	04d00513          	li	a0,77
    41d8:	ffcff0ef          	jal	ra,39d4 <analog_write_reg8>
    41dc:	801407b7          	lui	a5,0x80140
    41e0:	1047a703          	lw	a4,260(a5) # 80140104 <_DATA_LMA_START+0x601319d0>
    41e4:	88df978b          	addigp	a5,-1908 # 8008c <g_pm_early_wakeup_time_us>
    41e8:	00279903          	lh	s2,2(a5)
    41ec:	4ee42623          	sw	a4,1260(s0)
    41f0:	3c09295b          	bfoz	s2,s2,15,0
    41f4:	00491913          	slli	s2,s2,0x4
    41f8:	0e0d7d13          	andi	s10,s10,224
    41fc:	412a8933          	sub	s2,s5,s2
    4200:	e40d14e3          	bnez	s10,4048 <cpu_sleep_wakeup_32k_rc_ram+0x158>
    4204:	0ef00593          	li	a1,239
    4208:	04c00513          	li	a0,76
    420c:	fc8ff0ef          	jal	ra,39d4 <analog_write_reg8>
    4210:	a509e4db          	bnec	s3,48,4058 <cpu_sleep_wakeup_32k_rc_ram+0x168>
    4214:	895f95ab          	lhgp	a1,-1900 # 80094 <g_pm_r_delay_cycle>
    4218:	04000513          	li	a0,64
    421c:	0ff5f593          	andi	a1,a1,255
    4220:	fb4ff0ef          	jal	ra,39d4 <analog_write_reg8>
    4224:	40442783          	lw	a5,1028(s0)
    4228:	40f907b3          	sub	a5,s2,a5
    422c:	e40a16e3          	bnez	s4,4078 <cpu_sleep_wakeup_32k_rc_ram+0x188>
    4230:	43444703          	lbu	a4,1076(s0)
    4234:	e4071ae3          	bnez	a4,4088 <cpu_sleep_wakeup_32k_rc_ram+0x198>
    4238:	00479513          	slli	a0,a5,0x4
    423c:	001cdc93          	srli	s9,s9,0x1
    4240:	43042683          	lw	a3,1072(s0)
    4244:	9566                	c.add	a0,s9
    4246:	02d55533          	divu	a0,a0,a3
    424a:	40842583          	lw	a1,1032(s0)
    424e:	4e442703          	lw	a4,1252(s0)
    4252:	40000637          	lui	a2,0x40000
    4256:	00370793          	addi	a5,a4,3
    425a:	952e                	c.add	a0,a1
    425c:	8f89                	c.sub	a5,a0
    425e:	e6c7f5e3          	bgeu	a5,a2,40c8 <cpu_sleep_wakeup_32k_rc_ram+0x1d8>
    4262:	4e842783          	lw	a5,1256(s0)
    4266:	40e42423          	sw	a4,1032(s0)
    426a:	0017e793          	ori	a5,a5,1
    426e:	40f90933          	sub	s2,s2,a5
    4272:	00491513          	slli	a0,s2,0x4
    4276:	9caa                	c.add	s9,a0
    4278:	02dcd533          	divu	a0,s9,a3
    427c:	40f42223          	sw	a5,1028(s0)
    4280:	953a                	c.add	a0,a4
    4282:	b599                	c.j	40c8 <cpu_sleep_wakeup_32k_rc_ram+0x1d8>
    4284:	06400513          	li	a0,100
    4288:	88dff0ef          	jal	ra,3b14 <analog_read_reg8>
    428c:	01f57513          	andi	a0,a0,31
    4290:	cddff06f          	j	3f6c <cpu_sleep_wakeup_32k_rc_ram+0x7c>
    4294:	01d00593          	li	a1,29
    4298:	06400513          	li	a0,100
    429c:	80140937          	lui	s2,0x80140
    42a0:	2007a403          	lw	s0,512(a5)
    42a4:	f30ff0ef          	jal	ra,39d4 <analog_write_reg8>
    42a8:	0080006f          	j	42b0 <cpu_sleep_wakeup_32k_rc_ram+0x3c0>
    42ac:	cc0510e3          	bnez	a0,3f6c <cpu_sleep_wakeup_32k_rc_ram+0x7c>
    42b0:	06400513          	li	a0,100
    42b4:	861ff0ef          	jal	ra,3b14 <analog_read_reg8>
    42b8:	20092783          	lw	a5,512(s2) # 80140200 <_DATA_LMA_START+0x60131acc>
    42bc:	8975                	c.andi	a0,29
    42be:	8f81                	c.sub	a5,s0
    42c0:	fe97e6e3          	bltu	a5,s1,42ac <cpu_sleep_wakeup_32k_rc_ram+0x3bc>
    42c4:	ca9ff06f          	j	3f6c <cpu_sleep_wakeup_32k_rc_ram+0x7c>
    42c8:	4e442783          	lw	a5,1252(s0)
    42cc:	43042703          	lw	a4,1072(s0)
    42d0:	40f507b3          	sub	a5,a0,a5
    42d4:	02e787b3          	mul	a5,a5,a4
    42d8:	4e842703          	lw	a4,1256(s0)
    42dc:	8391                	c.srli	a5,0x4
    42de:	97ba                	c.add	a5,a4
    42e0:	4ef42423          	sw	a5,1256(s0)
    42e4:	e6dff06f          	j	4150 <cpu_sleep_wakeup_32k_rc_ram+0x260>
    42e8:	42040a23          	sb	zero,1076(s0)
    42ec:	f4dff06f          	j	4238 <cpu_sleep_wakeup_32k_rc_ram+0x348>
    42f0:	0d100593          	li	a1,209
    42f4:	04d00513          	li	a0,77
    42f8:	edcff0ef          	jal	ra,39d4 <analog_write_reg8>
    42fc:	ee1ff06f          	j	41dc <cpu_sleep_wakeup_32k_rc_ram+0x2ec>
    4300:	04079663          	bnez	a5,434c <cpu_sleep_wakeup_32k_rc_ram+0x45c>
    4304:	0f900593          	li	a1,249
    4308:	04d00513          	li	a0,77
    430c:	ec8ff0ef          	jal	ra,39d4 <analog_write_reg8>
    4310:	00100593          	li	a1,1
    4314:	07f00513          	li	a0,127
    4318:	ebcff0ef          	jal	ra,39d4 <analog_write_reg8>
    431c:	88df978b          	addigp	a5,-1908 # 8008c <g_pm_early_wakeup_time_us>
    4320:	00479903          	lh	s2,4(a5)
    4324:	3c09295b          	bfoz	s2,s2,15,0
    4328:	d11ff06f          	j	4038 <cpu_sleep_wakeup_32k_rc_ram+0x148>
    432c:	00000593          	li	a1,0
    4330:	07f00513          	li	a0,127
    4334:	ea0ff0ef          	jal	ra,39d4 <analog_write_reg8>
    4338:	da9ff06f          	j	40e0 <cpu_sleep_wakeup_32k_rc_ram+0x1f0>
    433c:	06100593          	li	a1,97
    4340:	04d00513          	li	a0,77
    4344:	e90ff0ef          	jal	ra,39d4 <analog_write_reg8>
    4348:	ce1ff06f          	j	4028 <cpu_sleep_wakeup_32k_rc_ram+0x138>
    434c:	0f800593          	li	a1,248
    4350:	04d00513          	li	a0,77
    4354:	e80ff0ef          	jal	ra,39d4 <analog_write_reg8>
    4358:	fb9ff06f          	j	4310 <cpu_sleep_wakeup_32k_rc_ram+0x420>

0000435c <clock_cal_24m_rc>:
    435c:	1141                	c.addi	sp,-16
    435e:	08000593          	li	a1,128
    4362:	0c800513          	li	a0,200
    4366:	c606                	c.swsp	ra,12(sp)
    4368:	e6cff0ef          	jal	ra,39d4 <analog_write_reg8>
    436c:	04f00513          	li	a0,79
    4370:	fa4ff0ef          	jal	ra,3b14 <analog_read_reg8>
    4374:	f8056593          	ori	a1,a0,-128
    4378:	0ff5f593          	andi	a1,a1,255
    437c:	04f00513          	li	a0,79
    4380:	e54ff0ef          	jal	ra,39d4 <analog_write_reg8>
    4384:	00e00593          	li	a1,14
    4388:	0c700513          	li	a0,199
    438c:	e48ff0ef          	jal	ra,39d4 <analog_write_reg8>
    4390:	00f00593          	li	a1,15
    4394:	0c700513          	li	a0,199
    4398:	e3cff0ef          	jal	ra,39d4 <analog_write_reg8>
    439c:	0cf00513          	li	a0,207
    43a0:	f74ff0ef          	jal	ra,3b14 <analog_read_reg8>
    43a4:	be757c5b          	bbc	a0,7,439c <clock_cal_24m_rc+0x40>
    43a8:	0cb00513          	li	a0,203
    43ac:	f68ff0ef          	jal	ra,3b14 <analog_read_reg8>
    43b0:	00a005b3          	add	a1,zero,a0
    43b4:	05200513          	li	a0,82
    43b8:	e1cff0ef          	jal	ra,39d4 <analog_write_reg8>
    43bc:	04f00513          	li	a0,79
    43c0:	f54ff0ef          	jal	ra,3b14 <analog_read_reg8>
    43c4:	07f57593          	andi	a1,a0,127
    43c8:	04f00513          	li	a0,79
    43cc:	e08ff0ef          	jal	ra,39d4 <analog_write_reg8>
    43d0:	0c700513          	li	a0,199
    43d4:	00e00593          	li	a1,14
    43d8:	dfcff0ef          	jal	ra,39d4 <analog_write_reg8>
    43dc:	40b2                	c.lwsp	ra,12(sp)
    43de:	05200513          	li	a0,82
    43e2:	0141                	c.addi	sp,16
    43e4:	f30ff06f          	j	3b14 <analog_read_reg8>

000043e8 <blt_sdk_main_loop>:
    43e8:	1101                	c.addi	sp,-32
    43ea:	cc22                	c.swsp	s0,24(sp)
    43ec:	00000437          	lui	s0,0x0
    43f0:	17840413          	addi	s0,s0,376 # 178 <_AES_VMA_END>
    43f4:	ce06                	c.swsp	ra,28(sp)
    43f6:	ca26                	c.swsp	s1,20(sp)
    43f8:	c84a                	c.swsp	s2,16(sp)
    43fa:	4f842703          	lw	a4,1272(s0)
    43fe:	cf19                	c.beqz	a4,441c <blt_sdk_main_loop+0x34>
    4400:	17340783          	lb	a5,371(s0)
    4404:	0ff7f793          	andi	a5,a5,255
    4408:	cb91                	c.beqz	a5,441c <blt_sdk_main_loop+0x34>
    440a:	9702                	c.jalr	a4
    440c:	40f2                	c.lwsp	ra,28(sp)
    440e:	4462                	c.lwsp	s0,24(sp)
    4410:	44d2                	c.lwsp	s1,20(sp)
    4412:	4942                	c.lwsp	s2,16(sp)
    4414:	4501                	c.li	a0,0
    4416:	6105                	c.addi16sp	sp,32
    4418:	00008067          	ret
    441c:	47a44703          	lbu	a4,1146(s0)
    4420:	47b44783          	lbu	a5,1147(s0)
    4424:	04f70a63          	beq	a4,a5,4478 <blt_sdk_main_loop+0x90>
    4428:	801404b7          	lui	s1,0x80140
    442c:	14348493          	addi	s1,s1,323 # 80140143 <_DATA_LMA_START+0x60131a0f>
    4430:	00c00913          	li	s2,12
    4434:	47940683          	lb	a3,1145(s0)
    4438:	47b44783          	lbu	a5,1147(s0)
    443c:	47445603          	lhu	a2,1140(s0)
    4440:	48042703          	lw	a4,1152(s0)
    4444:	8efd                	c.and	a3,a5
    4446:	01248023          	sb	s2,0(s1)
    444a:	c4c6977f          	maddr32	a4,a3,a2
    444e:	853a                	c.mv	a0,a4
    4450:	00274703          	lbu	a4,2(a4)
    4454:	cb01                	c.beqz	a4,4464 <blt_sdk_main_loop+0x7c>
    4456:	4fc42703          	lw	a4,1276(s0)
    445a:	c709                	c.beqz	a4,4464 <blt_sdk_main_loop+0x7c>
    445c:	000700e7          	jalr	a4
    4460:	47b44783          	lbu	a5,1147(s0)
    4464:	00178793          	addi	a5,a5,1
    4468:	0ff7f793          	andi	a5,a5,255
    446c:	47a44703          	lbu	a4,1146(s0)
    4470:	46f40da3          	sb	a5,1147(s0)
    4474:	fcf710e3          	bne	a4,a5,4434 <blt_sdk_main_loop+0x4c>
    4478:	1b344703          	lbu	a4,435(s0)
    447c:	1b244783          	lbu	a5,434(s0)
    4480:	00f70863          	beq	a4,a5,4490 <blt_sdk_main_loop+0xa8>
    4484:	50042783          	lw	a5,1280(s0)
    4488:	c781                	c.beqz	a5,4490 <blt_sdk_main_loop+0xa8>
    448a:	4501                	c.li	a0,0
    448c:	000780e7          	jalr	a5
    4490:	24842703          	lw	a4,584(s0)
    4494:	800007b7          	lui	a5,0x80000
    4498:	1c078793          	addi	a5,a5,448 # 800001c0 <_DATA_LMA_START+0x5fff1a8c>
    449c:	00e7f7b3          	and	a5,a5,a4
    44a0:	14079463          	bnez	a5,45e8 <blt_sdk_main_loop+0x200>
    44a4:	18140783          	lb	a5,385(s0)
    44a8:	0ff7f793          	andi	a5,a5,255
    44ac:	1a87d05b          	beqc	a5,8,464c <blt_sdk_main_loop+0x264>
    44b0:	50442783          	lw	a5,1284(s0)
    44b4:	c391                	c.beqz	a5,44b8 <blt_sdk_main_loop+0xd0>
    44b6:	9782                	c.jalr	a5
    44b8:	50842783          	lw	a5,1288(s0)
    44bc:	c391                	c.beqz	a5,44c0 <blt_sdk_main_loop+0xd8>
    44be:	9782                	c.jalr	a5
    44c0:	50c42783          	lw	a5,1292(s0)
    44c4:	c391                	c.beqz	a5,44c8 <blt_sdk_main_loop+0xe0>
    44c6:	9782                	c.jalr	a5
    44c8:	51042783          	lw	a5,1296(s0)
    44cc:	c391                	c.beqz	a5,44d0 <blt_sdk_main_loop+0xe8>
    44ce:	9782                	c.jalr	a5
    44d0:	51442783          	lw	a5,1300(s0)
    44d4:	c791                	c.beqz	a5,44e0 <blt_sdk_main_loop+0xf8>
    44d6:	31644703          	lbu	a4,790(s0)
    44da:	e319                	c.bnez	a4,44e0 <blt_sdk_main_loop+0xf8>
    44dc:	000780e7          	jalr	a5
    44e0:	47044783          	lbu	a5,1136(s0)
    44e4:	e791                	c.bnez	a5,44f0 <blt_sdk_main_loop+0x108>
    44e6:	18840783          	lb	a5,392(s0)
    44ea:	0ff7f793          	andi	a5,a5,255
    44ee:	e3b9                	c.bnez	a5,4534 <blt_sdk_main_loop+0x14c>
    44f0:	18140783          	lb	a5,385(s0)
    44f4:	0ff7f793          	andi	a5,a5,255
    44f8:	0a17d85b          	beqc	a5,1,45a8 <blt_sdk_main_loop+0x1c0>
    44fc:	801406b7          	lui	a3,0x80140
    4500:	52042783          	lw	a5,1312(s0)
    4504:	2006a703          	lw	a4,512(a3) # 80140200 <_DATA_LMA_START+0x60131acc>
    4508:	8f1d                	c.sub	a4,a5
    450a:	393737b7          	lui	a5,0x39373
    450e:	78078793          	addi	a5,a5,1920 # 39373780 <_DATA_LMA_START+0x1936504c>
    4512:	00e7f763          	bgeu	a5,a4,4520 <blt_sdk_main_loop+0x138>
    4516:	2006a783          	lw	a5,512(a3)
    451a:	52f42023          	sw	a5,1312(s0)
    451e:	3d3d                	c.jal	435c <clock_cal_24m_rc>
    4520:	4785                	c.li	a5,1
    4522:	18f40423          	sb	a5,392(s0)
    4526:	40f2                	c.lwsp	ra,28(sp)
    4528:	4462                	c.lwsp	s0,24(sp)
    452a:	44d2                	c.lwsp	s1,20(sp)
    452c:	4942                	c.lwsp	s2,16(sp)
    452e:	4501                	c.li	a0,0
    4530:	6105                	c.addi16sp	sp,32
    4532:	8082                	c.jr	ra
    4534:	51842783          	lw	a5,1304(s0)
    4538:	dfc5                	c.beqz	a5,44f0 <blt_sdk_main_loop+0x108>
    453a:	31644783          	lbu	a5,790(s0)
    453e:	dbcd                	c.beqz	a5,44f0 <blt_sdk_main_loop+0x108>
    4540:	18140783          	lb	a5,385(s0)
    4544:	8ba5                	c.andi	a5,9
    4546:	d7cd                	c.beqz	a5,44f0 <blt_sdk_main_loop+0x108>
    4548:	18440783          	lb	a5,388(s0)
    454c:	0ff7f793          	andi	a5,a5,255
    4550:	f3c5                	c.bnez	a5,44f0 <blt_sdk_main_loop+0x108>
    4552:	24842783          	lw	a5,584(s0)
    4556:	ffc9                	c.bnez	a5,44f0 <blt_sdk_main_loop+0x108>
    4558:	2be44783          	lbu	a5,702(s0)
    455c:	fbd1                	c.bnez	a5,44f0 <blt_sdk_main_loop+0x108>
    455e:	47b44703          	lbu	a4,1147(s0)
    4562:	47a44783          	lbu	a5,1146(s0)
    4566:	f8f715e3          	bne	a4,a5,44f0 <blt_sdk_main_loop+0x108>
    456a:	2bc44783          	lbu	a5,700(s0)
    456e:	d3c9                	c.beqz	a5,44f0 <blt_sdk_main_loop+0x108>
    4570:	e4002737          	lui	a4,0xe4002
    4574:	431c                	c.lw	a5,0(a4)
    4576:	9bf5                	c.andi	a5,-3
    4578:	c31c                	c.sw	a5,0(a4)
    457a:	18440783          	lb	a5,388(s0)
    457e:	0ff7f793          	andi	a5,a5,255
    4582:	e789                	c.bnez	a5,458c <blt_sdk_main_loop+0x1a4>
    4584:	51842783          	lw	a5,1304(s0)
    4588:	000780e7          	jalr	a5
    458c:	18140783          	lb	a5,385(s0)
    4590:	0ff7f793          	andi	a5,a5,255
    4594:	b487ee5b          	bnec	a5,8,44f0 <blt_sdk_main_loop+0x108>
    4598:	e4002737          	lui	a4,0xe4002
    459c:	431c                	c.lw	a5,0(a4)
    459e:	0027e793          	ori	a5,a5,2
    45a2:	c31c                	c.sw	a5,0(a4)
    45a4:	f4dff06f          	j	44f0 <blt_sdk_main_loop+0x108>
    45a8:	51c42703          	lw	a4,1308(s0)
    45ac:	db21                	c.beqz	a4,44fc <blt_sdk_main_loop+0x114>
    45ae:	801407b7          	lui	a5,0x80140
    45b2:	2007a783          	lw	a5,512(a5) # 80140200 <_DATA_LMA_START+0x60131acc>
    45b6:	37842683          	lw	a3,888(s0)
    45ba:	8f95                	c.sub	a5,a3
    45bc:	f407c0e3          	bltz	a5,44fc <blt_sdk_main_loop+0x114>
    45c0:	24842783          	lw	a5,584(s0)
    45c4:	ff85                	c.bnez	a5,44fc <blt_sdk_main_loop+0x114>
    45c6:	9702                	c.jalr	a4
    45c8:	18140783          	lb	a5,385(s0)
    45cc:	0ff7f793          	andi	a5,a5,255
    45d0:	1817d25b          	beqc	a5,1,4754 <blt_sdk_main_loop+0x36c>
    45d4:	18140783          	lb	a5,385(s0)
    45d8:	0ff7f793          	andi	a5,a5,255
    45dc:	1a87d65b          	beqc	a5,8,4788 <blt_sdk_main_loop+0x3a0>
    45e0:	18040223          	sb	zero,388(s0)
    45e4:	f19ff06f          	j	44fc <blt_sdk_main_loop+0x114>
    45e8:	0277785b          	bbc	a4,7,4618 <blt_sdk_main_loop+0x230>
    45ec:	f7f77713          	andi	a4,a4,-129
    45f0:	1b842683          	lw	a3,440(s0)
    45f4:	24e42423          	sw	a4,584(s0)
    45f8:	00144783          	lbu	a5,1(s0)
    45fc:	52b6f25b          	bbs	a3,11,4720 <blt_sdk_main_loop+0x338>
    4600:	3a042703          	lw	a4,928(s0)
    4604:	4609                	c.li	a2,2
    4606:	004c                	c.addi4spn	a1,sp,4
    4608:	451d                	c.li	a0,7
    460a:	00f10223          	sb	a5,4(sp)
    460e:	00f102a3          	sb	a5,5(sp)
    4612:	9702                	c.jalr	a4
    4614:	24842703          	lw	a4,584(s0)
    4618:	06074a63          	bltz	a4,468c <blt_sdk_main_loop+0x2a4>
    461c:	00877a5b          	bbc	a4,8,4630 <blt_sdk_main_loop+0x248>
    4620:	1b842783          	lw	a5,440(s0)
    4624:	4a67f65b          	bbs	a5,6,46d0 <blt_sdk_main_loop+0x2e8>
    4628:	eff77713          	andi	a4,a4,-257
    462c:	24e42423          	sw	a4,584(s0)
    4630:	a6677a5b          	bbc	a4,6,44a4 <blt_sdk_main_loop+0xbc>
    4634:	3a042783          	lw	a5,928(s0)
    4638:	fbf77713          	andi	a4,a4,-65
    463c:	4601                	c.li	a2,0
    463e:	4581                	c.li	a1,0
    4640:	4519                	c.li	a0,6
    4642:	24e42423          	sw	a4,584(s0)
    4646:	9782                	c.jalr	a5
    4648:	e5dff06f          	j	44a4 <blt_sdk_main_loop+0xbc>
    464c:	00644783          	lbu	a5,6(s0)
    4650:	e60780e3          	beqz	a5,44b0 <blt_sdk_main_loop+0xc8>
    4654:	18540783          	lb	a5,389(s0)
    4658:	0ff7f793          	andi	a5,a5,255
    465c:	e4079ae3          	bnez	a5,44b0 <blt_sdk_main_loop+0xc8>
    4660:	00044783          	lbu	a5,0(s0)
    4664:	30300693          	li	a3,771
    4668:	4c58                	c.lw	a4,28(s0)
    466a:	00d11223          	sh	a3,4(sp)
    466e:	004c                	c.addi4spn	a1,sp,4
    4670:	46d9                	c.li	a3,22
    4672:	6521                	c.lui	a0,0x8
    4674:	00d10323          	sb	a3,6(sp)
    4678:	00f10423          	sb	a5,8(sp)
    467c:	00f103a3          	sb	a5,7(sp)
    4680:	9702                	c.jalr	a4
    4682:	e20507e3          	beqz	a0,44b0 <blt_sdk_main_loop+0xc8>
    4686:	00040323          	sb	zero,6(s0)
    468a:	b51d                	c.j	44b0 <blt_sdk_main_loop+0xc8>
    468c:	7807275b          	bfoz	a4,a4,30,0
    4690:	1b842783          	lw	a5,440(s0)
    4694:	24e42423          	sw	a4,584(s0)
    4698:	b937f25b          	bbc	a5,19,461c <blt_sdk_main_loop+0x234>
    469c:	27845703          	lhu	a4,632(s0)
    46a0:	26a44783          	lbu	a5,618(s0)
    46a4:	02000537          	lui	a0,0x2000
    46a8:	46d1                	c.li	a3,20
    46aa:	4611                	c.li	a2,4
    46ac:	00410593          	addi	a1,sp,4
    46b0:	03e50513          	addi	a0,a0,62 # 200003e <FLASH_SIZE+0x1f0003e>
    46b4:	00e112a3          	sh	a4,5(sp)
    46b8:	00d10223          	sb	a3,4(sp)
    46bc:	00f103a3          	sb	a5,7(sp)
    46c0:	20002097          	auipc	ra,0x20002
    46c4:	12c080e7          	jalr	300(ra) # 200067ec <blc_hci_send_event>
    46c8:	24842703          	lw	a4,584(s0)
    46cc:	f51ff06f          	j	461c <blt_sdk_main_loop+0x234>
    46d0:	24e45803          	lhu	a6,590(s0)
    46d4:	24c45683          	lhu	a3,588(s0)
    46d8:	27845883          	lhu	a7,632(s0)
    46dc:	00e80713          	addi	a4,a6,14
    46e0:	00e68793          	addi	a5,a3,14
    46e4:	02000537          	lui	a0,0x2000
    46e8:	070e                	c.slli	a4,0x3
    46ea:	078e                	c.slli	a5,0x3
    46ec:	431d                	c.li	t1,7
    46ee:	462d                	c.li	a2,11
    46f0:	00410593          	addi	a1,sp,4
    46f4:	03e50513          	addi	a0,a0,62 # 200003e <FLASH_SIZE+0x1f0003e>
    46f8:	00e114a3          	sh	a4,9(sp)
    46fc:	00610223          	sb	t1,4(sp)
    4700:	011112a3          	sh	a7,5(sp)
    4704:	010113a3          	sh	a6,7(sp)
    4708:	00d115a3          	sh	a3,11(sp)
    470c:	00f116a3          	sh	a5,13(sp)
    4710:	20002097          	auipc	ra,0x20002
    4714:	0dc080e7          	jalr	220(ra) # 200067ec <blc_hci_send_event>
    4718:	24842703          	lw	a4,584(s0)
    471c:	f0dff06f          	j	4628 <blt_sdk_main_loop+0x240>
    4720:	27845703          	lhu	a4,632(s0)
    4724:	02000537          	lui	a0,0x2000
    4728:	00f10423          	sb	a5,8(sp)
    472c:	00f104a3          	sb	a5,9(sp)
    4730:	4619                	c.li	a2,6
    4732:	47b1                	c.li	a5,12
    4734:	00410593          	addi	a1,sp,4
    4738:	03e50513          	addi	a0,a0,62 # 200003e <FLASH_SIZE+0x1f0003e>
    473c:	00f11223          	sh	a5,4(sp)
    4740:	00e11323          	sh	a4,6(sp)
    4744:	20002097          	auipc	ra,0x20002
    4748:	0a8080e7          	jalr	168(ra) # 200067ec <blc_hci_send_event>
    474c:	00144783          	lbu	a5,1(s0)
    4750:	eb1ff06f          	j	4600 <blt_sdk_main_loop+0x218>
    4754:	26144783          	lbu	a5,609(s0)
    4758:	00078463          	beqz	a5,4760 <blt_sdk_main_loop+0x378>
    475c:	260400a3          	sb	zero,609(s0)
    4760:	44a40783          	lb	a5,1098(s0)
    4764:	80141737          	lui	a4,0x80141
    4768:	0257fa5b          	bbc	a5,5,479c <blt_sdk_main_loop+0x3b4>
    476c:	a1c71783          	lh	a5,-1508(a4) # 80140a1c <_DATA_LMA_START+0x601322e8>
    4770:	46c42683          	lw	a3,1132(s0)
    4774:	3c07a7db          	bfoz	a5,a5,15,0
    4778:	0017e793          	ori	a5,a5,1
    477c:	a0f71e23          	sh	a5,-1508(a4)
    4780:	9682                	c.jalr	a3
    4782:	18040223          	sb	zero,388(s0)
    4786:	bb9d                	c.j	44fc <blt_sdk_main_loop+0x114>
    4788:	17140783          	lb	a5,369(s0)
    478c:	a467fa5b          	bbc	a5,6,45e0 <blt_sdk_main_loop+0x1f8>
    4790:	46842783          	lw	a5,1128(s0)
    4794:	9782                	c.jalr	a5
    4796:	18040223          	sb	zero,388(s0)
    479a:	b38d                	c.j	44fc <blt_sdk_main_loop+0x114>
    479c:	a1c71783          	lh	a5,-1508(a4)
    47a0:	3c07a7db          	bfoz	a5,a5,15,0
    47a4:	9bf9                	c.andi	a5,-2
    47a6:	3c07a7db          	bfoz	a5,a5,15,0
    47aa:	a0f71e23          	sh	a5,-1508(a4)
    47ae:	18040223          	sb	zero,388(s0)
    47b2:	b3a9                	c.j	44fc <blt_sdk_main_loop+0x114>

000047b4 <dr_putchar>:
    47b4:	801407b7          	lui	a5,0x80140
    47b8:	30378803          	lb	a6,771(a5) # 80140303 <_DATA_LMA_START+0x60131bcf>
    47bc:	30378783          	lb	a5,771(a5)
    47c0:	1141                	c.addi	sp,-16
    47c2:	07f87813          	andi	a6,a6,127
    47c6:	f807e793          	ori	a5,a5,-128
    47ca:	0ff7f793          	andi	a5,a5,255
    47ce:	01010223          	sb	a6,4(sp)
    47d2:	873e                	c.mv	a4,a5
    47d4:	4005745b          	bbs	a0,0,47dc <dr_putchar+0x28>
    47d8:	01000733          	add	a4,zero,a6
    47dc:	00e102a3          	sb	a4,5(sp)
    47e0:	8742                	c.mv	a4,a6
    47e2:	0015735b          	bbc	a0,1,47e8 <dr_putchar+0x34>
    47e6:	873e                	c.mv	a4,a5
    47e8:	00e10323          	sb	a4,6(sp)
    47ec:	8742                	c.mv	a4,a6
    47ee:	0025735b          	bbc	a0,2,47f4 <dr_putchar+0x40>
    47f2:	873e                	c.mv	a4,a5
    47f4:	00e103a3          	sb	a4,7(sp)
    47f8:	8742                	c.mv	a4,a6
    47fa:	0035735b          	bbc	a0,3,4800 <dr_putchar+0x4c>
    47fe:	873e                	c.mv	a4,a5
    4800:	00e10423          	sb	a4,8(sp)
    4804:	8742                	c.mv	a4,a6
    4806:	0045735b          	bbc	a0,4,480c <dr_putchar+0x58>
    480a:	873e                	c.mv	a4,a5
    480c:	00e104a3          	sb	a4,9(sp)
    4810:	8742                	c.mv	a4,a6
    4812:	0055735b          	bbc	a0,5,4818 <dr_putchar+0x64>
    4816:	873e                	c.mv	a4,a5
    4818:	00e10523          	sb	a4,10(sp)
    481c:	8742                	c.mv	a4,a6
    481e:	0065735b          	bbc	a0,6,4824 <dr_putchar+0x70>
    4822:	873e                	c.mv	a4,a5
    4824:	00e105a3          	sb	a4,11(sp)
    4828:	811d                	c.srli	a0,0x7
    482a:	8742                	c.mv	a4,a6
    482c:	c111                	c.beqz	a0,4830 <dr_putchar+0x7c>
    482e:	873e                	c.mv	a4,a5
    4830:	00e10623          	sb	a4,12(sp)
    4834:	00f106a3          	sb	a5,13(sp)
    4838:	30002373          	csrr	t1,mstatus
    483c:	00837313          	andi	t1,t1,8
    4840:	00030463          	beqz	t1,4848 <dr_putchar+0x94>
    4844:	300477f3          	csrrci	a5,mstatus,8
    4848:	801407b7          	lui	a5,0x80140
    484c:	2007a603          	lw	a2,512(a5) # 80140200 <_DATA_LMA_START+0x60131acc>
    4850:	00510513          	addi	a0,sp,5
    4854:	00e10893          	addi	a7,sp,14
    4858:	801406b7          	lui	a3,0x80140
    485c:	08900593          	li	a1,137
    4860:	2006a783          	lw	a5,512(a3) # 80140200 <_DATA_LMA_START+0x60131acc>
    4864:	40c78733          	sub	a4,a5,a2
    4868:	fee5fce3          	bgeu	a1,a4,4860 <dr_putchar+0xac>
    486c:	310681a3          	sb	a6,771(a3)
    4870:	01150863          	beq	a0,a7,4880 <dr_putchar+0xcc>
    4874:	00054803          	lbu	a6,0(a0)
    4878:	863e                	c.mv	a2,a5
    487a:	0505                	c.addi	a0,1
    487c:	fe5ff06f          	j	4860 <dr_putchar+0xac>
    4880:	00030463          	beqz	t1,4888 <dr_putchar+0xd4>
    4884:	30032373          	csrrs	t1,mstatus,t1
    4888:	0141                	c.addi	sp,16
    488a:	8082                	c.jr	ra

0000488c <sys_init.constprop.20>:
    488c:	1141                	c.addi	sp,-16
    488e:	ffbc07b7          	lui	a5,0xffbc0
    4892:	c606                	c.swsp	ra,12(sp)
    4894:	17fd                	c.addi	a5,-1
    4896:	80140737          	lui	a4,0x80140
    489a:	c422                	c.swsp	s0,8(sp)
    489c:	c226                	c.swsp	s1,4(sp)
    489e:	c04a                	c.swsp	s2,0(sp)
    48a0:	1ef72023          	sw	a5,480(a4) # 801401e0 <_DATA_LMA_START+0x60131aac>
    48a4:	00200593          	li	a1,2
    48a8:	08c00513          	li	a0,140
    48ac:	1ef72223          	sw	a5,484(a4)
    48b0:	924ff0ef          	jal	ra,39d4 <analog_write_reg8>
    48b4:	04000593          	li	a1,64
    48b8:	00c00513          	li	a0,12
    48bc:	918ff0ef          	jal	ra,39d4 <analog_write_reg8>
    48c0:	08000593          	li	a1,128
    48c4:	07d00513          	li	a0,125
    48c8:	90cff0ef          	jal	ra,39d4 <analog_write_reg8>
    48cc:	801607b7          	lui	a5,0x80160
    48d0:	20000737          	lui	a4,0x20000
    48d4:	458d                	c.li	a1,3
    48d6:	4529                	c.li	a0,10
    48d8:	00e7a023          	sw	a4,0(a5) # 80160000 <_DATA_LMA_START+0x601518cc>
    48dc:	8f8ff0ef          	jal	ra,39d4 <analog_write_reg8>
    48e0:	04500593          	li	a1,69
    48e4:	00100513          	li	a0,1
    48e8:	8ecff0ef          	jal	ra,39d4 <analog_write_reg8>
    48ec:	03b00593          	li	a1,59
    48f0:	00b00513          	li	a0,11
    48f4:	8e0ff0ef          	jal	ra,39d4 <analog_write_reg8>
    48f8:	00600513          	li	a0,6
    48fc:	a18ff0ef          	jal	ra,3b14 <analog_read_reg8>
    4900:	03e57593          	andi	a1,a0,62
    4904:	00600513          	li	a0,6
    4908:	8ccff0ef          	jal	ra,39d4 <analog_write_reg8>
    490c:	00500513          	li	a0,5
    4910:	a04ff0ef          	jal	ra,3b14 <analog_read_reg8>
    4914:	0f757593          	andi	a1,a0,247
    4918:	00500513          	li	a0,5
    491c:	8b8ff0ef          	jal	ra,39d4 <analog_write_reg8>
    4920:	801007b7          	lui	a5,0x80100
    4924:	50078623          	sb	zero,1292(a5) # 8010050c <_DATA_LMA_START+0x600f1dd8>
    4928:	7c00d073          	csrwi	milmb,1
    492c:	000807b7          	lui	a5,0x80
    4930:	00178793          	addi	a5,a5,1 # 80001 <_DATA_VMA_START+0x1>
    4934:	7c179073          	csrw	mdlmb,a5
    4938:	07f00513          	li	a0,127
    493c:	9d8ff0ef          	jal	ra,3b14 <analog_read_reg8>
    4940:	00a004b3          	add	s1,zero,a0
    4944:	03800513          	li	a0,56
    4948:	9ccff0ef          	jal	ra,3b14 <analog_read_reg8>
    494c:	00a00433          	add	s0,zero,a0
    4950:	03900513          	li	a0,57
    4954:	9c0ff0ef          	jal	ra,3b14 <analog_read_reg8>
    4958:	0c047e5b          	bbc	s0,0,4a34 <sys_init.constprop.20+0x1a8>
    495c:	892a                	c.mv	s2,a0
    495e:	0fe47593          	andi	a1,s0,254
    4962:	8c5f940b          	addigp	s0,-1852 # 800c4 <g_pm_status_info>
    4966:	03800513          	li	a0,56
    496a:	14097b5b          	bbc	s2,0,4ac0 <sys_init.constprop.20+0x234>
    496e:	4791                	c.li	a5,4
    4970:	00f40123          	sb	a5,2(s0)
    4974:	860ff0ef          	jal	ra,39d4 <analog_write_reg8>
    4978:	0014e593          	ori	a1,s1,1
    497c:	0ff5f593          	andi	a1,a1,255
    4980:	07f00513          	li	a0,127
    4984:	850ff0ef          	jal	ra,39d4 <analog_write_reg8>
    4988:	08800513          	li	a0,136
    498c:	988ff0ef          	jal	ra,3b14 <analog_read_reg8>
    4990:	be757c5b          	bbc	a0,7,4988 <sys_init.constprop.20+0xfc>
    4994:	b04ff0ef          	jal	ra,3c98 <pm_wait_bbpll_done>
    4998:	00244783          	lbu	a5,2(s0)
    499c:	0a87d85b          	beqc	a5,8,4a4c <sys_init.constprop.20+0x1c0>
    49a0:	80140737          	lui	a4,0x80140
    49a4:	20a70783          	lb	a5,522(a4) # 8014020a <_DATA_LMA_START+0x60131ad6>
    49a8:	0ff7f793          	andi	a5,a5,255
    49ac:	00c7e793          	ori	a5,a5,12
    49b0:	20f70523          	sb	a5,522(a4)
    49b4:	00100793          	li	a5,1
    49b8:	20f72023          	sw	a5,512(a4)
    49bc:	20003097          	auipc	ra,0x20003
    49c0:	8ec080e7          	jalr	-1812(ra) # 200072a8 <cpu_wakeup_no_deepretn_back_init>
    49c4:	999ff0ef          	jal	ra,435c <clock_cal_24m_rc>
    49c8:	80140737          	lui	a4,0x80140
    49cc:	20870783          	lb	a5,520(a4) # 80140208 <_DATA_LMA_START+0x60131ad4>
    49d0:	0ff7f793          	andi	a5,a5,255
    49d4:	0017e793          	ori	a5,a5,1
    49d8:	20f70423          	sb	a5,520(a4)
    49dc:	1fd70783          	lb	a5,509(a4)
    49e0:	00244683          	lbu	a3,2(s0)
    49e4:	0ff7f793          	andi	a5,a5,255
    49e8:	8cffc1ab          	swgp	a5,-1856 # 800c0 <_BSS_VMA_START>
    49ec:	0246e25b          	bnec	a3,4,4a10 <sys_init.constprop.20+0x184>
    49f0:	000007b7          	lui	a5,0x0
    49f4:	20072603          	lw	a2,512(a4)
    49f8:	6a07a703          	lw	a4,1696(a5) # 6a0 <cpu_sleep_wakeup>
    49fc:	67d1                	c.lui	a5,0x14
    49fe:	88078793          	addi	a5,a5,-1920 # 13880 <BIN_SIZE+0x5090>
    4a02:	963e                	c.add	a2,a5
    4a04:	02000593          	li	a1,32
    4a08:	03000513          	li	a0,48
    4a0c:	000700e7          	jalr	a4
    4a10:	04400593          	li	a1,68
    4a14:	00c00513          	li	a0,12
    4a18:	fbdfe0ef          	jal	ra,39d4 <analog_write_reg8>
    4a1c:	801417b7          	lui	a5,0x80141
    4a20:	c0000737          	lui	a4,0xc0000
    4a24:	b0e7a223          	sw	a4,-1276(a5) # 80140b04 <_DATA_LMA_START+0x601323d0>
    4a28:	40b2                	c.lwsp	ra,12(sp)
    4a2a:	4422                	c.lwsp	s0,8(sp)
    4a2c:	4492                	c.lwsp	s1,4(sp)
    4a2e:	4902                	c.lwsp	s2,0(sp)
    4a30:	0141                	c.addi	sp,16
    4a32:	8082                	c.jr	ra
    4a34:	8c5f940b          	addigp	s0,-1852 # 800c4 <g_pm_status_info>
    4a38:	4004f65b          	bbs	s1,0,4a44 <sys_init.constprop.20+0x1b8>
    4a3c:	47a1                	c.li	a5,8
    4a3e:	00f40123          	sb	a5,2(s0)
    4a42:	bf1d                	c.j	4978 <sys_init.constprop.20+0xec>
    4a44:	47c1                	c.li	a5,16
    4a46:	00f40123          	sb	a5,2(s0)
    4a4a:	b73d                	c.j	4978 <sys_init.constprop.20+0xec>
    4a4c:	06400513          	li	a0,100
    4a50:	8c4ff0ef          	jal	ra,3b14 <analog_read_reg8>
    4a54:	00a400a3          	sb	a0,1(s0)
    4a58:	06400513          	li	a0,100
    4a5c:	8b8ff0ef          	jal	ra,3b14 <analog_read_reg8>
    4a60:	8929                	c.andi	a0,10
    4a62:	0085655b          	bnec	a0,8,4a6c <sys_init.constprop.20+0x1e0>
    4a66:	4785                	c.li	a5,1
    4a68:	00f40023          	sb	a5,0(s0)
    4a6c:	801404b7          	lui	s1,0x80140
    4a70:	20848783          	lb	a5,520(s1) # 80140208 <_DATA_LMA_START+0x60131ad4>
    4a74:	0fe7f793          	andi	a5,a5,254
    4a78:	20f48423          	sb	a5,520(s1)
    4a7c:	00200793          	li	a5,2
    4a80:	20f48c23          	sb	a5,536(s1)
    4a84:	20a48783          	lb	a5,522(s1)
    4a88:	0ff7f793          	andi	a5,a5,255
    4a8c:	00c7e793          	ori	a5,a5,12
    4a90:	20f48523          	sb	a5,522(s1)
    4a94:	b1dfe0ef          	jal	ra,35b0 <clock_get_32k_tick>
    4a98:	000007b7          	lui	a5,0x0
    4a9c:	69c7a783          	lw	a5,1692(a5) # 69c <pm_tim_recover>
    4aa0:	0505                	c.addi	a0,1
    4aa2:	9782                	c.jalr	a5
    4aa4:	80140737          	lui	a4,0x80140
    4aa8:	00150513          	addi	a0,a0,1
    4aac:	20a4a023          	sw	a0,512(s1)
    4ab0:	20b70783          	lb	a5,523(a4) # 8014020b <_DATA_LMA_START+0x60131ad7>
    4ab4:	be77fe5b          	bbc	a5,7,4ab0 <sys_init.constprop.20+0x224>
    4ab8:	20070c23          	sb	zero,536(a4)
    4abc:	f0dff06f          	j	49c8 <sys_init.constprop.20+0x13c>
    4ac0:	00100793          	li	a5,1
    4ac4:	00f40123          	sb	a5,2(s0)
    4ac8:	f0dfe0ef          	jal	ra,39d4 <analog_write_reg8>
    4acc:	00196593          	ori	a1,s2,1
    4ad0:	0ff5f593          	andi	a1,a1,255
    4ad4:	03900513          	li	a0,57
    4ad8:	efdfe0ef          	jal	ra,39d4 <analog_write_reg8>
    4adc:	e9dff06f          	j	4978 <sys_init.constprop.20+0xec>

00004ae0 <bls_ll_procRxPacket.constprop.18>:
    4ae0:	1141                	c.addi	sp,-16
    4ae2:	c422                	c.swsp	s0,8(sp)
    4ae4:	00000437          	lui	s0,0x0
    4ae8:	17840413          	addi	s0,s0,376 # 178 <_AES_VMA_END>
    4aec:	c606                	c.swsp	ra,12(sp)
    4aee:	c226                	c.swsp	s1,4(sp)
    4af0:	53144703          	lbu	a4,1329(s0)
    4af4:	801406b7          	lui	a3,0x80140
    4af8:	ffa70793          	addi	a5,a4,-6
    4afc:	2006a483          	lw	s1,512(a3) # 80140200 <_DATA_LMA_START+0x60131acc>
    4b00:	0ff7f793          	andi	a5,a5,255
    4b04:	46fd                	c.li	a3,31
    4b06:	08f6e563          	bltu	a3,a5,4b90 <bls_ll_procRxPacket.constprop.18+0xb0>
    4b0a:	59840793          	addi	a5,s0,1432
    4b0e:	000a0637          	lui	a2,0xa0
    4b12:	57144683          	lbu	a3,1393(s0)
    4b16:	00c7f563          	bgeu	a5,a2,4b20 <bls_ll_procRxPacket.constprop.18+0x40>
    4b1a:	c0180637          	lui	a2,0xc0180
    4b1e:	97b2                	c.add	a5,a2
    4b20:	5c344603          	lbu	a2,1475(s0)
    4b24:	801005b7          	lui	a1,0x80100
    4b28:	44f5a423          	sw	a5,1096(a1) # 80100448 <_DATA_LMA_START+0x600f1d14>
    4b2c:	0c061463          	bnez	a2,4bf4 <bls_ll_procRxPacket.constprop.18+0x114>
    4b30:	6705                	c.lui	a4,0x1
    4b32:	801416b7          	lui	a3,0x80141
    4b36:	80140637          	lui	a2,0x80140
    4b3a:	2bf70713          	addi	a4,a4,703 # 12bf <_RETENTION_DATA_VMA_END+0x87>
    4b3e:	a039                	c.j	4b4c <bls_ll_procRxPacket.constprop.18+0x6c>
    4b40:	20062783          	lw	a5,512(a2) # 80140200 <_DATA_LMA_START+0x60131acc>
    4b44:	409787b3          	sub	a5,a5,s1
    4b48:	00f76663          	bltu	a4,a5,4b54 <bls_ll_procRxPacket.constprop.18+0x74>
    4b4c:	a2069783          	lh	a5,-1504(a3) # 80140a20 <_DATA_LMA_START+0x601322ec>
    4b50:	be07f85b          	bbc	a5,0,4b40 <bls_ll_procRxPacket.constprop.18+0x60>
    4b54:	53144783          	lbu	a5,1329(s0)
    4b58:	04c7d85b          	beqc	a5,12,4ba8 <bls_ll_procRxPacket.constprop.18+0xc8>
    4b5c:	801417b7          	lui	a5,0x80141
    4b60:	00100713          	li	a4,1
    4b64:	a2e79023          	sh	a4,-1504(a5) # 80140a20 <_DATA_LMA_START+0x601322ec>
    4b68:	83178783          	lb	a5,-1999(a5)
    4b6c:	53144703          	lbu	a4,1329(s0)
    4b70:	0ff7f793          	andi	a5,a5,255
    4b74:	00e7ee63          	bltu	a5,a4,4b90 <bls_ll_procRxPacket.constprop.18+0xb0>
    4b78:	00870733          	add	a4,a4,s0
    4b7c:	53c70783          	lb	a5,1340(a4)
    4b80:	4007f85b          	bbs	a5,0,4b90 <bls_ll_procRxPacket.constprop.18+0xb0>
    4b84:	53845703          	lhu	a4,1336(s0)
    4b88:	57245783          	lhu	a5,1394(s0)
    4b8c:	08f70063          	beq	a4,a5,4c0c <bls_ll_procRxPacket.constprop.18+0x12c>
    4b90:	801417b7          	lui	a5,0x80141
    4b94:	f8000713          	li	a4,-128
    4b98:	a0e78023          	sb	a4,-1536(a5) # 80140a00 <_DATA_LMA_START+0x601322cc>
    4b9c:	40b2                	c.lwsp	ra,12(sp)
    4b9e:	4422                	c.lwsp	s0,8(sp)
    4ba0:	4492                	c.lwsp	s1,4(sp)
    4ba2:	0141                	c.addi	sp,16
    4ba4:	00008067          	ret
    4ba8:	801417b7          	lui	a5,0x80141
    4bac:	04e00713          	li	a4,78
    4bb0:	a0e79223          	sh	a4,-1532(a5) # 80140a04 <_DATA_LMA_START+0x601322d0>
    4bb4:	6685                	c.lui	a3,0x1
    4bb6:	8507a703          	lw	a4,-1968(a5)
    4bba:	94068693          	addi	a3,a3,-1728 # 940 <smpOwnParingConfirm+0x4>
    4bbe:	9736                	c.add	a4,a3
    4bc0:	a0e7ac23          	sw	a4,-1512(a5)
    4bc4:	f8500693          	li	a3,-123
    4bc8:	34c42703          	lw	a4,844(s0)
    4bcc:	a0d78023          	sb	a3,-1536(a5)
    4bd0:	d751                	c.beqz	a4,4b5c <bls_ll_procRxPacket.constprop.18+0x7c>
    4bd2:	4505                	c.li	a0,1
    4bd4:	9702                	c.jalr	a4
    4bd6:	801417b7          	lui	a5,0x80141
    4bda:	4705                	c.li	a4,1
    4bdc:	a2e79023          	sh	a4,-1504(a5) # 80140a20 <_DATA_LMA_START+0x601322ec>
    4be0:	83178783          	lb	a5,-1999(a5)
    4be4:	53144703          	lbu	a4,1329(s0)
    4be8:	0ff7f793          	andi	a5,a5,255
    4bec:	fae7e2e3          	bltu	a5,a4,4b90 <bls_ll_procRxPacket.constprop.18+0xb0>
    4bf0:	f89ff06f          	j	4b78 <bls_ll_procRxPacket.constprop.18+0x98>
    4bf4:	00e68633          	add	a2,a3,a4
    4bf8:	03560613          	addi	a2,a2,53
    4bfc:	061e                	c.slli	a2,0x7
    4bfe:	962a                	c.add	a2,a0
    4c00:	4581                	c.li	a1,0
    4c02:	4505                	c.li	a0,1
    4c04:	d3dfe0ef          	jal	ra,3940 <cpu_stall_WakeUp_By_RF_SystemTick>
    4c08:	f29ff06f          	j	4b30 <bls_ll_procRxPacket.constprop.18+0x50>
    4c0c:	53a45703          	lhu	a4,1338(s0)
    4c10:	57445783          	lhu	a5,1396(s0)
    4c14:	f6f71ee3          	bne	a4,a5,4b90 <bls_ll_procRxPacket.constprop.18+0xb0>
    4c18:	53c45703          	lhu	a4,1340(s0)
    4c1c:	57645783          	lhu	a5,1398(s0)
    4c20:	f6f718e3          	bne	a4,a5,4b90 <bls_ll_procRxPacket.constprop.18+0xb0>
    4c24:	53040783          	lb	a5,1328(s0)
    4c28:	8bbd                	c.andi	a5,15
    4c2a:	0e37d75b          	beqc	a5,3,4d18 <bls_ll_procRxPacket.constprop.18+0x238>
    4c2e:	b657e15b          	bnec	a5,5,4b90 <bls_ll_procRxPacket.constprop.18+0xb0>
    4c32:	57040783          	lb	a5,1392(s0)
    4c36:	8bbd                	c.andi	a5,15
    4c38:	1217d85b          	beqc	a5,1,4d68 <bls_ll_procRxPacket.constprop.18+0x288>
    4c3c:	57040783          	lb	a5,1392(s0)
    4c40:	8bbd                	c.andi	a5,15
    4c42:	f7b9                	c.bnez	a5,4b90 <bls_ll_procRxPacket.constprop.18+0xb0>
    4c44:	801417b7          	lui	a5,0x80141
    4c48:	f8000713          	li	a4,-128
    4c4c:	54845683          	lhu	a3,1352(s0)
    4c50:	a0e78023          	sb	a4,-1536(a5) # 80140a00 <_DATA_LMA_START+0x601322cc>
    4c54:	801407b7          	lui	a5,0x80140
    4c58:	2007a603          	lw	a2,512(a5) # 80140200 <_DATA_LMA_START+0x60131acc>
    4c5c:	ffa68713          	addi	a4,a3,-6
    4c60:	6785                	c.lui	a5,0x1
    4c62:	36c42023          	sw	a2,864(s0)
    4c66:	3c07275b          	bfoz	a4,a4,15,0
    4c6a:	c7a78613          	addi	a2,a5,-902 # c7a <app_acl_txfifo+0x2f6>
    4c6e:	f2e661e3          	bltu	a2,a4,4b90 <bls_ll_procRxPacket.constprop.18+0xb0>
    4c72:	54544603          	lbu	a2,1349(s0)
    4c76:	459d                	c.li	a1,7
    4c78:	fff60713          	addi	a4,a2,-1
    4c7c:	0ff77713          	andi	a4,a4,255
    4c80:	f0e5e8e3          	bltu	a1,a4,4b90 <bls_ll_procRxPacket.constprop.18+0xb0>
    4c84:	f0d676e3          	bgeu	a2,a3,4b90 <bls_ll_procRxPacket.constprop.18+0xb0>
    4c88:	54c45703          	lhu	a4,1356(s0)
    4c8c:	c7678793          	addi	a5,a5,-906
    4c90:	ff670613          	addi	a2,a4,-10
    4c94:	3c06265b          	bfoz	a2,a2,15,0
    4c98:	eec7ece3          	bltu	a5,a2,4b90 <bls_ll_procRxPacket.constprop.18+0xb0>
    4c9c:	55340783          	lb	a5,1363(s0)
    4ca0:	462d                	c.li	a2,11
    4ca2:	8bfd                	c.andi	a5,31
    4ca4:	17ed                	c.addi	a5,-5
    4ca6:	0ff7f793          	andi	a5,a5,255
    4caa:	eef663e3          	bltu	a2,a5,4b90 <bls_ll_procRxPacket.constprop.18+0xb0>
    4cae:	54e44783          	lbu	a5,1358(s0)
    4cb2:	ef99                	c.bnez	a5,4cd0 <bls_ll_procRxPacket.constprop.18+0x1f0>
    4cb4:	54f44783          	lbu	a5,1359(s0)
    4cb8:	ef81                	c.bnez	a5,4cd0 <bls_ll_procRxPacket.constprop.18+0x1f0>
    4cba:	55044783          	lbu	a5,1360(s0)
    4cbe:	eb89                	c.bnez	a5,4cd0 <bls_ll_procRxPacket.constprop.18+0x1f0>
    4cc0:	55144783          	lbu	a5,1361(s0)
    4cc4:	00079663          	bnez	a5,4cd0 <bls_ll_procRxPacket.constprop.18+0x1f0>
    4cc8:	55244783          	lbu	a5,1362(s0)
    4ccc:	ec0782e3          	beqz	a5,4b90 <bls_ll_procRxPacket.constprop.18+0xb0>
    4cd0:	54a45603          	lhu	a2,1354(s0)
    4cd4:	00060863          	beqz	a2,4ce4 <bls_ll_procRxPacket.constprop.18+0x204>
    4cd8:	00371793          	slli	a5,a4,0x3
    4cdc:	02d7c7b3          	div	a5,a5,a3
    4ce0:	eac7c8e3          	blt	a5,a2,4b90 <bls_ll_procRxPacket.constprop.18+0xb0>
    4ce4:	37e44783          	lbu	a5,894(s0)
    4ce8:	aa27d45b          	beqc	a5,2,4b90 <bls_ll_procRxPacket.constprop.18+0xb0>
    4cec:	57040783          	lb	a5,1392(s0)
    4cf0:	00f7f793          	andi	a5,a5,15
    4cf4:	0017d65b          	beqc	a5,1,4d00 <bls_ll_procRxPacket.constprop.18+0x220>
    4cf8:	37f40783          	lb	a5,895(s0)
    4cfc:	4817f45b          	bbs	a5,1,4d84 <bls_ll_procRxPacket.constprop.18+0x2a4>
    4d00:	5c442783          	lw	a5,1476(s0)
    4d04:	c791                	c.beqz	a5,4d10 <bls_ll_procRxPacket.constprop.18+0x230>
    4d06:	4581                	c.li	a1,0
    4d08:	52c40513          	addi	a0,s0,1324
    4d0c:	000780e7          	jalr	a5
    4d10:	4789                	c.li	a5,2
    4d12:	16f40923          	sb	a5,370(s0)
    4d16:	bdad                	c.j	4b90 <bls_ll_procRxPacket.constprop.18+0xb0>
    4d18:	57040783          	lb	a5,1392(s0)
    4d1c:	00f7f793          	andi	a5,a5,15
    4d20:	a617d85b          	beqc	a5,1,4b90 <bls_ll_procRxPacket.constprop.18+0xb0>
    4d24:	37f40783          	lb	a5,895(s0)
    4d28:	0007fc5b          	bbc	a5,0,4d40 <bls_ll_procRxPacket.constprop.18+0x260>
    4d2c:	53042503          	lw	a0,1328(s0)
    4d30:	53240593          	addi	a1,s0,1330
    4d34:	1865255b          	bfoz	a0,a0,6,6
    4d38:	9b1fe0ef          	jal	ra,36e8 <ll_searchAddr_in_WhiteList_and_ResolvingList>
    4d3c:	e4050ae3          	beqz	a0,4b90 <bls_ll_procRxPacket.constprop.18+0xb0>
    4d40:	59d44503          	lbu	a0,1437(s0)
    4d44:	00351513          	slli	a0,a0,0x3
    4d48:	0d650513          	addi	a0,a0,214
    4d4c:	ce0fe0ef          	jal	ra,322c <delay_us>
    4d50:	3a042783          	lw	a5,928(s0)
    4d54:	4601                	c.li	a2,0
    4d56:	4581                	c.li	a1,0
    4d58:	4509                	c.li	a0,2
    4d5a:	9782                	c.jalr	a5
    4d5c:	18640783          	lb	a5,390(s0)
    4d60:	0ff7f793          	andi	a5,a5,255
    4d64:	d7d5                	c.beqz	a5,4d10 <bls_ll_procRxPacket.constprop.18+0x230>
    4d66:	b52d                	c.j	4b90 <bls_ll_procRxPacket.constprop.18+0xb0>
    4d68:	00600613          	li	a2,6
    4d6c:	57840593          	addi	a1,s0,1400
    4d70:	53240513          	addi	a0,s0,1330
    4d74:	20006097          	auipc	ra,0x20006
    4d78:	014080e7          	jalr	20(ra) # 2000ad88 <memcmp>
    4d7c:	ec0510e3          	bnez	a0,4c3c <bls_ll_procRxPacket.constprop.18+0x15c>
    4d80:	ec5ff06f          	j	4c44 <bls_ll_procRxPacket.constprop.18+0x164>
    4d84:	53042503          	lw	a0,1328(s0)
    4d88:	53240593          	addi	a1,s0,1330
    4d8c:	1865255b          	bfoz	a0,a0,6,6
    4d90:	959fe0ef          	jal	ra,36e8 <ll_searchAddr_in_WhiteList_and_ResolvingList>
    4d94:	f535                	c.bnez	a0,4d00 <bls_ll_procRxPacket.constprop.18+0x220>
    4d96:	bbed                	c.j	4b90 <bls_ll_procRxPacket.constprop.18+0xb0>

00004d98 <main>:
    4d98:	7111                	c.addi16sp	sp,-256
    4d9a:	dda2                	c.swsp	s0,248(sp)
    4d9c:	200067b7          	lui	a5,0x20006
    4da0:	00000437          	lui	s0,0x0
    4da4:	df86                	c.swsp	ra,252(sp)
    4da6:	dba6                	c.swsp	s1,244(sp)
    4da8:	d9ca                	c.swsp	s2,240(sp)
    4daa:	d7ce                	c.swsp	s3,236(sp)
    4dac:	d5d2                	c.swsp	s4,232(sp)
    4dae:	d3d6                	c.swsp	s5,228(sp)
    4db0:	17840413          	addi	s0,s0,376 # 178 <_AES_VMA_END>
    4db4:	43478793          	addi	a5,a5,1076 # 20006434 <cpu_sleep_wakeup_32k_rc>
    4db8:	52f42423          	sw	a5,1320(s0)
    4dbc:	000027b7          	lui	a5,0x2
    4dc0:	6e078793          	addi	a5,a5,1760 # 26e0 <pm_tim_recover_32k_rc>
    4dc4:	52f42223          	sw	a5,1316(s0)
    4dc8:	4785                	c.li	a5,1
    4dca:	30f40b23          	sb	a5,790(s0)
    4dce:	3c7d                	c.jal	488c <sys_init.constprop.20>
    4dd0:	8c7f890b          	lbgp	s2,-1850 # 800c6 <g_pm_status_info+0x2>
    4dd4:	d85fe0ef          	jal	ra,3b58 <clock_init.constprop.42>
    4dd8:	c39fe0ef          	jal	ra,3a10 <rf_drv_ble_init>
    4ddc:	801404b7          	lui	s1,0x80140
    4de0:	807f87b7          	lui	a5,0x807f8
    4de4:	30f4a023          	sw	a5,768(s1) # 80140300 <_DATA_LMA_START+0x60131bcc>
    4de8:	008007b7          	lui	a5,0x800
    4dec:	f0078793          	addi	a5,a5,-256 # 7fff00 <FLASH_SIZE+0x6fff00>
    4df0:	30f4a223          	sw	a5,772(s1)
    4df4:	00ff0ab7          	lui	s5,0xff0
    4df8:	010009b7          	lui	s3,0x1000
    4dfc:	f0098993          	addi	s3,s3,-256 # ffff00 <FLASH_SIZE+0xefff00>
    4e00:	3154a423          	sw	s5,776(s1)
    4e04:	4581                	c.li	a1,0
    4e06:	0bd00513          	li	a0,189
    4e0a:	5a7d                	c.li	s4,-1
    4e0c:	3134a623          	sw	s3,780(s1)
    4e10:	bc5fe0ef          	jal	ra,39d4 <analog_write_reg8>
    4e14:	0ff00593          	li	a1,255
    4e18:	31448923          	sb	s4,786(s1)
    4e1c:	0bf00513          	li	a0,191
    4e20:	300489a3          	sb	zero,787(s1)
    4e24:	bb1fe0ef          	jal	ra,39d4 <analog_write_reg8>
    4e28:	00000593          	li	a1,0
    4e2c:	0c000513          	li	a0,192
    4e30:	31448b23          	sb	s4,790(s1)
    4e34:	ba1fe0ef          	jal	ra,39d4 <analog_write_reg8>
    4e38:	0ff00593          	li	a1,255
    4e3c:	31448d23          	sb	s4,794(s1)
    4e40:	0c200513          	li	a0,194
    4e44:	30048da3          	sb	zero,795(s1)
    4e48:	b8dfe0ef          	jal	ra,39d4 <analog_write_reg8>
    4e4c:	31448f23          	sb	s4,798(s1)
    4e50:	3354a023          	sw	s5,800(s1)
    4e54:	00897913          	andi	s2,s2,8
    4e58:	3334a223          	sw	s3,804(s1)
    4e5c:	10090463          	beqz	s2,4f64 <main+0x1cc>
    4e60:	801404b7          	lui	s1,0x80140
    4e64:	30648783          	lb	a5,774(s1) # 80140306 <_DATA_LMA_START+0x60131bd2>
    4e68:	00f00513          	li	a0,15
    4e6c:	f807e793          	ori	a5,a5,-128
    4e70:	0ff7f793          	andi	a5,a5,255
    4e74:	30f48323          	sb	a5,774(s1)
    4e78:	30248783          	lb	a5,770(s1)
    4e7c:	07f7f793          	andi	a5,a5,127
    4e80:	30f48123          	sb	a5,770(s1)
    4e84:	c91fe0ef          	jal	ra,3b14 <analog_read_reg8>
    4e88:	03f57593          	andi	a1,a0,63
    4e8c:	0405e593          	ori	a1,a1,64
    4e90:	00f00513          	li	a0,15
    4e94:	b41fe0ef          	jal	ra,39d4 <analog_write_reg8>
    4e98:	30348683          	lb	a3,771(s1)
    4e9c:	2000e7b7          	lui	a5,0x2000e
    4ea0:	1e478793          	addi	a5,a5,484 # 2000e1e4 <gen_method_sc+0x1c0>
    4ea4:	f806e693          	ori	a3,a3,-128
    4ea8:	0ff6f693          	andi	a3,a3,255
    4eac:	01010713          	addi	a4,sp,16
    4eb0:	0cc78613          	addi	a2,a5,204
    4eb4:	30d481a3          	sb	a3,771(s1)
    4eb8:	4388                	c.lw	a0,0(a5)
    4eba:	43cc                	c.lw	a1,4(a5)
    4ebc:	4794                	c.lw	a3,8(a5)
    4ebe:	c308                	c.sw	a0,0(a4)
    4ec0:	c34c                	c.sw	a1,4(a4)
    4ec2:	c714                	c.sw	a3,8(a4)
    4ec4:	07b1                	c.addi	a5,12
    4ec6:	0731                	c.addi	a4,12
    4ec8:	fec798e3          	bne	a5,a2,4eb8 <main+0x120>
    4ecc:	439c                	c.lw	a5,0(a5)
    4ece:	2000e537          	lui	a0,0x2000e
    4ed2:	1dc50513          	addi	a0,a0,476 # 2000e1dc <gen_method_sc+0x1b8>
    4ed6:	c31c                	c.sw	a5,0(a4)
    4ed8:	20006097          	auipc	ra,0x20006
    4edc:	0a4080e7          	jalr	164(ra) # 2000af7c <printf>
    4ee0:	4881                	c.li	a7,0
    4ee2:	4801                	c.li	a6,0
    4ee4:	4781                	c.li	a5,0
    4ee6:	4705                	c.li	a4,1
    4ee8:	4681                	c.li	a3,0
    4eea:	4601                	c.li	a2,0
    4eec:	4581                	c.li	a1,0
    4eee:	0808                	c.addi4spn	a0,sp,16
    4ef0:	c202                	c.swsp	zero,4(sp)
    4ef2:	c002                	c.swsp	zero,0(sp)
    4ef4:	20006097          	auipc	ra,0x20006
    4ef8:	088080e7          	jalr	136(ra) # 2000af7c <printf>
    4efc:	2000e537          	lui	a0,0x2000e
    4f00:	f7450513          	addi	a0,a0,-140 # 2000df74 <cmd_length_array+0x70>
    4f04:	20006097          	auipc	ra,0x20006
    4f08:	078080e7          	jalr	120(ra) # 2000af7c <printf>
    4f0c:	0a090863          	beqz	s2,4fbc <main+0x224>
    4f10:	49442503          	lw	a0,1172(s0)
    4f14:	0a051c63          	bnez	a0,4fcc <main+0x234>
    4f18:	300467f3          	csrrsi	a5,mstatus,8
    4f1c:	6785                	c.lui	a5,0x1
    4f1e:	88878793          	addi	a5,a5,-1912 # 888 <blt_buff_prepare_write+0x7c>
    4f22:	3047a7f3          	csrrs	a5,mie,a5
    4f26:	89dfa78b          	lbugp	a5,-1892 # 8009c <sys_clk+0x4>
    4f2a:	004c5737          	lui	a4,0x4c5
    4f2e:	b4070713          	addi	a4,a4,-1216 # 4c4b40 <FLASH_SIZE+0x3c4b40>
    4f32:	02e787b3          	mul	a5,a5,a4
    4f36:	80140737          	lui	a4,0x80140
    4f3a:	801404b7          	lui	s1,0x80140
    4f3e:	4431                	c.li	s0,12
    4f40:	14f72623          	sw	a5,332(a4) # 8014014c <_DATA_LMA_START+0x60131a18>
    4f44:	14270783          	lb	a5,322(a4)
    4f48:	f807e793          	ori	a5,a5,-128
    4f4c:	0ff7f793          	andi	a5,a5,255
    4f50:	14f70123          	sb	a5,322(a4)
    4f54:	20005097          	auipc	ra,0x20005
    4f58:	4c4080e7          	jalr	1220(ra) # 2000a418 <main_loop>
    4f5c:	148481a3          	sb	s0,323(s1) # 80140143 <_DATA_LMA_START+0x60131a0f>
    4f60:	ff5ff06f          	j	4f54 <main+0x1bc>
    4f64:	4581                	c.li	a1,0
    4f66:	4539                	c.li	a0,14
    4f68:	a6dfe0ef          	jal	ra,39d4 <analog_write_reg8>
    4f6c:	0c000593          	li	a1,192
    4f70:	00f00513          	li	a0,15
    4f74:	a61fe0ef          	jal	ra,39d4 <analog_write_reg8>
    4f78:	4581                	c.li	a1,0
    4f7a:	4541                	c.li	a0,16
    4f7c:	a59fe0ef          	jal	ra,39d4 <analog_write_reg8>
    4f80:	4581                	c.li	a1,0
    4f82:	4545                	c.li	a0,17
    4f84:	a51fe0ef          	jal	ra,39d4 <analog_write_reg8>
    4f88:	4581                	c.li	a1,0
    4f8a:	4549                	c.li	a0,18
    4f8c:	a49fe0ef          	jal	ra,39d4 <analog_write_reg8>
    4f90:	4581                	c.li	a1,0
    4f92:	454d                	c.li	a0,19
    4f94:	a41fe0ef          	jal	ra,39d4 <analog_write_reg8>
    4f98:	4581                	c.li	a1,0
    4f9a:	4551                	c.li	a0,20
    4f9c:	a39fe0ef          	jal	ra,39d4 <analog_write_reg8>
    4fa0:	4581                	c.li	a1,0
    4fa2:	4555                	c.li	a0,21
    4fa4:	a31fe0ef          	jal	ra,39d4 <analog_write_reg8>
    4fa8:	4581                	c.li	a1,0
    4faa:	4559                	c.li	a0,22
    4fac:	a29fe0ef          	jal	ra,39d4 <analog_write_reg8>
    4fb0:	4581                	c.li	a1,0
    4fb2:	455d                	c.li	a0,23
    4fb4:	a21fe0ef          	jal	ra,39d4 <analog_write_reg8>
    4fb8:	ea9ff06f          	j	4e60 <main+0xc8>
    4fbc:	20002097          	auipc	ra,0x20002
    4fc0:	f18080e7          	jalr	-232(ra) # 20006ed4 <blc_readFlashSize_autoConfigCustomFlashSector>
    4fc4:	49442503          	lw	a0,1172(s0)
    4fc8:	08050863          	beqz	a0,5058 <main+0x2c0>
    4fcc:	31444783          	lbu	a5,788(s0)
    4fd0:	ef85                	c.bnez	a5,5008 <main+0x270>
    4fd2:	5d442783          	lw	a5,1492(s0)
    4fd6:	0810                	c.addi4spn	a2,sp,16
    4fd8:	4585                	c.li	a1,1
    4fda:	9782                	c.jalr	a5
    4fdc:	01014703          	lbu	a4,16(sp)
    4fe0:	0ff00793          	li	a5,255
    4fe4:	02f70263          	beq	a4,a5,5008 <main+0x270>
    4fe8:	08a00513          	li	a0,138
    4fec:	b29fe0ef          	jal	ra,3b14 <analog_read_reg8>
    4ff0:	01010783          	lb	a5,16(sp)
    4ff4:	0c057593          	andi	a1,a0,192
    4ff8:	03f7f793          	andi	a5,a5,63
    4ffc:	08a00513          	li	a0,138
    5000:	00f5e5b3          	or	a1,a1,a5
    5004:	9d1fe0ef          	jal	ra,39d4 <analog_write_reg8>
    5008:	4f445783          	lhu	a5,1268(s0)
    500c:	c802                	c.swsp	zero,16(sp)
    500e:	00011a23          	sh	zero,20(sp)
    5012:	00010b23          	sb	zero,22(sp)
    5016:	cf9d                	c.beqz	a5,5054 <main+0x2bc>
    5018:	49442503          	lw	a0,1172(s0)
    501c:	5d442783          	lw	a5,1492(s0)
    5020:	0810                	c.addi4spn	a2,sp,16
    5022:	459d                	c.li	a1,7
    5024:	0c050513          	addi	a0,a0,192
    5028:	9782                	c.jalr	a5
    502a:	01414703          	lbu	a4,20(sp)
    502e:	0ff00793          	li	a5,255
    5032:	04f70363          	beq	a4,a5,5078 <main+0x2e0>
    5036:	01614783          	lbu	a5,22(sp)
    503a:	66c1                	c.lui	a3,0x10
    503c:	01515583          	lhu	a1,21(sp)
    5040:	16fd                	c.addi	a3,-1
    5042:	07a2                	c.slli	a5,0x8
    5044:	01514603          	lbu	a2,21(sp)
    5048:	02d58863          	beq	a1,a3,5078 <main+0x2e0>
    504c:	1c0736db          	bfos	a3,a4,7,0
    5050:	0006da63          	bgez	a3,5064 <main+0x2cc>
    5054:	ec0912e3          	bnez	s2,4f18 <main+0x180>
    5058:	20005097          	auipc	ra,0x20005
    505c:	e78080e7          	jalr	-392(ra) # 20009ed0 <user_init_normal>
    5060:	eb9ff06f          	j	4f18 <main+0x180>
    5064:	8fd1                	c.or	a5,a2
    5066:	3e878793          	addi	a5,a5,1000
    506a:	1731                	c.addi	a4,-20
    506c:	4ef41823          	sh	a5,1264(s0)
    5070:	4ee41923          	sh	a4,1266(s0)
    5074:	fe1ff06f          	j	5054 <main+0x2bc>
    5078:	31744783          	lbu	a5,791(s0)
    507c:	ffe1                	c.bnez	a5,5054 <main+0x2bc>
    507e:	6741                	c.lui	a4,0x10
    5080:	01015603          	lhu	a2,16(sp)
    5084:	177d                	c.addi	a4,-1
    5086:	01114683          	lbu	a3,17(sp)
    508a:	01014783          	lbu	a5,16(sp)
    508e:	fce603e3          	beq	a2,a4,5054 <main+0x2bc>
    5092:	97b6                	c.add	a5,a3
    5094:	39878713          	addi	a4,a5,920
    5098:	f8078793          	addi	a5,a5,-128
    509c:	4ee41823          	sh	a4,1264(s0)
    50a0:	3c07a7db          	bfoz	a5,a5,15,0
    50a4:	0fd00713          	li	a4,253
    50a8:	faf776e3          	bgeu	a4,a5,5054 <main+0x2bc>
    50ac:	49700793          	li	a5,1175
    50b0:	4ef41823          	sh	a5,1264(s0)
    50b4:	fa1ff06f          	j	5054 <main+0x2bc>

000050b8 <entry_irq63>:
    50b8:	1141                	c.addi	sp,-16
    50ba:	c632                	c.swsp	a2,12(sp)
    50bc:	c436                	c.swsp	a3,8(sp)
    50be:	c23a                	c.swsp	a4,4(sp)
    50c0:	c03e                	c.swsp	a5,0(sp)
    50c2:	34102773          	csrr	a4,mepc
    50c6:	300026f3          	csrr	a3,mstatus
    50ca:	7c4027f3          	csrr	a5,mxstatus
    50ce:	30046673          	csrrsi	a2,mstatus,8
    50d2:	30047673          	csrrci	a2,mstatus,8
    50d6:	30069073          	csrw	mstatus,a3
    50da:	34171073          	csrw	mepc,a4
    50de:	7c479073          	csrw	mxstatus,a5
    50e2:	e42007b7          	lui	a5,0xe4200
    50e6:	03f00713          	li	a4,63
    50ea:	c3d8                	c.sw	a4,4(a5)
    50ec:	0ff0000f          	fence
    50f0:	4632                	c.lwsp	a2,12(sp)
    50f2:	46a2                	c.lwsp	a3,8(sp)
    50f4:	4712                	c.lwsp	a4,4(sp)
    50f6:	4782                	c.lwsp	a5,0(sp)
    50f8:	01010113          	addi	sp,sp,16
    50fc:	30200073          	mret

00005100 <entry_irq62>:
    5100:	1141                	c.addi	sp,-16
    5102:	c632                	c.swsp	a2,12(sp)
    5104:	c436                	c.swsp	a3,8(sp)
    5106:	c23a                	c.swsp	a4,4(sp)
    5108:	c03e                	c.swsp	a5,0(sp)
    510a:	34102773          	csrr	a4,mepc
    510e:	300026f3          	csrr	a3,mstatus
    5112:	7c4027f3          	csrr	a5,mxstatus
    5116:	30046673          	csrrsi	a2,mstatus,8
    511a:	30047673          	csrrci	a2,mstatus,8
    511e:	30069073          	csrw	mstatus,a3
    5122:	34171073          	csrw	mepc,a4
    5126:	7c479073          	csrw	mxstatus,a5
    512a:	e42007b7          	lui	a5,0xe4200
    512e:	03e00713          	li	a4,62
    5132:	c3d8                	c.sw	a4,4(a5)
    5134:	0ff0000f          	fence
    5138:	4632                	c.lwsp	a2,12(sp)
    513a:	46a2                	c.lwsp	a3,8(sp)
    513c:	4712                	c.lwsp	a4,4(sp)
    513e:	4782                	c.lwsp	a5,0(sp)
    5140:	01010113          	addi	sp,sp,16
    5144:	30200073          	mret

00005148 <entry_irq61>:
    5148:	1141                	c.addi	sp,-16
    514a:	c632                	c.swsp	a2,12(sp)
    514c:	c436                	c.swsp	a3,8(sp)
    514e:	c23a                	c.swsp	a4,4(sp)
    5150:	c03e                	c.swsp	a5,0(sp)
    5152:	34102773          	csrr	a4,mepc
    5156:	300026f3          	csrr	a3,mstatus
    515a:	7c4027f3          	csrr	a5,mxstatus
    515e:	30046673          	csrrsi	a2,mstatus,8
    5162:	30047673          	csrrci	a2,mstatus,8
    5166:	30069073          	csrw	mstatus,a3
    516a:	34171073          	csrw	mepc,a4
    516e:	7c479073          	csrw	mxstatus,a5
    5172:	e42007b7          	lui	a5,0xe4200
    5176:	03d00713          	li	a4,61
    517a:	c3d8                	c.sw	a4,4(a5)
    517c:	0ff0000f          	fence
    5180:	4632                	c.lwsp	a2,12(sp)
    5182:	46a2                	c.lwsp	a3,8(sp)
    5184:	4712                	c.lwsp	a4,4(sp)
    5186:	4782                	c.lwsp	a5,0(sp)
    5188:	01010113          	addi	sp,sp,16
    518c:	30200073          	mret

00005190 <entry_irq60>:
    5190:	1141                	c.addi	sp,-16
    5192:	c632                	c.swsp	a2,12(sp)
    5194:	c436                	c.swsp	a3,8(sp)
    5196:	c23a                	c.swsp	a4,4(sp)
    5198:	c03e                	c.swsp	a5,0(sp)
    519a:	34102773          	csrr	a4,mepc
    519e:	300026f3          	csrr	a3,mstatus
    51a2:	7c4027f3          	csrr	a5,mxstatus
    51a6:	30046673          	csrrsi	a2,mstatus,8
    51aa:	30047673          	csrrci	a2,mstatus,8
    51ae:	30069073          	csrw	mstatus,a3
    51b2:	34171073          	csrw	mepc,a4
    51b6:	7c479073          	csrw	mxstatus,a5
    51ba:	e42007b7          	lui	a5,0xe4200
    51be:	03c00713          	li	a4,60
    51c2:	c3d8                	c.sw	a4,4(a5)
    51c4:	0ff0000f          	fence
    51c8:	4632                	c.lwsp	a2,12(sp)
    51ca:	46a2                	c.lwsp	a3,8(sp)
    51cc:	4712                	c.lwsp	a4,4(sp)
    51ce:	4782                	c.lwsp	a5,0(sp)
    51d0:	01010113          	addi	sp,sp,16
    51d4:	30200073          	mret

000051d8 <entry_irq59>:
    51d8:	1141                	c.addi	sp,-16
    51da:	c632                	c.swsp	a2,12(sp)
    51dc:	c436                	c.swsp	a3,8(sp)
    51de:	c23a                	c.swsp	a4,4(sp)
    51e0:	c03e                	c.swsp	a5,0(sp)
    51e2:	34102773          	csrr	a4,mepc
    51e6:	300026f3          	csrr	a3,mstatus
    51ea:	7c4027f3          	csrr	a5,mxstatus
    51ee:	30046673          	csrrsi	a2,mstatus,8
    51f2:	30047673          	csrrci	a2,mstatus,8
    51f6:	30069073          	csrw	mstatus,a3
    51fa:	34171073          	csrw	mepc,a4
    51fe:	7c479073          	csrw	mxstatus,a5
    5202:	e42007b7          	lui	a5,0xe4200
    5206:	03b00713          	li	a4,59
    520a:	c3d8                	c.sw	a4,4(a5)
    520c:	0ff0000f          	fence
    5210:	4632                	c.lwsp	a2,12(sp)
    5212:	46a2                	c.lwsp	a3,8(sp)
    5214:	4712                	c.lwsp	a4,4(sp)
    5216:	4782                	c.lwsp	a5,0(sp)
    5218:	01010113          	addi	sp,sp,16
    521c:	30200073          	mret

00005220 <entry_irq58>:
    5220:	1141                	c.addi	sp,-16
    5222:	c632                	c.swsp	a2,12(sp)
    5224:	c436                	c.swsp	a3,8(sp)
    5226:	c23a                	c.swsp	a4,4(sp)
    5228:	c03e                	c.swsp	a5,0(sp)
    522a:	34102773          	csrr	a4,mepc
    522e:	300026f3          	csrr	a3,mstatus
    5232:	7c4027f3          	csrr	a5,mxstatus
    5236:	30046673          	csrrsi	a2,mstatus,8
    523a:	30047673          	csrrci	a2,mstatus,8
    523e:	30069073          	csrw	mstatus,a3
    5242:	34171073          	csrw	mepc,a4
    5246:	7c479073          	csrw	mxstatus,a5
    524a:	e42007b7          	lui	a5,0xe4200
    524e:	03a00713          	li	a4,58
    5252:	c3d8                	c.sw	a4,4(a5)
    5254:	0ff0000f          	fence
    5258:	4632                	c.lwsp	a2,12(sp)
    525a:	46a2                	c.lwsp	a3,8(sp)
    525c:	4712                	c.lwsp	a4,4(sp)
    525e:	4782                	c.lwsp	a5,0(sp)
    5260:	01010113          	addi	sp,sp,16
    5264:	30200073          	mret

00005268 <entry_irq57>:
    5268:	1141                	c.addi	sp,-16
    526a:	c632                	c.swsp	a2,12(sp)
    526c:	c436                	c.swsp	a3,8(sp)
    526e:	c23a                	c.swsp	a4,4(sp)
    5270:	c03e                	c.swsp	a5,0(sp)
    5272:	34102773          	csrr	a4,mepc
    5276:	300026f3          	csrr	a3,mstatus
    527a:	7c4027f3          	csrr	a5,mxstatus
    527e:	30046673          	csrrsi	a2,mstatus,8
    5282:	30047673          	csrrci	a2,mstatus,8
    5286:	30069073          	csrw	mstatus,a3
    528a:	34171073          	csrw	mepc,a4
    528e:	7c479073          	csrw	mxstatus,a5
    5292:	e42007b7          	lui	a5,0xe4200
    5296:	03900713          	li	a4,57
    529a:	c3d8                	c.sw	a4,4(a5)
    529c:	0ff0000f          	fence
    52a0:	4632                	c.lwsp	a2,12(sp)
    52a2:	46a2                	c.lwsp	a3,8(sp)
    52a4:	4712                	c.lwsp	a4,4(sp)
    52a6:	4782                	c.lwsp	a5,0(sp)
    52a8:	01010113          	addi	sp,sp,16
    52ac:	30200073          	mret

000052b0 <entry_irq56>:
    52b0:	1141                	c.addi	sp,-16
    52b2:	c632                	c.swsp	a2,12(sp)
    52b4:	c436                	c.swsp	a3,8(sp)
    52b6:	c23a                	c.swsp	a4,4(sp)
    52b8:	c03e                	c.swsp	a5,0(sp)
    52ba:	34102773          	csrr	a4,mepc
    52be:	300026f3          	csrr	a3,mstatus
    52c2:	7c4027f3          	csrr	a5,mxstatus
    52c6:	30046673          	csrrsi	a2,mstatus,8
    52ca:	30047673          	csrrci	a2,mstatus,8
    52ce:	30069073          	csrw	mstatus,a3
    52d2:	34171073          	csrw	mepc,a4
    52d6:	7c479073          	csrw	mxstatus,a5
    52da:	e42007b7          	lui	a5,0xe4200
    52de:	03800713          	li	a4,56
    52e2:	c3d8                	c.sw	a4,4(a5)
    52e4:	0ff0000f          	fence
    52e8:	4632                	c.lwsp	a2,12(sp)
    52ea:	46a2                	c.lwsp	a3,8(sp)
    52ec:	4712                	c.lwsp	a4,4(sp)
    52ee:	4782                	c.lwsp	a5,0(sp)
    52f0:	01010113          	addi	sp,sp,16
    52f4:	30200073          	mret

000052f8 <entry_irq55>:
    52f8:	1141                	c.addi	sp,-16
    52fa:	c632                	c.swsp	a2,12(sp)
    52fc:	c436                	c.swsp	a3,8(sp)
    52fe:	c23a                	c.swsp	a4,4(sp)
    5300:	c03e                	c.swsp	a5,0(sp)
    5302:	34102773          	csrr	a4,mepc
    5306:	300026f3          	csrr	a3,mstatus
    530a:	7c4027f3          	csrr	a5,mxstatus
    530e:	30046673          	csrrsi	a2,mstatus,8
    5312:	30047673          	csrrci	a2,mstatus,8
    5316:	30069073          	csrw	mstatus,a3
    531a:	34171073          	csrw	mepc,a4
    531e:	7c479073          	csrw	mxstatus,a5
    5322:	e42007b7          	lui	a5,0xe4200
    5326:	03700713          	li	a4,55
    532a:	c3d8                	c.sw	a4,4(a5)
    532c:	0ff0000f          	fence
    5330:	4632                	c.lwsp	a2,12(sp)
    5332:	46a2                	c.lwsp	a3,8(sp)
    5334:	4712                	c.lwsp	a4,4(sp)
    5336:	4782                	c.lwsp	a5,0(sp)
    5338:	01010113          	addi	sp,sp,16
    533c:	30200073          	mret

00005340 <entry_irq54>:
    5340:	1141                	c.addi	sp,-16
    5342:	c632                	c.swsp	a2,12(sp)
    5344:	c436                	c.swsp	a3,8(sp)
    5346:	c23a                	c.swsp	a4,4(sp)
    5348:	c03e                	c.swsp	a5,0(sp)
    534a:	34102773          	csrr	a4,mepc
    534e:	300026f3          	csrr	a3,mstatus
    5352:	7c4027f3          	csrr	a5,mxstatus
    5356:	30046673          	csrrsi	a2,mstatus,8
    535a:	30047673          	csrrci	a2,mstatus,8
    535e:	30069073          	csrw	mstatus,a3
    5362:	34171073          	csrw	mepc,a4
    5366:	7c479073          	csrw	mxstatus,a5
    536a:	e42007b7          	lui	a5,0xe4200
    536e:	03600713          	li	a4,54
    5372:	c3d8                	c.sw	a4,4(a5)
    5374:	0ff0000f          	fence
    5378:	4632                	c.lwsp	a2,12(sp)
    537a:	46a2                	c.lwsp	a3,8(sp)
    537c:	4712                	c.lwsp	a4,4(sp)
    537e:	4782                	c.lwsp	a5,0(sp)
    5380:	01010113          	addi	sp,sp,16
    5384:	30200073          	mret

00005388 <entry_irq53>:
    5388:	1141                	c.addi	sp,-16
    538a:	c632                	c.swsp	a2,12(sp)
    538c:	c436                	c.swsp	a3,8(sp)
    538e:	c23a                	c.swsp	a4,4(sp)
    5390:	c03e                	c.swsp	a5,0(sp)
    5392:	34102773          	csrr	a4,mepc
    5396:	300026f3          	csrr	a3,mstatus
    539a:	7c4027f3          	csrr	a5,mxstatus
    539e:	30046673          	csrrsi	a2,mstatus,8
    53a2:	30047673          	csrrci	a2,mstatus,8
    53a6:	30069073          	csrw	mstatus,a3
    53aa:	34171073          	csrw	mepc,a4
    53ae:	7c479073          	csrw	mxstatus,a5
    53b2:	e42007b7          	lui	a5,0xe4200
    53b6:	03500713          	li	a4,53
    53ba:	c3d8                	c.sw	a4,4(a5)
    53bc:	0ff0000f          	fence
    53c0:	4632                	c.lwsp	a2,12(sp)
    53c2:	46a2                	c.lwsp	a3,8(sp)
    53c4:	4712                	c.lwsp	a4,4(sp)
    53c6:	4782                	c.lwsp	a5,0(sp)
    53c8:	01010113          	addi	sp,sp,16
    53cc:	30200073          	mret

000053d0 <entry_irq52>:
    53d0:	1141                	c.addi	sp,-16
    53d2:	c632                	c.swsp	a2,12(sp)
    53d4:	c436                	c.swsp	a3,8(sp)
    53d6:	c23a                	c.swsp	a4,4(sp)
    53d8:	c03e                	c.swsp	a5,0(sp)
    53da:	34102773          	csrr	a4,mepc
    53de:	300026f3          	csrr	a3,mstatus
    53e2:	7c4027f3          	csrr	a5,mxstatus
    53e6:	30046673          	csrrsi	a2,mstatus,8
    53ea:	30047673          	csrrci	a2,mstatus,8
    53ee:	30069073          	csrw	mstatus,a3
    53f2:	34171073          	csrw	mepc,a4
    53f6:	7c479073          	csrw	mxstatus,a5
    53fa:	e42007b7          	lui	a5,0xe4200
    53fe:	03400713          	li	a4,52
    5402:	c3d8                	c.sw	a4,4(a5)
    5404:	0ff0000f          	fence
    5408:	4632                	c.lwsp	a2,12(sp)
    540a:	46a2                	c.lwsp	a3,8(sp)
    540c:	4712                	c.lwsp	a4,4(sp)
    540e:	4782                	c.lwsp	a5,0(sp)
    5410:	01010113          	addi	sp,sp,16
    5414:	30200073          	mret

00005418 <entry_irq51>:
    5418:	1141                	c.addi	sp,-16
    541a:	c632                	c.swsp	a2,12(sp)
    541c:	c436                	c.swsp	a3,8(sp)
    541e:	c23a                	c.swsp	a4,4(sp)
    5420:	c03e                	c.swsp	a5,0(sp)
    5422:	34102773          	csrr	a4,mepc
    5426:	300026f3          	csrr	a3,mstatus
    542a:	7c4027f3          	csrr	a5,mxstatus
    542e:	30046673          	csrrsi	a2,mstatus,8
    5432:	30047673          	csrrci	a2,mstatus,8
    5436:	30069073          	csrw	mstatus,a3
    543a:	34171073          	csrw	mepc,a4
    543e:	7c479073          	csrw	mxstatus,a5
    5442:	e42007b7          	lui	a5,0xe4200
    5446:	03300713          	li	a4,51
    544a:	c3d8                	c.sw	a4,4(a5)
    544c:	0ff0000f          	fence
    5450:	4632                	c.lwsp	a2,12(sp)
    5452:	46a2                	c.lwsp	a3,8(sp)
    5454:	4712                	c.lwsp	a4,4(sp)
    5456:	4782                	c.lwsp	a5,0(sp)
    5458:	01010113          	addi	sp,sp,16
    545c:	30200073          	mret

00005460 <entry_irq50>:
    5460:	1141                	c.addi	sp,-16
    5462:	c632                	c.swsp	a2,12(sp)
    5464:	c436                	c.swsp	a3,8(sp)
    5466:	c23a                	c.swsp	a4,4(sp)
    5468:	c03e                	c.swsp	a5,0(sp)
    546a:	34102773          	csrr	a4,mepc
    546e:	300026f3          	csrr	a3,mstatus
    5472:	7c4027f3          	csrr	a5,mxstatus
    5476:	30046673          	csrrsi	a2,mstatus,8
    547a:	30047673          	csrrci	a2,mstatus,8
    547e:	30069073          	csrw	mstatus,a3
    5482:	34171073          	csrw	mepc,a4
    5486:	7c479073          	csrw	mxstatus,a5
    548a:	e42007b7          	lui	a5,0xe4200
    548e:	03200713          	li	a4,50
    5492:	c3d8                	c.sw	a4,4(a5)
    5494:	0ff0000f          	fence
    5498:	4632                	c.lwsp	a2,12(sp)
    549a:	46a2                	c.lwsp	a3,8(sp)
    549c:	4712                	c.lwsp	a4,4(sp)
    549e:	4782                	c.lwsp	a5,0(sp)
    54a0:	01010113          	addi	sp,sp,16
    54a4:	30200073          	mret

000054a8 <entry_irq49>:
    54a8:	30200073          	mret

000054ac <entry_irq48>:
    54ac:	30200073          	mret

000054b0 <entry_irq47>:
    54b0:	30200073          	mret

000054b4 <entry_irq46>:
    54b4:	1141                	c.addi	sp,-16
    54b6:	c632                	c.swsp	a2,12(sp)
    54b8:	c436                	c.swsp	a3,8(sp)
    54ba:	c23a                	c.swsp	a4,4(sp)
    54bc:	c03e                	c.swsp	a5,0(sp)
    54be:	34102773          	csrr	a4,mepc
    54c2:	300026f3          	csrr	a3,mstatus
    54c6:	7c4027f3          	csrr	a5,mxstatus
    54ca:	30046673          	csrrsi	a2,mstatus,8
    54ce:	30047673          	csrrci	a2,mstatus,8
    54d2:	30069073          	csrw	mstatus,a3
    54d6:	34171073          	csrw	mepc,a4
    54da:	7c479073          	csrw	mxstatus,a5
    54de:	e42007b7          	lui	a5,0xe4200
    54e2:	02e00713          	li	a4,46
    54e6:	c3d8                	c.sw	a4,4(a5)
    54e8:	0ff0000f          	fence
    54ec:	4632                	c.lwsp	a2,12(sp)
    54ee:	46a2                	c.lwsp	a3,8(sp)
    54f0:	4712                	c.lwsp	a4,4(sp)
    54f2:	4782                	c.lwsp	a5,0(sp)
    54f4:	01010113          	addi	sp,sp,16
    54f8:	30200073          	mret

000054fc <entry_irq45>:
    54fc:	30200073          	mret

00005500 <entry_irq44>:
    5500:	1141                	c.addi	sp,-16
    5502:	c632                	c.swsp	a2,12(sp)
    5504:	c436                	c.swsp	a3,8(sp)
    5506:	c23a                	c.swsp	a4,4(sp)
    5508:	c03e                	c.swsp	a5,0(sp)
    550a:	34102773          	csrr	a4,mepc
    550e:	300026f3          	csrr	a3,mstatus
    5512:	7c4027f3          	csrr	a5,mxstatus
    5516:	30046673          	csrrsi	a2,mstatus,8
    551a:	30047673          	csrrci	a2,mstatus,8
    551e:	30069073          	csrw	mstatus,a3
    5522:	34171073          	csrw	mepc,a4
    5526:	7c479073          	csrw	mxstatus,a5
    552a:	e42007b7          	lui	a5,0xe4200
    552e:	02c00713          	li	a4,44
    5532:	c3d8                	c.sw	a4,4(a5)
    5534:	0ff0000f          	fence
    5538:	4632                	c.lwsp	a2,12(sp)
    553a:	46a2                	c.lwsp	a3,8(sp)
    553c:	4712                	c.lwsp	a4,4(sp)
    553e:	4782                	c.lwsp	a5,0(sp)
    5540:	01010113          	addi	sp,sp,16
    5544:	30200073          	mret

00005548 <entry_irq43>:
    5548:	1141                	c.addi	sp,-16
    554a:	c632                	c.swsp	a2,12(sp)
    554c:	c436                	c.swsp	a3,8(sp)
    554e:	c23a                	c.swsp	a4,4(sp)
    5550:	c03e                	c.swsp	a5,0(sp)
    5552:	34102773          	csrr	a4,mepc
    5556:	300026f3          	csrr	a3,mstatus
    555a:	7c4027f3          	csrr	a5,mxstatus
    555e:	30046673          	csrrsi	a2,mstatus,8
    5562:	30047673          	csrrci	a2,mstatus,8
    5566:	30069073          	csrw	mstatus,a3
    556a:	34171073          	csrw	mepc,a4
    556e:	7c479073          	csrw	mxstatus,a5
    5572:	e42007b7          	lui	a5,0xe4200
    5576:	02b00713          	li	a4,43
    557a:	c3d8                	c.sw	a4,4(a5)
    557c:	0ff0000f          	fence
    5580:	4632                	c.lwsp	a2,12(sp)
    5582:	46a2                	c.lwsp	a3,8(sp)
    5584:	4712                	c.lwsp	a4,4(sp)
    5586:	4782                	c.lwsp	a5,0(sp)
    5588:	01010113          	addi	sp,sp,16
    558c:	30200073          	mret

00005590 <entry_irq42>:
    5590:	1141                	c.addi	sp,-16
    5592:	c632                	c.swsp	a2,12(sp)
    5594:	c436                	c.swsp	a3,8(sp)
    5596:	c23a                	c.swsp	a4,4(sp)
    5598:	c03e                	c.swsp	a5,0(sp)
    559a:	34102773          	csrr	a4,mepc
    559e:	300026f3          	csrr	a3,mstatus
    55a2:	7c4027f3          	csrr	a5,mxstatus
    55a6:	30046673          	csrrsi	a2,mstatus,8
    55aa:	30047673          	csrrci	a2,mstatus,8
    55ae:	30069073          	csrw	mstatus,a3
    55b2:	34171073          	csrw	mepc,a4
    55b6:	7c479073          	csrw	mxstatus,a5
    55ba:	e42007b7          	lui	a5,0xe4200
    55be:	02a00713          	li	a4,42
    55c2:	c3d8                	c.sw	a4,4(a5)
    55c4:	0ff0000f          	fence
    55c8:	4632                	c.lwsp	a2,12(sp)
    55ca:	46a2                	c.lwsp	a3,8(sp)
    55cc:	4712                	c.lwsp	a4,4(sp)
    55ce:	4782                	c.lwsp	a5,0(sp)
    55d0:	01010113          	addi	sp,sp,16
    55d4:	30200073          	mret

000055d8 <entry_irq41>:
    55d8:	30200073          	mret

000055dc <entry_irq40>:
    55dc:	30200073          	mret

000055e0 <entry_irq39>:
    55e0:	30200073          	mret

000055e4 <entry_irq38>:
    55e4:	30200073          	mret

000055e8 <entry_irq37>:
    55e8:	1141                	c.addi	sp,-16
    55ea:	c632                	c.swsp	a2,12(sp)
    55ec:	c436                	c.swsp	a3,8(sp)
    55ee:	c23a                	c.swsp	a4,4(sp)
    55f0:	c03e                	c.swsp	a5,0(sp)
    55f2:	34102773          	csrr	a4,mepc
    55f6:	300026f3          	csrr	a3,mstatus
    55fa:	7c4027f3          	csrr	a5,mxstatus
    55fe:	30046673          	csrrsi	a2,mstatus,8
    5602:	30047673          	csrrci	a2,mstatus,8
    5606:	30069073          	csrw	mstatus,a3
    560a:	34171073          	csrw	mepc,a4
    560e:	7c479073          	csrw	mxstatus,a5
    5612:	e42007b7          	lui	a5,0xe4200
    5616:	02500713          	li	a4,37
    561a:	c3d8                	c.sw	a4,4(a5)
    561c:	0ff0000f          	fence
    5620:	4632                	c.lwsp	a2,12(sp)
    5622:	46a2                	c.lwsp	a3,8(sp)
    5624:	4712                	c.lwsp	a4,4(sp)
    5626:	4782                	c.lwsp	a5,0(sp)
    5628:	01010113          	addi	sp,sp,16
    562c:	30200073          	mret

00005630 <entry_irq36>:
    5630:	1141                	c.addi	sp,-16
    5632:	c632                	c.swsp	a2,12(sp)
    5634:	c436                	c.swsp	a3,8(sp)
    5636:	c23a                	c.swsp	a4,4(sp)
    5638:	c03e                	c.swsp	a5,0(sp)
    563a:	34102773          	csrr	a4,mepc
    563e:	300026f3          	csrr	a3,mstatus
    5642:	7c4027f3          	csrr	a5,mxstatus
    5646:	30046673          	csrrsi	a2,mstatus,8
    564a:	30047673          	csrrci	a2,mstatus,8
    564e:	30069073          	csrw	mstatus,a3
    5652:	34171073          	csrw	mepc,a4
    5656:	7c479073          	csrw	mxstatus,a5
    565a:	e42007b7          	lui	a5,0xe4200
    565e:	02400713          	li	a4,36
    5662:	c3d8                	c.sw	a4,4(a5)
    5664:	0ff0000f          	fence
    5668:	4632                	c.lwsp	a2,12(sp)
    566a:	46a2                	c.lwsp	a3,8(sp)
    566c:	4712                	c.lwsp	a4,4(sp)
    566e:	4782                	c.lwsp	a5,0(sp)
    5670:	01010113          	addi	sp,sp,16
    5674:	30200073          	mret

00005678 <entry_irq35>:
    5678:	1141                	c.addi	sp,-16
    567a:	c632                	c.swsp	a2,12(sp)
    567c:	c436                	c.swsp	a3,8(sp)
    567e:	c23a                	c.swsp	a4,4(sp)
    5680:	c03e                	c.swsp	a5,0(sp)
    5682:	34102773          	csrr	a4,mepc
    5686:	300026f3          	csrr	a3,mstatus
    568a:	7c4027f3          	csrr	a5,mxstatus
    568e:	30046673          	csrrsi	a2,mstatus,8
    5692:	30047673          	csrrci	a2,mstatus,8
    5696:	30069073          	csrw	mstatus,a3
    569a:	34171073          	csrw	mepc,a4
    569e:	7c479073          	csrw	mxstatus,a5
    56a2:	e42007b7          	lui	a5,0xe4200
    56a6:	02300713          	li	a4,35
    56aa:	c3d8                	c.sw	a4,4(a5)
    56ac:	0ff0000f          	fence
    56b0:	4632                	c.lwsp	a2,12(sp)
    56b2:	46a2                	c.lwsp	a3,8(sp)
    56b4:	4712                	c.lwsp	a4,4(sp)
    56b6:	4782                	c.lwsp	a5,0(sp)
    56b8:	01010113          	addi	sp,sp,16
    56bc:	30200073          	mret

000056c0 <entry_irq34>:
    56c0:	1141                	c.addi	sp,-16
    56c2:	c632                	c.swsp	a2,12(sp)
    56c4:	c436                	c.swsp	a3,8(sp)
    56c6:	c23a                	c.swsp	a4,4(sp)
    56c8:	c03e                	c.swsp	a5,0(sp)
    56ca:	34102773          	csrr	a4,mepc
    56ce:	300026f3          	csrr	a3,mstatus
    56d2:	7c4027f3          	csrr	a5,mxstatus
    56d6:	30046673          	csrrsi	a2,mstatus,8
    56da:	30047673          	csrrci	a2,mstatus,8
    56de:	30069073          	csrw	mstatus,a3
    56e2:	34171073          	csrw	mepc,a4
    56e6:	7c479073          	csrw	mxstatus,a5
    56ea:	e42007b7          	lui	a5,0xe4200
    56ee:	02200713          	li	a4,34
    56f2:	c3d8                	c.sw	a4,4(a5)
    56f4:	0ff0000f          	fence
    56f8:	4632                	c.lwsp	a2,12(sp)
    56fa:	46a2                	c.lwsp	a3,8(sp)
    56fc:	4712                	c.lwsp	a4,4(sp)
    56fe:	4782                	c.lwsp	a5,0(sp)
    5700:	01010113          	addi	sp,sp,16
    5704:	30200073          	mret

00005708 <entry_irq33>:
    5708:	1141                	c.addi	sp,-16
    570a:	c632                	c.swsp	a2,12(sp)
    570c:	c436                	c.swsp	a3,8(sp)
    570e:	c23a                	c.swsp	a4,4(sp)
    5710:	c03e                	c.swsp	a5,0(sp)
    5712:	34102773          	csrr	a4,mepc
    5716:	300026f3          	csrr	a3,mstatus
    571a:	7c4027f3          	csrr	a5,mxstatus
    571e:	30046673          	csrrsi	a2,mstatus,8
    5722:	30047673          	csrrci	a2,mstatus,8
    5726:	30069073          	csrw	mstatus,a3
    572a:	34171073          	csrw	mepc,a4
    572e:	7c479073          	csrw	mxstatus,a5
    5732:	e42007b7          	lui	a5,0xe4200
    5736:	02100713          	li	a4,33
    573a:	c3d8                	c.sw	a4,4(a5)
    573c:	0ff0000f          	fence
    5740:	4632                	c.lwsp	a2,12(sp)
    5742:	46a2                	c.lwsp	a3,8(sp)
    5744:	4712                	c.lwsp	a4,4(sp)
    5746:	4782                	c.lwsp	a5,0(sp)
    5748:	01010113          	addi	sp,sp,16
    574c:	30200073          	mret

00005750 <entry_irq32>:
    5750:	1141                	c.addi	sp,-16
    5752:	c632                	c.swsp	a2,12(sp)
    5754:	c436                	c.swsp	a3,8(sp)
    5756:	c23a                	c.swsp	a4,4(sp)
    5758:	c03e                	c.swsp	a5,0(sp)
    575a:	34102773          	csrr	a4,mepc
    575e:	300026f3          	csrr	a3,mstatus
    5762:	7c4027f3          	csrr	a5,mxstatus
    5766:	30046673          	csrrsi	a2,mstatus,8
    576a:	30047673          	csrrci	a2,mstatus,8
    576e:	30069073          	csrw	mstatus,a3
    5772:	34171073          	csrw	mepc,a4
    5776:	7c479073          	csrw	mxstatus,a5
    577a:	e42007b7          	lui	a5,0xe4200
    577e:	02000713          	li	a4,32
    5782:	c3d8                	c.sw	a4,4(a5)
    5784:	0ff0000f          	fence
    5788:	4632                	c.lwsp	a2,12(sp)
    578a:	46a2                	c.lwsp	a3,8(sp)
    578c:	4712                	c.lwsp	a4,4(sp)
    578e:	4782                	c.lwsp	a5,0(sp)
    5790:	01010113          	addi	sp,sp,16
    5794:	30200073          	mret

00005798 <entry_irq31>:
    5798:	1141                	c.addi	sp,-16
    579a:	c632                	c.swsp	a2,12(sp)
    579c:	c436                	c.swsp	a3,8(sp)
    579e:	c23a                	c.swsp	a4,4(sp)
    57a0:	c03e                	c.swsp	a5,0(sp)
    57a2:	34102773          	csrr	a4,mepc
    57a6:	300026f3          	csrr	a3,mstatus
    57aa:	7c4027f3          	csrr	a5,mxstatus
    57ae:	30046673          	csrrsi	a2,mstatus,8
    57b2:	30047673          	csrrci	a2,mstatus,8
    57b6:	30069073          	csrw	mstatus,a3
    57ba:	34171073          	csrw	mepc,a4
    57be:	7c479073          	csrw	mxstatus,a5
    57c2:	e42007b7          	lui	a5,0xe4200
    57c6:	477d                	c.li	a4,31
    57c8:	c3d8                	c.sw	a4,4(a5)
    57ca:	0ff0000f          	fence
    57ce:	4632                	c.lwsp	a2,12(sp)
    57d0:	46a2                	c.lwsp	a3,8(sp)
    57d2:	4712                	c.lwsp	a4,4(sp)
    57d4:	4782                	c.lwsp	a5,0(sp)
    57d6:	0141                	c.addi	sp,16
    57d8:	30200073          	mret

000057dc <entry_irq30>:
    57dc:	1141                	c.addi	sp,-16
    57de:	c632                	c.swsp	a2,12(sp)
    57e0:	c436                	c.swsp	a3,8(sp)
    57e2:	c23a                	c.swsp	a4,4(sp)
    57e4:	c03e                	c.swsp	a5,0(sp)
    57e6:	34102773          	csrr	a4,mepc
    57ea:	300026f3          	csrr	a3,mstatus
    57ee:	7c4027f3          	csrr	a5,mxstatus
    57f2:	30046673          	csrrsi	a2,mstatus,8
    57f6:	30047673          	csrrci	a2,mstatus,8
    57fa:	30069073          	csrw	mstatus,a3
    57fe:	34171073          	csrw	mepc,a4
    5802:	7c479073          	csrw	mxstatus,a5
    5806:	e42007b7          	lui	a5,0xe4200
    580a:	4779                	c.li	a4,30
    580c:	c3d8                	c.sw	a4,4(a5)
    580e:	0ff0000f          	fence
    5812:	4632                	c.lwsp	a2,12(sp)
    5814:	46a2                	c.lwsp	a3,8(sp)
    5816:	4712                	c.lwsp	a4,4(sp)
    5818:	4782                	c.lwsp	a5,0(sp)
    581a:	0141                	c.addi	sp,16
    581c:	30200073          	mret

00005820 <entry_irq29>:
    5820:	1141                	c.addi	sp,-16
    5822:	c632                	c.swsp	a2,12(sp)
    5824:	c436                	c.swsp	a3,8(sp)
    5826:	c23a                	c.swsp	a4,4(sp)
    5828:	c03e                	c.swsp	a5,0(sp)
    582a:	34102773          	csrr	a4,mepc
    582e:	300026f3          	csrr	a3,mstatus
    5832:	7c4027f3          	csrr	a5,mxstatus
    5836:	30046673          	csrrsi	a2,mstatus,8
    583a:	30047673          	csrrci	a2,mstatus,8
    583e:	30069073          	csrw	mstatus,a3
    5842:	34171073          	csrw	mepc,a4
    5846:	7c479073          	csrw	mxstatus,a5
    584a:	e42007b7          	lui	a5,0xe4200
    584e:	4775                	c.li	a4,29
    5850:	c3d8                	c.sw	a4,4(a5)
    5852:	0ff0000f          	fence
    5856:	4632                	c.lwsp	a2,12(sp)
    5858:	46a2                	c.lwsp	a3,8(sp)
    585a:	4712                	c.lwsp	a4,4(sp)
    585c:	4782                	c.lwsp	a5,0(sp)
    585e:	0141                	c.addi	sp,16
    5860:	30200073          	mret

00005864 <entry_irq28>:
    5864:	1141                	c.addi	sp,-16
    5866:	c632                	c.swsp	a2,12(sp)
    5868:	c436                	c.swsp	a3,8(sp)
    586a:	c23a                	c.swsp	a4,4(sp)
    586c:	c03e                	c.swsp	a5,0(sp)
    586e:	34102773          	csrr	a4,mepc
    5872:	300026f3          	csrr	a3,mstatus
    5876:	7c4027f3          	csrr	a5,mxstatus
    587a:	30046673          	csrrsi	a2,mstatus,8
    587e:	30047673          	csrrci	a2,mstatus,8
    5882:	30069073          	csrw	mstatus,a3
    5886:	34171073          	csrw	mepc,a4
    588a:	7c479073          	csrw	mxstatus,a5
    588e:	e42007b7          	lui	a5,0xe4200
    5892:	4771                	c.li	a4,28
    5894:	c3d8                	c.sw	a4,4(a5)
    5896:	0ff0000f          	fence
    589a:	4632                	c.lwsp	a2,12(sp)
    589c:	46a2                	c.lwsp	a3,8(sp)
    589e:	4712                	c.lwsp	a4,4(sp)
    58a0:	4782                	c.lwsp	a5,0(sp)
    58a2:	0141                	c.addi	sp,16
    58a4:	30200073          	mret

000058a8 <entry_irq27>:
    58a8:	1141                	c.addi	sp,-16
    58aa:	c632                	c.swsp	a2,12(sp)
    58ac:	c436                	c.swsp	a3,8(sp)
    58ae:	c23a                	c.swsp	a4,4(sp)
    58b0:	c03e                	c.swsp	a5,0(sp)
    58b2:	34102773          	csrr	a4,mepc
    58b6:	300026f3          	csrr	a3,mstatus
    58ba:	7c4027f3          	csrr	a5,mxstatus
    58be:	30046673          	csrrsi	a2,mstatus,8
    58c2:	30047673          	csrrci	a2,mstatus,8
    58c6:	30069073          	csrw	mstatus,a3
    58ca:	34171073          	csrw	mepc,a4
    58ce:	7c479073          	csrw	mxstatus,a5
    58d2:	e42007b7          	lui	a5,0xe4200
    58d6:	476d                	c.li	a4,27
    58d8:	c3d8                	c.sw	a4,4(a5)
    58da:	0ff0000f          	fence
    58de:	4632                	c.lwsp	a2,12(sp)
    58e0:	46a2                	c.lwsp	a3,8(sp)
    58e2:	4712                	c.lwsp	a4,4(sp)
    58e4:	4782                	c.lwsp	a5,0(sp)
    58e6:	0141                	c.addi	sp,16
    58e8:	30200073          	mret

000058ec <entry_irq26>:
    58ec:	1141                	c.addi	sp,-16
    58ee:	c632                	c.swsp	a2,12(sp)
    58f0:	c436                	c.swsp	a3,8(sp)
    58f2:	c23a                	c.swsp	a4,4(sp)
    58f4:	c03e                	c.swsp	a5,0(sp)
    58f6:	34102773          	csrr	a4,mepc
    58fa:	300026f3          	csrr	a3,mstatus
    58fe:	7c4027f3          	csrr	a5,mxstatus
    5902:	30046673          	csrrsi	a2,mstatus,8
    5906:	30047673          	csrrci	a2,mstatus,8
    590a:	30069073          	csrw	mstatus,a3
    590e:	34171073          	csrw	mepc,a4
    5912:	7c479073          	csrw	mxstatus,a5
    5916:	e42007b7          	lui	a5,0xe4200
    591a:	4769                	c.li	a4,26
    591c:	c3d8                	c.sw	a4,4(a5)
    591e:	0ff0000f          	fence
    5922:	4632                	c.lwsp	a2,12(sp)
    5924:	46a2                	c.lwsp	a3,8(sp)
    5926:	4712                	c.lwsp	a4,4(sp)
    5928:	4782                	c.lwsp	a5,0(sp)
    592a:	0141                	c.addi	sp,16
    592c:	30200073          	mret

00005930 <entry_irq25>:
    5930:	1141                	c.addi	sp,-16
    5932:	c632                	c.swsp	a2,12(sp)
    5934:	c436                	c.swsp	a3,8(sp)
    5936:	c23a                	c.swsp	a4,4(sp)
    5938:	c03e                	c.swsp	a5,0(sp)
    593a:	34102773          	csrr	a4,mepc
    593e:	300026f3          	csrr	a3,mstatus
    5942:	7c4027f3          	csrr	a5,mxstatus
    5946:	30046673          	csrrsi	a2,mstatus,8
    594a:	30047673          	csrrci	a2,mstatus,8
    594e:	30069073          	csrw	mstatus,a3
    5952:	34171073          	csrw	mepc,a4
    5956:	7c479073          	csrw	mxstatus,a5
    595a:	e42007b7          	lui	a5,0xe4200
    595e:	4765                	c.li	a4,25
    5960:	c3d8                	c.sw	a4,4(a5)
    5962:	0ff0000f          	fence
    5966:	4632                	c.lwsp	a2,12(sp)
    5968:	46a2                	c.lwsp	a3,8(sp)
    596a:	4712                	c.lwsp	a4,4(sp)
    596c:	4782                	c.lwsp	a5,0(sp)
    596e:	0141                	c.addi	sp,16
    5970:	30200073          	mret

00005974 <entry_irq24>:
    5974:	1141                	c.addi	sp,-16
    5976:	c632                	c.swsp	a2,12(sp)
    5978:	c436                	c.swsp	a3,8(sp)
    597a:	c23a                	c.swsp	a4,4(sp)
    597c:	c03e                	c.swsp	a5,0(sp)
    597e:	34102773          	csrr	a4,mepc
    5982:	300026f3          	csrr	a3,mstatus
    5986:	7c4027f3          	csrr	a5,mxstatus
    598a:	30046673          	csrrsi	a2,mstatus,8
    598e:	30047673          	csrrci	a2,mstatus,8
    5992:	30069073          	csrw	mstatus,a3
    5996:	34171073          	csrw	mepc,a4
    599a:	7c479073          	csrw	mxstatus,a5
    599e:	e42007b7          	lui	a5,0xe4200
    59a2:	4761                	c.li	a4,24
    59a4:	c3d8                	c.sw	a4,4(a5)
    59a6:	0ff0000f          	fence
    59aa:	4632                	c.lwsp	a2,12(sp)
    59ac:	46a2                	c.lwsp	a3,8(sp)
    59ae:	4712                	c.lwsp	a4,4(sp)
    59b0:	4782                	c.lwsp	a5,0(sp)
    59b2:	0141                	c.addi	sp,16
    59b4:	30200073          	mret

000059b8 <entry_irq23>:
    59b8:	1141                	c.addi	sp,-16
    59ba:	c632                	c.swsp	a2,12(sp)
    59bc:	c436                	c.swsp	a3,8(sp)
    59be:	c23a                	c.swsp	a4,4(sp)
    59c0:	c03e                	c.swsp	a5,0(sp)
    59c2:	34102773          	csrr	a4,mepc
    59c6:	300026f3          	csrr	a3,mstatus
    59ca:	7c4027f3          	csrr	a5,mxstatus
    59ce:	30046673          	csrrsi	a2,mstatus,8
    59d2:	30047673          	csrrci	a2,mstatus,8
    59d6:	30069073          	csrw	mstatus,a3
    59da:	34171073          	csrw	mepc,a4
    59de:	7c479073          	csrw	mxstatus,a5
    59e2:	e42007b7          	lui	a5,0xe4200
    59e6:	475d                	c.li	a4,23
    59e8:	c3d8                	c.sw	a4,4(a5)
    59ea:	0ff0000f          	fence
    59ee:	4632                	c.lwsp	a2,12(sp)
    59f0:	46a2                	c.lwsp	a3,8(sp)
    59f2:	4712                	c.lwsp	a4,4(sp)
    59f4:	4782                	c.lwsp	a5,0(sp)
    59f6:	0141                	c.addi	sp,16
    59f8:	30200073          	mret

000059fc <entry_irq22>:
    59fc:	1141                	c.addi	sp,-16
    59fe:	c632                	c.swsp	a2,12(sp)
    5a00:	c436                	c.swsp	a3,8(sp)
    5a02:	c23a                	c.swsp	a4,4(sp)
    5a04:	c03e                	c.swsp	a5,0(sp)
    5a06:	34102773          	csrr	a4,mepc
    5a0a:	300026f3          	csrr	a3,mstatus
    5a0e:	7c4027f3          	csrr	a5,mxstatus
    5a12:	30046673          	csrrsi	a2,mstatus,8
    5a16:	30047673          	csrrci	a2,mstatus,8
    5a1a:	30069073          	csrw	mstatus,a3
    5a1e:	34171073          	csrw	mepc,a4
    5a22:	7c479073          	csrw	mxstatus,a5
    5a26:	e42007b7          	lui	a5,0xe4200
    5a2a:	4759                	c.li	a4,22
    5a2c:	c3d8                	c.sw	a4,4(a5)
    5a2e:	0ff0000f          	fence
    5a32:	4632                	c.lwsp	a2,12(sp)
    5a34:	46a2                	c.lwsp	a3,8(sp)
    5a36:	4712                	c.lwsp	a4,4(sp)
    5a38:	4782                	c.lwsp	a5,0(sp)
    5a3a:	0141                	c.addi	sp,16
    5a3c:	30200073          	mret

00005a40 <entry_irq21>:
    5a40:	1141                	c.addi	sp,-16
    5a42:	c632                	c.swsp	a2,12(sp)
    5a44:	c436                	c.swsp	a3,8(sp)
    5a46:	c23a                	c.swsp	a4,4(sp)
    5a48:	c03e                	c.swsp	a5,0(sp)
    5a4a:	34102773          	csrr	a4,mepc
    5a4e:	300026f3          	csrr	a3,mstatus
    5a52:	7c4027f3          	csrr	a5,mxstatus
    5a56:	30046673          	csrrsi	a2,mstatus,8
    5a5a:	30047673          	csrrci	a2,mstatus,8
    5a5e:	30069073          	csrw	mstatus,a3
    5a62:	34171073          	csrw	mepc,a4
    5a66:	7c479073          	csrw	mxstatus,a5
    5a6a:	e42007b7          	lui	a5,0xe4200
    5a6e:	4755                	c.li	a4,21
    5a70:	c3d8                	c.sw	a4,4(a5)
    5a72:	0ff0000f          	fence
    5a76:	4632                	c.lwsp	a2,12(sp)
    5a78:	46a2                	c.lwsp	a3,8(sp)
    5a7a:	4712                	c.lwsp	a4,4(sp)
    5a7c:	4782                	c.lwsp	a5,0(sp)
    5a7e:	0141                	c.addi	sp,16
    5a80:	30200073          	mret

00005a84 <entry_irq20>:
    5a84:	1141                	c.addi	sp,-16
    5a86:	c632                	c.swsp	a2,12(sp)
    5a88:	c436                	c.swsp	a3,8(sp)
    5a8a:	c23a                	c.swsp	a4,4(sp)
    5a8c:	c03e                	c.swsp	a5,0(sp)
    5a8e:	34102773          	csrr	a4,mepc
    5a92:	300026f3          	csrr	a3,mstatus
    5a96:	7c4027f3          	csrr	a5,mxstatus
    5a9a:	30046673          	csrrsi	a2,mstatus,8
    5a9e:	30047673          	csrrci	a2,mstatus,8
    5aa2:	30069073          	csrw	mstatus,a3
    5aa6:	34171073          	csrw	mepc,a4
    5aaa:	7c479073          	csrw	mxstatus,a5
    5aae:	e42007b7          	lui	a5,0xe4200
    5ab2:	4751                	c.li	a4,20
    5ab4:	c3d8                	c.sw	a4,4(a5)
    5ab6:	0ff0000f          	fence
    5aba:	4632                	c.lwsp	a2,12(sp)
    5abc:	46a2                	c.lwsp	a3,8(sp)
    5abe:	4712                	c.lwsp	a4,4(sp)
    5ac0:	4782                	c.lwsp	a5,0(sp)
    5ac2:	0141                	c.addi	sp,16
    5ac4:	30200073          	mret

00005ac8 <entry_irq19>:
    5ac8:	1141                	c.addi	sp,-16
    5aca:	c632                	c.swsp	a2,12(sp)
    5acc:	c436                	c.swsp	a3,8(sp)
    5ace:	c23a                	c.swsp	a4,4(sp)
    5ad0:	c03e                	c.swsp	a5,0(sp)
    5ad2:	34102773          	csrr	a4,mepc
    5ad6:	300026f3          	csrr	a3,mstatus
    5ada:	7c4027f3          	csrr	a5,mxstatus
    5ade:	30046673          	csrrsi	a2,mstatus,8
    5ae2:	30047673          	csrrci	a2,mstatus,8
    5ae6:	30069073          	csrw	mstatus,a3
    5aea:	34171073          	csrw	mepc,a4
    5aee:	7c479073          	csrw	mxstatus,a5
    5af2:	e42007b7          	lui	a5,0xe4200
    5af6:	474d                	c.li	a4,19
    5af8:	c3d8                	c.sw	a4,4(a5)
    5afa:	0ff0000f          	fence
    5afe:	4632                	c.lwsp	a2,12(sp)
    5b00:	46a2                	c.lwsp	a3,8(sp)
    5b02:	4712                	c.lwsp	a4,4(sp)
    5b04:	4782                	c.lwsp	a5,0(sp)
    5b06:	0141                	c.addi	sp,16
    5b08:	30200073          	mret

00005b0c <entry_irq18>:
    5b0c:	1141                	c.addi	sp,-16
    5b0e:	c632                	c.swsp	a2,12(sp)
    5b10:	c436                	c.swsp	a3,8(sp)
    5b12:	c23a                	c.swsp	a4,4(sp)
    5b14:	c03e                	c.swsp	a5,0(sp)
    5b16:	34102773          	csrr	a4,mepc
    5b1a:	300026f3          	csrr	a3,mstatus
    5b1e:	7c4027f3          	csrr	a5,mxstatus
    5b22:	30046673          	csrrsi	a2,mstatus,8
    5b26:	30047673          	csrrci	a2,mstatus,8
    5b2a:	30069073          	csrw	mstatus,a3
    5b2e:	34171073          	csrw	mepc,a4
    5b32:	7c479073          	csrw	mxstatus,a5
    5b36:	e42007b7          	lui	a5,0xe4200
    5b3a:	4749                	c.li	a4,18
    5b3c:	c3d8                	c.sw	a4,4(a5)
    5b3e:	0ff0000f          	fence
    5b42:	4632                	c.lwsp	a2,12(sp)
    5b44:	46a2                	c.lwsp	a3,8(sp)
    5b46:	4712                	c.lwsp	a4,4(sp)
    5b48:	4782                	c.lwsp	a5,0(sp)
    5b4a:	0141                	c.addi	sp,16
    5b4c:	30200073          	mret

00005b50 <entry_irq17>:
    5b50:	1141                	c.addi	sp,-16
    5b52:	c632                	c.swsp	a2,12(sp)
    5b54:	c436                	c.swsp	a3,8(sp)
    5b56:	c23a                	c.swsp	a4,4(sp)
    5b58:	c03e                	c.swsp	a5,0(sp)
    5b5a:	34102773          	csrr	a4,mepc
    5b5e:	300026f3          	csrr	a3,mstatus
    5b62:	7c4027f3          	csrr	a5,mxstatus
    5b66:	30046673          	csrrsi	a2,mstatus,8
    5b6a:	30047673          	csrrci	a2,mstatus,8
    5b6e:	30069073          	csrw	mstatus,a3
    5b72:	34171073          	csrw	mepc,a4
    5b76:	7c479073          	csrw	mxstatus,a5
    5b7a:	e42007b7          	lui	a5,0xe4200
    5b7e:	4745                	c.li	a4,17
    5b80:	c3d8                	c.sw	a4,4(a5)
    5b82:	0ff0000f          	fence
    5b86:	4632                	c.lwsp	a2,12(sp)
    5b88:	46a2                	c.lwsp	a3,8(sp)
    5b8a:	4712                	c.lwsp	a4,4(sp)
    5b8c:	4782                	c.lwsp	a5,0(sp)
    5b8e:	0141                	c.addi	sp,16
    5b90:	30200073          	mret

00005b94 <entry_irq16>:
    5b94:	1141                	c.addi	sp,-16
    5b96:	c632                	c.swsp	a2,12(sp)
    5b98:	c436                	c.swsp	a3,8(sp)
    5b9a:	c23a                	c.swsp	a4,4(sp)
    5b9c:	c03e                	c.swsp	a5,0(sp)
    5b9e:	34102773          	csrr	a4,mepc
    5ba2:	300026f3          	csrr	a3,mstatus
    5ba6:	7c4027f3          	csrr	a5,mxstatus
    5baa:	30046673          	csrrsi	a2,mstatus,8
    5bae:	30047673          	csrrci	a2,mstatus,8
    5bb2:	30069073          	csrw	mstatus,a3
    5bb6:	34171073          	csrw	mepc,a4
    5bba:	7c479073          	csrw	mxstatus,a5
    5bbe:	e42007b7          	lui	a5,0xe4200
    5bc2:	4741                	c.li	a4,16
    5bc4:	c3d8                	c.sw	a4,4(a5)
    5bc6:	0ff0000f          	fence
    5bca:	4632                	c.lwsp	a2,12(sp)
    5bcc:	46a2                	c.lwsp	a3,8(sp)
    5bce:	4712                	c.lwsp	a4,4(sp)
    5bd0:	4782                	c.lwsp	a5,0(sp)
    5bd2:	0141                	c.addi	sp,16
    5bd4:	30200073          	mret

00005bd8 <entry_irq15>:
    5bd8:	7135                	c.addi16sp	sp,-160
    5bda:	cf06                	c.swsp	ra,156(sp)
    5bdc:	cd16                	c.swsp	t0,152(sp)
    5bde:	cb1a                	c.swsp	t1,148(sp)
    5be0:	c91e                	c.swsp	t2,144(sp)
    5be2:	c722                	c.swsp	s0,140(sp)
    5be4:	c526                	c.swsp	s1,136(sp)
    5be6:	c32a                	c.swsp	a0,132(sp)
    5be8:	c12e                	c.swsp	a1,128(sp)
    5bea:	deb2                	c.swsp	a2,124(sp)
    5bec:	dcb6                	c.swsp	a3,120(sp)
    5bee:	daba                	c.swsp	a4,116(sp)
    5bf0:	d8be                	c.swsp	a5,112(sp)
    5bf2:	d6c2                	c.swsp	a6,108(sp)
    5bf4:	d4c6                	c.swsp	a7,104(sp)
    5bf6:	d2ca                	c.swsp	s2,100(sp)
    5bf8:	d0f2                	c.swsp	t3,96(sp)
    5bfa:	cef6                	c.swsp	t4,92(sp)
    5bfc:	ccfa                	c.swsp	t5,88(sp)
    5bfe:	cafe                	c.swsp	t6,84(sp)
    5c00:	e682                	c.fswsp	ft0,76(sp)
    5c02:	e486                	c.fswsp	ft1,72(sp)
    5c04:	e28a                	c.fswsp	ft2,68(sp)
    5c06:	e08e                	c.fswsp	ft3,64(sp)
    5c08:	fe12                	c.fswsp	ft4,60(sp)
    5c0a:	fc16                	c.fswsp	ft5,56(sp)
    5c0c:	fa1a                	c.fswsp	ft6,52(sp)
    5c0e:	f81e                	c.fswsp	ft7,48(sp)
    5c10:	f62a                	c.fswsp	fa0,44(sp)
    5c12:	f42e                	c.fswsp	fa1,40(sp)
    5c14:	f232                	c.fswsp	fa2,36(sp)
    5c16:	f036                	c.fswsp	fa3,32(sp)
    5c18:	ee3a                	c.fswsp	fa4,28(sp)
    5c1a:	ec3e                	c.fswsp	fa5,24(sp)
    5c1c:	ea42                	c.fswsp	fa6,20(sp)
    5c1e:	e846                	c.fswsp	fa7,16(sp)
    5c20:	e672                	c.fswsp	ft8,12(sp)
    5c22:	e476                	c.fswsp	ft9,8(sp)
    5c24:	e27a                	c.fswsp	ft10,4(sp)
    5c26:	e07e                	c.fswsp	ft11,0(sp)
    5c28:	341024f3          	csrr	s1,mepc
    5c2c:	30002973          	csrr	s2,mstatus
    5c30:	7c402473          	csrr	s0,mxstatus
    5c34:	300467f3          	csrrsi	a5,mstatus,8
    5c38:	dccfd0ef          	jal	ra,3204 <rf_irq_handler>
    5c3c:	300477f3          	csrrci	a5,mstatus,8
    5c40:	30091073          	csrw	mstatus,s2
    5c44:	34149073          	csrw	mepc,s1
    5c48:	7c441073          	csrw	mxstatus,s0
    5c4c:	e42007b7          	lui	a5,0xe4200
    5c50:	473d                	c.li	a4,15
    5c52:	c3d8                	c.sw	a4,4(a5)
    5c54:	0ff0000f          	fence
    5c58:	443a                	c.lwsp	s0,140(sp)
    5c5a:	40fa                	c.lwsp	ra,156(sp)
    5c5c:	42ea                	c.lwsp	t0,152(sp)
    5c5e:	435a                	c.lwsp	t1,148(sp)
    5c60:	43ca                	c.lwsp	t2,144(sp)
    5c62:	44aa                	c.lwsp	s1,136(sp)
    5c64:	451a                	c.lwsp	a0,132(sp)
    5c66:	458a                	c.lwsp	a1,128(sp)
    5c68:	5676                	c.lwsp	a2,124(sp)
    5c6a:	56e6                	c.lwsp	a3,120(sp)
    5c6c:	5756                	c.lwsp	a4,116(sp)
    5c6e:	57c6                	c.lwsp	a5,112(sp)
    5c70:	5836                	c.lwsp	a6,108(sp)
    5c72:	58a6                	c.lwsp	a7,104(sp)
    5c74:	5916                	c.lwsp	s2,100(sp)
    5c76:	5e06                	c.lwsp	t3,96(sp)
    5c78:	4ef6                	c.lwsp	t4,92(sp)
    5c7a:	4f66                	c.lwsp	t5,88(sp)
    5c7c:	4fd6                	c.lwsp	t6,84(sp)
    5c7e:	6036                	c.flwsp	ft0,76(sp)
    5c80:	60a6                	c.flwsp	ft1,72(sp)
    5c82:	6116                	c.flwsp	ft2,68(sp)
    5c84:	6186                	c.flwsp	ft3,64(sp)
    5c86:	7272                	c.flwsp	ft4,60(sp)
    5c88:	72e2                	c.flwsp	ft5,56(sp)
    5c8a:	7352                	c.flwsp	ft6,52(sp)
    5c8c:	73c2                	c.flwsp	ft7,48(sp)
    5c8e:	7532                	c.flwsp	fa0,44(sp)
    5c90:	75a2                	c.flwsp	fa1,40(sp)
    5c92:	7612                	c.flwsp	fa2,36(sp)
    5c94:	7682                	c.flwsp	fa3,32(sp)
    5c96:	6772                	c.flwsp	fa4,28(sp)
    5c98:	67e2                	c.flwsp	fa5,24(sp)
    5c9a:	6852                	c.flwsp	fa6,20(sp)
    5c9c:	68c2                	c.flwsp	fa7,16(sp)
    5c9e:	6e32                	c.flwsp	ft8,12(sp)
    5ca0:	6ea2                	c.flwsp	ft9,8(sp)
    5ca2:	6f12                	c.flwsp	ft10,4(sp)
    5ca4:	6f82                	c.flwsp	ft11,0(sp)
    5ca6:	610d                	c.addi16sp	sp,160
    5ca8:	30200073          	mret

00005cac <entry_irq14>:
    5cac:	1141                	c.addi	sp,-16
    5cae:	c632                	c.swsp	a2,12(sp)
    5cb0:	c436                	c.swsp	a3,8(sp)
    5cb2:	c23a                	c.swsp	a4,4(sp)
    5cb4:	c03e                	c.swsp	a5,0(sp)
    5cb6:	34102773          	csrr	a4,mepc
    5cba:	300026f3          	csrr	a3,mstatus
    5cbe:	7c4027f3          	csrr	a5,mxstatus
    5cc2:	30046673          	csrrsi	a2,mstatus,8
    5cc6:	30047673          	csrrci	a2,mstatus,8
    5cca:	30069073          	csrw	mstatus,a3
    5cce:	34171073          	csrw	mepc,a4
    5cd2:	7c479073          	csrw	mxstatus,a5
    5cd6:	e42007b7          	lui	a5,0xe4200
    5cda:	4739                	c.li	a4,14
    5cdc:	c3d8                	c.sw	a4,4(a5)
    5cde:	0ff0000f          	fence
    5ce2:	4632                	c.lwsp	a2,12(sp)
    5ce4:	46a2                	c.lwsp	a3,8(sp)
    5ce6:	4712                	c.lwsp	a4,4(sp)
    5ce8:	4782                	c.lwsp	a5,0(sp)
    5cea:	0141                	c.addi	sp,16
    5cec:	30200073          	mret

00005cf0 <entry_irq13>:
    5cf0:	1141                	c.addi	sp,-16
    5cf2:	c632                	c.swsp	a2,12(sp)
    5cf4:	c436                	c.swsp	a3,8(sp)
    5cf6:	c23a                	c.swsp	a4,4(sp)
    5cf8:	c03e                	c.swsp	a5,0(sp)
    5cfa:	34102773          	csrr	a4,mepc
    5cfe:	300026f3          	csrr	a3,mstatus
    5d02:	7c4027f3          	csrr	a5,mxstatus
    5d06:	30046673          	csrrsi	a2,mstatus,8
    5d0a:	30047673          	csrrci	a2,mstatus,8
    5d0e:	30069073          	csrw	mstatus,a3
    5d12:	34171073          	csrw	mepc,a4
    5d16:	7c479073          	csrw	mxstatus,a5
    5d1a:	e42007b7          	lui	a5,0xe4200
    5d1e:	4735                	c.li	a4,13
    5d20:	c3d8                	c.sw	a4,4(a5)
    5d22:	0ff0000f          	fence
    5d26:	4632                	c.lwsp	a2,12(sp)
    5d28:	46a2                	c.lwsp	a3,8(sp)
    5d2a:	4712                	c.lwsp	a4,4(sp)
    5d2c:	4782                	c.lwsp	a5,0(sp)
    5d2e:	0141                	c.addi	sp,16
    5d30:	30200073          	mret

00005d34 <entry_irq12>:
    5d34:	1141                	c.addi	sp,-16
    5d36:	c632                	c.swsp	a2,12(sp)
    5d38:	c436                	c.swsp	a3,8(sp)
    5d3a:	c23a                	c.swsp	a4,4(sp)
    5d3c:	c03e                	c.swsp	a5,0(sp)
    5d3e:	34102773          	csrr	a4,mepc
    5d42:	300026f3          	csrr	a3,mstatus
    5d46:	7c4027f3          	csrr	a5,mxstatus
    5d4a:	30046673          	csrrsi	a2,mstatus,8
    5d4e:	30047673          	csrrci	a2,mstatus,8
    5d52:	30069073          	csrw	mstatus,a3
    5d56:	34171073          	csrw	mepc,a4
    5d5a:	7c479073          	csrw	mxstatus,a5
    5d5e:	e42007b7          	lui	a5,0xe4200
    5d62:	4731                	c.li	a4,12
    5d64:	c3d8                	c.sw	a4,4(a5)
    5d66:	0ff0000f          	fence
    5d6a:	4632                	c.lwsp	a2,12(sp)
    5d6c:	46a2                	c.lwsp	a3,8(sp)
    5d6e:	4712                	c.lwsp	a4,4(sp)
    5d70:	4782                	c.lwsp	a5,0(sp)
    5d72:	0141                	c.addi	sp,16
    5d74:	30200073          	mret

00005d78 <entry_irq11>:
    5d78:	1141                	c.addi	sp,-16
    5d7a:	c632                	c.swsp	a2,12(sp)
    5d7c:	c436                	c.swsp	a3,8(sp)
    5d7e:	c23a                	c.swsp	a4,4(sp)
    5d80:	c03e                	c.swsp	a5,0(sp)
    5d82:	34102773          	csrr	a4,mepc
    5d86:	300026f3          	csrr	a3,mstatus
    5d8a:	7c4027f3          	csrr	a5,mxstatus
    5d8e:	30046673          	csrrsi	a2,mstatus,8
    5d92:	30047673          	csrrci	a2,mstatus,8
    5d96:	30069073          	csrw	mstatus,a3
    5d9a:	34171073          	csrw	mepc,a4
    5d9e:	7c479073          	csrw	mxstatus,a5
    5da2:	e42007b7          	lui	a5,0xe4200
    5da6:	472d                	c.li	a4,11
    5da8:	c3d8                	c.sw	a4,4(a5)
    5daa:	0ff0000f          	fence
    5dae:	4632                	c.lwsp	a2,12(sp)
    5db0:	46a2                	c.lwsp	a3,8(sp)
    5db2:	4712                	c.lwsp	a4,4(sp)
    5db4:	4782                	c.lwsp	a5,0(sp)
    5db6:	0141                	c.addi	sp,16
    5db8:	30200073          	mret

00005dbc <entry_irq10>:
    5dbc:	1141                	c.addi	sp,-16
    5dbe:	c632                	c.swsp	a2,12(sp)
    5dc0:	c436                	c.swsp	a3,8(sp)
    5dc2:	c23a                	c.swsp	a4,4(sp)
    5dc4:	c03e                	c.swsp	a5,0(sp)
    5dc6:	34102773          	csrr	a4,mepc
    5dca:	300026f3          	csrr	a3,mstatus
    5dce:	7c4027f3          	csrr	a5,mxstatus
    5dd2:	30046673          	csrrsi	a2,mstatus,8
    5dd6:	30047673          	csrrci	a2,mstatus,8
    5dda:	30069073          	csrw	mstatus,a3
    5dde:	34171073          	csrw	mepc,a4
    5de2:	7c479073          	csrw	mxstatus,a5
    5de6:	e42007b7          	lui	a5,0xe4200
    5dea:	4729                	c.li	a4,10
    5dec:	c3d8                	c.sw	a4,4(a5)
    5dee:	0ff0000f          	fence
    5df2:	4632                	c.lwsp	a2,12(sp)
    5df4:	46a2                	c.lwsp	a3,8(sp)
    5df6:	4712                	c.lwsp	a4,4(sp)
    5df8:	4782                	c.lwsp	a5,0(sp)
    5dfa:	0141                	c.addi	sp,16
    5dfc:	30200073          	mret

00005e00 <entry_irq9>:
    5e00:	1141                	c.addi	sp,-16
    5e02:	c632                	c.swsp	a2,12(sp)
    5e04:	c436                	c.swsp	a3,8(sp)
    5e06:	c23a                	c.swsp	a4,4(sp)
    5e08:	c03e                	c.swsp	a5,0(sp)
    5e0a:	34102773          	csrr	a4,mepc
    5e0e:	300026f3          	csrr	a3,mstatus
    5e12:	7c4027f3          	csrr	a5,mxstatus
    5e16:	30046673          	csrrsi	a2,mstatus,8
    5e1a:	30047673          	csrrci	a2,mstatus,8
    5e1e:	30069073          	csrw	mstatus,a3
    5e22:	34171073          	csrw	mepc,a4
    5e26:	7c479073          	csrw	mxstatus,a5
    5e2a:	e42007b7          	lui	a5,0xe4200
    5e2e:	4725                	c.li	a4,9
    5e30:	c3d8                	c.sw	a4,4(a5)
    5e32:	0ff0000f          	fence
    5e36:	4632                	c.lwsp	a2,12(sp)
    5e38:	46a2                	c.lwsp	a3,8(sp)
    5e3a:	4712                	c.lwsp	a4,4(sp)
    5e3c:	4782                	c.lwsp	a5,0(sp)
    5e3e:	0141                	c.addi	sp,16
    5e40:	30200073          	mret

00005e44 <entry_irq8>:
    5e44:	1141                	c.addi	sp,-16
    5e46:	c632                	c.swsp	a2,12(sp)
    5e48:	c436                	c.swsp	a3,8(sp)
    5e4a:	c23a                	c.swsp	a4,4(sp)
    5e4c:	c03e                	c.swsp	a5,0(sp)
    5e4e:	34102773          	csrr	a4,mepc
    5e52:	300026f3          	csrr	a3,mstatus
    5e56:	7c4027f3          	csrr	a5,mxstatus
    5e5a:	30046673          	csrrsi	a2,mstatus,8
    5e5e:	30047673          	csrrci	a2,mstatus,8
    5e62:	30069073          	csrw	mstatus,a3
    5e66:	34171073          	csrw	mepc,a4
    5e6a:	7c479073          	csrw	mxstatus,a5
    5e6e:	e42007b7          	lui	a5,0xe4200
    5e72:	4721                	c.li	a4,8
    5e74:	c3d8                	c.sw	a4,4(a5)
    5e76:	0ff0000f          	fence
    5e7a:	4632                	c.lwsp	a2,12(sp)
    5e7c:	46a2                	c.lwsp	a3,8(sp)
    5e7e:	4712                	c.lwsp	a4,4(sp)
    5e80:	4782                	c.lwsp	a5,0(sp)
    5e82:	0141                	c.addi	sp,16
    5e84:	30200073          	mret

00005e88 <entry_irq7>:
    5e88:	1141                	c.addi	sp,-16
    5e8a:	c632                	c.swsp	a2,12(sp)
    5e8c:	c436                	c.swsp	a3,8(sp)
    5e8e:	c23a                	c.swsp	a4,4(sp)
    5e90:	c03e                	c.swsp	a5,0(sp)
    5e92:	34102773          	csrr	a4,mepc
    5e96:	300026f3          	csrr	a3,mstatus
    5e9a:	7c4027f3          	csrr	a5,mxstatus
    5e9e:	30046673          	csrrsi	a2,mstatus,8
    5ea2:	30047673          	csrrci	a2,mstatus,8
    5ea6:	30069073          	csrw	mstatus,a3
    5eaa:	34171073          	csrw	mepc,a4
    5eae:	7c479073          	csrw	mxstatus,a5
    5eb2:	e42007b7          	lui	a5,0xe4200
    5eb6:	471d                	c.li	a4,7
    5eb8:	c3d8                	c.sw	a4,4(a5)
    5eba:	0ff0000f          	fence
    5ebe:	4632                	c.lwsp	a2,12(sp)
    5ec0:	46a2                	c.lwsp	a3,8(sp)
    5ec2:	4712                	c.lwsp	a4,4(sp)
    5ec4:	4782                	c.lwsp	a5,0(sp)
    5ec6:	0141                	c.addi	sp,16
    5ec8:	30200073          	mret

00005ecc <entry_irq6>:
    5ecc:	1141                	c.addi	sp,-16
    5ece:	c632                	c.swsp	a2,12(sp)
    5ed0:	c436                	c.swsp	a3,8(sp)
    5ed2:	c23a                	c.swsp	a4,4(sp)
    5ed4:	c03e                	c.swsp	a5,0(sp)
    5ed6:	34102773          	csrr	a4,mepc
    5eda:	300026f3          	csrr	a3,mstatus
    5ede:	7c4027f3          	csrr	a5,mxstatus
    5ee2:	30046673          	csrrsi	a2,mstatus,8
    5ee6:	30047673          	csrrci	a2,mstatus,8
    5eea:	30069073          	csrw	mstatus,a3
    5eee:	34171073          	csrw	mepc,a4
    5ef2:	7c479073          	csrw	mxstatus,a5
    5ef6:	e42007b7          	lui	a5,0xe4200
    5efa:	4719                	c.li	a4,6
    5efc:	c3d8                	c.sw	a4,4(a5)
    5efe:	0ff0000f          	fence
    5f02:	4632                	c.lwsp	a2,12(sp)
    5f04:	46a2                	c.lwsp	a3,8(sp)
    5f06:	4712                	c.lwsp	a4,4(sp)
    5f08:	4782                	c.lwsp	a5,0(sp)
    5f0a:	0141                	c.addi	sp,16
    5f0c:	30200073          	mret

00005f10 <entry_irq5>:
    5f10:	1141                	c.addi	sp,-16
    5f12:	c632                	c.swsp	a2,12(sp)
    5f14:	c436                	c.swsp	a3,8(sp)
    5f16:	c23a                	c.swsp	a4,4(sp)
    5f18:	c03e                	c.swsp	a5,0(sp)
    5f1a:	34102773          	csrr	a4,mepc
    5f1e:	300026f3          	csrr	a3,mstatus
    5f22:	7c4027f3          	csrr	a5,mxstatus
    5f26:	30046673          	csrrsi	a2,mstatus,8
    5f2a:	30047673          	csrrci	a2,mstatus,8
    5f2e:	30069073          	csrw	mstatus,a3
    5f32:	34171073          	csrw	mepc,a4
    5f36:	7c479073          	csrw	mxstatus,a5
    5f3a:	e42007b7          	lui	a5,0xe4200
    5f3e:	4715                	c.li	a4,5
    5f40:	c3d8                	c.sw	a4,4(a5)
    5f42:	0ff0000f          	fence
    5f46:	4632                	c.lwsp	a2,12(sp)
    5f48:	46a2                	c.lwsp	a3,8(sp)
    5f4a:	4712                	c.lwsp	a4,4(sp)
    5f4c:	4782                	c.lwsp	a5,0(sp)
    5f4e:	0141                	c.addi	sp,16
    5f50:	30200073          	mret

00005f54 <entry_irq4>:
    5f54:	1141                	c.addi	sp,-16
    5f56:	c632                	c.swsp	a2,12(sp)
    5f58:	c436                	c.swsp	a3,8(sp)
    5f5a:	c23a                	c.swsp	a4,4(sp)
    5f5c:	c03e                	c.swsp	a5,0(sp)
    5f5e:	34102773          	csrr	a4,mepc
    5f62:	300026f3          	csrr	a3,mstatus
    5f66:	7c4027f3          	csrr	a5,mxstatus
    5f6a:	30046673          	csrrsi	a2,mstatus,8
    5f6e:	30047673          	csrrci	a2,mstatus,8
    5f72:	30069073          	csrw	mstatus,a3
    5f76:	34171073          	csrw	mepc,a4
    5f7a:	7c479073          	csrw	mxstatus,a5
    5f7e:	e42007b7          	lui	a5,0xe4200
    5f82:	4711                	c.li	a4,4
    5f84:	c3d8                	c.sw	a4,4(a5)
    5f86:	0ff0000f          	fence
    5f8a:	4632                	c.lwsp	a2,12(sp)
    5f8c:	46a2                	c.lwsp	a3,8(sp)
    5f8e:	4712                	c.lwsp	a4,4(sp)
    5f90:	4782                	c.lwsp	a5,0(sp)
    5f92:	0141                	c.addi	sp,16
    5f94:	30200073          	mret

00005f98 <entry_irq3>:
    5f98:	1141                	c.addi	sp,-16
    5f9a:	c632                	c.swsp	a2,12(sp)
    5f9c:	c436                	c.swsp	a3,8(sp)
    5f9e:	c23a                	c.swsp	a4,4(sp)
    5fa0:	c03e                	c.swsp	a5,0(sp)
    5fa2:	34102773          	csrr	a4,mepc
    5fa6:	300026f3          	csrr	a3,mstatus
    5faa:	7c4027f3          	csrr	a5,mxstatus
    5fae:	30046673          	csrrsi	a2,mstatus,8
    5fb2:	30047673          	csrrci	a2,mstatus,8
    5fb6:	30069073          	csrw	mstatus,a3
    5fba:	34171073          	csrw	mepc,a4
    5fbe:	7c479073          	csrw	mxstatus,a5
    5fc2:	e42007b7          	lui	a5,0xe4200
    5fc6:	470d                	c.li	a4,3
    5fc8:	c3d8                	c.sw	a4,4(a5)
    5fca:	0ff0000f          	fence
    5fce:	4632                	c.lwsp	a2,12(sp)
    5fd0:	46a2                	c.lwsp	a3,8(sp)
    5fd2:	4712                	c.lwsp	a4,4(sp)
    5fd4:	4782                	c.lwsp	a5,0(sp)
    5fd6:	0141                	c.addi	sp,16
    5fd8:	30200073          	mret

00005fdc <entry_irq2>:
    5fdc:	1141                	c.addi	sp,-16
    5fde:	c632                	c.swsp	a2,12(sp)
    5fe0:	c436                	c.swsp	a3,8(sp)
    5fe2:	c23a                	c.swsp	a4,4(sp)
    5fe4:	c03e                	c.swsp	a5,0(sp)
    5fe6:	34102773          	csrr	a4,mepc
    5fea:	300026f3          	csrr	a3,mstatus
    5fee:	7c4027f3          	csrr	a5,mxstatus
    5ff2:	30046673          	csrrsi	a2,mstatus,8
    5ff6:	30047673          	csrrci	a2,mstatus,8
    5ffa:	30069073          	csrw	mstatus,a3
    5ffe:	34171073          	csrw	mepc,a4
    6002:	7c479073          	csrw	mxstatus,a5
    6006:	e42007b7          	lui	a5,0xe4200
    600a:	4709                	c.li	a4,2
    600c:	c3d8                	c.sw	a4,4(a5)
    600e:	0ff0000f          	fence
    6012:	4632                	c.lwsp	a2,12(sp)
    6014:	46a2                	c.lwsp	a3,8(sp)
    6016:	4712                	c.lwsp	a4,4(sp)
    6018:	4782                	c.lwsp	a5,0(sp)
    601a:	0141                	c.addi	sp,16
    601c:	30200073          	mret

00006020 <entry_irq1>:
    6020:	7135                	c.addi16sp	sp,-160
    6022:	cf06                	c.swsp	ra,156(sp)
    6024:	cd16                	c.swsp	t0,152(sp)
    6026:	cb1a                	c.swsp	t1,148(sp)
    6028:	c91e                	c.swsp	t2,144(sp)
    602a:	c722                	c.swsp	s0,140(sp)
    602c:	c526                	c.swsp	s1,136(sp)
    602e:	c32a                	c.swsp	a0,132(sp)
    6030:	c12e                	c.swsp	a1,128(sp)
    6032:	deb2                	c.swsp	a2,124(sp)
    6034:	dcb6                	c.swsp	a3,120(sp)
    6036:	daba                	c.swsp	a4,116(sp)
    6038:	d8be                	c.swsp	a5,112(sp)
    603a:	d6c2                	c.swsp	a6,108(sp)
    603c:	d4c6                	c.swsp	a7,104(sp)
    603e:	d2ca                	c.swsp	s2,100(sp)
    6040:	d0f2                	c.swsp	t3,96(sp)
    6042:	cef6                	c.swsp	t4,92(sp)
    6044:	ccfa                	c.swsp	t5,88(sp)
    6046:	cafe                	c.swsp	t6,84(sp)
    6048:	e682                	c.fswsp	ft0,76(sp)
    604a:	e486                	c.fswsp	ft1,72(sp)
    604c:	e28a                	c.fswsp	ft2,68(sp)
    604e:	e08e                	c.fswsp	ft3,64(sp)
    6050:	fe12                	c.fswsp	ft4,60(sp)
    6052:	fc16                	c.fswsp	ft5,56(sp)
    6054:	fa1a                	c.fswsp	ft6,52(sp)
    6056:	f81e                	c.fswsp	ft7,48(sp)
    6058:	f62a                	c.fswsp	fa0,44(sp)
    605a:	f42e                	c.fswsp	fa1,40(sp)
    605c:	f232                	c.fswsp	fa2,36(sp)
    605e:	f036                	c.fswsp	fa3,32(sp)
    6060:	ee3a                	c.fswsp	fa4,28(sp)
    6062:	ec3e                	c.fswsp	fa5,24(sp)
    6064:	ea42                	c.fswsp	fa6,20(sp)
    6066:	e846                	c.fswsp	fa7,16(sp)
    6068:	e672                	c.fswsp	ft8,12(sp)
    606a:	e476                	c.fswsp	ft9,8(sp)
    606c:	e27a                	c.fswsp	ft10,4(sp)
    606e:	e07e                	c.fswsp	ft11,0(sp)
    6070:	341024f3          	csrr	s1,mepc
    6074:	30002973          	csrr	s2,mstatus
    6078:	7c402473          	csrr	s0,mxstatus
    607c:	300467f3          	csrrsi	a5,mstatus,8
    6080:	980fd0ef          	jal	ra,3200 <stimer_irq_handler>
    6084:	300477f3          	csrrci	a5,mstatus,8
    6088:	30091073          	csrw	mstatus,s2
    608c:	34149073          	csrw	mepc,s1
    6090:	7c441073          	csrw	mxstatus,s0
    6094:	e42007b7          	lui	a5,0xe4200
    6098:	4705                	c.li	a4,1
    609a:	c3d8                	c.sw	a4,4(a5)
    609c:	0ff0000f          	fence
    60a0:	443a                	c.lwsp	s0,140(sp)
    60a2:	40fa                	c.lwsp	ra,156(sp)
    60a4:	42ea                	c.lwsp	t0,152(sp)
    60a6:	435a                	c.lwsp	t1,148(sp)
    60a8:	43ca                	c.lwsp	t2,144(sp)
    60aa:	44aa                	c.lwsp	s1,136(sp)
    60ac:	451a                	c.lwsp	a0,132(sp)
    60ae:	458a                	c.lwsp	a1,128(sp)
    60b0:	5676                	c.lwsp	a2,124(sp)
    60b2:	56e6                	c.lwsp	a3,120(sp)
    60b4:	5756                	c.lwsp	a4,116(sp)
    60b6:	57c6                	c.lwsp	a5,112(sp)
    60b8:	5836                	c.lwsp	a6,108(sp)
    60ba:	58a6                	c.lwsp	a7,104(sp)
    60bc:	5916                	c.lwsp	s2,100(sp)
    60be:	5e06                	c.lwsp	t3,96(sp)
    60c0:	4ef6                	c.lwsp	t4,92(sp)
    60c2:	4f66                	c.lwsp	t5,88(sp)
    60c4:	4fd6                	c.lwsp	t6,84(sp)
    60c6:	6036                	c.flwsp	ft0,76(sp)
    60c8:	60a6                	c.flwsp	ft1,72(sp)
    60ca:	6116                	c.flwsp	ft2,68(sp)
    60cc:	6186                	c.flwsp	ft3,64(sp)
    60ce:	7272                	c.flwsp	ft4,60(sp)
    60d0:	72e2                	c.flwsp	ft5,56(sp)
    60d2:	7352                	c.flwsp	ft6,52(sp)
    60d4:	73c2                	c.flwsp	ft7,48(sp)
    60d6:	7532                	c.flwsp	fa0,44(sp)
    60d8:	75a2                	c.flwsp	fa1,40(sp)
    60da:	7612                	c.flwsp	fa2,36(sp)
    60dc:	7682                	c.flwsp	fa3,32(sp)
    60de:	6772                	c.flwsp	fa4,28(sp)
    60e0:	67e2                	c.flwsp	fa5,24(sp)
    60e2:	6852                	c.flwsp	fa6,20(sp)
    60e4:	68c2                	c.flwsp	fa7,16(sp)
    60e6:	6e32                	c.flwsp	ft8,12(sp)
    60e8:	6ea2                	c.flwsp	ft9,8(sp)
    60ea:	6f12                	c.flwsp	ft10,4(sp)
    60ec:	6f82                	c.flwsp	ft11,0(sp)
    60ee:	610d                	c.addi16sp	sp,160
    60f0:	30200073          	mret

000060f4 <trap_entry>:
    60f4:	1101                	c.addi	sp,-32
    60f6:	ce36                	c.swsp	a3,28(sp)
    60f8:	cc3a                	c.swsp	a4,24(sp)
    60fa:	ca3e                	c.swsp	a5,20(sp)
    60fc:	34202773          	csrr	a4,mcause
    6100:	8cefc7ab          	swgp	a4,-1844 # 800cc <mcause>
    6104:	341026f3          	csrr	a3,mepc
    6108:	6741                	c.lui	a4,0x10
    610a:	1779                	c.addi	a4,-2
    610c:	8cdfc9ab          	swgp	a3,-1840 # 800d0 <mepc>
    6110:	c602                	c.swsp	zero,12(sp)
    6112:	47b2                	c.lwsp	a5,12(sp)
    6114:	fef76ee3          	bltu	a4,a5,6110 <trap_entry+0x1c>
    6118:	0001                	c.nop
    611a:	47b2                	c.lwsp	a5,12(sp)
    611c:	0785                	c.addi	a5,1
    611e:	c63e                	c.swsp	a5,12(sp)
    6120:	47b2                	c.lwsp	a5,12(sp)
    6122:	fef77be3          	bgeu	a4,a5,6118 <trap_entry+0x24>
    6126:	b7ed                	c.j	6110 <trap_entry+0x1c>
	...

00006200 <__vectors>:
    6200:	60f4                	c.flw	fa3,68(s1)
    6202:	0000                	unimp
    6204:	6020                	c.flw	fs0,64(s0)
    6206:	0000                	unimp
    6208:	5fdc                	c.lw	a5,60(a5)
    620a:	0000                	unimp
    620c:	5f98                	c.lw	a4,56(a5)
    620e:	0000                	unimp
    6210:	5f54                	c.lw	a3,60(a4)
    6212:	0000                	unimp
    6214:	5f10                	c.lw	a2,56(a4)
    6216:	0000                	unimp
    6218:	5ecc                	c.lw	a1,60(a3)
    621a:	0000                	unimp
    621c:	5e88                	c.lw	a0,56(a3)
    621e:	0000                	unimp
    6220:	5e44                	c.lw	s1,60(a2)
    6222:	0000                	unimp
    6224:	5e00                	c.lw	s0,56(a2)
    6226:	0000                	unimp
    6228:	5dbc                	c.lw	a5,120(a1)
    622a:	0000                	unimp
    622c:	5d78                	c.lw	a4,124(a0)
    622e:	0000                	unimp
    6230:	5d34                	c.lw	a3,120(a0)
    6232:	0000                	unimp
    6234:	5cf0                	c.lw	a2,124(s1)
    6236:	0000                	unimp
    6238:	5cac                	c.lw	a1,120(s1)
    623a:	0000                	unimp
    623c:	5bd8                	c.lw	a4,52(a5)
    623e:	0000                	unimp
    6240:	5b94                	c.lw	a3,48(a5)
    6242:	0000                	unimp
    6244:	5b50                	c.lw	a2,52(a4)
    6246:	0000                	unimp
    6248:	5b0c                	c.lw	a1,48(a4)
    624a:	0000                	unimp
    624c:	5ac8                	c.lw	a0,52(a3)
    624e:	0000                	unimp
    6250:	5a84                	c.lw	s1,48(a3)
    6252:	0000                	unimp
    6254:	5a40                	c.lw	s0,52(a2)
    6256:	0000                	unimp
    6258:	59fc                	c.lw	a5,116(a1)
    625a:	0000                	unimp
    625c:	59b8                	c.lw	a4,112(a1)
    625e:	0000                	unimp
    6260:	5974                	c.lw	a3,116(a0)
    6262:	0000                	unimp
    6264:	5930                	c.lw	a2,112(a0)
    6266:	0000                	unimp
    6268:	58ec                	c.lw	a1,116(s1)
    626a:	0000                	unimp
    626c:	58a8                	c.lw	a0,112(s1)
    626e:	0000                	unimp
    6270:	5864                	c.lw	s1,116(s0)
    6272:	0000                	unimp
    6274:	5820                	c.lw	s0,112(s0)
    6276:	0000                	unimp
    6278:	57dc                	c.lw	a5,44(a5)
    627a:	0000                	unimp
    627c:	5798                	c.lw	a4,40(a5)
    627e:	0000                	unimp
    6280:	5750                	c.lw	a2,44(a4)
    6282:	0000                	unimp
    6284:	5708                	c.lw	a0,40(a4)
    6286:	0000                	unimp
    6288:	56c0                	c.lw	s0,44(a3)
    628a:	0000                	unimp
    628c:	5678                	c.lw	a4,108(a2)
    628e:	0000                	unimp
    6290:	5630                	c.lw	a2,104(a2)
    6292:	0000                	unimp
    6294:	55e8                	c.lw	a0,108(a1)
    6296:	0000                	unimp
    6298:	55e4                	c.lw	s1,108(a1)
    629a:	0000                	unimp
    629c:	55e0                	c.lw	s0,108(a1)
    629e:	0000                	unimp
    62a0:	55dc                	c.lw	a5,44(a1)
    62a2:	0000                	unimp
    62a4:	55d8                	c.lw	a4,44(a1)
    62a6:	0000                	unimp
    62a8:	5590                	c.lw	a2,40(a1)
    62aa:	0000                	unimp
    62ac:	5548                	c.lw	a0,44(a0)
    62ae:	0000                	unimp
    62b0:	5500                	c.lw	s0,40(a0)
    62b2:	0000                	unimp
    62b4:	54fc                	c.lw	a5,108(s1)
    62b6:	0000                	unimp
    62b8:	54b4                	c.lw	a3,104(s1)
    62ba:	0000                	unimp
    62bc:	54b0                	c.lw	a2,104(s1)
    62be:	0000                	unimp
    62c0:	54ac                	c.lw	a1,104(s1)
    62c2:	0000                	unimp
    62c4:	54a8                	c.lw	a0,104(s1)
    62c6:	0000                	unimp
    62c8:	5460                	c.lw	s0,108(s0)
    62ca:	0000                	unimp
    62cc:	5418                	c.lw	a4,40(s0)
    62ce:	0000                	unimp
    62d0:	53d0                	c.lw	a2,36(a5)
    62d2:	0000                	unimp
    62d4:	5388                	c.lw	a0,32(a5)
    62d6:	0000                	unimp
    62d8:	5340                	c.lw	s0,36(a4)
    62da:	0000                	unimp
    62dc:	52f8                	c.lw	a4,100(a3)
    62de:	0000                	unimp
    62e0:	52b0                	c.lw	a2,96(a3)
    62e2:	0000                	unimp
    62e4:	5268                	c.lw	a0,100(a2)
    62e6:	0000                	unimp
    62e8:	5220                	c.lw	s0,96(a2)
    62ea:	0000                	unimp
    62ec:	51d8                	c.lw	a4,36(a1)
    62ee:	0000                	unimp
    62f0:	5190                	c.lw	a2,32(a1)
    62f2:	0000                	unimp
    62f4:	5148                	c.lw	a0,36(a0)
    62f6:	0000                	unimp
    62f8:	5100                	c.lw	s0,32(a0)
    62fa:	0000                	unimp
    62fc:	50b8                	c.lw	a4,96(s1)
    62fe:	0000                	unimp
    6300:	0001                	c.nop

Disassembly of section .text:

200063b0 <flash_page_program>:
200063b0:	1101                	c.addi	sp,-32
200063b2:	0ff57713          	andi	a4,a0,255
200063b6:	10000793          	li	a5,256
200063ba:	ca26                	c.swsp	s1,20(sp)
200063bc:	c84a                	c.swsp	s2,16(sp)
200063be:	c64e                	c.swsp	s3,12(sp)
200063c0:	892a                	c.mv	s2,a0
200063c2:	84ae                	c.mv	s1,a1
200063c4:	89b2                	c.mv	s3,a2
200063c6:	8f99                	c.sub	a5,a4
200063c8:	ce06                	c.swsp	ra,28(sp)
200063ca:	cc22                	c.swsp	s0,24(sp)
200063cc:	8426                	c.mv	s0,s1
200063ce:	0097f363          	bgeu	a5,s1,200063d4 <flash_page_program+0x24>
200063d2:	843e                	c.mv	s0,a5
200063d4:	7d047073          	csrci	mmisc_ctl,8
200063d8:	8622                	c.mv	a2,s0
200063da:	85ce                	c.mv	a1,s3
200063dc:	01200533          	add	a0,zero,s2
200063e0:	dfffd097          	auipc	ra,0xdfffd
200063e4:	0a8080e7          	jalr	168(ra) # 3488 <flash_mspi_write_ram.constprop.41>
200063e8:	7d046073          	csrsi	mmisc_ctl,8
200063ec:	8c81                	c.sub	s1,s0
200063ee:	9922                	c.add	s2,s0
200063f0:	99a2                	c.add	s3,s0
200063f2:	10000793          	li	a5,256
200063f6:	f8f9                	c.bnez	s1,200063cc <flash_page_program+0x1c>
200063f8:	40f2                	c.lwsp	ra,28(sp)
200063fa:	4462                	c.lwsp	s0,24(sp)
200063fc:	44d2                	c.lwsp	s1,20(sp)
200063fe:	4942                	c.lwsp	s2,16(sp)
20006400:	49b2                	c.lwsp	s3,12(sp)
20006402:	6105                	c.addi16sp	sp,32
20006404:	00008067          	ret

20006408 <flash_dread>:
20006408:	1141                	c.addi	sp,-16
2000640a:	c606                	c.swsp	ra,12(sp)
2000640c:	87ae                	c.mv	a5,a1
2000640e:	8732                	c.mv	a4,a2
20006410:	7d047073          	csrci	mmisc_ctl,8
20006414:	4685                	c.li	a3,1
20006416:	85aa                	c.mv	a1,a0
20006418:	00100613          	li	a2,1
2000641c:	03b00513          	li	a0,59
20006420:	dfffd097          	auipc	ra,0xdfffd
20006424:	eb8080e7          	jalr	-328(ra) # 32d8 <flash_mspi_read_ram>
20006428:	7d046073          	csrsi	mmisc_ctl,8
2000642c:	40b2                	c.lwsp	ra,12(sp)
2000642e:	0141                	c.addi	sp,16
20006430:	00008067          	ret

20006434 <cpu_sleep_wakeup_32k_rc>:
20006434:	1141                	c.addi	sp,-16
20006436:	c606                	c.swsp	ra,12(sp)
20006438:	7d047073          	csrci	mmisc_ctl,8
2000643c:	dfffe097          	auipc	ra,0xdfffe
20006440:	ab4080e7          	jalr	-1356(ra) # 3ef0 <cpu_sleep_wakeup_32k_rc_ram>
20006444:	7d046073          	csrsi	mmisc_ctl,8
20006448:	40b2                	c.lwsp	ra,12(sp)
2000644a:	0141                	c.addi	sp,16
2000644c:	8082                	c.jr	ra
	...

20006450 <blt_ll_unknown_rsp.constprop.16>:
20006450:	1101                	c.addi	sp,-32
20006452:	000007b7          	lui	a5,0x0
20006456:	00a107a3          	sb	a0,15(sp)
2000645a:	20300713          	li	a4,515
2000645e:	1947a783          	lw	a5,404(a5) # 194 <ll_push_tx_fifo_handler>
20006462:	6521                	c.lui	a0,0x8
20006464:	00e11623          	sh	a4,12(sp)
20006468:	006c                	c.addi4spn	a1,sp,12
2000646a:	471d                	c.li	a4,7
2000646c:	04050513          	addi	a0,a0,64 # 8040 <_RAMCODE_VMA_END+0x1d3e>
20006470:	ce06                	c.swsp	ra,28(sp)
20006472:	00e10723          	sb	a4,14(sp)
20006476:	9782                	c.jalr	a5
20006478:	40f2                	c.lwsp	ra,28(sp)
2000647a:	4501                	c.li	a0,0
2000647c:	6105                	c.addi16sp	sp,32
2000647e:	8082                	c.jr	ra
20006480:	0001                	c.nop
	...

20006484 <blc_gatt_requestServiceAccess.constprop.4>:
20006484:	87aa                	c.mv	a5,a0
20006486:	4675735b          	bbs	a0,7,200064ec <blc_gatt_requestServiceAccess.constprop.4+0x68>
2000648a:	0265795b          	bbc	a0,6,200064bc <blc_gatt_requestServiceAccess.constprop.4+0x38>
2000648e:	4789                	c.li	a5,2
20006490:	00000737          	lui	a4,0x0
20006494:	17870713          	addi	a4,a4,376 # 178 <_AES_VMA_END>
20006498:	0b674603          	lbu	a2,182(a4)
2000649c:	02074683          	lbu	a3,32(a4)
200064a0:	02061c63          	bnez	a2,200064d8 <blc_gatt_requestServiceAccess.constprop.4+0x54>
200064a4:	2000e737          	lui	a4,0x2000e
200064a8:	ef470713          	addi	a4,a4,-268 # 2000def4 <att_access_err_no_enc>
200064ac:	0cf707db          	lea.w	a5,a4,a5
200064b0:	00d787b3          	add	a5,a5,a3
200064b4:	0007c503          	lbu	a0,0(a5)
200064b8:	00008067          	ret
200064bc:	4501                	c.li	a0,0
200064be:	be57fd5b          	bbc	a5,5,200064b8 <blc_gatt_requestServiceAccess.constprop.4+0x34>
200064c2:	00000737          	lui	a4,0x0
200064c6:	17870713          	addi	a4,a4,376 # 178 <_AES_VMA_END>
200064ca:	0b674603          	lbu	a2,182(a4)
200064ce:	4785                	c.li	a5,1
200064d0:	02074683          	lbu	a3,32(a4)
200064d4:	fc0608e3          	beqz	a2,200064a4 <blc_gatt_requestServiceAccess.constprop.4+0x20>
200064d8:	2000e737          	lui	a4,0x2000e
200064dc:	ee470713          	addi	a4,a4,-284 # 2000dee4 <att_access_err_enc>
200064e0:	0cf707db          	lea.w	a5,a4,a5
200064e4:	97b6                	c.add	a5,a3
200064e6:	0007c503          	lbu	a0,0(a5)
200064ea:	8082                	c.jr	ra
200064ec:	478d                	c.li	a5,3
200064ee:	b74d                	c.j	20006490 <blc_gatt_requestServiceAccess.constprop.4+0xc>
200064f0:	0001                	c.nop
	...

200064f4 <blc_gap_send_event>:
200064f4:	000007b7          	lui	a5,0x0
200064f8:	2307a303          	lw	t1,560(a5) # 230 <blc_gap_event_handler>
200064fc:	00030463          	beqz	t1,20006504 <blc_gap_send_event+0x10>
20006500:	00030067          	jr	t1
20006504:	4505                	c.li	a0,1
20006506:	8082                	c.jr	ra
20006508:	0001                	c.nop
	...

2000650c <att_Find_end_group>:
2000650c:	000007b7          	lui	a5,0x0
20006510:	2347a883          	lw	a7,564(a5) # 234 <gAttributes>
20006514:	00150713          	addi	a4,a0,1
20006518:	0008d503          	lhu	a0,0(a7)
2000651c:	3c07275b          	bfoz	a4,a4,15,0
20006520:	06a77263          	bgeu	a4,a0,20006584 <att_Find_end_group+0x78>
20006524:	3c05285b          	bfoz	a6,a0,15,0
20006528:	06a5e263          	bltu	a1,a0,2000658c <att_Find_end_group+0x80>
2000652c:	04e86e63          	bltu	a6,a4,20006588 <att_Find_end_group+0x7c>
20006530:	630d                	c.lui	t1,0x3
20006532:	7e79                	c.lui	t3,0xffffe
20006534:	4ee1                	c.li	t4,24
20006536:	80330313          	addi	t1,t1,-2045 # 2803 <rf_set_ble_channel+0x37>
2000653a:	800e0e13          	addi	t3,t3,-2048 # ffffd800 <_DATA_LMA_START+0xdffef0cc>
2000653e:	4f05                	c.li	t5,1
20006540:	0180006f          	j	20006558 <att_Find_end_group+0x4c>
20006544:	01c787b3          	add	a5,a5,t3
20006548:	3c07a7db          	bfoz	a5,a5,15,0
2000654c:	02ff7863          	bgeu	t5,a5,2000657c <att_Find_end_group+0x70>
20006550:	3c06a75b          	bfoz	a4,a3,15,0
20006554:	04e86063          	bltu	a6,a4,20006594 <att_Find_end_group+0x88>
20006558:	87c6                	c.mv	a5,a7
2000655a:	c5d717ff          	maddr32	a5,a4,t4
2000655e:	00170693          	addi	a3,a4,1
20006562:	479c                	c.lw	a5,8(a5)
20006564:	0007d783          	lhu	a5,0(a5)
20006568:	fc661ee3          	bne	a2,t1,20006544 <att_Find_end_group+0x38>
2000656c:	01c785b3          	add	a1,a5,t3
20006570:	3c05a5db          	bfoz	a1,a1,15,0
20006574:	00c78463          	beq	a5,a2,2000657c <att_Find_end_group+0x70>
20006578:	fcbf6ce3          	bltu	t5,a1,20006550 <att_Find_end_group+0x44>
2000657c:	177d                	c.addi	a4,-1
2000657e:	3c07255b          	bfoz	a0,a4,15,0
20006582:	8082                	c.jr	ra
20006584:	00000513          	li	a0,0
20006588:	00008067          	ret
2000658c:	3c05a85b          	bfoz	a6,a1,15,0
20006590:	f9dff06f          	j	2000652c <att_Find_end_group+0x20>
20006594:	8082                	c.jr	ra
	...

20006598 <l2cap_att_search>:
20006598:	000007b7          	lui	a5,0x0
2000659c:	2347a303          	lw	t1,564(a5) # 234 <gAttributes>
200065a0:	00a007b3          	add	a5,zero,a0
200065a4:	00035703          	lhu	a4,0(t1)
200065a8:	08a76263          	bltu	a4,a0,2000662c <l2cap_att_search+0x94>
200065ac:	3c0728db          	bfoz	a7,a4,15,0
200065b0:	08e5e063          	bltu	a1,a4,20006630 <l2cap_att_search+0x98>
200065b4:	06f8ec63          	bltu	a7,a5,2000662c <l2cap_att_search+0x94>
200065b8:	4e61                	c.li	t3,24
200065ba:	a829                	c.j	200065d4 <l2cap_att_search+0x3c>
200065bc:	0107685b          	bnec	a4,16,200065cc <l2cap_att_search+0x34>
200065c0:	00082e83          	lw	t4,0(a6)
200065c4:	00062703          	lw	a4,0(a2)
200065c8:	04ee8263          	beq	t4,a4,2000660c <l2cap_att_search+0x74>
200065cc:	3c05a7db          	bfoz	a5,a1,15,0
200065d0:	04f8ee63          	bltu	a7,a5,2000662c <l2cap_att_search+0x94>
200065d4:	00600533          	add	a0,zero,t1
200065d8:	c5c7957f          	maddr32	a0,a5,t3
200065dc:	00178593          	addi	a1,a5,1
200065e0:	00852803          	lw	a6,8(a0)
200065e4:	00354703          	lbu	a4,3(a0)
200065e8:	bc276a5b          	bnec	a4,2,200065bc <l2cap_att_search+0x24>
200065ec:	00084e83          	lbu	t4,0(a6)
200065f0:	00064703          	lbu	a4,0(a2)
200065f4:	fcee9ce3          	bne	t4,a4,200065cc <l2cap_att_search+0x34>
200065f8:	00184803          	lbu	a6,1(a6)
200065fc:	00164703          	lbu	a4,1(a2)
20006600:	fce816e3          	bne	a6,a4,200065cc <l2cap_att_search+0x34>
20006604:	00f69023          	sh	a5,0(a3) # 10000 <BIN_SIZE+0x1810>
20006608:	00008067          	ret
2000660c:	00482e83          	lw	t4,4(a6)
20006610:	4258                	c.lw	a4,4(a2)
20006612:	faee9de3          	bne	t4,a4,200065cc <l2cap_att_search+0x34>
20006616:	00882e83          	lw	t4,8(a6)
2000661a:	4618                	c.lw	a4,8(a2)
2000661c:	faee98e3          	bne	t4,a4,200065cc <l2cap_att_search+0x34>
20006620:	00c82803          	lw	a6,12(a6)
20006624:	4658                	c.lw	a4,12(a2)
20006626:	fae813e3          	bne	a6,a4,200065cc <l2cap_att_search+0x34>
2000662a:	bfe9                	c.j	20006604 <l2cap_att_search+0x6c>
2000662c:	4501                	c.li	a0,0
2000662e:	8082                	c.jr	ra
20006630:	3c05a8db          	bfoz	a7,a1,15,0
20006634:	b741                	c.j	200065b4 <l2cap_att_search+0x1c>
	...

20006638 <aes_ll_encryption>:
20006638:	00000837          	lui	a6,0x0
2000663c:	00160e37          	lui	t3,0x160
20006640:	15880693          	addi	a3,a6,344 # 158 <_AES_VMA_START>
20006644:	15880793          	addi	a5,a6,344
20006648:	0b4e0713          	addi	a4,t3,180 # 1600b4 <FLASH_SIZE+0x600b4>
2000664c:	15880813          	addi	a6,a6,344
20006650:	80000eb7          	lui	t4,0x80000
20006654:	0c4e0e13          	addi	t3,t3,196
20006658:	00052303          	lw	t1,0(a0)
2000665c:	01d768b3          	or	a7,a4,t4
20006660:	0068a023          	sw	t1,0(a7)
20006664:	0005a883          	lw	a7,0(a1)
20006668:	0711                	c.addi	a4,4
2000666a:	01182023          	sw	a7,0(a6)
2000666e:	0511                	c.addi	a0,4
20006670:	0591                	c.addi	a1,4
20006672:	0811                	c.addi	a6,4
20006674:	ffc712e3          	bne	a4,t3,20006658 <aes_ll_encryption+0x20>
20006678:	80160737          	lui	a4,0x80160
2000667c:	0cd72223          	sw	a3,196(a4) # 801600c4 <_DATA_LMA_START+0x60151990>
20006680:	00100513          	li	a0,1
20006684:	801605b7          	lui	a1,0x80160
20006688:	0aa72823          	sw	a0,176(a4)
2000668c:	0b05a703          	lw	a4,176(a1) # 801600b0 <_DATA_LMA_START+0x6015197c>
20006690:	fe077e5b          	bbs	a4,0,2000668c <aes_ll_encryption+0x54>
20006694:	01078793          	addi	a5,a5,16
20006698:	02068693          	addi	a3,a3,32
2000669c:	0007c703          	lbu	a4,0(a5)
200066a0:	0785                	c.addi	a5,1
200066a2:	00e60023          	sb	a4,0(a2)
200066a6:	0605                	c.addi	a2,1
200066a8:	fed79ae3          	bne	a5,a3,2000669c <aes_ll_encryption+0x64>
200066ac:	8082                	c.jr	ra
200066ae:	0001                	c.nop

200066b0 <blt_smp_alg_c1.constprop.1>:
200066b0:	7139                	c.addi16sp	sp,-64
200066b2:	d64e                	c.swsp	s3,44(sp)
200066b4:	000009b7          	lui	s3,0x0
200066b8:	17898993          	addi	s3,s3,376 # 178 <_AES_VMA_END>
200066bc:	dc22                	c.swsp	s0,56(sp)
200066be:	da26                	c.swsp	s1,52(sp)
200066c0:	842e                	c.mv	s0,a1
200066c2:	00c10023          	sb	a2,0(sp)
200066c6:	0e098593          	addi	a1,s3,224
200066ca:	461d                	c.li	a2,7
200066cc:	84aa                	c.mv	s1,a0
200066ce:	00210513          	addi	a0,sp,2
200066d2:	de06                	c.swsp	ra,60(sp)
200066d4:	d84a                	c.swsp	s2,48(sp)
200066d6:	00d100a3          	sb	a3,1(sp)
200066da:	00012123          	sw	zero,2(sp)
200066de:	00012323          	sw	zero,6(sp)
200066e2:	00012523          	sw	zero,10(sp)
200066e6:	00011723          	sh	zero,14(sp)
200066ea:	c802                	c.swsp	zero,16(sp)
200066ec:	ca02                	c.swsp	zero,20(sp)
200066ee:	cc02                	c.swsp	zero,24(sp)
200066f0:	00012e23          	sw	zero,28(sp)
200066f4:	dfffb097          	auipc	ra,0xdfffb
200066f8:	c74080e7          	jalr	-908(ra) # 1368 <smemcpy>
200066fc:	0e798593          	addi	a1,s3,231
20006700:	00700613          	li	a2,7
20006704:	00910513          	addi	a0,sp,9
20006708:	dfffb097          	auipc	ra,0xdfffb
2000670c:	c60080e7          	jalr	-928(ra) # 1368 <smemcpy>
20006710:	01010913          	addi	s2,sp,16
20006714:	85a2                	c.mv	a1,s0
20006716:	878a                	c.mv	a5,sp
20006718:	00078683          	lb	a3,0(a5)
2000671c:	00058703          	lb	a4,0(a1)
20006720:	0785                	c.addi	a5,1
20006722:	8f35                	c.xor	a4,a3
20006724:	fee78fa3          	sb	a4,-1(a5)
20006728:	0585                	c.addi	a1,1
2000672a:	fef917e3          	bne	s2,a5,20006718 <blt_smp_alg_c1.constprop.1+0x68>
2000672e:	4619                	c.li	a2,6
20006730:	0f098593          	addi	a1,s3,240
20006734:	01200533          	add	a0,zero,s2
20006738:	dfffb097          	auipc	ra,0xdfffb
2000673c:	c30080e7          	jalr	-976(ra) # 1368 <smemcpy>
20006740:	00600613          	li	a2,6
20006744:	10a98593          	addi	a1,s3,266
20006748:	01610513          	addi	a0,sp,22
2000674c:	dfffb097          	auipc	ra,0xdfffb
20006750:	c1c080e7          	jalr	-996(ra) # 1368 <smemcpy>
20006754:	0c098413          	addi	s0,s3,192
20006758:	858a                	c.mv	a1,sp
2000675a:	8626                	c.mv	a2,s1
2000675c:	8522                	c.mv	a0,s0
2000675e:	3de9                	c.jal	20006638 <aes_ll_encryption>
20006760:	86a6                	c.mv	a3,s1
20006762:	87ca                	c.mv	a5,s2
20006764:	02010593          	addi	a1,sp,32
20006768:	00078603          	lb	a2,0(a5)
2000676c:	00068703          	lb	a4,0(a3)
20006770:	0785                	c.addi	a5,1
20006772:	8f31                	c.xor	a4,a2
20006774:	fee78fa3          	sb	a4,-1(a5)
20006778:	0685                	c.addi	a3,1
2000677a:	feb797e3          	bne	a5,a1,20006768 <blt_smp_alg_c1.constprop.1+0xb8>
2000677e:	8626                	c.mv	a2,s1
20006780:	85ca                	c.mv	a1,s2
20006782:	8522                	c.mv	a0,s0
20006784:	eb5ff0ef          	jal	ra,20006638 <aes_ll_encryption>
20006788:	50f2                	c.lwsp	ra,60(sp)
2000678a:	5462                	c.lwsp	s0,56(sp)
2000678c:	54d2                	c.lwsp	s1,52(sp)
2000678e:	5942                	c.lwsp	s2,48(sp)
20006790:	59b2                	c.lwsp	s3,44(sp)
20006792:	6121                	c.addi16sp	sp,64
20006794:	8082                	c.jr	ra
	...

20006798 <blc_smp_procParingEnd>:
20006798:	000007b7          	lui	a5,0x0
2000679c:	17878793          	addi	a5,a5,376 # 178 <_AES_VMA_END>
200067a0:	160784a3          	sb	zero,361(a5)
200067a4:	180782a3          	sb	zero,389(a5)
200067a8:	16078523          	sb	zero,362(a5)
200067ac:	18078e23          	sb	zero,412(a5)
200067b0:	1a078023          	sb	zero,416(a5)
200067b4:	1a07a223          	sw	zero,420(a5)
200067b8:	00050663          	beqz	a0,200067c4 <blc_smp_procParingEnd+0x2c>
200067bc:	1a87a783          	lw	a5,424(a5)
200067c0:	4027f45b          	bbs	a5,2,200067c8 <blc_smp_procParingEnd+0x30>
200067c4:	00008067          	ret
200067c8:	1101                	c.addi	sp,-32
200067ca:	87aa                	c.mv	a5,a0
200067cc:	006c                	c.addi4spn	a1,sp,12
200067ce:	04000713          	li	a4,64
200067d2:	460d                	c.li	a2,3
200067d4:	4509                	c.li	a0,2
200067d6:	ce06                	c.swsp	ra,28(sp)
200067d8:	00e11623          	sh	a4,12(sp)
200067dc:	00f10723          	sb	a5,14(sp)
200067e0:	d15ff0ef          	jal	ra,200064f4 <blc_gap_send_event>
200067e4:	40f2                	c.lwsp	ra,28(sp)
200067e6:	6105                	c.addi16sp	sp,32
200067e8:	8082                	c.jr	ra
	...

200067ec <blc_hci_send_event>:
200067ec:	000007b7          	lui	a5,0x0
200067f0:	3247a303          	lw	t1,804(a5) # 324 <blc_hci_event_handler>
200067f4:	00030463          	beqz	t1,200067fc <blc_hci_send_event+0x10>
200067f8:	00030067          	jr	t1
200067fc:	4505                	c.li	a0,1
200067fe:	8082                	c.jr	ra
20006800:	0001                	c.nop
	...

20006804 <blt_leg_scan_mainloop_task>:
20006804:	715d                	c.addi16sp	sp,-80
20006806:	c4a2                	c.swsp	s0,72(sp)
20006808:	00000437          	lui	s0,0x0
2000680c:	17840413          	addi	s0,s0,376 # 178 <_AES_VMA_END>
20006810:	c686                	c.swsp	ra,76(sp)
20006812:	c2a6                	c.swsp	s1,68(sp)
20006814:	c0ca                	c.swsp	s2,64(sp)
20006816:	de4e                	c.swsp	s3,60(sp)
20006818:	dc52                	c.swsp	s4,56(sp)
2000681a:	da56                	c.swsp	s5,52(sp)
2000681c:	d85a                	c.swsp	s6,48(sp)
2000681e:	1b344783          	lbu	a5,435(s0)
20006822:	1b244703          	lbu	a4,434(s0)
20006826:	0ef70563          	beq	a4,a5,20006910 <blt_leg_scan_mainloop_task+0x10c>
2000682a:	020009b7          	lui	s3,0x2000
2000682e:	4909                	c.li	s2,2
20006830:	03e98993          	addi	s3,s3,62 # 200003e <FLASH_SIZE+0x1f0003e>
20006834:	10200a13          	li	s4,258
20006838:	4a8d                	c.li	s5,3
2000683a:	a00d                	c.j	2000685c <blt_leg_scan_mainloop_task+0x58>
2000683c:	00d7f693          	andi	a3,a5,13
20006840:	0e46d45b          	beqc	a3,4,20006928 <blt_leg_scan_mainloop_task+0x124>
20006844:	1b340783          	lb	a5,435(s0)
20006848:	1b244703          	lbu	a4,434(s0)
2000684c:	00178793          	addi	a5,a5,1
20006850:	0ff7f793          	andi	a5,a5,255
20006854:	1af409a3          	sb	a5,435(s0)
20006858:	0af70c63          	beq	a4,a5,20006910 <blt_leg_scan_mainloop_task+0x10c>
2000685c:	1b842703          	lw	a4,440(s0)
20006860:	be17725b          	bbc	a4,1,20006844 <blt_leg_scan_mainloop_task+0x40>
20006864:	1b442483          	lw	s1,436(s0)
20006868:	1887a7db          	bfoz	a5,a5,6,8
2000686c:	94be                	c.add	s1,a5
2000686e:	0044c783          	lbu	a5,4(s1)
20006872:	0054cb03          	lbu	s6,5(s1)
20006876:	00f7f713          	andi	a4,a5,15
2000687a:	fce961e3          	bltu	s2,a4,2000683c <blt_leg_scan_mainloop_task+0x38>
2000687e:	0a176d5b          	bnec	a4,1,20006938 <blt_leg_scan_mainloop_task+0x134>
20006882:	46ad                	c.li	a3,11
20006884:	0d66f263          	bgeu	a3,s6,20006948 <blt_leg_scan_mainloop_task+0x144>
20006888:	ffab0b13          	addi	s6,s6,-6
2000688c:	0ffb7b13          	andi	s6,s6,255
20006890:	01411023          	sh	s4,0(sp)
20006894:	00e10123          	sb	a4,2(sp)
20006898:	1867a7db          	bfoz	a5,a5,6,6
2000689c:	4619                	c.li	a2,6
2000689e:	00648593          	addi	a1,s1,6
200068a2:	0048                	c.addi4spn	a0,sp,4
200068a4:	00f101a3          	sb	a5,3(sp)
200068a8:	dfffb097          	auipc	ra,0xdfffb
200068ac:	ac0080e7          	jalr	-1344(ra) # 1368 <smemcpy>
200068b0:	ffab0793          	addi	a5,s6,-6
200068b4:	0ff7f793          	andi	a5,a5,255
200068b8:	00f00633          	add	a2,zero,a5
200068bc:	00c48593          	addi	a1,s1,12
200068c0:	00b10513          	addi	a0,sp,11
200068c4:	00f10523          	sb	a5,10(sp)
200068c8:	dfffb097          	auipc	ra,0xdfffb
200068cc:	aa0080e7          	jalr	-1376(ra) # 1368 <smemcpy>
200068d0:	0054c783          	lbu	a5,5(s1)
200068d4:	00a14703          	lbu	a4,10(sp)
200068d8:	97a6                	c.add	a5,s1
200068da:	00f78683          	lb	a3,15(a5)
200068de:	180c                	c.addi4spn	a1,sp,48
200068e0:	00e587b3          	add	a5,a1,a4
200068e4:	006b0613          	addi	a2,s6,6
200068e8:	f9268713          	addi	a4,a3,-110
200068ec:	858a                	c.mv	a1,sp
200068ee:	854e                	c.mv	a0,s3
200068f0:	fce78da3          	sb	a4,-37(a5)
200068f4:	ef9ff0ef          	jal	ra,200067ec <blc_hci_send_event>
200068f8:	1b340783          	lb	a5,435(s0)
200068fc:	1b244703          	lbu	a4,434(s0)
20006900:	00178793          	addi	a5,a5,1
20006904:	0ff7f793          	andi	a5,a5,255
20006908:	1af409a3          	sb	a5,435(s0)
2000690c:	f4f718e3          	bne	a4,a5,2000685c <blt_leg_scan_mainloop_task+0x58>
20006910:	00100513          	li	a0,1
20006914:	40b6                	c.lwsp	ra,76(sp)
20006916:	4426                	c.lwsp	s0,72(sp)
20006918:	4496                	c.lwsp	s1,68(sp)
2000691a:	4906                	c.lwsp	s2,64(sp)
2000691c:	59f2                	c.lwsp	s3,60(sp)
2000691e:	5a62                	c.lwsp	s4,56(sp)
20006920:	5ad2                	c.lwsp	s5,52(sp)
20006922:	5b42                	c.lwsp	s6,48(sp)
20006924:	6161                	c.addi16sp	sp,80
20006926:	8082                	c.jr	ra
20006928:	01411023          	sh	s4,0(sp)
2000692c:	b667645b          	bnec	a4,6,20006894 <blt_leg_scan_mainloop_task+0x90>
20006930:	01210123          	sb	s2,2(sp)
20006934:	f65ff06f          	j	20006898 <blt_leg_scan_mainloop_task+0x94>
20006938:	01411023          	sh	s4,0(sp)
2000693c:	b4276c5b          	bnec	a4,2,20006894 <blt_leg_scan_mainloop_task+0x90>
20006940:	01510123          	sb	s5,2(sp)
20006944:	f55ff06f          	j	20006898 <blt_leg_scan_mainloop_task+0x94>
20006948:	4501                	c.li	a0,0
2000694a:	b7e9                	c.j	20006914 <blt_leg_scan_mainloop_task+0x110>

2000694c <bls_ll_send_read_remote_feature_event.part.5>:
2000694c:	7179                	c.addi16sp	sp,-48
2000694e:	d422                	c.swsp	s0,40(sp)
20006950:	00000437          	lui	s0,0x0
20006954:	17840413          	addi	s0,s0,376 # 178 <_AES_VMA_END>
20006958:	d226                	c.swsp	s1,36(sp)
2000695a:	21840593          	addi	a1,s0,536
2000695e:	84aa                	c.mv	s1,a0
20006960:	4701                	c.li	a4,0
20006962:	0068                	c.addi4spn	a0,sp,12
20006964:	4781                	c.li	a5,0
20006966:	4611                	c.li	a2,4
20006968:	d606                	c.swsp	ra,44(sp)
2000696a:	c63a                	c.swsp	a4,12(sp)
2000696c:	00f12823          	sw	a5,16(sp)
20006970:	dfffb097          	auipc	ra,0xdfffb
20006974:	9f8080e7          	jalr	-1544(ra) # 1368 <smemcpy>
20006978:	1f241783          	lh	a5,498(s0)
2000697c:	006c                	c.addi4spn	a1,sp,12
2000697e:	0828                	c.addi4spn	a0,sp,24
20006980:	4711                	c.li	a4,4
20006982:	4621                	c.li	a2,8
20006984:	00e10a23          	sb	a4,20(sp)
20006988:	00910aa3          	sb	s1,21(sp)
2000698c:	00f11b23          	sh	a5,22(sp)
20006990:	dfffb097          	auipc	ra,0xdfffb
20006994:	9d8080e7          	jalr	-1576(ra) # 1368 <smemcpy>
20006998:	02000537          	lui	a0,0x2000
2000699c:	084c                	c.addi4spn	a1,sp,20
2000699e:	4631                	c.li	a2,12
200069a0:	03e50513          	addi	a0,a0,62 # 200003e <FLASH_SIZE+0x1f0003e>
200069a4:	e49ff0ef          	jal	ra,200067ec <blc_hci_send_event>
200069a8:	50b2                	c.lwsp	ra,44(sp)
200069aa:	5422                	c.lwsp	s0,40(sp)
200069ac:	5492                	c.lwsp	s1,36(sp)
200069ae:	6145                	c.addi16sp	sp,48
200069b0:	8082                	c.jr	ra
200069b2:	0001                	c.nop

200069b4 <blt_connect>:
200069b4:	7139                	c.addi16sp	sp,-64
200069b6:	dc22                	c.swsp	s0,56(sp)
200069b8:	00000437          	lui	s0,0x0
200069bc:	17840413          	addi	s0,s0,376 # 178 <_AES_VMA_END>
200069c0:	de06                	c.swsp	ra,60(sp)
200069c2:	da26                	c.swsp	s1,52(sp)
200069c4:	d84a                	c.swsp	s2,48(sp)
200069c6:	d64e                	c.swsp	s3,44(sp)
200069c8:	d452                	c.swsp	s4,40(sp)
200069ca:	d256                	c.swsp	s5,36(sp)
200069cc:	47a1                	c.li	a5,8
200069ce:	18f400a3          	sb	a5,385(s0)
200069d2:	80100737          	lui	a4,0x80100
200069d6:	f8000793          	li	a5,-128
200069da:	50f700a3          	sb	a5,1281(a4) # 80100501 <_DATA_LMA_START+0x600f1dcd>
200069de:	22042223          	sw	zero,548(s0)
200069e2:	6a15                	c.lui	s4,0x5
200069e4:	01c55783          	lhu	a5,28(a0)
200069e8:	e20a0a13          	addi	s4,s4,-480 # 4e20 <main+0x88>
200069ec:	034787b3          	mul	a5,a5,s4
200069f0:	50170703          	lb	a4,1281(a4)
200069f4:	84aa                	c.mv	s1,a0
200069f6:	8b7d                	c.andi	a4,31
200069f8:	46c1                	c.li	a3,16
200069fa:	892e                	c.mv	s2,a1
200069fc:	1ed40323          	sb	a3,486(s0)
20006a00:	34e40123          	sb	a4,834(s0)
20006a04:	2e041923          	sh	zero,754(s0)
20006a08:	04000993          	li	s3,64
20006a0c:	20f42623          	sw	a5,524(s0)
20006a10:	01c55503          	lhu	a0,28(a0)
20006a14:	dfffb097          	auipc	ra,0xdfffb
20006a18:	168080e7          	jalr	360(ra) # 1b7c <blt_set_fsmTimeout_intLevel>
20006a1c:	01a4d783          	lhu	a5,26(s1)
20006a20:	01044683          	lbu	a3,16(s0)
20006a24:	fff90613          	addi	a2,s2,-1
20006a28:	36042a83          	lw	s5,864(s0)
20006a2c:	00163613          	seqz	a2,a2
20006a30:	20c42703          	lw	a4,524(s0)
20006a34:	0785                	c.addi	a5,1
20006a36:	16f5                	c.addi	a3,-3
20006a38:	0016b693          	seqz	a3,a3
20006a3c:	97b2                	c.add	a5,a2
20006a3e:	97b6                	c.add	a5,a3
20006a40:	40ea8733          	sub	a4,s5,a4
20006a44:	c547977f          	maddr32	a4,a5,s4
20006a48:	20e42023          	sw	a4,512(s0)
20006a4c:	01a4d603          	lhu	a2,26(s1)
20006a50:	0194c583          	lbu	a1,25(s1)
20006a54:	01c4d503          	lhu	a0,28(s1)
20006a58:	dfffb097          	auipc	ra,0xdfffb
20006a5c:	efc080e7          	jalr	-260(ra) # 1954 <bls_ll_setNewConnection_timing>
20006a60:	0204d783          	lhu	a5,32(s1)
20006a64:	00027737          	lui	a4,0x27
20006a68:	10070713          	addi	a4,a4,256 # 27100 <BIN_SIZE+0x18910>
20006a6c:	02e787b3          	mul	a5,a5,a4
20006a70:	1f341923          	sh	s3,498(s0)
20006a74:	20f42423          	sw	a5,520(s0)
20006a78:	01e4d783          	lhu	a5,30(s1)
20006a7c:	29542023          	sw	s5,640(s0)
20006a80:	20f42823          	sw	a5,528(s0)
20006a84:	21542e23          	sw	s5,540(s0)
20006a88:	0a040ba3          	sb	zero,183(s0)
20006a8c:	24042023          	sw	zero,576(s0)
20006a90:	22042c23          	sw	zero,568(s0)
20006a94:	22042e23          	sw	zero,572(s0)
20006a98:	dfffb097          	auipc	ra,0xdfffb
20006a9c:	0a0080e7          	jalr	160(ra) # 1b38 <blt_brx_timing_update_init>
20006aa0:	27341c23          	sh	s3,632(s0)
20006aa4:	1219585b          	beqc	s2,1,20006bd4 <blt_connect+0x220>
20006aa8:	0044c783          	lbu	a5,4(s1)
20006aac:	1457a7db          	bfoz	a5,a5,5,5
20006ab0:	18f40523          	sb	a5,394(s0)
20006ab4:	36442503          	lw	a0,868(s0)
20006ab8:	009005b3          	add	a1,zero,s1
20006abc:	dfffc097          	auipc	ra,0xdfffc
20006ac0:	96c080e7          	jalr	-1684(ra) # 2428 <blt_ll_connect_common>
20006ac4:	801417b7          	lui	a5,0x80141
20006ac8:	4705                	c.li	a4,1
20006aca:	a0e780a3          	sb	a4,-1535(a5) # 80140a01 <_DATA_LMA_START+0x601322cd>
20006ace:	4741                	c.li	a4,16
20006ad0:	36842783          	lw	a5,872(s0)
20006ad4:	34e400a3          	sb	a4,833(s0)
20006ad8:	16040a23          	sb	zero,372(s0)
20006adc:	20042c23          	sw	zero,536(s0)
20006ae0:	1e0405a3          	sb	zero,491(s0)
20006ae4:	0a041aa3          	sh	zero,181(s0)
20006ae8:	34040c23          	sb	zero,856(s0)
20006aec:	c791                	c.beqz	a5,20006af8 <blt_connect+0x144>
20006aee:	85a6                	c.mv	a1,s1
20006af0:	04000513          	li	a0,64
20006af4:	000780e7          	jalr	a5
20006af8:	19040783          	lb	a5,400(s0)
20006afc:	001b0737          	lui	a4,0x1b0
20006b00:	01b70713          	addi	a4,a4,27 # 1b001b <FLASH_SIZE+0xb001b>
20006b04:	24e42623          	sw	a4,588(s0)
20006b08:	24041f23          	sh	zero,606(s0)
20006b0c:	0ff7f793          	andi	a5,a5,255
20006b10:	0bb7d85b          	beqc	a5,27,20006bc0 <blt_connect+0x20c>
20006b14:	00100793          	li	a5,1
20006b18:	24f40ea3          	sb	a5,605(s0)
20006b1c:	00196a5b          	bnec	s2,1,20006b30 <blt_connect+0x17c>
20006b20:	01040703          	lb	a4,16(s0)
20006b24:	01140783          	lb	a5,17(s0)
20006b28:	00e400a3          	sb	a4,1(s0)
20006b2c:	00f401a3          	sb	a5,3(s0)
20006b30:	4719                	c.li	a4,6
20006b32:	1b842783          	lw	a5,440(s0)
20006b36:	36042623          	sw	zero,876(s0)
20006b3a:	36042823          	sw	zero,880(s0)
20006b3e:	36042a23          	sw	zero,884(s0)
20006b42:	18e40123          	sb	a4,386(s0)
20006b46:	0607f35b          	bbc	a5,0,20006bac <blt_connect+0x1f8>
20006b4a:	0044c783          	lbu	a5,4(s1)
20006b4e:	1f241683          	lh	a3,498(s0)
20006b52:	4705                	c.li	a4,1
20006b54:	1867a7db          	bfoz	a5,a5,6,6
20006b58:	00600613          	li	a2,6
20006b5c:	00648593          	addi	a1,s1,6
20006b60:	01210513          	addi	a0,sp,18
20006b64:	00e11623          	sh	a4,12(sp)
20006b68:	00d11723          	sh	a3,14(sp)
20006b6c:	00e10823          	sb	a4,16(sp)
20006b70:	00f108a3          	sb	a5,17(sp)
20006b74:	dfffa097          	auipc	ra,0xdfffa
20006b78:	7f4080e7          	jalr	2036(ra) # 1368 <smemcpy>
20006b7c:	0274c783          	lbu	a5,39(s1)
20006b80:	01c49803          	lh	a6,28(s1)
20006b84:	01e49683          	lh	a3,30(s1)
20006b88:	02049703          	lh	a4,32(s1)
20006b8c:	02000537          	lui	a0,0x2000
20006b90:	8395                	c.srli	a5,0x5
20006b92:	464d                	c.li	a2,19
20006b94:	006c                	c.addi4spn	a1,sp,12
20006b96:	03e50513          	addi	a0,a0,62 # 200003e <FLASH_SIZE+0x1f0003e>
20006b9a:	01011c23          	sh	a6,24(sp)
20006b9e:	00d11d23          	sh	a3,26(sp)
20006ba2:	00e11e23          	sh	a4,28(sp)
20006ba6:	00f10f23          	sb	a5,30(sp)
20006baa:	3189                	c.jal	200067ec <blc_hci_send_event>
20006bac:	50f2                	c.lwsp	ra,60(sp)
20006bae:	5462                	c.lwsp	s0,56(sp)
20006bb0:	54d2                	c.lwsp	s1,52(sp)
20006bb2:	5942                	c.lwsp	s2,48(sp)
20006bb4:	59b2                	c.lwsp	s3,44(sp)
20006bb6:	5a22                	c.lwsp	s4,40(sp)
20006bb8:	5a92                	c.lwsp	s5,36(sp)
20006bba:	4505                	c.li	a0,1
20006bbc:	6121                	c.addi16sp	sp,64
20006bbe:	8082                	c.jr	ra
20006bc0:	19140783          	lb	a5,401(s0)
20006bc4:	0ff7f793          	andi	a5,a5,255
20006bc8:	b5b7e65b          	bnec	a5,27,20006b14 <blt_connect+0x160>
20006bcc:	24040ea3          	sb	zero,605(s0)
20006bd0:	f4dff06f          	j	20006b1c <blt_connect+0x168>
20006bd4:	19240523          	sb	s2,394(s0)
20006bd8:	bdf1                	c.j	20006ab4 <blt_connect+0x100>
20006bda:	0001                	c.nop

20006bdc <blt_ll_exchangeDataLength>:
20006bdc:	1101                	c.addi	sp,-32
20006bde:	cc22                	c.swsp	s0,24(sp)
20006be0:	00000437          	lui	s0,0x0
20006be4:	17840413          	addi	s0,s0,376 # 178 <_AES_VMA_END>
20006be8:	ce06                	c.swsp	ra,28(sp)
20006bea:	25a41603          	lh	a2,602(s0)
20006bee:	8eaa                	c.mv	t4,a0
20006bf0:	3c0626db          	bfoz	a3,a2,15,0
20006bf4:	00d5f663          	bgeu	a1,a3,20006c00 <blt_ll_exchangeDataLength+0x24>
20006bf8:	3c05a6db          	bfoz	a3,a1,15,0
20006bfc:	00d00633          	add	a2,zero,a3
20006c00:	25045803          	lhu	a6,592(s0)
20006c04:	4501                	c.li	a0,0
20006c06:	00e68793          	addi	a5,a3,14
20006c0a:	00e80713          	addi	a4,a6,14
20006c0e:	c42a                	c.swsp	a0,8(sp)
20006c10:	0cf7275b          	bfoz	a4,a4,3,15
20006c14:	0cf7a7db          	bfoz	a5,a5,3,15
20006c18:	4581                	c.li	a1,0
20006c1a:	6521                	c.lui	a0,0x8
20006c1c:	24c41923          	sh	a2,594(s0)
20006c20:	01c42883          	lw	a7,28(s0)
20006c24:	6605                	c.lui	a2,0x1
20006c26:	c62e                	c.swsp	a1,12(sp)
20006c28:	00875e13          	srli	t3,a4,0x8
20006c2c:	0087d313          	srli	t1,a5,0x8
20006c30:	90360613          	addi	a2,a2,-1789 # 903 <blt_buff_prepare_write+0xf7>
20006c34:	004c                	c.addi4spn	a1,sp,4
20006c36:	04050513          	addi	a0,a0,64 # 8040 <_RAMCODE_VMA_END+0x1d3e>
20006c3a:	00c11223          	sh	a2,4(sp)
20006c3e:	01d10323          	sb	t4,6(sp)
20006c42:	010103a3          	sb	a6,7(sp)
20006c46:	00e104a3          	sb	a4,9(sp)
20006c4a:	01c10523          	sb	t3,10(sp)
20006c4e:	00d105a3          	sb	a3,11(sp)
20006c52:	00f106a3          	sb	a5,13(sp)
20006c56:	00610723          	sb	t1,14(sp)
20006c5a:	9882                	c.jalr	a7
20006c5c:	e911                	c.bnez	a0,20006c70 <blt_ll_exchangeDataLength+0x94>
20006c5e:	4785                	c.li	a5,1
20006c60:	24f40ea3          	sb	a5,605(s0)
20006c64:	40f2                	c.lwsp	ra,28(sp)
20006c66:	4462                	c.lwsp	s0,24(sp)
20006c68:	4501                	c.li	a0,0
20006c6a:	6105                	c.addi16sp	sp,32
20006c6c:	00008067          	ret
20006c70:	4789                	c.li	a5,2
20006c72:	24f40ea3          	sb	a5,605(s0)
20006c76:	40f2                	c.lwsp	ra,28(sp)
20006c78:	4462                	c.lwsp	s0,24(sp)
20006c7a:	4501                	c.li	a0,0
20006c7c:	6105                	c.addi16sp	sp,32
20006c7e:	8082                	c.jr	ra
20006c80:	0001                	c.nop
	...

20006c84 <blt_slave_main_loop_post>:
20006c84:	1101                	c.addi	sp,-32
20006c86:	cc22                	c.swsp	s0,24(sp)
20006c88:	00000437          	lui	s0,0x0
20006c8c:	ce06                	c.swsp	ra,28(sp)
20006c8e:	ca26                	c.swsp	s1,20(sp)
20006c90:	17840413          	addi	s0,s0,376 # 178 <_AES_VMA_END>
20006c94:	25d44783          	lbu	a5,605(s0)
20006c98:	1217d45b          	beqc	a5,1,20006dc0 <blt_slave_main_loop_post+0x13c>
20006c9c:	24842783          	lw	a5,584(s0)
20006ca0:	00079863          	bnez	a5,20006cb0 <blt_slave_main_loop_post+0x2c>
20006ca4:	40f2                	c.lwsp	ra,28(sp)
20006ca6:	4462                	c.lwsp	s0,24(sp)
20006ca8:	44d2                	c.lwsp	s1,20(sp)
20006caa:	4505                	c.li	a0,1
20006cac:	6105                	c.addi16sp	sp,32
20006cae:	8082                	c.jr	ra
20006cb0:	0447f45b          	bbc	a5,4,20006cf8 <blt_slave_main_loop_post+0x74>
20006cb4:	9bbd                	c.andi	a5,-17
20006cb6:	39c42703          	lw	a4,924(s0)
20006cba:	000004b7          	lui	s1,0x0
20006cbe:	24f42423          	sw	a5,584(s0)
20006cc2:	180402a3          	sb	zero,389(s0)
20006cc6:	34040e23          	sb	zero,860(s0)
20006cca:	1e0405a3          	sb	zero,491(s0)
20006cce:	36548493          	addi	s1,s1,869 # 365 <bltc+0xd>
20006cd2:	c719                	c.beqz	a4,20006ce0 <blt_slave_main_loop_post+0x5c>
20006cd4:	1ed40493          	addi	s1,s0,493
20006cd8:	85a6                	c.mv	a1,s1
20006cda:	04000513          	li	a0,64
20006cde:	9702                	c.jalr	a4
20006ce0:	3a042783          	lw	a5,928(s0)
20006ce4:	4605                	c.li	a2,1
20006ce6:	85a6                	c.mv	a1,s1
20006ce8:	4511                	c.li	a0,4
20006cea:	9782                	c.jalr	a5
20006cec:	3a442783          	lw	a5,932(s0)
20006cf0:	5047f65b          	bbs	a5,4,20006dfc <blt_slave_main_loop_post+0x178>
20006cf4:	24842783          	lw	a5,584(s0)
20006cf8:	02a7f05b          	bbc	a5,10,20006d18 <blt_slave_main_loop_post+0x94>
20006cfc:	3a042783          	lw	a5,928(s0)
20006d00:	4615                	c.li	a2,5
20006d02:	26e40593          	addi	a1,s0,622
20006d06:	4529                	c.li	a0,10
20006d08:	000780e7          	jalr	a5
20006d0c:	24842783          	lw	a5,584(s0)
20006d10:	bff7f793          	andi	a5,a5,-1025
20006d14:	24f42423          	sw	a5,584(s0)
20006d18:	02b7f25b          	bbc	a5,11,20006d3c <blt_slave_main_loop_post+0xb8>
20006d1c:	777d                	c.lui	a4,0xfffff
20006d1e:	7ff70713          	addi	a4,a4,2047 # fffff7ff <_DATA_LMA_START+0xdfff10cb>
20006d22:	3a042683          	lw	a3,928(s0)
20006d26:	8ff9                	c.and	a5,a4
20006d28:	462d                	c.li	a2,11
20006d2a:	31b40593          	addi	a1,s0,795
20006d2e:	452d                	c.li	a0,11
20006d30:	24f42423          	sw	a5,584(s0)
20006d34:	000680e7          	jalr	a3
20006d38:	24842783          	lw	a5,584(s0)
20006d3c:	02c7f05b          	bbc	a5,12,20006d5c <blt_slave_main_loop_post+0xd8>
20006d40:	777d                	c.lui	a4,0xfffff
20006d42:	177d                	c.addi	a4,-1
20006d44:	3a042683          	lw	a3,928(s0)
20006d48:	8ff9                	c.and	a5,a4
20006d4a:	4615                	c.li	a2,5
20006d4c:	26e40593          	addi	a1,s0,622
20006d50:	4531                	c.li	a0,12
20006d52:	24f42423          	sw	a5,584(s0)
20006d56:	9682                	c.jalr	a3
20006d58:	24842783          	lw	a5,584(s0)
20006d5c:	b4d7f45b          	bbc	a5,13,20006ca4 <blt_slave_main_loop_post+0x20>
20006d60:	7779                	c.lui	a4,0xffffe
20006d62:	177d                	c.addi	a4,-1
20006d64:	3a042683          	lw	a3,928(s0)
20006d68:	8ff9                	c.and	a5,a4
20006d6a:	4619                	c.li	a2,6
20006d6c:	1f640593          	addi	a1,s0,502
20006d70:	4535                	c.li	a0,13
20006d72:	24f42423          	sw	a5,584(s0)
20006d76:	9682                	c.jalr	a3
20006d78:	1b842783          	lw	a5,440(s0)
20006d7c:	b227f45b          	bbc	a5,2,20006ca4 <blt_slave_main_loop_post+0x20>
20006d80:	1f241803          	lh	a6,498(s0)
20006d84:	1f641683          	lh	a3,502(s0)
20006d88:	1f841703          	lh	a4,504(s0)
20006d8c:	1fa41783          	lh	a5,506(s0)
20006d90:	02000537          	lui	a0,0x2000
20006d94:	004c                	c.addi4spn	a1,sp,4
20006d96:	488d                	c.li	a7,3
20006d98:	4629                	c.li	a2,10
20006d9a:	03e50513          	addi	a0,a0,62 # 200003e <FLASH_SIZE+0x1f0003e>
20006d9e:	01111223          	sh	a7,4(sp)
20006da2:	01011323          	sh	a6,6(sp)
20006da6:	00d11423          	sh	a3,8(sp)
20006daa:	00e11523          	sh	a4,10(sp)
20006dae:	00f11623          	sh	a5,12(sp)
20006db2:	3c2d                	c.jal	200067ec <blc_hci_send_event>
20006db4:	40f2                	c.lwsp	ra,28(sp)
20006db6:	4462                	c.lwsp	s0,24(sp)
20006db8:	44d2                	c.lwsp	s1,20(sp)
20006dba:	4505                	c.li	a0,1
20006dbc:	6105                	c.addi16sp	sp,32
20006dbe:	8082                	c.jr	ra
20006dc0:	18140783          	lb	a5,385(s0)
20006dc4:	0ff7f793          	andi	a5,a5,255
20006dc8:	ac87ea5b          	bnec	a5,8,20006c9c <blt_slave_main_loop_post+0x18>
20006dcc:	18540783          	lb	a5,389(s0)
20006dd0:	0ff7f793          	andi	a5,a5,255
20006dd4:	ec0794e3          	bnez	a5,20006c9c <blt_slave_main_loop_post+0x18>
20006dd8:	801407b7          	lui	a5,0x80140
20006ddc:	2007a783          	lw	a5,512(a5) # 80140200 <_DATA_LMA_START+0x60131acc>
20006de0:	21c42683          	lw	a3,540(s0)
20006de4:	39842703          	lw	a4,920(s0)
20006de8:	8f95                	c.sub	a5,a3
20006dea:	eaf779e3          	bgeu	a4,a5,20006c9c <blt_slave_main_loop_post+0x18>
20006dee:	25245583          	lhu	a1,594(s0)
20006df2:	4551                	c.li	a0,20
20006df4:	de9ff0ef          	jal	ra,20006bdc <blt_ll_exchangeDataLength>
20006df8:	ea5ff06f          	j	20006c9c <blt_slave_main_loop_post+0x18>
20006dfc:	1ed40783          	lb	a5,493(s0)
20006e00:	02000537          	lui	a0,0x2000
20006e04:	04000713          	li	a4,64
20006e08:	4611                	c.li	a2,4
20006e0a:	004c                	c.addi4spn	a1,sp,4
20006e0c:	0515                	c.addi	a0,5
20006e0e:	00f103a3          	sb	a5,7(sp)
20006e12:	00010223          	sb	zero,4(sp)
20006e16:	00e112a3          	sh	a4,5(sp)
20006e1a:	3ac9                	c.jal	200067ec <blc_hci_send_event>
20006e1c:	24842783          	lw	a5,584(s0)
20006e20:	bde1                	c.j	20006cf8 <blt_slave_main_loop_post+0x74>
	...

20006e24 <generateRandomNum>:
20006e24:	1141                	c.addi	sp,-16
20006e26:	c422                	c.swsp	s0,8(sp)
20006e28:	c226                	c.swsp	s1,4(sp)
20006e2a:	c04a                	c.swsp	s2,0(sp)
20006e2c:	c606                	c.swsp	ra,12(sp)
20006e2e:	892a                	c.mv	s2,a0
20006e30:	84ae                	c.mv	s1,a1
20006e32:	4501                	c.li	a0,0
20006e34:	4401                	c.li	s0,0
20006e36:	a039                	c.j	20006e44 <generateRandomNum+0x20>
20006e38:	00a48023          	sb	a0,0(s1)
20006e3c:	8121                	c.srli	a0,0x8
20006e3e:	0485                	c.addi	s1,1
20006e40:	02890063          	beq	s2,s0,20006e60 <generateRandomNum+0x3c>
20006e44:	00347793          	andi	a5,s0,3
20006e48:	0405                	c.addi	s0,1
20006e4a:	f7fd                	c.bnez	a5,20006e38 <generateRandomNum+0x14>
20006e4c:	dfffc097          	auipc	ra,0xdfffc
20006e50:	808080e7          	jalr	-2040(ra) # 2654 <trng_rand>
20006e54:	00a48023          	sb	a0,0(s1)
20006e58:	8121                	c.srli	a0,0x8
20006e5a:	0485                	c.addi	s1,1
20006e5c:	fe8914e3          	bne	s2,s0,20006e44 <generateRandomNum+0x20>
20006e60:	40b2                	c.lwsp	ra,12(sp)
20006e62:	4422                	c.lwsp	s0,8(sp)
20006e64:	4492                	c.lwsp	s1,4(sp)
20006e66:	4902                	c.lwsp	s2,0(sp)
20006e68:	0141                	c.addi	sp,16
20006e6a:	8082                	c.jr	ra

20006e6c <pwm_kick_32k_pad.constprop.22>:
20006e6c:	1141                	c.addi	sp,-16
20006e6e:	c422                	c.swsp	s0,8(sp)
20006e70:	c606                	c.swsp	ra,12(sp)
20006e72:	80140437          	lui	s0,0x80140
20006e76:	57f9                	c.li	a5,-2
20006e78:	30f40f23          	sb	a5,798(s0) # 8014031e <_DATA_LMA_START+0x60131bea>
20006e7c:	4789                	c.li	a5,2
20006e7e:	32f40b23          	sb	a5,822(s0)
20006e82:	4785                	c.li	a5,1
20006e84:	34f40aa3          	sb	a5,853(s0)
20006e88:	4785                	c.li	a5,1
20006e8a:	40f41a23          	sh	a5,1044(s0)
20006e8e:	4709                	c.li	a4,2
20006e90:	40e41b23          	sh	a4,1046(s0)
20006e94:	fb600713          	li	a4,-74
20006e98:	40e40123          	sb	a4,1026(s0)
20006e9c:	00a00513          	li	a0,10
20006ea0:	40f400a3          	sb	a5,1025(s0)
20006ea4:	dfffc097          	auipc	ra,0xdfffc
20006ea8:	364080e7          	jalr	868(ra) # 3208 <delay_ms>
20006eac:	57fd                	c.li	a5,-1
20006eae:	30f40f23          	sb	a5,798(s0)
20006eb2:	57c1                	c.li	a5,-16
20006eb4:	32f40b23          	sb	a5,822(s0)
20006eb8:	34040aa3          	sb	zero,853(s0)
20006ebc:	40041c23          	sh	zero,1048(s0)
20006ec0:	40041d23          	sh	zero,1050(s0)
20006ec4:	40040023          	sb	zero,1024(s0)
20006ec8:	40040123          	sb	zero,1026(s0)
20006ecc:	40b2                	c.lwsp	ra,12(sp)
20006ece:	4422                	c.lwsp	s0,8(sp)
20006ed0:	0141                	c.addi	sp,16
20006ed2:	8082                	c.jr	ra

20006ed4 <blc_readFlashSize_autoConfigCustomFlashSector>:
20006ed4:	1101                	c.addi	sp,-32
20006ed6:	ce06                	c.swsp	ra,28(sp)
20006ed8:	c602                	c.swsp	zero,12(sp)
20006eda:	7d047073          	csrci	mmisc_ctl,8
20006ede:	478d                	c.li	a5,3
20006ee0:	0078                	c.addi4spn	a4,sp,12
20006ee2:	4681                	c.li	a3,0
20006ee4:	4601                	c.li	a2,0
20006ee6:	4581                	c.li	a1,0
20006ee8:	09f00513          	li	a0,159
20006eec:	dfffc097          	auipc	ra,0xdfffc
20006ef0:	3ec080e7          	jalr	1004(ra) # 32d8 <flash_mspi_read_ram>
20006ef4:	7d046073          	csrsi	mmisc_ctl,8
20006ef8:	00e14783          	lbu	a5,14(sp)
20006efc:	0337e05b          	bnec	a5,19,20006f1c <blc_readFlashSize_autoConfigCustomFlashSector+0x48>
20006f00:	000007b7          	lui	a5,0x0
20006f04:	17878793          	addi	a5,a5,376 # 178 <_AES_VMA_END>
20006f08:	0007f737          	lui	a4,0x7f
20006f0c:	48e7a823          	sw	a4,1168(a5)
20006f10:	0007e737          	lui	a4,0x7e
20006f14:	48e7aa23          	sw	a4,1172(a5)
20006f18:	0680006f          	j	20006f80 <blc_readFlashSize_autoConfigCustomFlashSector+0xac>
20006f1c:	0347e05b          	bnec	a5,20,20006f3c <blc_readFlashSize_autoConfigCustomFlashSector+0x68>
20006f20:	000007b7          	lui	a5,0x0
20006f24:	17878793          	addi	a5,a5,376 # 178 <_AES_VMA_END>
20006f28:	000ff737          	lui	a4,0xff
20006f2c:	48e7a823          	sw	a4,1168(a5)
20006f30:	000fe737          	lui	a4,0xfe
20006f34:	48e7aa23          	sw	a4,1172(a5)
20006f38:	0480006f          	j	20006f80 <blc_readFlashSize_autoConfigCustomFlashSector+0xac>
20006f3c:	0357e05b          	bnec	a5,21,20006f5c <blc_readFlashSize_autoConfigCustomFlashSector+0x88>
20006f40:	000007b7          	lui	a5,0x0
20006f44:	17878793          	addi	a5,a5,376 # 178 <_AES_VMA_END>
20006f48:	001ff737          	lui	a4,0x1ff
20006f4c:	48e7a823          	sw	a4,1168(a5)
20006f50:	001fe737          	lui	a4,0x1fe
20006f54:	48e7aa23          	sw	a4,1172(a5)
20006f58:	0280006f          	j	20006f80 <blc_readFlashSize_autoConfigCustomFlashSector+0xac>
20006f5c:	0367e05b          	bnec	a5,22,20006f7c <blc_readFlashSize_autoConfigCustomFlashSector+0xa8>
20006f60:	000007b7          	lui	a5,0x0
20006f64:	17878793          	addi	a5,a5,376 # 178 <_AES_VMA_END>
20006f68:	003ff737          	lui	a4,0x3ff
20006f6c:	48e7a823          	sw	a4,1168(a5)
20006f70:	003fe737          	lui	a4,0x3fe
20006f74:	48e7aa23          	sw	a4,1172(a5)
20006f78:	0080006f          	j	20006f80 <blc_readFlashSize_autoConfigCustomFlashSector+0xac>
20006f7c:	0000006f          	j	20006f7c <blc_readFlashSize_autoConfigCustomFlashSector+0xa8>
20006f80:	40f2                	c.lwsp	ra,28(sp)
20006f82:	6105                	c.addi16sp	sp,32
20006f84:	8082                	c.jr	ra
	...

20006f88 <analog_read_reg32.constprop.43>:
20006f88:	300026f3          	csrr	a3,mstatus
20006f8c:	8aa1                	c.andi	a3,8
20006f8e:	c299                	c.beqz	a3,20006f94 <analog_read_reg32.constprop.43+0xc>
20006f90:	300477f3          	csrrci	a5,mstatus,8
20006f94:	801407b7          	lui	a5,0x80140
20006f98:	00400713          	li	a4,4
20006f9c:	18e781a3          	sb	a4,387(a5) # 80140183 <_DATA_LMA_START+0x60131a4f>
20006fa0:	06000713          	li	a4,96
20006fa4:	18e78023          	sb	a4,384(a5)
20006fa8:	04000613          	li	a2,64
20006fac:	80140737          	lui	a4,0x80140
20006fb0:	18c78123          	sb	a2,386(a5)
20006fb4:	18270783          	lb	a5,386(a4) # 80140182 <_DATA_LMA_START+0x60131a4e>
20006fb8:	fe77fe5b          	bbs	a5,7,20006fb4 <analog_read_reg32.constprop.43+0x2c>
20006fbc:	18472503          	lw	a0,388(a4)
20006fc0:	00068463          	beqz	a3,20006fc8 <analog_read_reg32.constprop.43+0x40>
20006fc4:	3006a6f3          	csrrs	a3,mstatus,a3
20006fc8:	8082                	c.jr	ra
20006fca:	0001                	c.nop

20006fcc <bls_ll_pushTxFifo>:
20006fcc:	7179                	c.addi16sp	sp,-48
20006fce:	d606                	c.swsp	ra,44(sp)
20006fd0:	d422                	c.swsp	s0,40(sp)
20006fd2:	d226                	c.swsp	s1,36(sp)
20006fd4:	d04a                	c.swsp	s2,32(sp)
20006fd6:	ce4e                	c.swsp	s3,28(sp)
20006fd8:	cc52                	c.swsp	s4,24(sp)
20006fda:	ca56                	c.swsp	s5,20(sp)
20006fdc:	300026f3          	csrr	a3,mstatus
20006fe0:	8aa1                	c.andi	a3,8
20006fe2:	c2ad                	c.beqz	a3,20007044 <bls_ll_pushTxFifo+0x78>
20006fe4:	300477f3          	csrrci	a5,mstatus,8
20006fe8:	00000437          	lui	s0,0x0
20006fec:	80100637          	lui	a2,0x80100
20006ff0:	17840413          	addi	s0,s0,376 # 178 <_AES_VMA_END>
20006ff4:	50060783          	lb	a5,1280(a2) # 80100500 <_DATA_LMA_START+0x600f1dcc>
20006ff8:	2f240703          	lb	a4,754(s0)
20006ffc:	50160803          	lb	a6,1281(a2)
20007000:	2f340603          	lb	a2,755(s0)
20007004:	410787b3          	sub	a5,a5,a6
20007008:	8f11                	c.sub	a4,a2
2000700a:	8bfd                	c.andi	a5,31
2000700c:	8b7d                	c.andi	a4,31
2000700e:	973e                	c.add	a4,a5
20007010:	3006a6f3          	csrrs	a3,mstatus,a3
20007014:	2f044683          	lbu	a3,752(s0)
20007018:	0017b793          	seqz	a5,a5
2000701c:	40f687b3          	sub	a5,a3,a5
20007020:	40f5745b          	bbs	a0,15,20007028 <bls_ll_pushTxFifo+0x5c>
20007024:	ffe78793          	addi	a5,a5,-2
20007028:	00000513          	li	a0,0
2000702c:	04f74063          	blt	a4,a5,2000706c <bls_ll_pushTxFifo+0xa0>
20007030:	50b2                	c.lwsp	ra,44(sp)
20007032:	5422                	c.lwsp	s0,40(sp)
20007034:	5492                	c.lwsp	s1,36(sp)
20007036:	5902                	c.lwsp	s2,32(sp)
20007038:	49f2                	c.lwsp	s3,28(sp)
2000703a:	4a62                	c.lwsp	s4,24(sp)
2000703c:	4ad2                	c.lwsp	s5,20(sp)
2000703e:	6145                	c.addi16sp	sp,48
20007040:	00008067          	ret
20007044:	00000437          	lui	s0,0x0
20007048:	801006b7          	lui	a3,0x80100
2000704c:	17840413          	addi	s0,s0,376 # 178 <_AES_VMA_END>
20007050:	50068783          	lb	a5,1280(a3) # 80100500 <_DATA_LMA_START+0x600f1dcc>
20007054:	2f240703          	lb	a4,754(s0)
20007058:	50168603          	lb	a2,1281(a3)
2000705c:	2f340683          	lb	a3,755(s0)
20007060:	8f91                	c.sub	a5,a2
20007062:	8f15                	c.sub	a4,a3
20007064:	8bfd                	c.andi	a5,31
20007066:	8b7d                	c.andi	a4,31
20007068:	973e                	c.add	a4,a5
2000706a:	b76d                	c.j	20007014 <bls_ll_pushTxFifo+0x48>
2000706c:	2f140783          	lb	a5,753(s0)
20007070:	2f244903          	lbu	s2,754(s0)
20007074:	2ec45703          	lhu	a4,748(s0)
20007078:	2f842483          	lw	s1,760(s0)
2000707c:	00f977b3          	and	a5,s2,a5
20007080:	0015c603          	lbu	a2,1(a1)
20007084:	c4e794ff          	maddr32	s1,a5,a4
20007088:	00260613          	addi	a2,a2,2
2000708c:	00448513          	addi	a0,s1,4
20007090:	dfffa097          	auipc	ra,0xdfffa
20007094:	2d8080e7          	jalr	728(ra) # 1368 <smemcpy>
20007098:	0b644783          	lbu	a5,182(s0)
2000709c:	02079263          	bnez	a5,200070c0 <bls_ll_pushTxFifo+0xf4>
200070a0:	0054c783          	lbu	a5,5(s1)
200070a4:	0905                	c.addi	s2,1
200070a6:	00278713          	addi	a4,a5,2
200070aa:	0795                	c.addi	a5,5
200070ac:	5977275b          	bfoz	a4,a4,22,23
200070b0:	8789                	c.srai	a5,0x2
200070b2:	8fd9                	c.or	a5,a4
200070b4:	c09c                	c.sw	a5,0(s1)
200070b6:	2f240923          	sb	s2,754(s0)
200070ba:	4505                	c.li	a0,1
200070bc:	f75ff06f          	j	20007030 <bls_ll_pushTxFifo+0x64>
200070c0:	4705                	c.li	a4,1
200070c2:	22e42e23          	sw	a4,572(s0)
200070c6:	0054c983          	lbu	s3,5(s1)
200070ca:	00448603          	lb	a2,4(s1)
200070ce:	09042583          	lw	a1,144(s0)
200070d2:	17f9                	c.addi	a5,-2
200070d4:	00160837          	lui	a6,0x160
200070d8:	00498713          	addi	a4,s3,4
200070dc:	0017b793          	seqz	a5,a5
200070e0:	00e482a3          	sb	a4,5(s1)
200070e4:	8a0d                	c.andi	a2,3
200070e6:	00158513          	addi	a0,a1,1
200070ea:	079e                	c.slli	a5,0x7
200070ec:	0b480693          	addi	a3,a6,180 # 1600b4 <FLASH_SIZE+0x600b4>
200070f0:	00648a13          	addi	s4,s1,6
200070f4:	0a440713          	addi	a4,s0,164
200070f8:	800008b7          	lui	a7,0x80000
200070fc:	0c480813          	addi	a6,a6,196
20007100:	00c105a3          	sb	a2,11(sp)
20007104:	08a42823          	sw	a0,144(s0)
20007108:	0ab42423          	sw	a1,168(s0)
2000710c:	0af40623          	sb	a5,172(s0)
20007110:	00274783          	lbu	a5,2(a4)
20007114:	00174583          	lbu	a1,1(a4)
20007118:	00374503          	lbu	a0,3(a4)
2000711c:	00074603          	lbu	a2,0(a4)
20007120:	05c2                	c.slli	a1,0x10
20007122:	07a2                	c.slli	a5,0x8
20007124:	8fcd                	c.or	a5,a1
20007126:	8fc9                	c.or	a5,a0
20007128:	0662                	c.slli	a2,0x18
2000712a:	0116e5b3          	or	a1,a3,a7
2000712e:	8fd1                	c.or	a5,a2
20007130:	c19c                	c.sw	a5,0(a1)
20007132:	0691                	c.addi	a3,4
20007134:	1771                	c.addi	a4,-4
20007136:	fd069de3          	bne	a3,a6,20007110 <bls_ll_pushTxFifo+0x144>
2000713a:	3c09aadb          	bfoz	s5,s3,15,0
2000713e:	0074                	c.addi4spn	a3,sp,12
20007140:	00b10613          	addi	a2,sp,11
20007144:	85d6                	c.mv	a1,s5
20007146:	8552                	c.mv	a0,s4
20007148:	dfffa097          	auipc	ra,0xdfffa
2000714c:	238080e7          	jalr	568(ra) # 1380 <aes_ccmAuthTran.constprop.14>
20007150:	0070                	c.addi4spn	a2,sp,12
20007152:	85d6                	c.mv	a1,s5
20007154:	01400533          	add	a0,zero,s4
20007158:	dfffa097          	auipc	ra,0xdfffa
2000715c:	3e4080e7          	jalr	996(ra) # 153c <aes_ccmBaseTran.isra.0.constprop.13>
20007160:	013a0533          	add	a0,s4,s3
20007164:	4611                	c.li	a2,4
20007166:	006c                	c.addi4spn	a1,sp,12
20007168:	dfffa097          	auipc	ra,0xdfffa
2000716c:	200080e7          	jalr	512(ra) # 1368 <smemcpy>
20007170:	23842503          	lw	a0,568(s0)
20007174:	22042e23          	sw	zero,572(s0)
20007178:	f20504e3          	beqz	a0,200070a0 <bls_ll_pushTxFifo+0xd4>
2000717c:	dfffb097          	auipc	ra,0xdfffb
20007180:	a78080e7          	jalr	-1416(ra) # 1bf4 <blt_ll_channel_conn_update>
20007184:	22042c23          	sw	zero,568(s0)
20007188:	bf21                	c.j	200070a0 <bls_ll_pushTxFifo+0xd4>
	...

2000718c <bls_ll_pushEncPkt>:
2000718c:	7179                	c.addi16sp	sp,-48
2000718e:	478d                	c.li	a5,3
20007190:	d422                	c.swsp	s0,40(sp)
20007192:	d606                	c.swsp	ra,44(sp)
20007194:	d226                	c.swsp	s1,36(sp)
20007196:	00f10223          	sb	a5,4(sp)
2000719a:	842a                	c.mv	s0,a0
2000719c:	0445585b          	beqc	a0,4,200071ec <bls_ll_pushEncPkt+0x60>
200071a0:	02d5565b          	beqc	a0,13,200071cc <bls_ll_pushEncPkt+0x40>
200071a4:	03155c5b          	beqc	a0,17,200071dc <bls_ll_pushEncPkt+0x50>
200071a8:	00100793          	li	a5,1
200071ac:	00f102a3          	sb	a5,5(sp)
200071b0:	6521                	c.lui	a0,0x8
200071b2:	004c                	c.addi4spn	a1,sp,4
200071b4:	04050513          	addi	a0,a0,64 # 8040 <_RAMCODE_VMA_END+0x1d3e>
200071b8:	00810323          	sb	s0,6(sp)
200071bc:	e11ff0ef          	jal	ra,20006fcc <bls_ll_pushTxFifo>
200071c0:	50b2                	c.lwsp	ra,44(sp)
200071c2:	5422                	c.lwsp	s0,40(sp)
200071c4:	5492                	c.lwsp	s1,36(sp)
200071c6:	6145                	c.addi16sp	sp,48
200071c8:	00008067          	ret
200071cc:	4789                	c.li	a5,2
200071ce:	00f102a3          	sb	a5,5(sp)
200071d2:	4799                	c.li	a5,6
200071d4:	00f103a3          	sb	a5,7(sp)
200071d8:	fd9ff06f          	j	200071b0 <bls_ll_pushEncPkt+0x24>
200071dc:	00f102a3          	sb	a5,5(sp)
200071e0:	60300793          	li	a5,1539
200071e4:	00f113a3          	sh	a5,7(sp)
200071e8:	fc9ff06f          	j	200071b0 <bls_ll_pushEncPkt+0x24>
200071ec:	000004b7          	lui	s1,0x0
200071f0:	17848493          	addi	s1,s1,376 # 178 <_AES_VMA_END>
200071f4:	4cc48593          	addi	a1,s1,1228
200071f8:	00710513          	addi	a0,sp,7
200071fc:	47b5                	c.li	a5,13
200071fe:	4621                	c.li	a2,8
20007200:	00f102a3          	sb	a5,5(sp)
20007204:	dfffa097          	auipc	ra,0xdfffa
20007208:	164080e7          	jalr	356(ra) # 1368 <smemcpy>
2000720c:	00400613          	li	a2,4
20007210:	4d448593          	addi	a1,s1,1236
20007214:	00f10513          	addi	a0,sp,15
20007218:	dfffa097          	auipc	ra,0xdfffa
2000721c:	150080e7          	jalr	336(ra) # 1368 <smemcpy>
20007220:	bf41                	c.j	200071b0 <bls_ll_pushEncPkt+0x24>
20007222:	0001                	c.nop

20007224 <pwm_kick_32k_pad_times.constprop.21>:
20007224:	1141                	c.addi	sp,-16
20007226:	09500593          	li	a1,149
2000722a:	04e00513          	li	a0,78
2000722e:	c606                	c.swsp	ra,12(sp)
20007230:	c422                	c.swsp	s0,8(sp)
20007232:	c226                	c.swsp	s1,4(sp)
20007234:	01212023          	sw	s2,0(sp)
20007238:	dfffc097          	auipc	ra,0xdfffc
2000723c:	79c080e7          	jalr	1948(ra) # 39d4 <analog_write_reg8>
20007240:	4581                	c.li	a1,0
20007242:	4515                	c.li	a0,5
20007244:	dfffc097          	auipc	ra,0xdfffc
20007248:	790080e7          	jalr	1936(ra) # 39d4 <analog_write_reg8>
2000724c:	801407b7          	lui	a5,0x80140
20007250:	4705                	c.li	a4,1
20007252:	00000437          	lui	s0,0x0
20007256:	1ce78c23          	sb	a4,472(a5) # 801401d8 <_DATA_LMA_START+0x60131aa4>
2000725a:	4505                	c.li	a0,1
2000725c:	4749                	c.li	a4,18
2000725e:	44ad                	c.li	s1,11
20007260:	17840413          	addi	s0,s0,376 # 178 <_AES_VMA_END>
20007264:	1ee78423          	sb	a4,488(a5)
20007268:	dfffc097          	auipc	ra,0xdfffc
2000726c:	fa0080e7          	jalr	-96(ra) # 3208 <delay_ms>
20007270:	14fd                	c.addi	s1,-1
20007272:	c09d                	c.beqz	s1,20007298 <pwm_kick_32k_pad_times.constprop.21+0x74>
20007274:	bf9ff0ef          	jal	ra,20006e6c <pwm_kick_32k_pad.constprop.22>
20007278:	4d842783          	lw	a5,1240(s0)
2000727c:	9782                	c.jalr	a5
2000727e:	892a                	c.mv	s2,a0
20007280:	13100513          	li	a0,305
20007284:	dfffc097          	auipc	ra,0xdfffc
20007288:	fa8080e7          	jalr	-88(ra) # 322c <delay_us>
2000728c:	4d842783          	lw	a5,1240(s0)
20007290:	000780e7          	jalr	a5
20007294:	fca90ee3          	beq	s2,a0,20007270 <pwm_kick_32k_pad_times.constprop.21+0x4c>
20007298:	40b2                	c.lwsp	ra,12(sp)
2000729a:	4422                	c.lwsp	s0,8(sp)
2000729c:	4492                	c.lwsp	s1,4(sp)
2000729e:	4902                	c.lwsp	s2,0(sp)
200072a0:	0141                	c.addi	sp,16
200072a2:	8082                	c.jr	ra
200072a4:	0001                	c.nop
	...

200072a8 <cpu_wakeup_no_deepretn_back_init>:
200072a8:	1141                	c.addi	sp,-16
200072aa:	c422                	c.swsp	s0,8(sp)
200072ac:	00000437          	lui	s0,0x0
200072b0:	17840413          	addi	s0,s0,376 # 178 <_AES_VMA_END>
200072b4:	c606                	c.swsp	ra,12(sp)
200072b6:	c226                	c.swsp	s1,4(sp)
200072b8:	31544783          	lbu	a5,789(s0)
200072bc:	08078463          	beqz	a5,20007344 <cpu_wakeup_no_deepretn_back_init+0x9c>
200072c0:	03900513          	li	a0,57
200072c4:	dfffd097          	auipc	ra,0xdfffd
200072c8:	850080e7          	jalr	-1968(ra) # 3b14 <analog_read_reg8>
200072cc:	5615725b          	bbs	a0,1,20007430 <cpu_wakeup_no_deepretn_back_init+0x188>
200072d0:	03900513          	li	a0,57
200072d4:	dfffd097          	auipc	ra,0xdfffd
200072d8:	840080e7          	jalr	-1984(ra) # 3b14 <analog_read_reg8>
200072dc:	00256593          	ori	a1,a0,2
200072e0:	0ff5f593          	andi	a1,a1,255
200072e4:	03900513          	li	a0,57
200072e8:	dfffc097          	auipc	ra,0xdfffc
200072ec:	6ec080e7          	jalr	1772(ra) # 39d4 <analog_write_reg8>
200072f0:	f35ff0ef          	jal	ra,20007224 <pwm_kick_32k_pad_times.constprop.21>
200072f4:	80140737          	lui	a4,0x80140
200072f8:	06500793          	li	a5,101
200072fc:	1ef70a23          	sb	a5,500(a4) # 801401f4 <_DATA_LMA_START+0x60131ac0>
20007300:	1c872783          	lw	a5,456(a4)
20007304:	1e070a23          	sb	zero,500(a4)
20007308:	4c47a7db          	bfoz	a5,a5,19,4
2000730c:	3807a75b          	bfoz	a4,a5,14,0
20007310:	00070663          	beqz	a4,2000731c <cpu_wakeup_no_deepretn_back_init+0x74>
20007314:	4f445683          	lhu	a3,1268(s0)
20007318:	0e069e63          	bnez	a3,20007414 <cpu_wakeup_no_deepretn_back_init+0x16c>
2000731c:	80140737          	lui	a4,0x80140
20007320:	10471783          	lh	a5,260(a4) # 80140104 <_DATA_LMA_START+0x601319d0>
20007324:	06500793          	li	a5,101
20007328:	1ef70a23          	sb	a5,500(a4)
2000732c:	1c872783          	lw	a5,456(a4)
20007330:	1e070a23          	sb	zero,500(a4)
20007334:	8bbd                	c.andi	a5,15
20007336:	0037d55b          	beqc	a5,3,20007340 <cpu_wakeup_no_deepretn_back_init+0x98>
2000733a:	4725                	c.li	a4,9
2000733c:	10f77463          	bgeu	a4,a5,20007444 <cpu_wakeup_no_deepretn_back_init+0x19c>
20007340:	0000006f          	j	20007340 <cpu_wakeup_no_deepretn_back_init+0x98>
20007344:	04f00513          	li	a0,79
20007348:	dfffc097          	auipc	ra,0xdfffc
2000734c:	7cc080e7          	jalr	1996(ra) # 3b14 <analog_read_reg8>
20007350:	03f57593          	andi	a1,a0,63
20007354:	0405e593          	ori	a1,a1,64
20007358:	04f00513          	li	a0,79
2000735c:	dfffc097          	auipc	ra,0xdfffc
20007360:	678080e7          	jalr	1656(ra) # 39d4 <analog_write_reg8>
20007364:	0f600593          	li	a1,246
20007368:	0c600513          	li	a0,198
2000736c:	dfffc097          	auipc	ra,0xdfffc
20007370:	668080e7          	jalr	1640(ra) # 39d4 <analog_write_reg8>
20007374:	0f700593          	li	a1,247
20007378:	0c600513          	li	a0,198
2000737c:	dfffc097          	auipc	ra,0xdfffc
20007380:	658080e7          	jalr	1624(ra) # 39d4 <analog_write_reg8>
20007384:	0cf00513          	li	a0,207
20007388:	dfffc097          	auipc	ra,0xdfffc
2000738c:	78c080e7          	jalr	1932(ra) # 3b14 <analog_read_reg8>
20007390:	be657a5b          	bbc	a0,6,20007384 <cpu_wakeup_no_deepretn_back_init+0xdc>
20007394:	0c900513          	li	a0,201
20007398:	dfffc097          	auipc	ra,0xdfffc
2000739c:	77c080e7          	jalr	1916(ra) # 3b14 <analog_read_reg8>
200073a0:	00a005b3          	add	a1,zero,a0
200073a4:	05100513          	li	a0,81
200073a8:	dfffc097          	auipc	ra,0xdfffc
200073ac:	62c080e7          	jalr	1580(ra) # 39d4 <analog_write_reg8>
200073b0:	0ca00513          	li	a0,202
200073b4:	dfffc097          	auipc	ra,0xdfffc
200073b8:	760080e7          	jalr	1888(ra) # 3b14 <analog_read_reg8>
200073bc:	00a004b3          	add	s1,zero,a0
200073c0:	04f00513          	li	a0,79
200073c4:	dfffc097          	auipc	ra,0xdfffc
200073c8:	750080e7          	jalr	1872(ra) # 3b14 <analog_read_reg8>
200073cc:	fc057593          	andi	a1,a0,-64
200073d0:	0095e5b3          	or	a1,a1,s1
200073d4:	0ff5f593          	andi	a1,a1,255
200073d8:	04f00513          	li	a0,79
200073dc:	dfffc097          	auipc	ra,0xdfffc
200073e0:	5f8080e7          	jalr	1528(ra) # 39d4 <analog_write_reg8>
200073e4:	0f600593          	li	a1,246
200073e8:	0c600513          	li	a0,198
200073ec:	dfffc097          	auipc	ra,0xdfffc
200073f0:	5e8080e7          	jalr	1512(ra) # 39d4 <analog_write_reg8>
200073f4:	04f00513          	li	a0,79
200073f8:	dfffc097          	auipc	ra,0xdfffc
200073fc:	71c080e7          	jalr	1820(ra) # 3b14 <analog_read_reg8>
20007400:	03f57593          	andi	a1,a0,63
20007404:	04f00513          	li	a0,79
20007408:	dfffc097          	auipc	ra,0xdfffc
2000740c:	5cc080e7          	jalr	1484(ra) # 39d4 <analog_write_reg8>
20007410:	ee5ff06f          	j	200072f4 <cpu_wakeup_no_deepretn_back_init+0x4c>
20007414:	1ff7f793          	andi	a5,a5,511
20007418:	3e878793          	addi	a5,a5,1000
2000741c:	8325                	c.srli	a4,0x9
2000741e:	1731                	c.addi	a4,-20
20007420:	4ef41823          	sh	a5,1264(s0)
20007424:	4785                	c.li	a5,1
20007426:	4ee41923          	sh	a4,1266(s0)
2000742a:	30f40ba3          	sb	a5,791(s0)
2000742e:	b5fd                	c.j	2000731c <cpu_wakeup_no_deepretn_back_init+0x74>
20007430:	00001537          	lui	a0,0x1
20007434:	77050513          	addi	a0,a0,1904 # 1770 <aes_ll_ccm_decryption.constprop.12+0x80>
20007438:	dfffc097          	auipc	ra,0xdfffc
2000743c:	df4080e7          	jalr	-524(ra) # 322c <delay_us>
20007440:	eb5ff06f          	j	200072f4 <cpu_wakeup_no_deepretn_back_init+0x4c>
20007444:	40b2                	c.lwsp	ra,12(sp)
20007446:	4422                	c.lwsp	s0,8(sp)
20007448:	4492                	c.lwsp	s1,4(sp)
2000744a:	0141                	c.addi	sp,16
2000744c:	8082                	c.jr	ra
	...

20007450 <blt_send_adv>:
20007450:	7139                	c.addi16sp	sp,-64
20007452:	dc22                	c.swsp	s0,56(sp)
20007454:	00000437          	lui	s0,0x0
20007458:	17840413          	addi	s0,s0,376 # 178 <_AES_VMA_END>
2000745c:	de06                	c.swsp	ra,60(sp)
2000745e:	da26                	c.swsp	s1,52(sp)
20007460:	d84a                	c.swsp	s2,48(sp)
20007462:	d64e                	c.swsp	s3,44(sp)
20007464:	d452                	c.swsp	s4,40(sp)
20007466:	d256                	c.swsp	s5,36(sp)
20007468:	d05a                	c.swsp	s6,32(sp)
2000746a:	ce5e                	c.swsp	s7,28(sp)
2000746c:	cc62                	c.swsp	s8,24(sp)
2000746e:	ca66                	c.swsp	s9,20(sp)
20007470:	c86a                	c.swsp	s10,16(sp)
20007472:	c66e                	c.swsp	s11,12(sp)
20007474:	18240783          	lb	a5,386(s0)
20007478:	0ff7f793          	andi	a5,a5,255
2000747c:	0227e65b          	bnec	a5,2,200074a8 <blt_send_adv+0x58>
20007480:	801417b7          	lui	a5,0x80141
20007484:	02900713          	li	a4,41
20007488:	a0e78b23          	sb	a4,-1514(a5) # 80140a16 <_DATA_LMA_START+0x601322e2>
2000748c:	f8000713          	li	a4,-128
20007490:	82e78423          	sb	a4,-2008(a5)
20007494:	04500693          	li	a3,69
20007498:	a0d78123          	sb	a3,-1534(a5)
2000749c:	a0e78023          	sb	a4,-1536(a5)
200074a0:	fff00713          	li	a4,-1
200074a4:	a2e79023          	sh	a4,-1504(a5)
200074a8:	18240783          	lb	a5,386(s0)
200074ac:	0ff7f793          	andi	a5,a5,255
200074b0:	0227e65b          	bnec	a5,2,200074dc <blt_send_adv+0x8c>
200074b4:	801417b7          	lui	a5,0x80141
200074b8:	f8000713          	li	a4,-128
200074bc:	a0e78023          	sb	a4,-1536(a5) # 80140a00 <_DATA_LMA_START+0x601322cc>
200074c0:	02900693          	li	a3,41
200074c4:	a0d78b23          	sb	a3,-1514(a5)
200074c8:	82e78423          	sb	a4,-2008(a5)
200074cc:	04500713          	li	a4,69
200074d0:	a0e78123          	sb	a4,-1534(a5)
200074d4:	fff00713          	li	a4,-1
200074d8:	a2e79023          	sh	a4,-1504(a5)
200074dc:	4705                	c.li	a4,1
200074de:	37d44783          	lbu	a5,893(s0)
200074e2:	18e40123          	sb	a4,386(s0)
200074e6:	cf89                	c.beqz	a5,20007500 <blt_send_adv+0xb0>
200074e8:	801407b7          	lui	a5,0x80140
200074ec:	2007a703          	lw	a4,512(a5) # 80140200 <_DATA_LMA_START+0x60131acc>
200074f0:	39042683          	lw	a3,912(s0)
200074f4:	38c42783          	lw	a5,908(s0)
200074f8:	8f15                	c.sub	a4,a3
200074fa:	0792                	c.slli	a5,0x4
200074fc:	20e7ea63          	bltu	a5,a4,20007710 <blt_send_adv+0x2c0>
20007500:	5c842783          	lw	a5,1480(s0)
20007504:	40078663          	beqz	a5,20007910 <blt_send_adv+0x4c0>
20007508:	56c40513          	addi	a0,s0,1388
2000750c:	9782                	c.jalr	a5
2000750e:	17040783          	lb	a5,368(s0)
20007512:	0ff7f793          	andi	a5,a5,255
20007516:	e7bd                	c.bnez	a5,20007584 <blt_send_adv+0x134>
20007518:	00000a93          	li	s5,0
2000751c:	18140783          	lb	a5,385(s0)
20007520:	0ff7f793          	andi	a5,a5,255
20007524:	1a17d25b          	beqc	a5,1,200076c8 <blt_send_adv+0x278>
20007528:	18140783          	lb	a5,385(s0)
2000752c:	0ff7f793          	andi	a5,a5,255
20007530:	0287ea5b          	bnec	a5,8,20007564 <blt_send_adv+0x114>
20007534:	80140737          	lui	a4,0x80140
20007538:	e40026b7          	lui	a3,0xe4002
2000753c:	4785                	c.li	a5,1
2000753e:	20f704a3          	sb	a5,521(a4) # 80140209 <_DATA_LMA_START+0x60131ad5>
20007542:	429c                	c.lw	a5,0(a3)
20007544:	20042883          	lw	a7,512(s0)
20007548:	3a042803          	lw	a6,928(s0)
2000754c:	0027e793          	ori	a5,a5,2
20007550:	c29c                	c.sw	a5,0(a3)
20007552:	02200613          	li	a2,34
20007556:	006a8593          	addi	a1,s5,6 # ff0006 <FLASH_SIZE+0xef0006>
2000755a:	450d                	c.li	a0,3
2000755c:	21172223          	sw	a7,516(a4)
20007560:	000800e7          	jalr	a6
20007564:	50f2                	c.lwsp	ra,60(sp)
20007566:	5462                	c.lwsp	s0,56(sp)
20007568:	54d2                	c.lwsp	s1,52(sp)
2000756a:	5942                	c.lwsp	s2,48(sp)
2000756c:	59b2                	c.lwsp	s3,44(sp)
2000756e:	5a22                	c.lwsp	s4,40(sp)
20007570:	5a92                	c.lwsp	s5,36(sp)
20007572:	5b02                	c.lwsp	s6,32(sp)
20007574:	4bf2                	c.lwsp	s7,28(sp)
20007576:	4c62                	c.lwsp	s8,24(sp)
20007578:	4cd2                	c.lwsp	s9,20(sp)
2000757a:	4d42                	c.lwsp	s10,16(sp)
2000757c:	4db2                	c.lwsp	s11,12(sp)
2000757e:	4501                	c.li	a0,0
20007580:	6121                	c.addi16sp	sp,64
20007582:	8082                	c.jr	ra
20007584:	f8050ae3          	beqz	a0,20007518 <blt_send_adv+0xc8>
20007588:	44042783          	lw	a5,1088(s0)
2000758c:	cb81                	c.beqz	a5,2000759c <blt_send_adv+0x14c>
2000758e:	01044703          	lbu	a4,16(s0)
20007592:	0017555b          	beqc	a4,1,2000759c <blt_send_adv+0x14c>
20007596:	4589                	c.li	a1,2
20007598:	4505                	c.li	a0,1
2000759a:	9782                	c.jalr	a5
2000759c:	57040783          	lb	a5,1392(s0)
200075a0:	18940703          	lb	a4,393(s0)
200075a4:	fdf7f793          	andi	a5,a5,-33
200075a8:	0057275b          	bfoz	a4,a4,0,5
200075ac:	8fd9                	c.or	a5,a4
200075ae:	458d                	c.li	a1,3
200075b0:	00000513          	li	a0,0
200075b4:	56f40823          	sb	a5,1392(s0)
200075b8:	52c40b13          	addi	s6,s0,1324
200075bc:	dfffb097          	auipc	ra,0xdfffb
200075c0:	4e0080e7          	jalr	1248(ra) # 2a9c <ble_rf_set_tx_dma>
200075c4:	801007b7          	lui	a5,0x80100
200075c8:	f8000493          	li	s1,-128
200075cc:	4591                	c.li	a1,4
200075ce:	855a                	c.mv	a0,s6
200075d0:	509780a3          	sb	s1,1281(a5) # 80100501 <_DATA_LMA_START+0x600f1dcd>
200075d4:	dfffb097          	auipc	ra,0xdfffb
200075d8:	510080e7          	jalr	1296(ra) # 2ae4 <ble_rf_set_rx_dma>
200075dc:	801417b7          	lui	a5,0x80141
200075e0:	02900713          	li	a4,41
200075e4:	a0e78b23          	sb	a4,-1514(a5) # 80140a16 <_DATA_LMA_START+0x601322e2>
200075e8:	82978423          	sb	s1,-2008(a5)
200075ec:	04500713          	li	a4,69
200075f0:	a0e78123          	sb	a4,-1534(a5)
200075f4:	19842783          	lw	a5,408(s0)
200075f8:	12078c63          	beqz	a5,20007730 <blt_send_adv+0x2e0>
200075fc:	19842703          	lw	a4,408(s0)
20007600:	801416b7          	lui	a3,0x80141
20007604:	57144783          	lbu	a5,1393(s0)
20007608:	80e6a423          	sw	a4,-2040(a3) # 80140808 <_DATA_LMA_START+0x601320d4>
2000760c:	00555737          	lui	a4,0x555
20007610:	55570713          	addi	a4,a4,1365 # 555555 <FLASH_SIZE+0x455555>
20007614:	82e6a223          	sw	a4,-2012(a3)
20007618:	03c78993          	addi	s3,a5,60
2000761c:	00278713          	addi	a4,a5,2
20007620:	05400613          	li	a2,84
20007624:	0795                	c.addi	a5,5
20007626:	a0c69223          	sh	a2,-1532(a3)
2000762a:	5977275b          	bfoz	a4,a4,22,23
2000762e:	8789                	c.srai	a5,0x2
20007630:	7a7d                	c.lui	s4,0xfffff
20007632:	00799913          	slli	s2,s3,0x7
20007636:	a0069e23          	sh	zero,-1508(a3)
2000763a:	8fd9                	c.or	a5,a4
2000763c:	380a0a13          	addi	s4,s4,896 # fffff380 <_DATA_LMA_START+0xdfff0c4c>
20007640:	6b85                	c.lui	s7,0x1
20007642:	56f42623          	sw	a5,1388(s0)
20007646:	ba090993          	addi	s3,s2,-1120
2000764a:	4785                	c.li	a5,1
2000764c:	9a4a                	c.add	s4,s2
2000764e:	4d01                	c.li	s10,0
20007650:	00000a93          	li	s5,0
20007654:	801414b7          	lui	s1,0x80141
20007658:	80140cb7          	lui	s9,0x80140
2000765c:	56c40c13          	addi	s8,s0,1388
20007660:	b40b8b93          	addi	s7,s7,-1216 # b40 <app_acl_txfifo+0x1bc>
20007664:	16f40923          	sb	a5,370(s0)
20007668:	37c44783          	lbu	a5,892(s0)
2000766c:	41a7d7b3          	sra	a5,a5,s10
20007670:	4c07f65b          	bbs	a5,0,2000773c <blt_send_adv+0x2ec>
20007674:	001d0d13          	addi	s10,s10,1
20007678:	be3d685b          	bnec	s10,3,20007668 <blt_send_adv+0x218>
2000767c:	801417b7          	lui	a5,0x80141
20007680:	f8000713          	li	a4,-128
20007684:	a0e78023          	sb	a4,-1536(a5) # 80140a00 <_DATA_LMA_START+0x601322cc>
20007688:	577d                	c.li	a4,-1
2000768a:	a2e79023          	sh	a4,-1504(a5)
2000768e:	38344483          	lbu	s1,899(s0)
20007692:	16040923          	sb	zero,370(s0)
20007696:	4785                	c.li	a5,1
20007698:	e897f2e3          	bgeu	a5,s1,2000751c <blt_send_adv+0xcc>
2000769c:	dfffb097          	auipc	ra,0xdfffb
200076a0:	fb8080e7          	jalr	-72(ra) # 2654 <trng_rand>
200076a4:	02957533          	remu	a0,a0,s1
200076a8:	38445483          	lhu	s1,900(s0)
200076ac:	6789                	c.lui	a5,0x2
200076ae:	71078793          	addi	a5,a5,1808 # 2710 <pm_tim_recover_32k_rc+0x30>
200076b2:	9526                	c.add	a0,s1
200076b4:	02f50533          	mul	a0,a0,a5
200076b8:	18140783          	lb	a5,385(s0)
200076bc:	0ff7f793          	andi	a5,a5,255
200076c0:	38a42423          	sw	a0,904(s0)
200076c4:	a617e25b          	bnec	a5,1,20007528 <blt_send_adv+0xd8>
200076c8:	801407b7          	lui	a5,0x80140
200076cc:	2007a703          	lw	a4,512(a5) # 80140200 <_DATA_LMA_START+0x60131acc>
200076d0:	37842683          	lw	a3,888(s0)
200076d4:	40e687b3          	sub	a5,a3,a4
200076d8:	1cf05263          	blez	a5,2000789c <blt_send_adv+0x44c>
200076dc:	00014637          	lui	a2,0x14
200076e0:	88060613          	addi	a2,a2,-1920 # 13880 <BIN_SIZE+0x5090>
200076e4:	00c7a7b3          	slt	a5,a5,a2
200076e8:	38842603          	lw	a2,904(s0)
200076ec:	00079e63          	bnez	a5,20007708 <blt_send_adv+0x2b8>
200076f0:	00e606b3          	add	a3,a2,a4
200076f4:	36d42c23          	sw	a3,888(s0)
200076f8:	800007b7          	lui	a5,0x80000
200076fc:	973e                	c.add	a4,a5
200076fe:	801407b7          	lui	a5,0x80140
20007702:	20e7a223          	sw	a4,516(a5) # 80140204 <_DATA_LMA_START+0x60131ad0>
20007706:	bdb9                	c.j	20007564 <blt_send_adv+0x114>
20007708:	96b2                	c.add	a3,a2
2000770a:	36d42c23          	sw	a3,888(s0)
2000770e:	b7ed                	c.j	200076f8 <blt_send_adv+0x2a8>
20007710:	00000513          	li	a0,0
20007714:	36040ea3          	sb	zero,893(s0)
20007718:	dfffb097          	auipc	ra,0xdfffb
2000771c:	e08080e7          	jalr	-504(ra) # 2520 <bls_ll_setAdvEnable>
20007720:	3a042783          	lw	a5,928(s0)
20007724:	4601                	c.li	a2,0
20007726:	4581                	c.li	a1,0
20007728:	4505                	c.li	a0,1
2000772a:	9782                	c.jalr	a5
2000772c:	dd5ff06f          	j	20007500 <blt_send_adv+0xb0>
20007730:	d6be9737          	lui	a4,0xd6be9
20007734:	98e70713          	addi	a4,a4,-1650 # d6be898e <_DATA_LMA_START+0xb6bda25a>
20007738:	ec9ff06f          	j	20007600 <blt_send_adv+0x1b0>
2000773c:	01a407b3          	add	a5,s0,s10
20007740:	f8000713          	li	a4,-128
20007744:	a0e48023          	sb	a4,-1536(s1) # 80140a00 <_DATA_LMA_START+0x601322cc>
20007748:	45c78503          	lb	a0,1116(a5)
2000774c:	dfffb097          	auipc	ra,0xdfffb
20007750:	080080e7          	jalr	128(ra) # 27cc <rf_set_ble_channel>
20007754:	34c42783          	lw	a5,844(s0)
20007758:	470d                	c.li	a4,3
2000775a:	a2e49023          	sh	a4,-1504(s1)
2000775e:	c399                	c.beqz	a5,20007764 <blt_send_adv+0x314>
20007760:	4505                	c.li	a0,1
20007762:	9782                	c.jalr	a5
20007764:	37e44783          	lbu	a5,894(s0)
20007768:	1437d25b          	beqc	a5,3,200078ac <blt_send_adv+0x45c>
2000776c:	47044783          	lbu	a5,1136(s0)
20007770:	02200713          	li	a4,34
20007774:	82e488a3          	sb	a4,-1999(s1)
20007778:	4a81                	c.li	s5,0
2000777a:	cb89                	c.beqz	a5,2000778c <blt_send_adv+0x33c>
2000777c:	30002af3          	csrr	s5,mstatus
20007780:	008afa93          	andi	s5,s5,8
20007784:	000a8463          	beqz	s5,2000778c <blt_send_adv+0x33c>
20007788:	300477f3          	csrrci	a5,mstatus,8
2000778c:	200ca603          	lw	a2,512(s9) # 80140200 <_DATA_LMA_START+0x60131acc>
20007790:	018005b3          	add	a1,zero,s8
20007794:	06460613          	addi	a2,a2,100
20007798:	08700513          	li	a0,135
2000779c:	dfffb097          	auipc	ra,0xdfffb
200077a0:	218080e7          	jalr	536(ra) # 29b4 <rf_start_fsm>
200077a4:	5c344783          	lbu	a5,1475(s0)
200077a8:	200cad83          	lw	s11,512(s9)
200077ac:	52042823          	sw	zero,1328(s0)
200077b0:	c3d5                	c.beqz	a5,20007854 <blt_send_adv+0x404>
200077b2:	4601                	c.li	a2,0
200077b4:	4589                	c.li	a1,2
200077b6:	453d                	c.li	a0,15
200077b8:	dfffc097          	auipc	ra,0xdfffc
200077bc:	188080e7          	jalr	392(ra) # 3940 <cpu_stall_WakeUp_By_RF_SystemTick>
200077c0:	34c42783          	lw	a5,844(s0)
200077c4:	4709                	c.li	a4,2
200077c6:	a2e49023          	sh	a4,-1504(s1)
200077ca:	c399                	c.beqz	a5,200077d0 <blt_send_adv+0x380>
200077cc:	4509                	c.li	a0,2
200077ce:	9782                	c.jalr	a5
200077d0:	5c344783          	lbu	a5,1475(s0)
200077d4:	0a079863          	bnez	a5,20007884 <blt_send_adv+0x434>
200077d8:	5cc44783          	lbu	a5,1484(s0)
200077dc:	4705                	c.li	a4,1
200077de:	e7bd                	c.bnez	a5,2000784c <blt_send_adv+0x3fc>
200077e0:	0100006f          	j	200077f0 <blt_send_adv+0x3a0>
200077e4:	200ca783          	lw	a5,512(s9)
200077e8:	41b787b3          	sub	a5,a5,s11
200077ec:	0127f663          	bgeu	a5,s2,200077f8 <blt_send_adv+0x3a8>
200077f0:	53042783          	lw	a5,1328(s0)
200077f4:	fe0788e3          	beqz	a5,200077e4 <blt_send_adv+0x394>
200077f8:	53042783          	lw	a5,1328(s0)
200077fc:	06079c63          	bnez	a5,20007874 <blt_send_adv+0x424>
20007800:	47044783          	lbu	a5,1136(s0)
20007804:	00078663          	beqz	a5,20007810 <blt_send_adv+0x3c0>
20007808:	000a8463          	beqz	s5,20007810 <blt_send_adv+0x3c0>
2000780c:	300aaaf3          	csrrs	s5,mstatus,s5
20007810:	17240783          	lb	a5,370(s0)
20007814:	34c42703          	lw	a4,844(s0)
20007818:	0ff7f793          	andi	a5,a5,255
2000781c:	0427d65b          	beqc	a5,2,20007868 <blt_send_adv+0x418>
20007820:	01600ab3          	add	s5,zero,s6
20007824:	0d05                	c.addi	s10,1
20007826:	e40709e3          	beqz	a4,20007678 <blt_send_adv+0x228>
2000782a:	4501                	c.li	a0,0
2000782c:	9702                	c.jalr	a4
2000782e:	a23d6d5b          	bnec	s10,3,20007668 <blt_send_adv+0x218>
20007832:	b5a9                	c.j	2000767c <blt_send_adv+0x22c>
20007834:	200ca783          	lw	a5,512(s9)
20007838:	41b787b3          	sub	a5,a5,s11
2000783c:	fb27fee3          	bgeu	a5,s2,200077f8 <blt_send_adv+0x3a8>
20007840:	200ca783          	lw	a5,512(s9)
20007844:	41b787b3          	sub	a5,a5,s11
20007848:	0af9ee63          	bltu	s3,a5,20007904 <blt_send_adv+0x4b4>
2000784c:	53042783          	lw	a5,1328(s0)
20007850:	d3f5                	c.beqz	a5,20007834 <blt_send_adv+0x3e4>
20007852:	b75d                	c.j	200077f8 <blt_send_adv+0x3a8>
20007854:	a2049783          	lh	a5,-1504(s1)
20007858:	f617f45b          	bbs	a5,1,200077c0 <blt_send_adv+0x370>
2000785c:	a2049783          	lh	a5,-1504(s1)
20007860:	be17fa5b          	bbc	a5,1,20007854 <blt_send_adv+0x404>
20007864:	f5dff06f          	j	200077c0 <blt_send_adv+0x370>
20007868:	cf45                	c.beqz	a4,20007920 <blt_send_adv+0x4d0>
2000786a:	4501                	c.li	a0,0
2000786c:	9702                	c.jalr	a4
2000786e:	8ada                	c.mv	s5,s6
20007870:	e0dff06f          	j	2000767c <blt_send_adv+0x22c>
20007874:	01b00533          	add	a0,zero,s11
20007878:	dfffd097          	auipc	ra,0xdfffd
2000787c:	268080e7          	jalr	616(ra) # 4ae0 <bls_ll_procRxPacket.constprop.18>
20007880:	f81ff06f          	j	20007800 <blt_send_adv+0x3b0>
20007884:	200ca603          	lw	a2,512(s9)
20007888:	4581                	c.li	a1,0
2000788a:	965e                	c.add	a2,s7
2000788c:	00100513          	li	a0,1
20007890:	dfffc097          	auipc	ra,0xdfffc
20007894:	0b0080e7          	jalr	176(ra) # 3940 <cpu_stall_WakeUp_By_RF_SystemTick>
20007898:	f41ff06f          	j	200077d8 <blt_send_adv+0x388>
2000789c:	7631                	c.lui	a2,0xfffec
2000789e:	78160613          	addi	a2,a2,1921 # fffec781 <_DATA_LMA_START+0xdffde04d>
200078a2:	00c7a7b3          	slt	a5,a5,a2
200078a6:	0017c793          	xori	a5,a5,1
200078aa:	bd3d                	c.j	200076e8 <blt_send_adv+0x298>
200078ac:	200ca603          	lw	a2,512(s9)
200078b0:	018005b3          	add	a1,zero,s8
200078b4:	06460613          	addi	a2,a2,100
200078b8:	08500513          	li	a0,133
200078bc:	dfffb097          	auipc	ra,0xdfffb
200078c0:	0f8080e7          	jalr	248(ra) # 29b4 <rf_start_fsm>
200078c4:	200ca703          	lw	a4,512(s9)
200078c8:	5c344783          	lbu	a5,1475(s0)
200078cc:	c785                	c.beqz	a5,200078f4 <blt_send_adv+0x4a4>
200078ce:	200ca603          	lw	a2,512(s9)
200078d2:	4589                	c.li	a1,2
200078d4:	9652                	c.add	a2,s4
200078d6:	453d                	c.li	a0,15
200078d8:	dfffc097          	auipc	ra,0xdfffc
200078dc:	068080e7          	jalr	104(ra) # 3940 <cpu_stall_WakeUp_By_RF_SystemTick>
200078e0:	34c42703          	lw	a4,844(s0)
200078e4:	f41ff06f          	j	20007824 <blt_send_adv+0x3d4>
200078e8:	200ca783          	lw	a5,512(s9)
200078ec:	40e787b3          	sub	a5,a5,a4
200078f0:	0147f663          	bgeu	a5,s4,200078fc <blt_send_adv+0x4ac>
200078f4:	a2049783          	lh	a5,-1504(s1)
200078f8:	be17f85b          	bbc	a5,1,200078e8 <blt_send_adv+0x498>
200078fc:	34c42703          	lw	a4,844(s0)
20007900:	f25ff06f          	j	20007824 <blt_send_adv+0x3d4>
20007904:	84048783          	lb	a5,-1984(s1)
20007908:	8b9d                	c.andi	a5,7
2000790a:	f4f761e3          	bltu	a4,a5,2000784c <blt_send_adv+0x3fc>
2000790e:	b5ed                	c.j	200077f8 <blt_send_adv+0x3a8>
20007910:	17040783          	lb	a5,368(s0)
20007914:	0ff7f793          	andi	a5,a5,255
20007918:	c60798e3          	bnez	a5,20007588 <blt_send_adv+0x138>
2000791c:	bfdff06f          	j	20007518 <blt_send_adv+0xc8>
20007920:	8ada                	c.mv	s5,s6
20007922:	bba9                	c.j	2000767c <blt_send_adv+0x22c>

20007924 <smp_write_flash_page>:
20007924:	711d                	c.addi16sp	sp,-96
20007926:	c8ca                	c.swsp	s2,80(sp)
20007928:	00000937          	lui	s2,0x0
2000792c:	cca2                	c.swsp	s0,88(sp)
2000792e:	caa6                	c.swsp	s1,84(sp)
20007930:	c6ce                	c.swsp	s3,76(sp)
20007932:	c4d2                	c.swsp	s4,72(sp)
20007934:	842e                	c.mv	s0,a1
20007936:	8a2a                	c.mv	s4,a0
20007938:	89b2                	c.mv	s3,a2
2000793a:	448d                	c.li	s1,3
2000793c:	17890913          	addi	s2,s2,376 # 178 <_AES_VMA_END>
20007940:	04112e23          	sw	ra,92(sp)
20007944:	5d092783          	lw	a5,1488(s2)
20007948:	864e                	c.mv	a2,s3
2000794a:	85a2                	c.mv	a1,s0
2000794c:	8552                	c.mv	a0,s4
2000794e:	9782                	c.jalr	a5
20007950:	5d492783          	lw	a5,1492(s2)
20007954:	860a                	c.mv	a2,sp
20007956:	85a2                	c.mv	a1,s0
20007958:	8552                	c.mv	a0,s4
2000795a:	9782                	c.jalr	a5
2000795c:	8622                	c.mv	a2,s0
2000795e:	858a                	c.mv	a1,sp
20007960:	854e                	c.mv	a0,s3
20007962:	14fd                	c.addi	s1,-1
20007964:	424030ef          	jal	ra,2000ad88 <memcmp>
20007968:	cd01                	c.beqz	a0,20007980 <smp_write_flash_page+0x5c>
2000796a:	fce9                	c.bnez	s1,20007944 <smp_write_flash_page+0x20>
2000796c:	40f6                	c.lwsp	ra,92(sp)
2000796e:	4466                	c.lwsp	s0,88(sp)
20007970:	44d6                	c.lwsp	s1,84(sp)
20007972:	4946                	c.lwsp	s2,80(sp)
20007974:	49b6                	c.lwsp	s3,76(sp)
20007976:	4a26                	c.lwsp	s4,72(sp)
20007978:	4505                	c.li	a0,1
2000797a:	6125                	c.addi16sp	sp,96
2000797c:	00008067          	ret
20007980:	40f6                	c.lwsp	ra,92(sp)
20007982:	4466                	c.lwsp	s0,88(sp)
20007984:	44d6                	c.lwsp	s1,84(sp)
20007986:	4946                	c.lwsp	s2,80(sp)
20007988:	49b6                	c.lwsp	s3,76(sp)
2000798a:	4a26                	c.lwsp	s4,72(sp)
2000798c:	4501                	c.li	a0,0
2000798e:	6125                	c.addi16sp	sp,96
20007990:	8082                	c.jr	ra
	...

20007994 <bls_smp_pairing_success.part.3>:
20007994:	7159                	c.addi16sp	sp,-112
20007996:	d4a2                	c.swsp	s0,104(sp)
20007998:	00000437          	lui	s0,0x0
2000799c:	17840413          	addi	s0,s0,376 # 178 <_AES_VMA_END>
200079a0:	d686                	c.swsp	ra,108(sp)
200079a2:	d2a6                	c.swsp	s1,100(sp)
200079a4:	d0ca                	c.swsp	s2,96(sp)
200079a6:	4705                	c.li	a4,1
200079a8:	1a442783          	lw	a5,420(s0)
200079ac:	16e405a3          	sb	a4,363(s0)
200079b0:	01b7f45b          	bbc	a5,27,200079b8 <bls_smp_pairing_success.part.3+0x24>
200079b4:	1a042223          	sw	zero,420(s0)
200079b8:	16844783          	lbu	a5,360(s0)
200079bc:	4481                	c.li	s1,0
200079be:	ebbd                	c.bnez	a5,20007a34 <bls_smp_pairing_success.part.3+0xa0>
200079c0:	1a842783          	lw	a5,424(s0)
200079c4:	160404a3          	sb	zero,361(s0)
200079c8:	180402a3          	sb	zero,389(s0)
200079cc:	16040523          	sb	zero,362(s0)
200079d0:	18040e23          	sb	zero,412(s0)
200079d4:	1a040023          	sb	zero,416(s0)
200079d8:	1a042223          	sw	zero,420(s0)
200079dc:	4217f65b          	bbs	a5,1,20007a08 <bls_smp_pairing_success.part.3+0x74>
200079e0:	0047fe5b          	bbc	a5,4,200079fc <bls_smp_pairing_success.part.3+0x68>
200079e4:	04000793          	li	a5,64
200079e8:	460d                	c.li	a2,3
200079ea:	100c                	c.addi4spn	a1,sp,32
200079ec:	00400513          	li	a0,4
200079f0:	02f11023          	sh	a5,32(sp)
200079f4:	02010123          	sb	zero,34(sp)
200079f8:	afdfe0ef          	jal	ra,200064f4 <blc_gap_send_event>
200079fc:	50b6                	c.lwsp	ra,108(sp)
200079fe:	5426                	c.lwsp	s0,104(sp)
20007a00:	5496                	c.lwsp	s1,100(sp)
20007a02:	5906                	c.lwsp	s2,96(sp)
20007a04:	6165                	c.addi16sp	sp,112
20007a06:	8082                	c.jr	ra
20007a08:	16840783          	lb	a5,360(s0)
20007a0c:	04000713          	li	a4,64
20007a10:	009034b3          	snez	s1,s1
20007a14:	4611                	c.li	a2,4
20007a16:	100c                	c.addi4spn	a1,sp,32
20007a18:	00100513          	li	a0,1
20007a1c:	02f10123          	sb	a5,34(sp)
20007a20:	02e11023          	sh	a4,32(sp)
20007a24:	029101a3          	sb	s1,35(sp)
20007a28:	acdfe0ef          	jal	ra,200064f4 <blc_gap_send_event>
20007a2c:	1a842783          	lw	a5,424(s0)
20007a30:	fb1ff06f          	j	200079e0 <bls_smp_pairing_success.part.3+0x4c>
20007a34:	10940783          	lb	a5,265(s0)
20007a38:	00600613          	li	a2,6
20007a3c:	10a40593          	addi	a1,s0,266
20007a40:	02210513          	addi	a0,sp,34
20007a44:	02f100a3          	sb	a5,33(sp)
20007a48:	390030ef          	jal	ra,2000add8 <memcpy>
20007a4c:	5d844783          	lbu	a5,1496(s0)
20007a50:	02010423          	sb	zero,40(sp)
20007a54:	c791                	c.beqz	a5,20007a60 <bls_smp_pairing_success.part.3+0xcc>
20007a56:	0f640783          	lb	a5,246(s0)
20007a5a:	8b8d                	c.andi	a5,3
20007a5c:	02f10423          	sb	a5,40(sp)
20007a60:	11140783          	lb	a5,273(s0)
20007a64:	00600613          	li	a2,6
20007a68:	11240593          	addi	a1,s0,274
20007a6c:	02a10513          	addi	a0,sp,42
20007a70:	02f104a3          	sb	a5,41(sp)
20007a74:	364030ef          	jal	ra,2000add8 <memcpy>
20007a78:	4641                	c.li	a2,16
20007a7a:	0f840593          	addi	a1,s0,248
20007a7e:	0888                	c.addi4spn	a0,sp,80
20007a80:	358030ef          	jal	ra,2000add8 <memcpy>
20007a84:	4641                	c.li	a2,16
20007a86:	14840593          	addi	a1,s0,328
20007a8a:	0088                	c.addi4spn	a0,sp,64
20007a8c:	34c030ef          	jal	ra,2000add8 <memcpy>
20007a90:	4641                	c.li	a2,16
20007a92:	0d040593          	addi	a1,s0,208
20007a96:	1808                	c.addi4spn	a0,sp,48
20007a98:	340030ef          	jal	ra,2000add8 <memcpy>
20007a9c:	16544783          	lbu	a5,357(s0)
20007aa0:	0c079863          	bnez	a5,20007b70 <bls_smp_pairing_success.part.3+0x1dc>
20007aa4:	09a00713          	li	a4,154
20007aa8:	00100693          	li	a3,1
20007aac:	02e10023          	sb	a4,32(sp)
20007ab0:	5fc42783          	lw	a5,1532(s0)
20007ab4:	6705                	c.lui	a4,0x1
20007ab6:	02d40023          	sb	a3,32(s0)
20007aba:	173d                	c.addi	a4,-17
20007abc:	00000493          	li	s1,0
20007ac0:	f0f740e3          	blt	a4,a5,200079c0 <bls_smp_pairing_success.part.3+0x2c>
20007ac4:	02344703          	lbu	a4,35(s0)
20007ac8:	15944683          	lbu	a3,345(s0)
20007acc:	12d77663          	bgeu	a4,a3,20007bf8 <bls_smp_pairing_success.part.3+0x264>
20007ad0:	60042903          	lw	s2,1536(s0)
20007ad4:	04078793          	addi	a5,a5,64
20007ad8:	993e                	c.add	s2,a5
20007ada:	00e10613          	addi	a2,sp,14
20007ade:	4585                	c.li	a1,1
20007ae0:	5ef42e23          	sw	a5,1532(s0)
20007ae4:	854a                	c.mv	a0,s2
20007ae6:	fbf00793          	li	a5,-65
20007aea:	00f10723          	sb	a5,14(sp)
20007aee:	3d1d                	c.jal	20007924 <smp_write_flash_page>
20007af0:	02110613          	addi	a2,sp,33
20007af4:	84aa                	c.mv	s1,a0
20007af6:	45a1                	c.li	a1,8
20007af8:	00190513          	addi	a0,s2,1
20007afc:	e29ff0ef          	jal	ra,20007924 <smp_write_flash_page>
20007b00:	02914703          	lbu	a4,41(sp)
20007b04:	0ff00793          	li	a5,255
20007b08:	94aa                	c.add	s1,a0
20007b0a:	00f70b63          	beq	a4,a5,20007b20 <bls_smp_pairing_success.part.3+0x18c>
20007b0e:	02910613          	addi	a2,sp,41
20007b12:	459d                	c.li	a1,7
20007b14:	00990513          	addi	a0,s2,9
20007b18:	e0dff0ef          	jal	ra,20007924 <smp_write_flash_page>
20007b1c:	00a484b3          	add	s1,s1,a0
20007b20:	1810                	c.addi4spn	a2,sp,48
20007b22:	45c1                	c.li	a1,16
20007b24:	01090513          	addi	a0,s2,16
20007b28:	dfdff0ef          	jal	ra,20007924 <smp_write_flash_page>
20007b2c:	2000e7b7          	lui	a5,0x2000e
20007b30:	e8078793          	addi	a5,a5,-384 # 2000de80 <__riscv_restore_0+0x196>
20007b34:	0007a803          	lw	a6,0(a5)
20007b38:	43d4                	c.lw	a3,4(a5)
20007b3a:	4798                	c.lw	a4,8(a5)
20007b3c:	47dc                	c.lw	a5,12(a5)
20007b3e:	94aa                	c.add	s1,a0
20007b40:	4641                	c.li	a2,16
20007b42:	080c                	c.addi4spn	a1,sp,16
20007b44:	0088                	c.addi4spn	a0,sp,64
20007b46:	c842                	c.swsp	a6,16(sp)
20007b48:	ca36                	c.swsp	a3,20(sp)
20007b4a:	cc3a                	c.swsp	a4,24(sp)
20007b4c:	00f12e23          	sw	a5,28(sp)
20007b50:	238030ef          	jal	ra,2000ad88 <memcmp>
20007b54:	10051863          	bnez	a0,20007c64 <bls_smp_pairing_success.part.3+0x2d0>
20007b58:	4641                	c.li	a2,16
20007b5a:	080c                	c.addi4spn	a1,sp,16
20007b5c:	05010513          	addi	a0,sp,80
20007b60:	228030ef          	jal	ra,2000ad88 <memcmp>
20007b64:	00051e63          	bnez	a0,20007b80 <bls_smp_pairing_success.part.3+0x1ec>
20007b68:	c895                	c.beqz	s1,20007b9c <bls_smp_pairing_success.part.3+0x208>
20007b6a:	4481                	c.li	s1,0
20007b6c:	e55ff06f          	j	200079c0 <bls_smp_pairing_success.part.3+0x2c>
20007b70:	16444783          	lbu	a5,356(s0)
20007b74:	c385                	c.beqz	a5,20007b94 <bls_smp_pairing_success.part.3+0x200>
20007b76:	0ba00713          	li	a4,186
20007b7a:	468d                	c.li	a3,3
20007b7c:	f31ff06f          	j	20007aac <bls_smp_pairing_success.part.3+0x118>
20007b80:	0890                	c.addi4spn	a2,sp,80
20007b82:	45c1                	c.li	a1,16
20007b84:	03090513          	addi	a0,s2,48
20007b88:	d9dff0ef          	jal	ra,20007924 <smp_write_flash_page>
20007b8c:	00a484b3          	add	s1,s1,a0
20007b90:	fd9ff06f          	j	20007b68 <bls_smp_pairing_success.part.3+0x1d4>
20007b94:	0aa00713          	li	a4,170
20007b98:	4689                	c.li	a3,2
20007b9a:	bf09                	c.j	20007aac <bls_smp_pairing_success.part.3+0x118>
20007b9c:	02010783          	lb	a5,32(sp)
20007ba0:	00f10613          	addi	a2,sp,15
20007ba4:	4585                	c.li	a1,1
20007ba6:	854a                	c.mv	a0,s2
20007ba8:	00f107a3          	sb	a5,15(sp)
20007bac:	d79ff0ef          	jal	ra,20007924 <smp_write_flash_page>
20007bb0:	e00518e3          	bnez	a0,200079c0 <bls_smp_pairing_success.part.3+0x2c>
20007bb4:	5d844783          	lbu	a5,1496(s0)
20007bb8:	00f14683          	lbu	a3,15(sp)
20007bbc:	10078063          	beqz	a5,20007cbc <bls_smp_pairing_success.part.3+0x328>
20007bc0:	0f644783          	lbu	a5,246(s0)
20007bc4:	84ca                	c.mv	s1,s2
20007bc6:	00f40533          	add	a0,s0,a5
20007bca:	08854583          	lbu	a1,136(a0)
20007bce:	078a                	c.slli	a5,0x2
20007bd0:	00b78633          	add	a2,a5,a1
20007bd4:	00158713          	addi	a4,a1,1
20007bd8:	97a2                	c.add	a5,s0
20007bda:	0ff77713          	andi	a4,a4,255
20007bde:	0cc4065b          	lea.w	a2,s0,a2
20007be2:	97ae                	c.add	a5,a1
20007be4:	03262c23          	sw	s2,56(a2)
20007be8:	06d78c23          	sb	a3,120(a5)
20007bec:	08e50423          	sb	a4,136(a0)
20007bf0:	02e401a3          	sb	a4,35(s0)
20007bf4:	dcdff06f          	j	200079c0 <bls_smp_pairing_success.part.3+0x2c>
20007bf8:	5d844683          	lbu	a3,1496(s0)
20007bfc:	ceb5                	c.beqz	a3,20007c78 <bls_smp_pairing_success.part.3+0x2e4>
20007bfe:	0f644703          	lbu	a4,246(s0)
20007c02:	00e406b3          	add	a3,s0,a4
20007c06:	0886c683          	lbu	a3,136(a3)
20007c0a:	ec0683e3          	beqz	a3,20007ad0 <bls_smp_pairing_success.part.3+0x13c>
20007c0e:	0705                	c.addi	a4,1
20007c10:	0712                	c.slli	a4,0x4
20007c12:	9722                	c.add	a4,s0
20007c14:	5708                	c.lw	a0,40(a4)
20007c16:	ea050de3          	beqz	a0,20007ad0 <bls_smp_pairing_success.part.3+0x13c>
20007c1a:	4585                	c.li	a1,1
20007c1c:	0810                	c.addi4spn	a2,sp,16
20007c1e:	00010823          	sb	zero,16(sp)
20007c22:	3309                	c.jal	20007924 <smp_write_flash_page>
20007c24:	0f644583          	lbu	a1,246(s0)
20007c28:	00b407b3          	add	a5,s0,a1
20007c2c:	0887c683          	lbu	a3,136(a5)
20007c30:	16fd                	c.addi	a3,-1
20007c32:	00d05f63          	blez	a3,20007c50 <bls_smp_pairing_success.part.3+0x2bc>
20007c36:	00459713          	slli	a4,a1,0x4
20007c3a:	02040793          	addi	a5,s0,32
20007c3e:	97ba                	c.add	a5,a4
20007c40:	00000713          	li	a4,0
20007c44:	4fd0                	c.lw	a2,28(a5)
20007c46:	0705                	c.addi	a4,1
20007c48:	cf90                	c.sw	a2,24(a5)
20007c4a:	0791                	c.addi	a5,4
20007c4c:	fed74ce3          	blt	a4,a3,20007c44 <bls_smp_pairing_success.part.3+0x2b0>
20007c50:	0ff6f693          	andi	a3,a3,255
20007c54:	95a2                	c.add	a1,s0
20007c56:	08d58423          	sb	a3,136(a1)
20007c5a:	02d401a3          	sb	a3,35(s0)
20007c5e:	5fc42783          	lw	a5,1532(s0)
20007c62:	b5bd                	c.j	20007ad0 <bls_smp_pairing_success.part.3+0x13c>
20007c64:	0090                	c.addi4spn	a2,sp,64
20007c66:	45c1                	c.li	a1,16
20007c68:	02090513          	addi	a0,s2,32
20007c6c:	cb9ff0ef          	jal	ra,20007924 <smp_write_flash_page>
20007c70:	00a484b3          	add	s1,s1,a0
20007c74:	ee5ff06f          	j	20007b58 <bls_smp_pairing_success.part.3+0x1c4>
20007c78:	e4070ce3          	beqz	a4,20007ad0 <bls_smp_pairing_success.part.3+0x13c>
20007c7c:	5048                	c.lw	a0,36(s0)
20007c7e:	e40509e3          	beqz	a0,20007ad0 <bls_smp_pairing_success.part.3+0x13c>
20007c82:	0810                	c.addi4spn	a2,sp,16
20007c84:	4585                	c.li	a1,1
20007c86:	00010823          	sb	zero,16(sp)
20007c8a:	3969                	c.jal	20007924 <smp_write_flash_page>
20007c8c:	02344603          	lbu	a2,35(s0)
20007c90:	00100793          	li	a5,1
20007c94:	00c7fe63          	bgeu	a5,a2,20007cb0 <bls_smp_pairing_success.part.3+0x31c>
20007c98:	02040693          	addi	a3,s0,32
20007c9c:	02440793          	addi	a5,s0,36
20007ca0:	0cc686db          	lea.w	a3,a3,a2
20007ca4:	43d8                	c.lw	a4,4(a5)
20007ca6:	0791                	c.addi	a5,4
20007ca8:	fee7ae23          	sw	a4,-4(a5)
20007cac:	fef69ce3          	bne	a3,a5,20007ca4 <bls_smp_pairing_success.part.3+0x310>
20007cb0:	167d                	c.addi	a2,-1
20007cb2:	5fc42783          	lw	a5,1532(s0)
20007cb6:	02c401a3          	sb	a2,35(s0)
20007cba:	bd19                	c.j	20007ad0 <bls_smp_pairing_success.part.3+0x13c>
20007cbc:	02344783          	lbu	a5,35(s0)
20007cc0:	84ca                	c.mv	s1,s2
20007cc2:	0cf4065b          	lea.w	a2,s0,a5
20007cc6:	00f40733          	add	a4,s0,a5
20007cca:	0785                	c.addi	a5,1
20007ccc:	03262223          	sw	s2,36(a2)
20007cd0:	02d70a23          	sb	a3,52(a4) # 1034 <g_plic_preempt_en>
20007cd4:	02f401a3          	sb	a5,35(s0)
20007cd8:	b1e5                	c.j	200079c0 <bls_smp_pairing_success.part.3+0x2c>
20007cda:	0001                	c.nop

20007cdc <blt_slave_main_loop_data>:
20007cdc:	7179                	c.addi16sp	sp,-48
20007cde:	d422                	c.swsp	s0,40(sp)
20007ce0:	00000437          	lui	s0,0x0
20007ce4:	17840413          	addi	s0,s0,376 # 178 <_AES_VMA_END>
20007ce8:	d606                	c.swsp	ra,44(sp)
20007cea:	d226                	c.swsp	s1,36(sp)
20007cec:	d04a                	c.swsp	s2,32(sp)
20007cee:	0b744783          	lbu	a5,183(s0)
20007cf2:	cb89                	c.beqz	a5,20007d04 <blt_slave_main_loop_data+0x28>
20007cf4:	50b2                	c.lwsp	ra,44(sp)
20007cf6:	5422                	c.lwsp	s0,40(sp)
20007cf8:	5492                	c.lwsp	s1,36(sp)
20007cfa:	5902                	c.lwsp	s2,32(sp)
20007cfc:	4501                	c.li	a0,0
20007cfe:	6145                	c.addi16sp	sp,48
20007d00:	00008067          	ret
20007d04:	00554783          	lbu	a5,5(a0)
20007d08:	00a004b3          	add	s1,zero,a0
20007d0c:	14078a63          	beqz	a5,20007e60 <blt_slave_main_loop_data+0x184>
20007d10:	0b644703          	lbu	a4,182(s0)
20007d14:	18071863          	bnez	a4,20007ea4 <blt_slave_main_loop_data+0x1c8>
20007d18:	00448703          	lb	a4,4(s1)
20007d1c:	35844683          	lbu	a3,856(s0)
20007d20:	0064c503          	lbu	a0,6(s1)
20007d24:	00377713          	andi	a4,a4,3
20007d28:	16068263          	beqz	a3,20007e8c <blt_slave_main_loop_data+0x1b0>
20007d2c:	2e375c5b          	beqc	a4,3,20008024 <blt_slave_main_loop_data+0x348>
20007d30:	18140783          	lb	a5,385(s0)
20007d34:	4705                	c.li	a4,1
20007d36:	0ae40ba3          	sb	a4,183(s0)
20007d3a:	0ff7f793          	andi	a5,a5,255
20007d3e:	ba87eb5b          	bnec	a5,8,20007cf4 <blt_slave_main_loop_data+0x18>
20007d42:	a25d                	c.j	20007ee8 <blt_slave_main_loop_data+0x20c>
20007d44:	0074c783          	lbu	a5,7(s1)
20007d48:	0084c683          	lbu	a3,8(s1)
20007d4c:	00c4c603          	lbu	a2,12(s1)
20007d50:	06a2                	c.slli	a3,0x8
20007d52:	8edd                	c.or	a3,a5
20007d54:	00b4c583          	lbu	a1,11(s1)
20007d58:	fe568793          	addi	a5,a3,-27
20007d5c:	0622                	c.slli	a2,0x8
20007d5e:	3c07a7db          	bfoz	a5,a5,15,0
20007d62:	0e000713          	li	a4,224
20007d66:	8e4d                	c.or	a2,a1
20007d68:	2ef76663          	bltu	a4,a5,20008054 <blt_slave_main_loop_data+0x378>
20007d6c:	fe560793          	addi	a5,a2,-27
20007d70:	3c07a7db          	bfoz	a5,a5,15,0
20007d74:	2ef76063          	bltu	a4,a5,20008054 <blt_slave_main_loop_data+0x378>
20007d78:	25845783          	lhu	a5,600(s0)
20007d7c:	24d41a23          	sh	a3,596(s0)
20007d80:	24c41b23          	sh	a2,598(s0)
20007d84:	00f67463          	bgeu	a2,a5,20007d8c <blt_slave_main_loop_data+0xb0>
20007d88:	00c007b3          	add	a5,zero,a2
20007d8c:	25a45583          	lhu	a1,602(s0)
20007d90:	3c06a75b          	bfoz	a4,a3,15,0
20007d94:	00d5f463          	bgeu	a1,a3,20007d9c <blt_slave_main_loop_data+0xc0>
20007d98:	3c05a75b          	bfoz	a4,a1,15,0
20007d9c:	0155645b          	bnec	a0,21,20007da4 <blt_slave_main_loop_data+0xc8>
20007da0:	7200006f          	j	200084c0 <blt_slave_main_loop_data+0x7e4>
20007da4:	24c45683          	lhu	a3,588(s0)
20007da8:	4485                	c.li	s1,1
20007daa:	00f69763          	bne	a3,a5,20007db8 <blt_slave_main_loop_data+0xdc>
20007dae:	24e45483          	lhu	s1,590(s0)
20007db2:	8c99                	c.sub	s1,a4
20007db4:	009034b3          	snez	s1,s1
20007db8:	24f41623          	sh	a5,588(s0)
20007dbc:	06400693          	li	a3,100
20007dc0:	00f6f663          	bgeu	a3,a5,20007dcc <blt_slave_main_loop_data+0xf0>
20007dc4:	f9c78793          	addi	a5,a5,-100
20007dc8:	24f40f23          	sb	a5,606(s0)
20007dcc:	24e41723          	sh	a4,590(s0)
20007dd0:	06400793          	li	a5,100
20007dd4:	00e7f663          	bgeu	a5,a4,20007de0 <blt_slave_main_loop_data+0x104>
20007dd8:	f9c70713          	addi	a4,a4,-100
20007ddc:	24e40fa3          	sb	a4,607(s0)
20007de0:	0145665b          	bnec	a0,20,20007dec <blt_slave_main_loop_data+0x110>
20007de4:	01500513          	li	a0,21
20007de8:	df5fe0ef          	jal	ra,20006bdc <blt_ll_exchangeDataLength>
20007dec:	4789                	c.li	a5,2
20007dee:	24f40ea3          	sb	a5,605(s0)
20007df2:	24c45683          	lhu	a3,588(s0)
20007df6:	c4a9                	c.beqz	s1,20007e40 <blt_slave_main_loop_data+0x164>
20007df8:	1b842783          	lw	a5,440(s0)
20007dfc:	0467f25b          	bbc	a5,6,20007e40 <blt_slave_main_loop_data+0x164>
20007e00:	24e45803          	lhu	a6,590(s0)
20007e04:	1f241883          	lh	a7,498(s0)
20007e08:	00e80713          	addi	a4,a6,14
20007e0c:	00e68793          	addi	a5,a3,14
20007e10:	02000537          	lui	a0,0x2000
20007e14:	070e                	c.slli	a4,0x3
20007e16:	078e                	c.slli	a5,0x3
20007e18:	431d                	c.li	t1,7
20007e1a:	462d                	c.li	a2,11
20007e1c:	01010593          	addi	a1,sp,16
20007e20:	03e50513          	addi	a0,a0,62 # 200003e <FLASH_SIZE+0x1f0003e>
20007e24:	00610823          	sb	t1,16(sp)
20007e28:	011118a3          	sh	a7,17(sp)
20007e2c:	010119a3          	sh	a6,19(sp)
20007e30:	00e11aa3          	sh	a4,21(sp)
20007e34:	00d11ba3          	sh	a3,23(sp)
20007e38:	00f11ca3          	sh	a5,25(sp)
20007e3c:	9b1fe0ef          	jal	ra,200067ec <blc_hci_send_event>
20007e40:	24c45783          	lhu	a5,588(s0)
20007e44:	3a042703          	lw	a4,928(s0)
20007e48:	0791                	c.addi	a5,4
20007e4a:	0ff7f793          	andi	a5,a5,255
20007e4e:	801416b7          	lui	a3,0x80141
20007e52:	4631                	c.li	a2,12
20007e54:	24c40593          	addi	a1,s0,588
20007e58:	4521                	c.li	a0,8
20007e5a:	82f688a3          	sb	a5,-1999(a3) # 80140831 <_DATA_LMA_START+0x601320fd>
20007e5e:	9702                	c.jalr	a4
20007e60:	34444783          	lbu	a5,836(s0)
20007e64:	e80788e3          	beqz	a5,20007cf4 <blt_slave_main_loop_data+0x18>
20007e68:	dfffc097          	auipc	ra,0xdfffc
20007e6c:	a00080e7          	jalr	-1536(ra) # 3868 <blt_ll_getRealTxFifoNumber>
20007e70:	e80512e3          	bnez	a0,20007cf4 <blt_slave_main_loop_data+0x18>
20007e74:	0b544783          	lbu	a5,181(s0)
20007e78:	0a27d45b          	beqc	a5,2,20007f20 <blt_slave_main_loop_data+0x244>
20007e7c:	2297d45b          	beqc	a5,9,200080a4 <blt_slave_main_loop_data+0x3c8>
20007e80:	a657ea5b          	bnec	a5,5,20007cf4 <blt_slave_main_loop_data+0x18>
20007e84:	34040223          	sb	zero,836(s0)
20007e88:	e6dff06f          	j	20007cf4 <blt_slave_main_loop_data+0x18>
20007e8c:	1c37585b          	beqc	a4,3,2000805c <blt_slave_main_loop_data+0x380>
20007e90:	db61                	c.beqz	a4,20007e60 <blt_slave_main_loop_data+0x184>
20007e92:	62442783          	lw	a5,1572(s0)
20007e96:	d7e9                	c.beqz	a5,20007e60 <blt_slave_main_loop_data+0x184>
20007e98:	00448593          	addi	a1,s1,4
20007e9c:	04000513          	li	a0,64
20007ea0:	9782                	c.jalr	a5
20007ea2:	bf7d                	c.j	20007e60 <blt_slave_main_loop_data+0x184>
20007ea4:	4785                	c.li	a5,1
20007ea6:	0511                	c.addi	a0,4
20007ea8:	22f42e23          	sw	a5,572(s0)
20007eac:	dfffa097          	auipc	ra,0xdfffa
20007eb0:	844080e7          	jalr	-1980(ra) # 16f0 <aes_ll_ccm_decryption.constprop.12>
20007eb4:	23842783          	lw	a5,568(s0)
20007eb8:	22042e23          	sw	zero,572(s0)
20007ebc:	cb81                	c.beqz	a5,20007ecc <blt_slave_main_loop_data+0x1f0>
20007ebe:	853e                	c.mv	a0,a5
20007ec0:	dfffa097          	auipc	ra,0xdfffa
20007ec4:	d34080e7          	jalr	-716(ra) # 1bf4 <blt_ll_channel_conn_update>
20007ec8:	22042c23          	sw	zero,568(s0)
20007ecc:	c521                	c.beqz	a0,20007f14 <blt_slave_main_loop_data+0x238>
20007ece:	4705                	c.li	a4,1
20007ed0:	35844783          	lbu	a5,856(s0)
20007ed4:	0ae40ba3          	sb	a4,183(s0)
20007ed8:	20078063          	beqz	a5,200080d8 <blt_slave_main_loop_data+0x3fc>
20007edc:	18140783          	lb	a5,385(s0)
20007ee0:	0ff7f793          	andi	a5,a5,255
20007ee4:	a087e85b          	bnec	a5,8,20007cf4 <blt_slave_main_loop_data+0x18>
20007ee8:	03d00793          	li	a5,61
20007eec:	00200713          	li	a4,2
20007ef0:	34042823          	sw	zero,848(s0)
20007ef4:	34042a23          	sw	zero,852(s0)
20007ef8:	34040c23          	sb	zero,856(s0)
20007efc:	2ef40fa3          	sb	a5,767(s0)
20007f00:	1ee407a3          	sb	a4,495(s0)
20007f04:	1ef406a3          	sb	a5,493(s0)
20007f08:	dfffa097          	auipc	ra,0xdfffa
20007f0c:	938080e7          	jalr	-1736(ra) # 1840 <blt_terminate_proc>
20007f10:	de5ff06f          	j	20007cf4 <blt_slave_main_loop_data+0x18>
20007f14:	0054c783          	lbu	a5,5(s1)
20007f18:	e00790e3          	bnez	a5,20007d18 <blt_slave_main_loop_data+0x3c>
20007f1c:	f45ff06f          	j	20007e60 <blt_slave_main_loop_data+0x184>
20007f20:	478d                	c.li	a5,3
20007f22:	4515                	c.li	a0,5
20007f24:	0af40aa3          	sb	a5,181(s0)
20007f28:	a64ff0ef          	jal	ra,2000718c <bls_ll_pushEncPkt>
20007f2c:	801407b7          	lui	a5,0x80140
20007f30:	2007a783          	lw	a5,512(a5) # 80140200 <_DATA_LMA_START+0x60131acc>
20007f34:	02626737          	lui	a4,0x2626
20007f38:	0017e793          	ori	a5,a5,1
20007f3c:	a0070713          	addi	a4,a4,-1536 # 2625a00 <FLASH_SIZE+0x2525a00>
20007f40:	4621                	c.li	a2,8
20007f42:	60840593          	addi	a1,s0,1544
20007f46:	0808                	c.addi4spn	a0,sp,16
20007f48:	34f42823          	sw	a5,848(s0)
20007f4c:	00100793          	li	a5,1
20007f50:	34e42a23          	sw	a4,852(s0)
20007f54:	0af40b23          	sb	a5,182(s0)
20007f58:	22042823          	sw	zero,560(s0)
20007f5c:	dfff9097          	auipc	ra,0xdfff9
20007f60:	40c080e7          	jalr	1036(ra) # 1368 <smemcpy>
20007f64:	0828                	c.addi4spn	a0,sp,24
20007f66:	4621                	c.li	a2,8
20007f68:	4cc40593          	addi	a1,s0,1228
20007f6c:	dfff9097          	auipc	ra,0xdfff9
20007f70:	3fc080e7          	jalr	1020(ra) # 1368 <smemcpy>
20007f74:	0810                	c.addi4spn	a2,sp,16
20007f76:	85b2                	c.mv	a1,a2
20007f78:	62840513          	addi	a0,s0,1576
20007f7c:	ebcfe0ef          	jal	ra,20006638 <aes_ll_encryption>
20007f80:	0818                	c.addi4spn	a4,sp,16
20007f82:	002c                	c.addi4spn	a1,sp,8
20007f84:	00e007b3          	add	a5,zero,a4
20007f88:	00f7c603          	lbu	a2,15(a5)
20007f8c:	00074683          	lbu	a3,0(a4)
20007f90:	00c70023          	sb	a2,0(a4)
20007f94:	00d787a3          	sb	a3,15(a5)
20007f98:	17fd                	c.addi	a5,-1
20007f9a:	0705                	c.addi	a4,1
20007f9c:	feb796e3          	bne	a5,a1,20007f88 <blt_slave_main_loop_data+0x2ac>
20007fa0:	00160537          	lui	a0,0x160
20007fa4:	0b450693          	addi	a3,a0,180 # 1600b4 <FLASH_SIZE+0x600b4>
20007fa8:	01c10713          	addi	a4,sp,28
20007fac:	800008b7          	lui	a7,0x80000
20007fb0:	0c450513          	addi	a0,a0,196
20007fb4:	00274783          	lbu	a5,2(a4)
20007fb8:	00174583          	lbu	a1,1(a4)
20007fbc:	00374803          	lbu	a6,3(a4)
20007fc0:	00074603          	lbu	a2,0(a4)
20007fc4:	05c2                	c.slli	a1,0x10
20007fc6:	07a2                	c.slli	a5,0x8
20007fc8:	8fcd                	c.or	a5,a1
20007fca:	0107e7b3          	or	a5,a5,a6
20007fce:	0662                	c.slli	a2,0x18
20007fd0:	0116e5b3          	or	a1,a3,a7
20007fd4:	8fd1                	c.or	a5,a2
20007fd6:	c19c                	c.sw	a5,0(a1)
20007fd8:	0691                	c.addi	a3,4
20007fda:	1771                	c.addi	a4,-4
20007fdc:	fca69ce3          	bne	a3,a0,20007fb4 <blt_slave_main_loop_data+0x2d8>
20007fe0:	4641                	c.li	a2,16
20007fe2:	080c                	c.addi4spn	a1,sp,16
20007fe4:	09840513          	addi	a0,s0,152
20007fe8:	dfff9097          	auipc	ra,0xdfff9
20007fec:	380080e7          	jalr	896(ra) # 1368 <smemcpy>
20007ff0:	00400613          	li	a2,4
20007ff4:	61040593          	addi	a1,s0,1552
20007ff8:	0ad40513          	addi	a0,s0,173
20007ffc:	dfff9097          	auipc	ra,0xdfff9
20008000:	36c080e7          	jalr	876(ra) # 1368 <smemcpy>
20008004:	00400613          	li	a2,4
20008008:	4d440593          	addi	a1,s0,1236
2000800c:	0b140513          	addi	a0,s0,177
20008010:	dfff9097          	auipc	ra,0xdfff9
20008014:	358080e7          	jalr	856(ra) # 1368 <smemcpy>
20008018:	08042823          	sw	zero,144(s0)
2000801c:	08042a23          	sw	zero,148(s0)
20008020:	cd5ff06f          	j	20007cf4 <blt_slave_main_loop_data+0x18>
20008024:	ffe50713          	addi	a4,a0,-2
20008028:	0ff77713          	andi	a4,a4,255
2000802c:	4685                	c.li	a3,1
2000802e:	02e6f763          	bgeu	a3,a4,2000805c <blt_slave_main_loop_data+0x380>
20008032:	0e655f5b          	beqc	a0,6,20008130 <blt_slave_main_loop_data+0x454>
20008036:	ff350713          	addi	a4,a0,-13
2000803a:	0fb77713          	andi	a4,a4,251
2000803e:	ce0719e3          	bnez	a4,20007d30 <blt_slave_main_loop_data+0x54>
20008042:	2000e737          	lui	a4,0x2000e
20008046:	f0470713          	addi	a4,a4,-252 # 2000df04 <cmd_length_array>
2000804a:	972a                	c.add	a4,a0
2000804c:	00074703          	lbu	a4,0(a4)
20008050:	24f70863          	beq	a4,a5,200082a0 <blt_slave_main_loop_data+0x5c4>
20008054:	bfcfe0ef          	jal	ra,20006450 <blt_ll_unknown_rsp.constprop.16>
20008058:	c9dff06f          	j	20007cf4 <blt_slave_main_loop_data+0x18>
2000805c:	2000e737          	lui	a4,0x2000e
20008060:	f0470713          	addi	a4,a4,-252 # 2000df04 <cmd_length_array>
20008064:	972a                	c.add	a4,a0
20008066:	00074703          	lbu	a4,0(a4)
2000806a:	fef715e3          	bne	a4,a5,20008054 <blt_slave_main_loop_data+0x378>
2000806e:	4785                	c.li	a5,1
20008070:	dea7f8e3          	bgeu	a5,a0,20007e60 <blt_slave_main_loop_data+0x184>
20008074:	1225525b          	beqc	a0,2,20008198 <blt_slave_main_loop_data+0x4bc>
20008078:	12355a5b          	beqc	a0,3,200081ac <blt_slave_main_loop_data+0x4d0>
2000807c:	ffc50713          	addi	a4,a0,-4
20008080:	0ff77713          	andi	a4,a4,255
20008084:	dce7fee3          	bgeu	a5,a4,20007e60 <blt_slave_main_loop_data+0x184>
20008088:	0a65565b          	beqc	a0,6,20008134 <blt_slave_main_loop_data+0x458>
2000808c:	1ea55a5b          	beqc	a0,10,20008280 <blt_slave_main_loop_data+0x5a4>
20008090:	2eb5625b          	bnec	a0,11,20008374 <blt_slave_main_loop_data+0x698>
20008094:	0b544783          	lbu	a5,181(s0)
20008098:	9c77e45b          	bnec	a5,7,20007e60 <blt_slave_main_loop_data+0x184>
2000809c:	47a1                	c.li	a5,8
2000809e:	0af40aa3          	sb	a5,181(s0)
200080a2:	bb7d                	c.j	20007e60 <blt_slave_main_loop_data+0x184>
200080a4:	21842783          	lw	a5,536(s0)
200080a8:	0a040aa3          	sb	zero,181(s0)
200080ac:	34040223          	sb	zero,836(s0)
200080b0:	180402a3          	sb	zero,389(s0)
200080b4:	0627f85b          	bbc	a5,2,20008124 <blt_slave_main_loop_data+0x448>
200080b8:	47c5                	c.li	a5,17
200080ba:	4545                	c.li	a0,17
200080bc:	00f10823          	sb	a5,16(sp)
200080c0:	8ccff0ef          	jal	ra,2000718c <bls_ll_pushEncPkt>
200080c4:	3a042783          	lw	a5,928(s0)
200080c8:	4605                	c.li	a2,1
200080ca:	080c                	c.addi4spn	a1,sp,16
200080cc:	4515                	c.li	a0,5
200080ce:	34040c23          	sb	zero,856(s0)
200080d2:	9782                	c.jalr	a5
200080d4:	c21ff06f          	j	20007cf4 <blt_slave_main_loop_data+0x18>
200080d8:	18140783          	lb	a5,385(s0)
200080dc:	0ff7f793          	andi	a5,a5,255
200080e0:	0087d45b          	beqc	a5,8,200080e8 <blt_slave_main_loop_data+0x40c>
200080e4:	c11ff06f          	j	20007cf4 <blt_slave_main_loop_data+0x18>
200080e8:	03d00713          	li	a4,61
200080ec:	1ee44783          	lbu	a5,494(s0)
200080f0:	2ee40fa3          	sb	a4,767(s0)
200080f4:	c00790e3          	bnez	a5,20007cf4 <blt_slave_main_loop_data+0x18>
200080f8:	00008537          	lui	a0,0x8
200080fc:	2fc40593          	addi	a1,s0,764
20008100:	04050513          	addi	a0,a0,64 # 8040 <_RAMCODE_VMA_END+0x1d3e>
20008104:	ec9fe0ef          	jal	ra,20006fcc <bls_ll_pushTxFifo>
20008108:	be0506e3          	beqz	a0,20007cf4 <blt_slave_main_loop_data+0x18>
2000810c:	801407b7          	lui	a5,0x80140
20008110:	2007a783          	lw	a5,512(a5) # 80140200 <_DATA_LMA_START+0x60131acc>
20008114:	10100713          	li	a4,257
20008118:	1ee41723          	sh	a4,494(s0)
2000811c:	22f42623          	sw	a5,556(s0)
20008120:	bd5ff06f          	j	20007cf4 <blt_slave_main_loop_data+0x18>
20008124:	47b5                	c.li	a5,13
20008126:	4535                	c.li	a0,13
20008128:	00f10823          	sb	a5,16(sp)
2000812c:	f95ff06f          	j	200080c0 <blt_slave_main_loop_data+0x3e4>
20008130:	b217e25b          	bnec	a5,1,20008054 <blt_slave_main_loop_data+0x378>
20008134:	0b544783          	lbu	a5,181(s0)
20008138:	9237e45b          	bnec	a5,3,20007e60 <blt_slave_main_loop_data+0x184>
2000813c:	00600513          	li	a0,6
20008140:	34040c23          	sb	zero,856(s0)
20008144:	848ff0ef          	jal	ra,2000718c <bls_ll_pushEncPkt>
20008148:	4715                	c.li	a4,5
2000814a:	61842783          	lw	a5,1560(s0)
2000814e:	34042823          	sw	zero,848(s0)
20008152:	34042a23          	sw	zero,852(s0)
20008156:	0ae40aa3          	sb	a4,181(s0)
2000815a:	180402a3          	sb	zero,389(s0)
2000815e:	c789                	c.beqz	a5,20008168 <blt_slave_main_loop_data+0x48c>
20008160:	04000513          	li	a0,64
20008164:	000780e7          	jalr	a5
20008168:	3a442783          	lw	a5,932(s0)
2000816c:	8e77fa5b          	bbc	a5,7,20007e60 <blt_slave_main_loop_data+0x184>
20008170:	60444703          	lbu	a4,1540(s0)
20008174:	1f245783          	lhu	a5,498(s0)
20008178:	28070663          	beqz	a4,20008404 <blt_slave_main_loop_data+0x728>
2000817c:	02000537          	lui	a0,0x2000
20008180:	460d                	c.li	a2,3
20008182:	080c                	c.addi4spn	a1,sp,16
20008184:	03050513          	addi	a0,a0,48 # 2000030 <FLASH_SIZE+0x1f00030>
20008188:	00010823          	sb	zero,16(sp)
2000818c:	00f118a3          	sh	a5,17(sp)
20008190:	e5cfe0ef          	jal	ra,200067ec <blc_hci_send_event>
20008194:	ccdff06f          	j	20007e60 <blt_slave_main_loop_data+0x184>
20008198:	1ef40623          	sb	a5,492(s0)
2000819c:	0074c703          	lbu	a4,7(s1)
200081a0:	1ef407a3          	sb	a5,495(s0)
200081a4:	1ee406a3          	sb	a4,493(s0)
200081a8:	cb9ff06f          	j	20007e60 <blt_slave_main_loop_data+0x184>
200081ac:	0b544703          	lbu	a4,181(s0)
200081b0:	34f40c23          	sb	a5,856(s0)
200081b4:	08070663          	beqz	a4,20008240 <blt_slave_main_loop_data+0x564>
200081b8:	8a87645b          	bnec	a4,8,20007e60 <blt_slave_main_loop_data+0x184>
200081bc:	60f40223          	sb	a5,1540(s0)
200081c0:	4cc40593          	addi	a1,s0,1228
200081c4:	00800513          	li	a0,8
200081c8:	c5dfe0ef          	jal	ra,20006e24 <generateRandomNum>
200081cc:	4d440593          	addi	a1,s0,1236
200081d0:	00400513          	li	a0,4
200081d4:	c51fe0ef          	jal	ra,20006e24 <generateRandomNum>
200081d8:	00400513          	li	a0,4
200081dc:	fb1fe0ef          	jal	ra,2000718c <bls_ll_pushEncPkt>
200081e0:	01148593          	addi	a1,s1,17
200081e4:	00800613          	li	a2,8
200081e8:	60840513          	addi	a0,s0,1544
200081ec:	dfff9097          	auipc	ra,0xdfff9
200081f0:	17c080e7          	jalr	380(ra) # 1368 <smemcpy>
200081f4:	01948593          	addi	a1,s1,25
200081f8:	00400613          	li	a2,4
200081fc:	61040513          	addi	a0,s0,1552
20008200:	dfff9097          	auipc	ra,0xdfff9
20008204:	168080e7          	jalr	360(ra) # 1368 <smemcpy>
20008208:	0104c783          	lbu	a5,16(s1)
2000820c:	00f4c683          	lbu	a3,15(s1)
20008210:	61442703          	lw	a4,1556(s0)
20008214:	07a2                	c.slli	a5,0x8
20008216:	00748913          	addi	s2,s1,7
2000821a:	00d7e4b3          	or	s1,a5,a3
2000821e:	c719                	c.beqz	a4,2000822c <blt_slave_main_loop_data+0x550>
20008220:	1f245503          	lhu	a0,498(s0)
20008224:	8626                	c.mv	a2,s1
20008226:	85ca                	c.mv	a1,s2
20008228:	000700e7          	jalr	a4
2000822c:	1b842783          	lw	a5,440(s0)
20008230:	4047fc5b          	bbs	a5,4,20008248 <blt_slave_main_loop_data+0x56c>
20008234:	4785                	c.li	a5,1
20008236:	34f40223          	sb	a5,836(s0)
2000823a:	18f402a3          	sb	a5,389(s0)
2000823e:	b12d                	c.j	20007e68 <blt_slave_main_loop_data+0x18c>
20008240:	60040223          	sb	zero,1540(s0)
20008244:	f7dff06f          	j	200081c0 <blt_slave_main_loop_data+0x4e4>
20008248:	1f241783          	lh	a5,498(s0)
2000824c:	85ca                	c.mv	a1,s2
2000824e:	01310513          	addi	a0,sp,19
20008252:	4715                	c.li	a4,5
20008254:	00800613          	li	a2,8
20008258:	00e10823          	sb	a4,16(sp)
2000825c:	00f118a3          	sh	a5,17(sp)
20008260:	00911da3          	sh	s1,27(sp)
20008264:	dfff9097          	auipc	ra,0xdfff9
20008268:	104080e7          	jalr	260(ra) # 1368 <smemcpy>
2000826c:	02000537          	lui	a0,0x2000
20008270:	4635                	c.li	a2,13
20008272:	080c                	c.addi4spn	a1,sp,16
20008274:	03e50513          	addi	a0,a0,62 # 200003e <FLASH_SIZE+0x1f0003e>
20008278:	d74fe0ef          	jal	ra,200067ec <blc_hci_send_event>
2000827c:	fb9ff06f          	j	20008234 <blt_slave_main_loop_data+0x558>
20008280:	0b544783          	lbu	a5,181(s0)
20008284:	0057d45b          	beqc	a5,5,2000828c <blt_slave_main_loop_data+0x5b0>
20008288:	bd9ff06f          	j	20007e60 <blt_slave_main_loop_data+0x184>
2000828c:	479d                	c.li	a5,7
2000828e:	452d                	c.li	a0,11
20008290:	0af40aa3          	sb	a5,181(s0)
20008294:	ef9fe0ef          	jal	ra,2000718c <bls_ll_pushEncPkt>
20008298:	0a040b23          	sb	zero,182(s0)
2000829c:	bc5ff06f          	j	20007e60 <blt_slave_main_loop_data+0x184>
200082a0:	ff850793          	addi	a5,a0,-8
200082a4:	0ff7f793          	andi	a5,a5,255
200082a8:	4905                	c.li	s2,1
200082aa:	08f97d63          	bgeu	s2,a5,20008344 <blt_slave_main_loop_data+0x668>
200082ae:	04c5555b          	beqc	a0,12,200082f8 <blt_slave_main_loop_data+0x61c>
200082b2:	ff350793          	addi	a5,a0,-13
200082b6:	0fb7f793          	andi	a5,a5,251
200082ba:	22078f63          	beqz	a5,200084f8 <blt_slave_main_loop_data+0x81c>
200082be:	21255f5b          	beqc	a0,18,200084dc <blt_slave_main_loop_data+0x800>
200082c2:	0135645b          	bnec	a0,19,200082ca <blt_slave_main_loop_data+0x5ee>
200082c6:	b9bff06f          	j	20007e60 <blt_slave_main_loop_data+0x184>
200082ca:	fec50793          	addi	a5,a0,-20
200082ce:	0ff7f793          	andi	a5,a5,255
200082d2:	a6f979e3          	bgeu	s2,a5,20007d44 <blt_slave_main_loop_data+0x68>
200082d6:	19655f5b          	beqc	a0,22,20008474 <blt_slave_main_loop_data+0x798>
200082da:	01856b5b          	bnec	a0,24,200082f0 <blt_slave_main_loop_data+0x614>
200082de:	61c42783          	lw	a5,1564(s0)
200082e2:	6705                	c.lui	a4,0x1
200082e4:	90070713          	addi	a4,a4,-1792 # 900 <blt_buff_prepare_write+0xf4>
200082e8:	00e7f7b3          	and	a5,a5,a4
200082ec:	b6079ae3          	bnez	a5,20007e60 <blt_slave_main_loop_data+0x184>
200082f0:	960fe0ef          	jal	ra,20006450 <blt_ll_unknown_rsp.constprop.16>
200082f4:	b6dff06f          	j	20007e60 <blt_slave_main_loop_data+0x184>
200082f8:	1eb44783          	lbu	a5,491(s0)
200082fc:	049d                	c.addi	s1,7
200082fe:	c7dd                	c.beqz	a5,200083ac <blt_slave_main_loop_data+0x6d0>
20008300:	3a442783          	lw	a5,932(s0)
20008304:	1e0405a3          	sb	zero,491(s0)
20008308:	02b7f65b          	bbc	a5,11,20008334 <blt_slave_main_loop_data+0x658>
2000830c:	85a6                	c.mv	a1,s1
2000830e:	4615                	c.li	a2,5
20008310:	ffff87b7          	lui	a5,0xffff8
20008314:	01310513          	addi	a0,sp,19
20008318:	00f11823          	sh	a5,16(sp)
2000831c:	00010923          	sb	zero,18(sp)
20008320:	2b9020ef          	jal	ra,2000add8 <memcpy>
20008324:	02000537          	lui	a0,0x2000
20008328:	4621                	c.li	a2,8
2000832a:	080c                	c.addi4spn	a1,sp,16
2000832c:	00c50513          	addi	a0,a0,12 # 200000c <FLASH_SIZE+0x1f0000c>
20008330:	cbcfe0ef          	jal	ra,200067ec <blc_hci_send_event>
20008334:	3a042783          	lw	a5,928(s0)
20008338:	4615                	c.li	a2,5
2000833a:	85a6                	c.mv	a1,s1
2000833c:	4541                	c.li	a0,16
2000833e:	9782                	c.jalr	a5
20008340:	b21ff06f          	j	20007e60 <blt_slave_main_loop_data+0x184>
20008344:	0074a783          	lw	a5,7(s1)
20008348:	20f42c23          	sw	a5,536(s0)
2000834c:	0c956c5b          	bnec	a0,9,20008424 <blt_slave_main_loop_data+0x748>
20008350:	1e244783          	lbu	a5,482(s0)
20008354:	b00786e3          	beqz	a5,20007e60 <blt_slave_main_loop_data+0x184>
20008358:	1b842783          	lw	a5,440(s0)
2000835c:	1e040123          	sb	zero,482(s0)
20008360:	4037f45b          	bbs	a5,3,20008368 <blt_slave_main_loop_data+0x68c>
20008364:	afdff06f          	j	20007e60 <blt_slave_main_loop_data+0x184>
20008368:	00000513          	li	a0,0
2000836c:	de0fe0ef          	jal	ra,2000694c <bls_ll_send_read_remote_feature_event.part.5>
20008370:	af1ff06f          	j	20007e60 <blt_slave_main_loop_data+0x184>
20008374:	b275665b          	bnec	a0,7,200082a0 <blt_slave_main_loop_data+0x5c4>
20008378:	0074c783          	lbu	a5,7(s1)
2000837c:	06e7d05b          	beqc	a5,14,200083dc <blt_slave_main_loop_data+0x700>
20008380:	0147d45b          	beqc	a5,20,20008388 <blt_slave_main_loop_data+0x6ac>
20008384:	addff06f          	j	20007e60 <blt_slave_main_loop_data+0x184>
20008388:	3a042703          	lw	a4,928(s0)
2000838c:	001b07b7          	lui	a5,0x1b0
20008390:	07ed                	c.addi	a5,27
20008392:	4631                	c.li	a2,12
20008394:	24c40593          	addi	a1,s0,588
20008398:	4521                	c.li	a0,8
2000839a:	24f42a23          	sw	a5,596(s0)
2000839e:	24f42623          	sw	a5,588(s0)
200083a2:	24041f23          	sh	zero,606(s0)
200083a6:	9702                	c.jalr	a4
200083a8:	ab9ff06f          	j	20007e60 <blt_slave_main_loop_data+0x184>
200083ac:	35c44783          	lbu	a5,860(s0)
200083b0:	f3d1                	c.bnez	a5,20008334 <blt_slave_main_loop_data+0x658>
200083b2:	090c07b7          	lui	a5,0x90c0
200083b6:	60378793          	addi	a5,a5,1539 # 90c0603 <FLASH_SIZE+0x8fc0603>
200083ba:	c03e                	c.swsp	a5,0(sp)
200083bc:	6521                	c.lui	a0,0x8
200083be:	1c1c07b7          	lui	a5,0x1c1c0
200083c2:	21178793          	addi	a5,a5,529 # 1c1c0211 <FLASH_SIZE+0x1c0c0211>
200083c6:	858a                	c.mv	a1,sp
200083c8:	04050513          	addi	a0,a0,64 # 8040 <_RAMCODE_VMA_END+0x1d3e>
200083cc:	00f12223          	sw	a5,4(sp)
200083d0:	bfdfe0ef          	jal	ra,20006fcc <bls_ll_pushTxFifo>
200083d4:	35240e23          	sb	s2,860(s0)
200083d8:	f5dff06f          	j	20008334 <blt_slave_main_loop_data+0x658>
200083dc:	1e244783          	lbu	a5,482(s0)
200083e0:	a80780e3          	beqz	a5,20007e60 <blt_slave_main_loop_data+0x184>
200083e4:	1b842783          	lw	a5,440(s0)
200083e8:	1e040123          	sb	zero,482(s0)
200083ec:	20042c23          	sw	zero,536(s0)
200083f0:	4037f45b          	bbs	a5,3,200083f8 <blt_slave_main_loop_data+0x71c>
200083f4:	a6dff06f          	j	20007e60 <blt_slave_main_loop_data+0x184>
200083f8:	01a00513          	li	a0,26
200083fc:	d50fe0ef          	jal	ra,2000694c <bls_ll_send_read_remote_feature_event.part.5>
20008400:	a61ff06f          	j	20007e60 <blt_slave_main_loop_data+0x184>
20008404:	02000537          	lui	a0,0x2000
20008408:	00f118a3          	sh	a5,17(sp)
2000840c:	4611                	c.li	a2,4
2000840e:	4785                	c.li	a5,1
20008410:	080c                	c.addi4spn	a1,sp,16
20008412:	0521                	c.addi	a0,8
20008414:	00010823          	sb	zero,16(sp)
20008418:	00f109a3          	sb	a5,19(sp)
2000841c:	bd0fe0ef          	jal	ra,200067ec <blc_hci_send_event>
20008420:	a41ff06f          	j	20007e60 <blt_slave_main_loop_data+0x184>
20008424:	61c42703          	lw	a4,1564(s0)
20008428:	62042783          	lw	a5,1568(s0)
2000842c:	00871613          	slli	a2,a4,0x8
20008430:	00879593          	slli	a1,a5,0x8
20008434:	01875693          	srli	a3,a4,0x18
20008438:	6521                	c.lui	a0,0x8
2000843a:	6805                	c.lui	a6,0x1
2000843c:	8ecd                	c.or	a3,a1
2000843e:	0087d893          	srli	a7,a5,0x8
20008442:	00966613          	ori	a2,a2,9
20008446:	8321                	c.srli	a4,0x8
20008448:	83e1                	c.srli	a5,0x18
2000844a:	90380813          	addi	a6,a6,-1789 # 903 <blt_buff_prepare_write+0xf7>
2000844e:	858a                	c.mv	a1,sp
20008450:	04050513          	addi	a0,a0,64 # 8040 <_RAMCODE_VMA_END+0x1d3e>
20008454:	01011023          	sh	a6,0(sp)
20008458:	00c11123          	sh	a2,2(sp)
2000845c:	00e11223          	sh	a4,4(sp)
20008460:	00d11323          	sh	a3,6(sp)
20008464:	01111423          	sh	a7,8(sp)
20008468:	00f11523          	sh	a5,10(sp)
2000846c:	b61fe0ef          	jal	ra,20006fcc <bls_ll_pushTxFifo>
20008470:	9f1ff06f          	j	20007e60 <blt_slave_main_loop_data+0x184>
20008474:	61c42783          	lw	a5,1564(s0)
20008478:	6705                	c.lui	a4,0x1
2000847a:	90070713          	addi	a4,a4,-1792 # 900 <blt_buff_prepare_write+0xf4>
2000847e:	8ff9                	c.and	a5,a4
20008480:	e60788e3          	beqz	a5,200082f0 <blt_slave_main_loop_data+0x614>
20008484:	00748783          	lb	a5,7(s1)
20008488:	00848703          	lb	a4,8(s1)
2000848c:	8ff9                	c.and	a5,a4
2000848e:	0ff7f793          	andi	a5,a5,255
20008492:	e399                	c.bnez	a5,20008498 <blt_slave_main_loop_data+0x7bc>
20008494:	00100793          	li	a5,1
20008498:	00879713          	slli	a4,a5,0x8
2000849c:	6521                	c.lui	a0,0x8
2000849e:	01776713          	ori	a4,a4,23
200084a2:	30300693          	li	a3,771
200084a6:	858a                	c.mv	a1,sp
200084a8:	04050513          	addi	a0,a0,64 # 8040 <_RAMCODE_VMA_END+0x1d3e>
200084ac:	00d11023          	sh	a3,0(sp)
200084b0:	00e11123          	sh	a4,2(sp)
200084b4:	00f11223          	sh	a5,4(sp)
200084b8:	b15fe0ef          	jal	ra,20006fcc <bls_ll_pushTxFifo>
200084bc:	9a5ff06f          	j	20007e60 <blt_slave_main_loop_data+0x184>
200084c0:	25045783          	lhu	a5,592(s0)
200084c4:	00f67463          	bgeu	a2,a5,200084cc <blt_slave_main_loop_data+0x7f0>
200084c8:	00c007b3          	add	a5,zero,a2
200084cc:	25245703          	lhu	a4,594(s0)
200084d0:	8ce6fae3          	bgeu	a3,a4,20007da4 <blt_slave_main_loop_data+0xc8>
200084d4:	00d00733          	add	a4,zero,a3
200084d8:	8cdff06f          	j	20007da4 <blt_slave_main_loop_data+0xc8>
200084dc:	6521                	c.lui	a0,0x8
200084de:	001307b7          	lui	a5,0x130
200084e2:	10378793          	addi	a5,a5,259 # 130103 <FLASH_SIZE+0x30103>
200084e6:	858a                	c.mv	a1,sp
200084e8:	04050513          	addi	a0,a0,64 # 8040 <_RAMCODE_VMA_END+0x1d3e>
200084ec:	00f12023          	sw	a5,0(sp)
200084f0:	addfe0ef          	jal	ra,20006fcc <bls_ll_pushTxFifo>
200084f4:	96dff06f          	j	20007e60 <blt_slave_main_loop_data+0x184>
200084f8:	34040c23          	sb	zero,856(s0)
200084fc:	b295                	c.j	20007e60 <blt_slave_main_loop_data+0x184>
200084fe:	0001                	c.nop

20008500 <blt_soft_timer_process>:
20008500:	7139                	c.addi16sp	sp,-64
20008502:	dc22                	c.swsp	s0,56(sp)
20008504:	00000437          	lui	s0,0x0
20008508:	801407b7          	lui	a5,0x80140
2000850c:	17840413          	addi	s0,s0,376 # 178 <_AES_VMA_END>
20008510:	de06                	c.swsp	ra,60(sp)
20008512:	da26                	c.swsp	s1,52(sp)
20008514:	d84a                	c.swsp	s2,48(sp)
20008516:	d64e                	c.swsp	s3,44(sp)
20008518:	d452                	c.swsp	s4,40(sp)
2000851a:	d256                	c.swsp	s5,36(sp)
2000851c:	d05a                	c.swsp	s6,32(sp)
2000851e:	ce5e                	c.swsp	s7,28(sp)
20008520:	cc62                	c.swsp	s8,24(sp)
20008522:	ca66                	c.swsp	s9,20(sp)
20008524:	c86a                	c.swsp	s10,16(sp)
20008526:	2007a983          	lw	s3,512(a5) # 80140200 <_DATA_LMA_START+0x60131acc>
2000852a:	66844783          	lbu	a5,1640(s0)
2000852e:	c7cd                	c.beqz	a5,200085d8 <blt_soft_timer_process+0xd8>
20008530:	6905                	c.lui	s2,0x1
20008532:	63c42783          	lw	a5,1596(s0)
20008536:	80090913          	addi	s2,s2,-2048 # 800 <pkt_errRsp>
2000853a:	994e                	c.add	s2,s3
2000853c:	40f907b3          	sub	a5,s2,a5
20008540:	03d09737          	lui	a4,0x3d09
20008544:	06e7fc63          	bgeu	a5,a4,200085bc <blt_soft_timer_process+0xbc>
20008548:	63840a93          	addi	s5,s0,1592
2000854c:	03d09a37          	lui	s4,0x3d09
20008550:	84d6                	c.mv	s1,s5
20008552:	4c01                	c.li	s8,0
20008554:	4b01                	c.li	s6,0
20008556:	4bb1                	c.li	s7,12
20008558:	0347f863          	bgeu	a5,s4,20008588 <blt_soft_timer_process+0x88>
2000855c:	409c                	c.lw	a5,0(s1)
2000855e:	c78d                	c.beqz	a5,20008588 <blt_soft_timer_process+0x88>
20008560:	9782                	c.jalr	a5
20008562:	66844783          	lbu	a5,1640(s0)
20008566:	06054f63          	bltz	a0,200085e4 <blt_soft_timer_process+0xe4>
2000856a:	e95d                	c.bnez	a0,20008620 <blt_soft_timer_process+0x120>
2000856c:	4498                	c.lw	a4,8(s1)
2000856e:	4b05                	c.li	s6,1
20008570:	974e                	c.add	a4,s3
20008572:	c0d8                	c.sw	a4,4(s1)
20008574:	0c05                	c.addi	s8,1
20008576:	04b1                	c.addi	s1,12
20008578:	00fc5e63          	bge	s8,a5,20008594 <blt_soft_timer_process+0x94>
2000857c:	0044a783          	lw	a5,4(s1)
20008580:	40f907b3          	sub	a5,s2,a5
20008584:	fd47ece3          	bltu	a5,s4,2000855c <blt_soft_timer_process+0x5c>
20008588:	66844783          	lbu	a5,1640(s0)
2000858c:	0c05                	c.addi	s8,1
2000858e:	04b1                	c.addi	s1,12
20008590:	fefc46e3          	blt	s8,a5,2000857c <blt_soft_timer_process+0x7c>
20008594:	04078263          	beqz	a5,200085d8 <blt_soft_timer_process+0xd8>
20008598:	080b1c63          	bnez	s6,20008630 <blt_soft_timer_process+0x130>
2000859c:	63c42703          	lw	a4,1596(s0)
200085a0:	02dc77b7          	lui	a5,0x2dc7
200085a4:	413709b3          	sub	s3,a4,s3
200085a8:	bff78793          	addi	a5,a5,-1025 # 2dc6bff <FLASH_SIZE+0x2cc6bff>
200085ac:	0337e663          	bltu	a5,s3,200085d8 <blt_soft_timer_process+0xd8>
200085b0:	00100793          	li	a5,1
200085b4:	2ee42023          	sw	a4,736(s0)
200085b8:	2cf40d23          	sb	a5,730(s0)
200085bc:	50f2                	c.lwsp	ra,60(sp)
200085be:	5462                	c.lwsp	s0,56(sp)
200085c0:	54d2                	c.lwsp	s1,52(sp)
200085c2:	5942                	c.lwsp	s2,48(sp)
200085c4:	59b2                	c.lwsp	s3,44(sp)
200085c6:	5a22                	c.lwsp	s4,40(sp)
200085c8:	5a92                	c.lwsp	s5,36(sp)
200085ca:	5b02                	c.lwsp	s6,32(sp)
200085cc:	4bf2                	c.lwsp	s7,28(sp)
200085ce:	4c62                	c.lwsp	s8,24(sp)
200085d0:	4cd2                	c.lwsp	s9,20(sp)
200085d2:	4d42                	c.lwsp	s10,16(sp)
200085d4:	6121                	c.addi16sp	sp,64
200085d6:	8082                	c.jr	ra
200085d8:	2e042023          	sw	zero,736(s0)
200085dc:	2c040d23          	sb	zero,730(s0)
200085e0:	fddff06f          	j	200085bc <blt_soft_timer_process+0xbc>
200085e4:	0ffc7713          	andi	a4,s8,255
200085e8:	f8f776e3          	bgeu	a4,a5,20008574 <blt_soft_timer_process+0x74>
200085ec:	17fd                	c.addi	a5,-1
200085ee:	02fc5363          	bge	s8,a5,20008614 <blt_soft_timer_process+0x114>
200085f2:	8cd6                	c.mv	s9,s5
200085f4:	c57c1cff          	maddr32	s9,s8,s7
200085f8:	01800d33          	add	s10,zero,s8
200085fc:	8566                	c.mv	a0,s9
200085fe:	0cb1                	c.addi	s9,12
20008600:	4631                	c.li	a2,12
20008602:	85e6                	c.mv	a1,s9
20008604:	7d4020ef          	jal	ra,2000add8 <memcpy>
20008608:	66844783          	lbu	a5,1640(s0)
2000860c:	0d05                	c.addi	s10,1
2000860e:	17fd                	c.addi	a5,-1
20008610:	fefd46e3          	blt	s10,a5,200085fc <blt_soft_timer_process+0xfc>
20008614:	0ff7f793          	andi	a5,a5,255
20008618:	66f40423          	sb	a5,1640(s0)
2000861c:	f59ff06f          	j	20008574 <blt_soft_timer_process+0x74>
20008620:	0512                	c.slli	a0,0x4
20008622:	01350733          	add	a4,a0,s3
20008626:	4b05                	c.li	s6,1
20008628:	c488                	c.sw	a0,8(s1)
2000862a:	c0d8                	c.sw	a4,4(s1)
2000862c:	f49ff06f          	j	20008574 <blt_soft_timer_process+0x74>
20008630:	17fd                	c.addi	a5,-1
20008632:	0ff7f693          	andi	a3,a5,255
20008636:	470d                	c.li	a4,3
20008638:	f6d762e3          	bltu	a4,a3,2000859c <blt_soft_timer_process+0x9c>
2000863c:	f6f050e3          	blez	a5,2000859c <blt_soft_timer_process+0x9c>
20008640:	00f004b3          	add	s1,zero,a5
20008644:	40000bb7          	lui	s7,0x40000
20008648:	8956                	c.mv	s2,s5
2000864a:	4a01                	c.li	s4,0
2000864c:	00492783          	lw	a5,4(s2)
20008650:	01092703          	lw	a4,16(s2)
20008654:	00c90b13          	addi	s6,s2,12
20008658:	8f99                	c.sub	a5,a4
2000865a:	0a05                	c.addi	s4,1
2000865c:	0177e863          	bltu	a5,s7,2000866c <blt_soft_timer_process+0x16c>
20008660:	895a                	c.mv	s2,s6
20008662:	fe9a45e3          	blt	s4,s1,2000864c <blt_soft_timer_process+0x14c>
20008666:	14fd                	c.addi	s1,-1
20008668:	f0e5                	c.bnez	s1,20008648 <blt_soft_timer_process+0x148>
2000866a:	bf0d                	c.j	2000859c <blt_soft_timer_process+0x9c>
2000866c:	85ca                	c.mv	a1,s2
2000866e:	4631                	c.li	a2,12
20008670:	00410513          	addi	a0,sp,4
20008674:	764020ef          	jal	ra,2000add8 <memcpy>
20008678:	85da                	c.mv	a1,s6
2000867a:	4631                	c.li	a2,12
2000867c:	01200533          	add	a0,zero,s2
20008680:	758020ef          	jal	ra,2000add8 <memcpy>
20008684:	4631                	c.li	a2,12
20008686:	004c                	c.addi4spn	a1,sp,4
20008688:	01600533          	add	a0,zero,s6
2000868c:	74c020ef          	jal	ra,2000add8 <memcpy>
20008690:	bfc1                	c.j	20008660 <blt_soft_timer_process+0x160>
	...

20008694 <blc_l2cap_packet_receive>:
20008694:	7149                	c.addi16sp	sp,-368
20008696:	16812423          	sw	s0,360(sp)
2000869a:	16912223          	sw	s1,356(sp)
2000869e:	16112623          	sw	ra,364(sp)
200086a2:	17212023          	sw	s2,352(sp)
200086a6:	15312e23          	sw	s3,348(sp)
200086aa:	15412c23          	sw	s4,344(sp)
200086ae:	15512a23          	sw	s5,340(sp)
200086b2:	15612823          	sw	s6,336(sp)
200086b6:	15712623          	sw	s7,332(sp)
200086ba:	15812423          	sw	s8,328(sp)
200086be:	15912223          	sw	s9,324(sp)
200086c2:	15a12023          	sw	s10,320(sp)
200086c6:	13b12e23          	sw	s11,316(sp)
200086ca:	00058783          	lb	a5,0(a1)
200086ce:	84ae                	c.mv	s1,a1
200086d0:	8b8d                	c.andi	a5,3
200086d2:	842a                	c.mv	s0,a0
200086d4:	1037d05b          	beqc	a5,3,200087d4 <blc_l2cap_packet_receive+0x140>
200086d8:	0827d85b          	beqc	a5,2,20008768 <blc_l2cap_packet_receive+0xd4>
200086dc:	0417e85b          	bnec	a5,1,2000872c <blc_l2cap_packet_receive+0x98>
200086e0:	00000937          	lui	s2,0x0
200086e4:	17890913          	addi	s2,s2,376 # 178 <_AES_VMA_END>
200086e8:	7a092703          	lw	a4,1952(s2)
200086ec:	c321                	c.beqz	a4,2000872c <blc_l2cap_packet_receive+0x98>
200086ee:	00071783          	lh	a5,0(a4) # 3d09000 <FLASH_SIZE+0x3c09000>
200086f2:	3c07a7db          	bfoz	a5,a5,15,0
200086f6:	cb9d                	c.beqz	a5,2000872c <blc_l2cap_packet_receive+0x98>
200086f8:	00071783          	lh	a5,0(a4)
200086fc:	0015c603          	lbu	a2,1(a1)
20008700:	3c07a7db          	bfoz	a5,a5,15,0
20008704:	7a895683          	lhu	a3,1960(s2)
20008708:	17e9                	c.addi	a5,-6
2000870a:	97b2                	c.add	a5,a2
2000870c:	16ed                	c.addi	a3,-5
2000870e:	3c07a7db          	bfoz	a5,a5,15,0
20008712:	08d7c163          	blt	a5,a3,20008794 <blc_l2cap_packet_receive+0x100>
20008716:	00071023          	sh	zero,0(a4)
2000871a:	84ba                	c.mv	s1,a4
2000871c:	0044d783          	lhu	a5,4(s1)
20008720:	0c67d05b          	beqc	a5,6,200087e0 <blc_l2cap_packet_receive+0x14c>
20008724:	0c47dc5b          	beqc	a5,4,200087fc <blc_l2cap_packet_receive+0x168>
20008728:	0e57da5b          	beqc	a5,5,2000881c <blc_l2cap_packet_receive+0x188>
2000872c:	16c12083          	lw	ra,364(sp)
20008730:	16812403          	lw	s0,360(sp)
20008734:	16412483          	lw	s1,356(sp)
20008738:	16012903          	lw	s2,352(sp)
2000873c:	15c12983          	lw	s3,348(sp)
20008740:	15812a03          	lw	s4,344(sp)
20008744:	15412a83          	lw	s5,340(sp)
20008748:	15012b03          	lw	s6,336(sp)
2000874c:	14c12b83          	lw	s7,332(sp)
20008750:	14812c03          	lw	s8,328(sp)
20008754:	14412c83          	lw	s9,324(sp)
20008758:	14012d03          	lw	s10,320(sp)
2000875c:	13c12d83          	lw	s11,316(sp)
20008760:	4501                	c.li	a0,0
20008762:	6175                	c.addi16sp	sp,368
20008764:	00008067          	ret
20008768:	0025d783          	lhu	a5,2(a1)
2000876c:	0015c603          	lbu	a2,1(a1)
20008770:	00478713          	addi	a4,a5,4
20008774:	06e60063          	beq	a2,a4,200087d4 <blc_l2cap_packet_receive+0x140>
20008778:	00000937          	lui	s2,0x0
2000877c:	17890913          	addi	s2,s2,376 # 178 <_AES_VMA_END>
20008780:	7a092503          	lw	a0,1952(s2)
20008784:	d545                	c.beqz	a0,2000872c <blc_l2cap_packet_receive+0x98>
20008786:	078d                	c.addi	a5,3
20008788:	10c7de63          	bge	a5,a2,200088a4 <blc_l2cap_packet_receive+0x210>
2000878c:	00051023          	sh	zero,0(a0)
20008790:	f9dff06f          	j	2000872c <blc_l2cap_packet_receive+0x98>
20008794:	00071503          	lh	a0,0(a4)
20008798:	0589                	c.addi	a1,2
2000879a:	3c05255b          	bfoz	a0,a0,15,0
2000879e:	953a                	c.add	a0,a4
200087a0:	638020ef          	jal	ra,2000add8 <memcpy>
200087a4:	7a092783          	lw	a5,1952(s2)
200087a8:	0014c603          	lbu	a2,1(s1)
200087ac:	00079703          	lh	a4,0(a5)
200087b0:	0027d683          	lhu	a3,2(a5)
200087b4:	9732                	c.add	a4,a2
200087b6:	3c07275b          	bfoz	a4,a4,15,0
200087ba:	00e79023          	sh	a4,0(a5)
200087be:	00079703          	lh	a4,0(a5)
200087c2:	0695                	c.addi	a3,5
200087c4:	3c07275b          	bfoz	a4,a4,15,0
200087c8:	f6e6d2e3          	bge	a3,a4,2000872c <blc_l2cap_packet_receive+0x98>
200087cc:	00f004b3          	add	s1,zero,a5
200087d0:	00079023          	sh	zero,0(a5)
200087d4:	f4048ce3          	beqz	s1,2000872c <blc_l2cap_packet_receive+0x98>
200087d8:	0044d783          	lhu	a5,4(s1)
200087dc:	b467e45b          	bnec	a5,6,20008724 <blc_l2cap_packet_receive+0x90>
200087e0:	0064c783          	lbu	a5,6(s1)
200087e4:	4739                	c.li	a4,14
200087e6:	f4f763e3          	bltu	a4,a5,2000872c <blc_l2cap_packet_receive+0x98>
200087ea:	2000e737          	lui	a4,0x2000e
200087ee:	cf870713          	addi	a4,a4,-776 # 2000dcf8 <__riscv_restore_0+0xe>
200087f2:	0cf707db          	lea.w	a5,a4,a5
200087f6:	439c                	c.lw	a5,0(a5)
200087f8:	00078067          	jr	a5
200087fc:	0064c783          	lbu	a5,6(s1)
20008800:	0407fe5b          	bbc	a5,0,2000885c <blc_l2cap_packet_receive+0x1c8>
20008804:	0437dc5b          	beqc	a5,3,2000885c <blc_l2cap_packet_receive+0x1c8>
20008808:	000017b7          	lui	a5,0x1
2000880c:	96c7a783          	lw	a5,-1684(a5) # 96c <att_client_handler>
20008810:	df91                	c.beqz	a5,2000872c <blc_l2cap_packet_receive+0x98>
20008812:	85a6                	c.mv	a1,s1
20008814:	8522                	c.mv	a0,s0
20008816:	9782                	c.jalr	a5
20008818:	f15ff06f          	j	2000872c <blc_l2cap_packet_receive+0x98>
2000881c:	000007b7          	lui	a5,0x0
20008820:	17878d93          	addi	s11,a5,376 # 178 <_AES_VMA_END>
20008824:	7f8da703          	lw	a4,2040(s11)
20008828:	c701                	c.beqz	a4,20008830 <blc_l2cap_packet_receive+0x19c>
2000882a:	85a6                	c.mv	a1,s1
2000882c:	8522                	c.mv	a0,s0
2000882e:	9702                	c.jalr	a4
20008830:	0064c703          	lbu	a4,6(s1)
20008834:	af376c5b          	bnec	a4,19,2000872c <blc_l2cap_packet_receive+0x98>
20008838:	7fcda783          	lw	a5,2044(s11)
2000883c:	ee0788e3          	beqz	a5,2000872c <blc_l2cap_packet_receive+0x98>
20008840:	0024d703          	lhu	a4,2(s1)
20008844:	ae67645b          	bnec	a4,6,2000872c <blc_l2cap_packet_receive+0x98>
20008848:	0084d703          	lhu	a4,8(s1)
2000884c:	ae27605b          	bnec	a4,2,2000872c <blc_l2cap_packet_receive+0x98>
20008850:	00a4d583          	lhu	a1,10(s1)
20008854:	0074c503          	lbu	a0,7(s1)
20008858:	9782                	c.jalr	a5
2000885a:	bdc9                	c.j	2000872c <blc_l2cap_packet_receive+0x98>
2000885c:	000007b7          	lui	a5,0x0
20008860:	17878d93          	addi	s11,a5,376 # 178 <_AES_VMA_END>
20008864:	0bcda703          	lw	a4,188(s11)
20008868:	ec0702e3          	beqz	a4,2000872c <blc_l2cap_packet_receive+0x98>
2000886c:	46a9                	c.li	a3,10
2000886e:	7a4da983          	lw	s3,1956(s11)
20008872:	68dd8923          	sb	a3,1682(s11)
20008876:	ea098be3          	beqz	s3,2000872c <blc_l2cap_packet_receive+0x98>
2000887a:	4689                	c.li	a3,2
2000887c:	00d98023          	sb	a3,0(s3)
20008880:	4691                	c.li	a3,4
20008882:	00d99223          	sh	a3,4(s3)
20008886:	0064c603          	lbu	a2,6(s1)
2000888a:	05200693          	li	a3,82
2000888e:	e8c6efe3          	bltu	a3,a2,2000872c <blc_l2cap_packet_receive+0x98>
20008892:	2000e6b7          	lui	a3,0x2000e
20008896:	d3468693          	addi	a3,a3,-716 # 2000dd34 <__riscv_restore_0+0x4a>
2000889a:	0cc686db          	lea.w	a3,a3,a2
2000889e:	4294                	c.lw	a3,0(a3)
200088a0:	00068067          	jr	a3
200088a4:	00260413          	addi	s0,a2,2
200088a8:	00800633          	add	a2,zero,s0
200088ac:	00e580a3          	sb	a4,1(a1)
200088b0:	528020ef          	jal	ra,2000add8 <memcpy>
200088b4:	7a092783          	lw	a5,1952(s2)
200088b8:	00879023          	sh	s0,0(a5)
200088bc:	e71ff06f          	j	2000872c <blc_l2cap_packet_receive+0x98>
200088c0:	000007b7          	lui	a5,0x0
200088c4:	17878793          	addi	a5,a5,376 # 178 <_AES_VMA_END>
200088c8:	19c78683          	lb	a3,412(a5)
200088cc:	16778703          	lb	a4,359(a5)
200088d0:	ffb6f693          	andi	a3,a3,-5
200088d4:	00476713          	ori	a4,a4,4
200088d8:	1a07c603          	lbu	a2,416(a5)
200088dc:	18d78e23          	sb	a3,412(a5)
200088e0:	16e783a3          	sb	a4,359(a5)
200088e4:	e40614e3          	bnez	a2,2000872c <blc_l2cap_packet_receive+0x98>
200088e8:	0ff6f713          	andi	a4,a3,255
200088ec:	e40710e3          	bnez	a4,2000872c <blc_l2cap_packet_receive+0x98>
200088f0:	16b7c783          	lbu	a5,363(a5)
200088f4:	e2079ce3          	bnez	a5,2000872c <blc_l2cap_packet_receive+0x98>
200088f8:	89cff0ef          	jal	ra,20007994 <bls_smp_pairing_success.part.3>
200088fc:	e31ff06f          	j	2000872c <blc_l2cap_packet_receive+0x98>
20008900:	00000437          	lui	s0,0x0
20008904:	17840413          	addi	s0,s0,376 # 178 <_AES_VMA_END>
20008908:	19c40783          	lb	a5,412(s0)
2000890c:	4619                	c.li	a2,6
2000890e:	9bf5                	c.andi	a5,-3
20008910:	18f40e23          	sb	a5,412(s0)
20008914:	0074c783          	lbu	a5,7(s1)
20008918:	00848593          	addi	a1,s1,8
2000891c:	11240513          	addi	a0,s0,274
20008920:	10f408a3          	sb	a5,273(s0)
20008924:	4b4020ef          	jal	ra,2000add8 <memcpy>
20008928:	1a044783          	lbu	a5,416(s0)
2000892c:	e00790e3          	bnez	a5,2000872c <blc_l2cap_packet_receive+0x98>
20008930:	19c44783          	lbu	a5,412(s0)
20008934:	de079ce3          	bnez	a5,2000872c <blc_l2cap_packet_receive+0x98>
20008938:	16b44783          	lbu	a5,363(s0)
2000893c:	de0798e3          	bnez	a5,2000872c <blc_l2cap_packet_receive+0x98>
20008940:	fb9ff06f          	j	200088f8 <blc_l2cap_packet_receive+0x264>
20008944:	00000537          	lui	a0,0x0
20008948:	01000613          	li	a2,16
2000894c:	00748593          	addi	a1,s1,7
20008950:	2c050513          	addi	a0,a0,704 # 2c0 <smp_param_peer+0x40>
20008954:	484020ef          	jal	ra,2000add8 <memcpy>
20008958:	dd5ff06f          	j	2000872c <blc_l2cap_packet_receive+0x98>
2000895c:	000007b7          	lui	a5,0x0
20008960:	17878793          	addi	a5,a5,376 # 178 <_AES_VMA_END>
20008964:	19c78683          	lb	a3,412(a5)
20008968:	16778703          	lb	a4,359(a5)
2000896c:	9af9                	c.andi	a3,-2
2000896e:	00176713          	ori	a4,a4,1
20008972:	1a07c603          	lbu	a2,416(a5)
20008976:	18d78e23          	sb	a3,412(a5)
2000897a:	16e783a3          	sb	a4,359(a5)
2000897e:	d62d                	c.beqz	a2,200088e8 <blc_l2cap_packet_receive+0x254>
20008980:	dadff06f          	j	2000872c <blc_l2cap_packet_receive+0x98>
20008984:	0074c503          	lbu	a0,7(s1)
20008988:	e11fd0ef          	jal	ra,20006798 <blc_smp_procParingEnd>
2000898c:	da1ff06f          	j	2000872c <blc_l2cap_packet_receive+0x98>
20008990:	000007b7          	lui	a5,0x0
20008994:	17878d93          	addi	s11,a5,376 # 178 <_AES_VMA_END>
20008998:	164dc703          	lbu	a4,356(s11)
2000899c:	220708e3          	beqz	a4,200093cc <blc_l2cap_packet_receive+0xd38>
200089a0:	7d4da783          	lw	a5,2004(s11)
200089a4:	d80784e3          	beqz	a5,2000872c <blc_l2cap_packet_receive+0x98>
200089a8:	85a6                	c.mv	a1,s1
200089aa:	8522                	c.mv	a0,s0
200089ac:	9782                	c.jalr	a5
200089ae:	85aa                	c.mv	a1,a0
200089b0:	d6050ee3          	beqz	a0,2000872c <blc_l2cap_packet_receive+0x98>
200089b4:	00008537          	lui	a0,0x8
200089b8:	04050513          	addi	a0,a0,64 # 8040 <_RAMCODE_VMA_END+0x1d3e>
200089bc:	e10fe0ef          	jal	ra,20006fcc <bls_ll_pushTxFifo>
200089c0:	d6dff06f          	j	2000872c <blc_l2cap_packet_receive+0x98>
200089c4:	000007b7          	lui	a5,0x0
200089c8:	17878d93          	addi	s11,a5,376 # 178 <_AES_VMA_END>
200089cc:	01000613          	li	a2,16
200089d0:	00748593          	addi	a1,s1,7
200089d4:	128d8513          	addi	a0,s11,296
200089d8:	400020ef          	jal	ra,2000add8 <memcpy>
200089dc:	164dc703          	lbu	a4,356(s11)
200089e0:	eb11                	c.bnez	a4,200089f4 <blc_l2cap_packet_receive+0x360>
200089e2:	1a4da703          	lw	a4,420(s11)
200089e6:	0187775b          	bbc	a4,24,200089f4 <blc_l2cap_packet_receive+0x360>
200089ea:	020006b7          	lui	a3,0x2000
200089ee:	8f55                	c.or	a4,a3
200089f0:	1aeda223          	sw	a4,420(s11)
200089f4:	165dc703          	lbu	a4,357(s11)
200089f8:	0017645b          	bnec	a4,1,20008a00 <blc_l2cap_packet_receive+0x36c>
200089fc:	1ad0006f          	j	200093a8 <blc_l2cap_packet_receive+0xd14>
20008a00:	166dc703          	lbu	a4,358(s11)
20008a04:	0007765b          	bbc	a4,0,20008a10 <blc_l2cap_packet_receive+0x37c>
20008a08:	4017745b          	bbs	a4,1,20008a10 <blc_l2cap_packet_receive+0x37c>
20008a0c:	1b50006f          	j	200093c0 <blc_l2cap_packet_receive+0xd2c>
20008a10:	80140737          	lui	a4,0x80140
20008a14:	20072703          	lw	a4,512(a4) # 80140200 <_DATA_LMA_START+0x60131acc>
20008a18:	164dc703          	lbu	a4,356(s11)
20008a1c:	140704e3          	beqz	a4,20009364 <blc_l2cap_packet_receive+0xcd0>
20008a20:	7c0da703          	lw	a4,1984(s11)
20008a24:	c701                	c.beqz	a4,20008a2c <blc_l2cap_packet_receive+0x398>
20008a26:	450d                	c.li	a0,3
20008a28:	000700e7          	jalr	a4
20008a2c:	00001437          	lui	s0,0x1
20008a30:	93c40413          	addi	s0,s0,-1732 # 93c <smpOwnParingConfirm>
20008a34:	85a2                	c.mv	a1,s0
20008a36:	4641                	c.li	a2,16
20008a38:	673d8513          	addi	a0,s11,1651
20008a3c:	39c020ef          	jal	ra,2000add8 <memcpy>
20008a40:	06001737          	lui	a4,0x6001
20008a44:	11570713          	addi	a4,a4,277 # 6001115 <FLASH_SIZE+0x5f01115>
20008a48:	66eda6a3          	sw	a4,1645(s11)
20008a4c:	30000713          	li	a4,768
20008a50:	66ed98a3          	sh	a4,1649(s11)
20008a54:	66cd8593          	addi	a1,s11,1644
20008a58:	f5dff06f          	j	200089b4 <blc_l2cap_packet_receive+0x320>
20008a5c:	000007b7          	lui	a5,0x0
20008a60:	17878d93          	addi	s11,a5,376 # 178 <_AES_VMA_END>
20008a64:	00700613          	li	a2,7
20008a68:	00648593          	addi	a1,s1,6
20008a6c:	0e0d8513          	addi	a0,s11,224
20008a70:	368020ef          	jal	ra,2000add8 <memcpy>
20008a74:	1a8da703          	lw	a4,424(s11)
20008a78:	160da223          	sw	zero,356(s11)
20008a7c:	160d8423          	sb	zero,360(s11)
20008a80:	160d8523          	sb	zero,362(s11)
20008a84:	0007745b          	bbc	a4,0,20008a8c <blc_l2cap_packet_receive+0x3f8>
20008a88:	1b50006f          	j	2000943c <blc_l2cap_packet_receive+0xda8>
20008a8c:	158dc703          	lbu	a4,344(s11)
20008a90:	0017645b          	bnec	a4,1,20008a98 <blc_l2cap_packet_receive+0x404>
20008a94:	39d0006f          	j	20009630 <blc_l2cap_packet_receive+0xf9c>
20008a98:	0e4dc683          	lbu	a3,228(s11)
20008a9c:	4919                	c.li	s2,6
20008a9e:	2cd971e3          	bgeu	s2,a3,20009560 <blc_l2cap_packet_receive+0xecc>
20008aa2:	4641                	c.li	a2,16
20008aa4:	3ed664e3          	bltu	a2,a3,2000968c <blc_l2cap_packet_receive+0xff8>
20008aa8:	01000637          	lui	a2,0x1000
20008aac:	15adc683          	lbu	a3,346(s11)
20008ab0:	1acda223          	sw	a2,420(s11)
20008ab4:	c691                	c.beqz	a3,20008ac0 <blc_l2cap_packet_receive+0x42c>
20008ab6:	0e3d8683          	lb	a3,227(s11)
20008aba:	8a8d                	c.andi	a3,3
20008abc:	00d036b3          	snez	a3,a3
20008ac0:	0ead8603          	lb	a2,234(s11)
20008ac4:	16dd8423          	sb	a3,360(s11)
20008ac8:	4036745b          	bbs	a2,3,20008ad0 <blc_l2cap_packet_receive+0x43c>
20008acc:	1cd0006f          	j	20009498 <blc_l2cap_packet_receive+0xe04>
20008ad0:	0e3d8683          	lb	a3,227(s11)
20008ad4:	4036f45b          	bbs	a3,3,20008adc <blc_l2cap_packet_receive+0x448>
20008ad8:	1c10006f          	j	20009498 <blc_l2cap_packet_receive+0xe04>
20008adc:	0e9dc603          	lbu	a2,233(s11)
20008ae0:	0e2dc683          	lbu	a3,226(s11)
20008ae4:	0605                	c.addi	a2,1
20008ae6:	4585                	c.li	a1,1
20008ae8:	16bd8223          	sb	a1,356(s11)
20008aec:	9636                	c.add	a2,a3
20008aee:	8b3d                	c.andi	a4,15
20008af0:	4905                	c.li	s2,1
20008af2:	0016645b          	bnec	a2,1,20008afa <blc_l2cap_packet_receive+0x466>
20008af6:	1bf0006f          	j	200094b4 <blc_l2cap_packet_receive+0xe20>
20008afa:	4711                	c.li	a4,4
20008afc:	16ed82a3          	sb	a4,357(s11)
20008b00:	4689                	c.li	a3,2
20008b02:	7d4da703          	lw	a4,2004(s11)
20008b06:	0edd8623          	sb	a3,236(s11)
20008b0a:	0edd86a3          	sb	a3,237(s11)
20008b0e:	c709                	c.beqz	a4,20008b18 <blc_l2cap_packet_receive+0x484>
20008b10:	85a6                	c.mv	a1,s1
20008b12:	8522                	c.mv	a0,s0
20008b14:	000700e7          	jalr	a4
20008b18:	164dc903          	lbu	s2,356(s11)
20008b1c:	165dc483          	lbu	s1,357(s11)
20008b20:	7acd8413          	addi	s0,s11,1964
20008b24:	85a2                	c.mv	a1,s0
20008b26:	4541                	c.li	a0,16
20008b28:	afcfe0ef          	jal	ra,20006e24 <generateRandomNum>
20008b2c:	02091263          	bnez	s2,20008b50 <blc_l2cap_packet_receive+0x4bc>
20008b30:	00800633          	add	a2,zero,s0
20008b34:	0d0d8713          	addi	a4,s11,208
20008b38:	0e0d8593          	addi	a1,s11,224
20008b3c:	00060683          	lb	a3,0(a2) # 1000000 <FLASH_SIZE+0xf00000>
20008b40:	0705                	c.addi	a4,1
20008b42:	0556c693          	xori	a3,a3,85
20008b46:	fed70fa3          	sb	a3,-1(a4)
20008b4a:	0605                	c.addi	a2,1
20008b4c:	fee598e3          	bne	a1,a4,20008b3c <blc_l2cap_packet_receive+0x4a8>
20008b50:	0ecd8683          	lb	a3,236(s11)
20008b54:	0e5d8583          	lb	a1,229(s11)
20008b58:	0edd8703          	lb	a4,237(s11)
20008b5c:	0e6d8603          	lb	a2,230(s11)
20008b60:	8eed                	c.and	a3,a1
20008b62:	0ff6f693          	andi	a3,a3,255
20008b66:	8f71                	c.and	a4,a2
20008b68:	0ff77713          	andi	a4,a4,255
20008b6c:	0edd8623          	sb	a3,236(s11)
20008b70:	18dd8e23          	sb	a3,412(s11)
20008b74:	801406b7          	lui	a3,0x80140
20008b78:	0eed86a3          	sb	a4,237(s11)
20008b7c:	1aed8023          	sb	a4,416(s11)
20008b80:	00100713          	li	a4,1
20008b84:	2006a683          	lw	a3,512(a3) # 80140200 <_DATA_LMA_START+0x60131acc>
20008b88:	16ed84a3          	sb	a4,361(s11)
20008b8c:	0044e45b          	bnec	s1,4,20008b94 <blc_l2cap_packet_receive+0x500>
20008b90:	3810006f          	j	20009710 <blc_l2cap_packet_receive+0x107c>
20008b94:	0024e45b          	bnec	s1,2,20008b9c <blc_l2cap_packet_receive+0x508>
20008b98:	3e10006f          	j	20009778 <blc_l2cap_packet_receive+0x10e4>
20008b9c:	0034e45b          	bnec	s1,3,20008ba4 <blc_l2cap_packet_receive+0x510>
20008ba0:	4bd0006f          	j	2000985c <blc_l2cap_packet_receive+0x11c8>
20008ba4:	4705                	c.li	a4,1
20008ba6:	18ed82a3          	sb	a4,389(s11)
20008baa:	80140737          	lui	a4,0x80140
20008bae:	20072703          	lw	a4,512(a4) # 80140200 <_DATA_LMA_START+0x60131acc>
20008bb2:	471d                	c.li	a4,7
20008bb4:	0e7d8593          	addi	a1,s11,231
20008bb8:	00700613          	li	a2,7
20008bbc:	672d8513          	addi	a0,s11,1650
20008bc0:	66ed9723          	sh	a4,1646(s11)
20008bc4:	214020ef          	jal	ra,2000add8 <memcpy>
20008bc8:	66ed8703          	lb	a4,1646(s11)
20008bcc:	4689                	c.li	a3,2
20008bce:	0711                	c.addi	a4,4
20008bd0:	66ed86a3          	sb	a4,1645(s11)
20008bd4:	4719                	c.li	a4,6
20008bd6:	66dd8923          	sb	a3,1650(s11)
20008bda:	66ed9823          	sh	a4,1648(s11)
20008bde:	66cd8593          	addi	a1,s11,1644
20008be2:	bbc9                	c.j	200089b4 <blc_l2cap_packet_receive+0x320>
20008be4:	4659                	c.li	a2,22
20008be6:	0074d683          	lhu	a3,7(s1)
20008bea:	68cd87a3          	sb	a2,1679(s11)
20008bee:	0074d603          	lhu	a2,7(s1)
20008bf2:	68cd9823          	sh	a2,1680(s11)
20008bf6:	78068d63          	beqz	a3,20009390 <blc_l2cap_packet_receive+0xcfc>
20008bfa:	00075603          	lhu	a2,0(a4)
20008bfe:	78d66963          	bltu	a2,a3,20009390 <blc_l2cap_packet_receive+0xcfc>
20008c02:	4661                	c.li	a2,24
20008c04:	c4c6977f          	maddr32	a4,a3,a2
20008c08:	00274503          	lbu	a0,2(a4)
20008c0c:	4015745b          	bbs	a0,1,20008c14 <blc_l2cap_packet_receive+0x580>
20008c10:	4010006f          	j	20009810 <blc_l2cap_packet_receive+0x117c>
20008c14:	0f057713          	andi	a4,a0,240
20008c18:	5e071ae3          	bnez	a4,20009a0c <blc_l2cap_packet_receive+0x1378>
20008c1c:	00a4c903          	lbu	s2,10(s1)
20008c20:	0094c703          	lbu	a4,9(s1)
20008c24:	7e4da503          	lw	a0,2020(s11)
20008c28:	0922                	c.slli	s2,0x8
20008c2a:	993a                	c.add	s2,a4
20008c2c:	5a0506e3          	beqz	a0,200099d8 <blc_l2cap_packet_receive+0x1344>
20008c30:	00091a63          	bnez	s2,20008c44 <blc_l2cap_packet_receive+0x5b0>
20008c34:	4725                	c.li	a4,9
20008c36:	4625                	c.li	a2,9
20008c38:	009005b3          	add	a1,zero,s1
20008c3c:	7eed9423          	sh	a4,2024(s11)
20008c40:	198020ef          	jal	ra,2000add8 <memcpy>
20008c44:	7e8d9703          	lh	a4,2024(s11)
20008c48:	00249603          	lh	a2,2(s1)
20008c4c:	176d                	c.addi	a4,-5
20008c4e:	7eadd683          	lhu	a3,2026(s11)
20008c52:	9732                	c.add	a4,a2
20008c54:	3c07275b          	bfoz	a4,a4,15,0
20008c58:	7eed9423          	sh	a4,2024(s11)
20008c5c:	ffe68693          	addi	a3,a3,-2
20008c60:	5ad754e3          	bge	a4,a3,20009a08 <blc_l2cap_packet_receive+0x1374>
20008c64:	0024d603          	lhu	a2,2(s1)
20008c68:	7e4da703          	lw	a4,2020(s11)
20008c6c:	00990513          	addi	a0,s2,9
20008c70:	00b48593          	addi	a1,s1,11
20008c74:	166d                	c.addi	a2,-5
20008c76:	e319                	c.bnez	a4,20008c7c <blc_l2cap_packet_receive+0x5e8>
20008c78:	7b10006f          	j	20009c28 <blc_l2cap_packet_receive+0x1594>
20008c7c:	00e50533          	add	a0,a0,a4
20008c80:	158020ef          	jal	ra,2000add8 <memcpy>
20008c84:	7e4da983          	lw	s3,2020(s11)
20008c88:	00249703          	lh	a4,2(s1)
20008c8c:	00748593          	addi	a1,s1,7
20008c90:	1779                	c.addi	a4,-2
20008c92:	993a                	c.add	s2,a4
20008c94:	01299123          	sh	s2,2(s3)
20008c98:	0024d903          	lhu	s2,2(s1)
20008c9c:	475d                	c.li	a4,23
20008c9e:	89a6                	c.mv	s3,s1
20008ca0:	00b12623          	sw	a1,12(sp)
20008ca4:	00e48323          	sb	a4,6(s1)
20008ca8:	181d8703          	lb	a4,385(s11)
20008cac:	0ff77713          	andi	a4,a4,255
20008cb0:	0087545b          	beqc	a4,8,20008cb8 <blc_l2cap_packet_receive+0x624>
20008cb4:	6240006f          	j	200092d8 <blc_l2cap_packet_receive+0xc44>
20008cb8:	185d8703          	lb	a4,389(s11)
20008cbc:	0ff77713          	andi	a4,a4,255
20008cc0:	60071c63          	bnez	a4,200092d8 <blc_l2cap_packet_receive+0xc44>
20008cc4:	0049d583          	lhu	a1,4(s3)
20008cc8:	6721                	c.lui	a4,0x8
20008cca:	ca2e                	c.swsp	a1,20(sp)
20008ccc:	00698593          	addi	a1,s3,6
20008cd0:	197d                	c.addi	s2,-1
20008cd2:	cc2e                	c.swsp	a1,24(sp)
20008cd4:	8c59                	c.or	s0,a4
20008cd6:	60090563          	beqz	s2,200092e0 <blc_l2cap_packet_receive+0xc4c>
20008cda:	5f205763          	blez	s2,200092c8 <blc_l2cap_packet_receive+0xc34>
20008cde:	7dadd703          	lhu	a4,2010(s11)
20008ce2:	4c85                	c.li	s9,1
20008ce4:	24edc483          	lbu	s1,590(s11)
20008ce8:	40ec85b3          	sub	a1,s9,a4
20008cec:	fff70b93          	addi	s7,a4,-1 # 7fff <_RAMCODE_VMA_END+0x1cfd>
20008cf0:	8c4a                	c.mv	s8,s2
20008cf2:	864a                	c.mv	a2,s2
20008cf4:	4a01                	c.li	s4,0
20008cf6:	4681                	c.li	a3,0
20008cf8:	00b12823          	sw	a1,16(sp)
20008cfc:	f176077f          	minw	a4,a2,s7
20008d00:	0711                	c.addi	a4,4
20008d02:	02974733          	div	a4,a4,s1
20008d06:	45c2                	c.lwsp	a1,16(sp)
20008d08:	96de                	c.add	a3,s7
20008d0a:	962e                	c.add	a2,a1
20008d0c:	0705                	c.addi	a4,1
20008d0e:	9a3a                	c.add	s4,a4
20008d10:	ff26c6e3          	blt	a3,s2,20008cfc <blc_l2cap_packet_receive+0x668>
20008d14:	dfffb097          	auipc	ra,0xdfffb
20008d18:	bb4080e7          	jalr	-1100(ra) # 38c8 <blc_ll_getTxFifoNumber>
20008d1c:	2f0dc703          	lbu	a4,752(s11)
20008d20:	9552                	c.add	a0,s4
20008d22:	5ae55b63          	bge	a0,a4,200092d8 <blc_l2cap_packet_receive+0xc44>
20008d26:	4a32                	c.lwsp	s4,12(sp)
20008d28:	ffb48593          	addi	a1,s1,-5
20008d2c:	03010a93          	addi	s5,sp,48
20008d30:	4b05                	c.li	s6,1
20008d32:	ce2e                	c.swsp	a1,28(sp)
20008d34:	45f2                	c.lwsp	a1,28(sp)
20008d36:	f17c09ff          	minw	s3,s8,s7
20008d3a:	00198693          	addi	a3,s3,1
20008d3e:	f0b98d7f          	minw	s10,s3,a1
20008d42:	02d11923          	sh	a3,50(sp)
20008d46:	45e2                	c.lwsp	a1,24(sp)
20008d48:	46d2                	c.lwsp	a3,20(sp)
20008d4a:	005d0813          	addi	a6,s10,5
20008d4e:	4709                	c.li	a4,2
20008d50:	00100613          	li	a2,1
20008d54:	03610513          	addi	a0,sp,54
20008d58:	02d11a23          	sh	a3,52(sp)
20008d5c:	02e10823          	sb	a4,48(sp)
20008d60:	030108a3          	sb	a6,49(sp)
20008d64:	dfff8097          	auipc	ra,0xdfff8
20008d68:	604080e7          	jalr	1540(ra) # 1368 <smemcpy>
20008d6c:	85d2                	c.mv	a1,s4
20008d6e:	03710513          	addi	a0,sp,55
20008d72:	866a                	c.mv	a2,s10
20008d74:	dfff8097          	auipc	ra,0xdfff8
20008d78:	5f4080e7          	jalr	1524(ra) # 1368 <smemcpy>
20008d7c:	01cda683          	lw	a3,28(s11)
20008d80:	85d6                	c.mv	a1,s5
20008d82:	8522                	c.mv	a0,s0
20008d84:	000680e7          	jalr	a3
20008d88:	033d5e63          	bge	s10,s3,20008dc4 <blc_l2cap_packet_receive+0x730>
20008d8c:	41a98cb3          	sub	s9,s3,s10
20008d90:	f09c887f          	minw	a6,s9,s1
20008d94:	014d05b3          	add	a1,s10,s4
20008d98:	01000633          	add	a2,zero,a6
20008d9c:	03210513          	addi	a0,sp,50
20008da0:	030108a3          	sb	a6,49(sp)
20008da4:	03610823          	sb	s6,48(sp)
20008da8:	dfff8097          	auipc	ra,0xdfff8
20008dac:	5c0080e7          	jalr	1472(ra) # 1368 <smemcpy>
20008db0:	01cda603          	lw	a2,28(s11)
20008db4:	85d6                	c.mv	a1,s5
20008db6:	8522                	c.mv	a0,s0
20008db8:	9d26                	c.add	s10,s1
20008dba:	9602                	c.jalr	a2
20008dbc:	409c8cb3          	sub	s9,s9,s1
20008dc0:	fd3d48e3          	blt	s10,s3,20008d90 <blc_l2cap_packet_receive+0x6fc>
20008dc4:	45b2                	c.lwsp	a1,12(sp)
20008dc6:	9a5e                	c.add	s4,s7
20008dc8:	40ba0733          	sub	a4,s4,a1
20008dcc:	45c2                	c.lwsp	a1,16(sp)
20008dce:	9c2e                	c.add	s8,a1
20008dd0:	f72742e3          	blt	a4,s2,20008d34 <blc_l2cap_packet_receive+0x6a0>
20008dd4:	959ff06f          	j	2000872c <blc_l2cap_packet_receive+0x98>
20008dd8:	0074d683          	lhu	a3,7(s1)
20008ddc:	68cd87a3          	sb	a2,1679(s11)
20008de0:	0074d603          	lhu	a2,7(s1)
20008de4:	68cd9823          	sh	a2,1680(s11)
20008de8:	00075603          	lhu	a2,0(a4)
20008dec:	52d66a63          	bltu	a2,a3,20009320 <blc_l2cap_packet_receive+0xc8c>
20008df0:	4661                	c.li	a2,24
20008df2:	c4c6977f          	maddr32	a4,a3,a2
20008df6:	00274503          	lbu	a0,2(a4)
20008dfa:	893a                	c.mv	s2,a4
20008dfc:	0015745b          	bbc	a0,1,20008e04 <blc_l2cap_packet_receive+0x770>
20008e00:	0550006f          	j	20009654 <blc_l2cap_packet_receive+0xfc0>
20008e04:	00300713          	li	a4,3
20008e08:	68ed8923          	sb	a4,1682(s11)
20008e0c:	0064c703          	lbu	a4,6(s1)
20008e10:	4127645b          	bnec	a4,82,20008e18 <blc_l2cap_packet_receive+0x784>
20008e14:	919ff06f          	j	2000872c <blc_l2cap_packet_receive+0x98>
20008e18:	688d8993          	addi	s3,s11,1672
20008e1c:	00798593          	addi	a1,s3,7
20008e20:	68add903          	lhu	s2,1674(s11)
20008e24:	c62e                	c.swsp	a1,12(sp)
20008e26:	b549                	c.j	20008ca8 <blc_l2cap_packet_receive+0x614>
20008e28:	00b4c683          	lbu	a3,11(s1)
20008e2c:	00c4c703          	lbu	a4,12(s1)
20008e30:	0074d903          	lhu	s2,7(s1)
20008e34:	0722                	c.slli	a4,0x8
20008e36:	8f55                	c.or	a4,a3
20008e38:	3c07375b          	bfos	a4,a4,15,0
20008e3c:	801406b7          	lui	a3,0x80140
20008e40:	2006a683          	lw	a3,512(a3) # 80140200 <_DATA_LMA_START+0x60131acc>
20008e44:	3c072bdb          	bfoz	s7,a4,15,0
20008e48:	0094db03          	lhu	s6,9(s1)
20008e4c:	03711823          	sh	s7,48(sp)
20008e50:	50090663          	beqz	s2,2000935c <blc_l2cap_packet_receive+0xcc8>
20008e54:	512b6463          	bltu	s6,s2,2000935c <blc_l2cap_packet_receive+0xcc8>
20008e58:	76f9                	c.lui	a3,0xffffe
20008e5a:	80068693          	addi	a3,a3,-2048 # ffffd800 <_DATA_LMA_START+0xdffef0cc>
20008e5e:	96de                	c.add	a3,s7
20008e60:	3c06a6db          	bfoz	a3,a3,15,0
20008e64:	4605                	c.li	a2,1
20008e66:	0ed67be3          	bgeu	a2,a3,2000975c <blc_l2cap_packet_receive+0x10c8>
20008e6a:	668d                	c.lui	a3,0x3
20008e6c:	80368693          	addi	a3,a3,-2045 # 2803 <rf_set_ble_channel+0x37>
20008e70:	0edb86e3          	beq	s7,a3,2000975c <blc_l2cap_packet_receive+0x10c8>
20008e74:	01000713          	li	a4,16
20008e78:	68ed8923          	sb	a4,1682(s11)
20008e7c:	01000713          	li	a4,16
20008e80:	68ed87a3          	sb	a4,1679(s11)
20008e84:	0074d703          	lhu	a4,7(s1)
20008e88:	688d8993          	addi	s3,s11,1672
20008e8c:	68ed9823          	sh	a4,1680(s11)
20008e90:	00798593          	addi	a1,s3,7
20008e94:	c62e                	c.swsp	a1,12(sp)
20008e96:	0029d903          	lhu	s2,2(s3)
20008e9a:	b539                	c.j	20008ca8 <blc_l2cap_packet_receive+0x614>
20008e9c:	0074d683          	lhu	a3,7(s1)
20008ea0:	68cd87a3          	sb	a2,1679(s11)
20008ea4:	0074d603          	lhu	a2,7(s1)
20008ea8:	68cd9823          	sh	a2,1680(s11)
20008eac:	00075603          	lhu	a2,0(a4)
20008eb0:	46d66863          	bltu	a2,a3,20009320 <blc_l2cap_packet_receive+0xc8c>
20008eb4:	4661                	c.li	a2,24
20008eb6:	c4c6977f          	maddr32	a4,a3,a2
20008eba:	00274503          	lbu	a0,2(a4)
20008ebe:	893a                	c.mv	s2,a4
20008ec0:	4005745b          	bbs	a0,0,20008ec8 <blc_l2cap_packet_receive+0x834>
20008ec4:	0350006f          	j	200096f8 <blc_l2cap_packet_receive+0x1064>
20008ec8:	0f057713          	andi	a4,a0,240
20008ecc:	160712e3          	bnez	a4,20009830 <blc_l2cap_packet_receive+0x119c>
20008ed0:	01492703          	lw	a4,20(s2)
20008ed4:	cb01                	c.beqz	a4,20008ee4 <blc_l2cap_packet_receive+0x850>
20008ed6:	85a6                	c.mv	a1,s1
20008ed8:	8522                	c.mv	a0,s0
20008eda:	9702                	c.jalr	a4
20008edc:	0015645b          	bnec	a0,1,20008ee4 <blc_l2cap_packet_receive+0x850>
20008ee0:	84dff06f          	j	2000872c <blc_l2cap_packet_receive+0x98>
20008ee4:	00c92583          	lw	a1,12(s2)
20008ee8:	00492703          	lw	a4,4(s2)
20008eec:	00394683          	lbu	a3,3(s2)
20008ef0:	0026e45b          	bnec	a3,2,20008ef8 <blc_l2cap_packet_receive+0x864>
20008ef4:	2b50006f          	j	200099a8 <blc_l2cap_packet_receive+0x1314>
20008ef8:	0064c683          	lbu	a3,6(s1)
20008efc:	00c6e45b          	bnec	a3,12,20008f04 <blc_l2cap_packet_receive+0x870>
20008f00:	28d0006f          	j	2000998c <blc_l2cap_packet_receive+0x12f8>
20008f04:	00b00693          	li	a3,11
20008f08:	00d98323          	sb	a3,6(s3)
20008f0c:	7dadd483          	lhu	s1,2010(s11)
20008f10:	149740e3          	blt	a4,s1,20009850 <blc_l2cap_packet_receive+0x11bc>
20008f14:	fff48493          	addi	s1,s1,-1
20008f18:	00798613          	addi	a2,s3,7
20008f1c:	8532                	c.mv	a0,a2
20008f1e:	c632                	c.swsp	a2,12(sp)
20008f20:	00148913          	addi	s2,s1,1
20008f24:	00900633          	add	a2,zero,s1
20008f28:	6b1010ef          	jal	ra,2000add8 <memcpy>
20008f2c:	3c09295b          	bfoz	s2,s2,15,0
20008f30:	00490713          	addi	a4,s2,4
20008f34:	01299123          	sh	s2,2(s3)
20008f38:	00e980a3          	sb	a4,1(s3)
20008f3c:	d6dff06f          	j	20008ca8 <blc_l2cap_packet_receive+0x614>
20008f40:	1a8da783          	lw	a5,424(s11)
20008f44:	4117f45b          	bbs	a5,17,20008f4c <blc_l2cap_packet_receive+0x8b8>
20008f48:	fe4ff06f          	j	2000872c <blc_l2cap_packet_receive+0x98>
20008f4c:	4601                	c.li	a2,0
20008f4e:	4581                	c.li	a1,0
20008f50:	01100513          	li	a0,17
20008f54:	da0fd0ef          	jal	ra,200064f4 <blc_gap_send_event>
20008f58:	fd4ff06f          	j	2000872c <blc_l2cap_packet_receive+0x98>
20008f5c:	00749703          	lh	a4,7(s1)
20008f60:	801406b7          	lui	a3,0x80140
20008f64:	2006a683          	lw	a3,512(a3) # 80140200 <_DATA_LMA_START+0x60131acc>
20008f68:	02e11623          	sh	a4,44(sp)
20008f6c:	00b48593          	addi	a1,s1,11
20008f70:	0094d903          	lhu	s2,9(s1)
20008f74:	0024d703          	lhu	a4,2(s1)
20008f78:	0157645b          	bnec	a4,21,20008f80 <blc_l2cap_packet_receive+0x8ec>
20008f7c:	6800006f          	j	200095fc <blc_l2cap_packet_receive+0xf68>
20008f80:	03010a93          	addi	s5,sp,48
20008f84:	4609                	c.li	a2,2
20008f86:	8556                	c.mv	a0,s5
20008f88:	651010ef          	jal	ra,2000add8 <memcpy>
20008f8c:	0074d603          	lhu	a2,7(s1)
20008f90:	0094d683          	lhu	a3,9(s1)
20008f94:	00c6b733          	sltu	a4,a3,a2
20008f98:	68ed8923          	sb	a4,1682(s11)
20008f9c:	2ac6f463          	bgeu	a3,a2,20009244 <blc_l2cap_packet_receive+0xbb0>
20008fa0:	e701                	c.bnez	a4,20008fa8 <blc_l2cap_packet_receive+0x914>
20008fa2:	4729                	c.li	a4,10
20008fa4:	68ed8923          	sb	a4,1682(s11)
20008fa8:	4721                	c.li	a4,8
20008faa:	68ed87a3          	sb	a4,1679(s11)
20008fae:	02c11703          	lh	a4,44(sp)
20008fb2:	688d8993          	addi	s3,s11,1672
20008fb6:	68ed9823          	sh	a4,1680(s11)
20008fba:	bdd9                	c.j	20008e90 <blc_l2cap_packet_receive+0x7fc>
20008fbc:	801406b7          	lui	a3,0x80140
20008fc0:	2006a683          	lw	a3,512(a3) # 80140200 <_DATA_LMA_START+0x60131acc>
20008fc4:	0074da83          	lhu	s5,7(s1)
20008fc8:	360a8863          	beqz	s5,20009338 <blc_l2cap_packet_receive+0xca4>
20008fcc:	0094d803          	lhu	a6,9(s1)
20008fd0:	37586463          	bltu	a6,s5,20009338 <blc_l2cap_packet_receive+0xca4>
20008fd4:	00c4cc83          	lbu	s9,12(s1)
20008fd8:	00b4c683          	lbu	a3,11(s1)
20008fdc:	0ca2                	c.slli	s9,0x8
20008fde:	7a79                	c.lui	s4,0xffffe
20008fe0:	00dcecb3          	or	s9,s9,a3
20008fe4:	3c0cbcdb          	bfos	s9,s9,15,0
20008fe8:	3c0ca5db          	bfoz	a1,s9,15,0
20008fec:	800a0a13          	addi	s4,s4,-2048 # ffffd800 <_DATA_LMA_START+0xdffef0cc>
20008ff0:	9a2e                	c.add	s4,a1
20008ff2:	cc2e                	c.swsp	a1,24(sp)
20008ff4:	00d48613          	addi	a2,s1,13
20008ff8:	0085db13          	srli	s6,a1,0x8
20008ffc:	8956                	c.mv	s2,s5
20008ffe:	3c0a25db          	bfoz	a1,s4,15,0
20009002:	4b81                	c.li	s7,0
20009004:	0ffcfc93          	andi	s9,s9,255
20009008:	ca32                	c.swsp	a2,20(sp)
2000900a:	ce2e                	c.swsp	a1,28(sp)
2000900c:	00249303          	lh	t1,2(s1)
20009010:	00075683          	lhu	a3,0(a4)
20009014:	ff930313          	addi	t1,t1,-7
20009018:	3c032a5b          	bfoz	s4,t1,15,0
2000901c:	6b26e863          	bltu	a3,s2,200096cc <blc_l2cap_packet_receive+0x1038>
20009020:	3c082c5b          	bfoz	s8,a6,15,0
20009024:	0106f463          	bgeu	a3,a6,2000902c <blc_l2cap_packet_receive+0x998>
20009028:	3c06ac5b          	bfoz	s8,a3,15,0
2000902c:	6b2c6063          	bltu	s8,s2,200096cc <blc_l2cap_packet_receive+0x1038>
20009030:	4d61                	c.li	s10,24
20009032:	a809                	c.j	20009044 <blc_l2cap_packet_receive+0x9b0>
20009034:	00190913          	addi	s2,s2,1
20009038:	3c09295b          	bfoz	s2,s2,15,0
2000903c:	692c6863          	bltu	s8,s2,200096cc <blc_l2cap_packet_receive+0x1038>
20009040:	0bcda703          	lw	a4,188(s11)
20009044:	c5a9177f          	maddr32	a4,s2,s10
20009048:	4714                	c.lw	a3,8(a4)
2000904a:	0006c603          	lbu	a2,0(a3)
2000904e:	ff9613e3          	bne	a2,s9,20009034 <blc_l2cap_packet_receive+0x9a0>
20009052:	0016c683          	lbu	a3,1(a3)
20009056:	fd669fe3          	bne	a3,s6,20009034 <blc_l2cap_packet_receive+0x9a0>
2000905a:	4354                	c.lw	a3,4(a4)
2000905c:	fd46ece3          	bltu	a3,s4,20009034 <blc_l2cap_packet_receive+0x9a0>
20009060:	474c                	c.lw	a1,12(a4)
20009062:	4552                	c.lwsp	a0,20(sp)
20009064:	8652                	c.mv	a2,s4
20009066:	c842                	c.swsp	a6,16(sp)
20009068:	00e12623          	sw	a4,12(sp)
2000906c:	51d010ef          	jal	ra,2000ad88 <memcmp>
20009070:	4732                	c.lwsp	a4,12(sp)
20009072:	4842                	c.lwsp	a6,16(sp)
20009074:	f161                	c.bnez	a0,20009034 <blc_l2cap_packet_receive+0x9a0>
20009076:	45f2                	c.lwsp	a1,28(sp)
20009078:	4685                	c.li	a3,1
2000907a:	22b6f963          	bgeu	a3,a1,200092ac <blc_l2cap_packet_receive+0xc18>
2000907e:	668d                	c.lui	a3,0x3
20009080:	45e2                	c.lwsp	a1,24(sp)
20009082:	80368693          	addi	a3,a3,-2045 # 2803 <rf_set_ble_channel+0x37>
20009086:	854a                	c.mv	a0,s2
20009088:	22d58263          	beq	a1,a3,200092ac <blc_l2cap_packet_receive+0xc18>
2000908c:	64070063          	beqz	a4,200096cc <blc_l2cap_packet_receive+0x1038>
20009090:	7dadd703          	lhu	a4,2010(s11)
20009094:	001b9693          	slli	a3,s7,0x1
20009098:	1771                	c.addi	a4,-4
2000909a:	62e6d963          	bge	a3,a4,200096cc <blc_l2cap_packet_receive+0x1038>
2000909e:	001b8713          	addi	a4,s7,1 # 40000001 <_DATA_LMA_START+0x1fff18cd>
200090a2:	96ce                	c.add	a3,s3
200090a4:	0507275b          	bfoz	a4,a4,1,16
200090a8:	012693a3          	sh	s2,7(a3)
200090ac:	974e                	c.add	a4,s3
200090ae:	00150913          	addi	s2,a0,1
200090b2:	0b89                	c.addi	s7,2
200090b4:	00a713a3          	sh	a0,7(a4)
200090b8:	3c09295b          	bfoz	s2,s2,15,0
200090bc:	3c0babdb          	bfoz	s7,s7,15,0
200090c0:	61286663          	bltu	a6,s2,200096cc <blc_l2cap_packet_receive+0x1038>
200090c4:	0bcda703          	lw	a4,188(s11)
200090c8:	f45ff06f          	j	2000900c <blc_l2cap_packet_receive+0x978>
200090cc:	801406b7          	lui	a3,0x80140
200090d0:	2006a683          	lw	a3,512(a3) # 80140200 <_DATA_LMA_START+0x60131acc>
200090d4:	0094d683          	lhu	a3,9(s1)
200090d8:	00075a83          	lhu	s5,0(a4)
200090dc:	0074d483          	lhu	s1,7(s1)
200090e0:	0156f463          	bgeu	a3,s5,200090e8 <blc_l2cap_packet_receive+0xa54>
200090e4:	00d00ab3          	add	s5,zero,a3
200090e8:	369ae663          	bltu	s5,s1,20009454 <blc_l2cap_packet_receive+0xdc0>
200090ec:	7dadd603          	lhu	a2,2010(s11)
200090f0:	46cd                	c.li	a3,19
200090f2:	36c6f163          	bgeu	a3,a2,20009454 <blc_l2cap_packet_receive+0xdc0>
200090f6:	4585                	c.li	a1,1
200090f8:	4681                	c.li	a3,0
200090fa:	4901                	c.li	s2,0
200090fc:	4b61                	c.li	s6,24
200090fe:	a089                	c.j	20009140 <blc_l2cap_packet_receive+0xaac>
20009100:	4710                	c.lw	a2,8(a4)
20009102:	96ce                	c.add	a3,s3
20009104:	00064503          	lbu	a0,0(a2)
20009108:	00390613          	addi	a2,s2,3
2000910c:	00a68423          	sb	a0,8(a3)
20009110:	4714                	c.lw	a3,8(a4)
20009112:	00c98733          	add	a4,s3,a2
20009116:	0016c683          	lbu	a3,1(a3)
2000911a:	0911                	c.addi	s2,4
2000911c:	00d70423          	sb	a3,8(a4)
20009120:	00400713          	li	a4,4
20009124:	0485                	c.addi	s1,1
20009126:	3c04a4db          	bfoz	s1,s1,15,0
2000912a:	349ae363          	bltu	s5,s1,20009470 <blc_l2cap_packet_receive+0xddc>
2000912e:	7dadd683          	lhu	a3,2010(s11)
20009132:	974a                	c.add	a4,s2
20009134:	16fd                	c.addi	a3,-1
20009136:	32d75d63          	bge	a4,a3,20009470 <blc_l2cap_packet_receive+0xddc>
2000913a:	0bcda703          	lw	a4,188(s11)
2000913e:	86d2                	c.mv	a3,s4
20009140:	c564977f          	maddr32	a4,s1,s6
20009144:	00374a03          	lbu	s4,3(a4)
20009148:	00068463          	beqz	a3,20009150 <blc_l2cap_packet_receive+0xabc>
2000914c:	30da1263          	bne	s4,a3,20009450 <blc_l2cap_packet_receive+0xdbc>
20009150:	012986b3          	add	a3,s3,s2
20009154:	0084d613          	srli	a2,s1,0x8
20009158:	00968423          	sb	s1,8(a3)
2000915c:	00c684a3          	sb	a2,9(a3)
20009160:	00290693          	addi	a3,s2,2
20009164:	00374603          	lbu	a2,3(a4)
20009168:	b8265c5b          	beqc	a2,2,20009100 <blc_l2cap_packet_receive+0xa6c>
2000916c:	470c                	c.lw	a1,8(a4)
2000916e:	00a90513          	addi	a0,s2,10
20009172:	954e                	c.add	a0,s3
20009174:	465010ef          	jal	ra,2000add8 <memcpy>
20009178:	0949                	c.addi	s2,18
2000917a:	4589                	c.li	a1,2
2000917c:	4749                	c.li	a4,18
2000917e:	b75d                	c.j	20009124 <blc_l2cap_packet_receive+0xa90>
20009180:	7e0d80a3          	sb	zero,2017(s11)
20009184:	0024d703          	lhu	a4,2(s1)
20009188:	0037645b          	bnec	a4,3,20009190 <blc_l2cap_packet_receive+0xafc>
2000918c:	3f80006f          	j	20009584 <blc_l2cap_packet_receive+0xef0>
20009190:	4711                	c.li	a4,4
20009192:	68ed8923          	sb	a4,1682(s11)
20009196:	0064c703          	lbu	a4,6(s1)
2000919a:	68fd8593          	addi	a1,s11,1679
2000919e:	68add903          	lhu	s2,1674(s11)
200091a2:	68ed87a3          	sb	a4,1679(s11)
200091a6:	c62e                	c.swsp	a1,12(sp)
200091a8:	688d8993          	addi	s3,s11,1672
200091ac:	afdff06f          	j	20008ca8 <blc_l2cap_packet_receive+0x614>
200091b0:	6741                	c.lui	a4,0x10
200091b2:	50270713          	addi	a4,a4,1282 # 10502 <BIN_SIZE+0x1d12>
200091b6:	d83a                	c.swsp	a4,48(sp)
200091b8:	4711                	c.li	a4,4
200091ba:	02e11a23          	sh	a4,52(sp)
200091be:	461d                	c.li	a2,7
200091c0:	4765                	c.li	a4,25
200091c2:	180c                	c.addi4spn	a1,sp,48
200091c4:	01300533          	add	a0,zero,s3
200091c8:	02e10b23          	sb	a4,54(sp)
200091cc:	40d010ef          	jal	ra,2000add8 <memcpy>
200091d0:	0074c703          	lbu	a4,7(s1)
200091d4:	8a176e5b          	bnec	a4,1,20008e90 <blc_l2cap_packet_receive+0x7fc>
200091d8:	7e4da583          	lw	a1,2020(s11)
200091dc:	64058663          	beqz	a1,20009828 <blc_l2cap_packet_receive+0x1194>
200091e0:	4661                	c.li	a2,24
200091e2:	0075d683          	lhu	a3,7(a1)
200091e6:	0bcda703          	lw	a4,188(s11)
200091ea:	68cd87a3          	sb	a2,1679(s11)
200091ee:	0075d603          	lhu	a2,7(a1)
200091f2:	68cd9823          	sh	a2,1680(s11)
200091f6:	00075603          	lhu	a2,0(a4)
200091fa:	52d66b63          	bltu	a2,a3,20009730 <blc_l2cap_packet_receive+0x109c>
200091fe:	4661                	c.li	a2,24
20009200:	c4c6977f          	maddr32	a4,a3,a2
20009204:	4b14                	c.lw	a3,16(a4)
20009206:	280687e3          	beqz	a3,20009c94 <blc_l2cap_packet_receive+0x1600>
2000920a:	8522                	c.mv	a0,s0
2000920c:	9682                	c.jalr	a3
2000920e:	b149                	c.j	20008e90 <blc_l2cap_packet_receive+0x7fc>
20009210:	000007b7          	lui	a5,0x0
20009214:	17878d93          	addi	s11,a5,376 # 178 <_AES_VMA_END>
20009218:	164dc703          	lbu	a4,356(s11)
2000921c:	f8071263          	bnez	a4,200089a0 <blc_l2cap_packet_receive+0x30c>
20009220:	00700513          	li	a0,7
20009224:	d74fd0ef          	jal	ra,20006798 <blc_smp_procParingEnd>
20009228:	4709                	c.li	a4,2
2000922a:	66ed9723          	sh	a4,1646(s11)
2000922e:	70500713          	li	a4,1797
20009232:	66ed9923          	sh	a4,1650(s11)
20009236:	4719                	c.li	a4,6
20009238:	66ed86a3          	sb	a4,1645(s11)
2000923c:	66cd8593          	addi	a1,s11,1644
20009240:	f74ff06f          	j	200089b4 <blc_l2cap_packet_receive+0x320>
20009244:	03014703          	lbu	a4,48(sp)
20009248:	00200493          	li	s1,2
2000924c:	0037645b          	bnec	a4,3,20009254 <blc_l2cap_packet_receive+0xbc0>
20009250:	62c0006f          	j	2000987c <blc_l2cap_packet_receive+0x11e8>
20009254:	02c15503          	lhu	a0,44(sp)
20009258:	1074                	c.addi4spn	a3,sp,44
2000925a:	8656                	c.mv	a2,s5
2000925c:	012005b3          	add	a1,zero,s2
20009260:	b38fd0ef          	jal	ra,20006598 <l2cap_att_search>
20009264:	4e050663          	beqz	a0,20009750 <blc_l2cap_packet_receive+0x10bc>
20009268:	00354703          	lbu	a4,3(a0)
2000926c:	cc971063          	bne	a4,s1,2000872c <blc_l2cap_packet_receive+0x98>
20009270:	02c15703          	lhu	a4,44(sp)
20009274:	0bcda683          	lw	a3,188(s11)
20009278:	4661                	c.li	a2,24
2000927a:	c4c716ff          	maddr32	a3,a4,a2
2000927e:	00268683          	lb	a3,2(a3)
20009282:	0716f693          	andi	a3,a3,113
20009286:	100691e3          	bnez	a3,20009b88 <blc_l2cap_packet_receive+0x14f4>
2000928a:	4689                	c.li	a3,2
2000928c:	68dd8923          	sb	a3,1682(s11)
20009290:	68fd8593          	addi	a1,s11,1679
20009294:	46a1                	c.li	a3,8
20009296:	68dd87a3          	sb	a3,1679(s11)
2000929a:	68ed9823          	sh	a4,1680(s11)
2000929e:	68add903          	lhu	s2,1674(s11)
200092a2:	c62e                	c.swsp	a1,12(sp)
200092a4:	688d8993          	addi	s3,s11,1672
200092a8:	a01ff06f          	j	20008ca8 <blc_l2cap_packet_receive+0x614>
200092ac:	0bcda683          	lw	a3,188(s11)
200092b0:	4662                	c.lwsp	a2,24(sp)
200092b2:	0006d583          	lhu	a1,0(a3)
200092b6:	854a                	c.mv	a0,s2
200092b8:	c83a                	c.swsp	a4,16(sp)
200092ba:	c642                	c.swsp	a6,12(sp)
200092bc:	a50fd0ef          	jal	ra,2000650c <att_Find_end_group>
200092c0:	4832                	c.lwsp	a6,12(sp)
200092c2:	4742                	c.lwsp	a4,16(sp)
200092c4:	dc9ff06f          	j	2000908c <blc_l2cap_packet_receive+0x9f8>
200092c8:	dfffa097          	auipc	ra,0xdfffa
200092cc:	600080e7          	jalr	1536(ra) # 38c8 <blc_ll_getTxFifoNumber>
200092d0:	2f0dc703          	lbu	a4,752(s11)
200092d4:	c4e56c63          	bltu	a0,a4,2000872c <blc_l2cap_packet_receive+0x98>
200092d8:	7d3dae23          	sw	s3,2012(s11)
200092dc:	c50ff06f          	j	2000872c <blc_l2cap_packet_receive+0x98>
200092e0:	dfffa097          	auipc	ra,0xdfffa
200092e4:	5e8080e7          	jalr	1512(ra) # 38c8 <blc_ll_getTxFifoNumber>
200092e8:	2f0dc703          	lbu	a4,752(s11)
200092ec:	0505                	c.addi	a0,1
200092ee:	fee555e3          	bge	a0,a4,200092d8 <blc_l2cap_packet_receive+0xc44>
200092f2:	45e2                	c.lwsp	a1,24(sp)
200092f4:	46d2                	c.lwsp	a3,20(sp)
200092f6:	6741                	c.lui	a4,0x10
200092f8:	03610513          	addi	a0,sp,54
200092fc:	50270713          	addi	a4,a4,1282 # 10502 <BIN_SIZE+0x1d12>
20009300:	4605                	c.li	a2,1
20009302:	d83a                	c.swsp	a4,48(sp)
20009304:	02d11a23          	sh	a3,52(sp)
20009308:	dfff8097          	auipc	ra,0xdfff8
2000930c:	060080e7          	jalr	96(ra) # 1368 <smemcpy>
20009310:	01cda783          	lw	a5,28(s11)
20009314:	180c                	c.addi4spn	a1,sp,48
20009316:	8522                	c.mv	a0,s0
20009318:	000780e7          	jalr	a5
2000931c:	c10ff06f          	j	2000872c <blc_l2cap_packet_receive+0x98>
20009320:	688d8993          	addi	s3,s11,1672
20009324:	4705                	c.li	a4,1
20009326:	00798593          	addi	a1,s3,7
2000932a:	68ed8923          	sb	a4,1682(s11)
2000932e:	68add903          	lhu	s2,1674(s11)
20009332:	c62e                	c.swsp	a1,12(sp)
20009334:	975ff06f          	j	20008ca8 <blc_l2cap_packet_receive+0x614>
20009338:	00100713          	li	a4,1
2000933c:	68ed8923          	sb	a4,1682(s11)
20009340:	4719                	c.li	a4,6
20009342:	68fd8593          	addi	a1,s11,1679
20009346:	68ed87a3          	sb	a4,1679(s11)
2000934a:	695d9823          	sh	s5,1680(s11)
2000934e:	68add903          	lhu	s2,1674(s11)
20009352:	c62e                	c.swsp	a1,12(sp)
20009354:	688d8993          	addi	s3,s11,1672
20009358:	951ff06f          	j	20008ca8 <blc_l2cap_packet_receive+0x614>
2000935c:	4705                	c.li	a4,1
2000935e:	68ed8923          	sb	a4,1682(s11)
20009362:	be29                	c.j	20008e7c <blc_l2cap_packet_receive+0x7e8>
20009364:	1a4da703          	lw	a4,420(s11)
20009368:	0197765b          	bbc	a4,25,20009374 <blc_l2cap_packet_receive+0xce0>
2000936c:	00876713          	ori	a4,a4,8
20009370:	1aeda223          	sw	a4,420(s11)
20009374:	7c4d8413          	addi	s0,s11,1988
20009378:	0efdc683          	lbu	a3,239(s11)
2000937c:	109dc603          	lbu	a2,265(s11)
20009380:	7acd8593          	addi	a1,s11,1964
20009384:	00800533          	add	a0,zero,s0
20009388:	b28fd0ef          	jal	ra,200066b0 <blt_smp_alg_c1.constprop.1>
2000938c:	ea8ff06f          	j	20008a34 <blc_l2cap_packet_receive+0x3a0>
20009390:	00100713          	li	a4,1
20009394:	68ed8923          	sb	a4,1682(s11)
20009398:	68fd8593          	addi	a1,s11,1679
2000939c:	68add903          	lhu	s2,1674(s11)
200093a0:	c62e                	c.swsp	a1,12(sp)
200093a2:	688d8993          	addi	s3,s11,1672
200093a6:	b209                	c.j	20008ca8 <blc_l2cap_packet_receive+0x614>
200093a8:	7bcdc683          	lbu	a3,1980(s11)
200093ac:	e4069a63          	bnez	a3,20008a00 <blc_l2cap_packet_receive+0x36c>
200093b0:	1a8da683          	lw	a3,424(s11)
200093b4:	16ed8323          	sb	a4,358(s11)
200093b8:	0096f45b          	bbc	a3,9,200093c0 <blc_l2cap_packet_receive+0xd2c>
200093bc:	5a40006f          	j	20009960 <blc_l2cap_packet_receive+0x12cc>
200093c0:	00476713          	ori	a4,a4,4
200093c4:	16ed8323          	sb	a4,358(s11)
200093c8:	b64ff06f          	j	2000872c <blc_l2cap_packet_receive+0x98>
200093cc:	118d8413          	addi	s0,s11,280
200093d0:	4641                	c.li	a2,16
200093d2:	00748593          	addi	a1,s1,7
200093d6:	8522                	c.mv	a0,s0
200093d8:	201010ef          	jal	ra,2000add8 <memcpy>
200093dc:	109dc603          	lbu	a2,265(s11)
200093e0:	0efdc683          	lbu	a3,239(s11)
200093e4:	85a2                	c.mv	a1,s0
200093e6:	1808                	c.addi4spn	a0,sp,48
200093e8:	d802                	c.swsp	zero,48(sp)
200093ea:	da02                	c.swsp	zero,52(sp)
200093ec:	dc02                	c.swsp	zero,56(sp)
200093ee:	de02                	c.swsp	zero,60(sp)
200093f0:	ac0fd0ef          	jal	ra,200066b0 <blt_smp_alg_c1.constprop.1>
200093f4:	4641                	c.li	a2,16
200093f6:	180c                	c.addi4spn	a1,sp,48
200093f8:	128d8513          	addi	a0,s11,296
200093fc:	18d010ef          	jal	ra,2000ad88 <memcmp>
20009400:	2a051463          	bnez	a0,200096a8 <blc_l2cap_packet_receive+0x1014>
20009404:	80140737          	lui	a4,0x80140
20009408:	20072703          	lw	a4,512(a4) # 80140200 <_DATA_LMA_START+0x60131acc>
2000940c:	164dc703          	lbu	a4,356(s11)
20009410:	3c070e63          	beqz	a4,200097ec <blc_l2cap_packet_receive+0x1158>
20009414:	7c0da703          	lw	a4,1984(s11)
20009418:	c701                	c.beqz	a4,20009420 <blc_l2cap_packet_receive+0xd8c>
2000941a:	4511                	c.li	a0,4
2000941c:	000700e7          	jalr	a4
20009420:	06001737          	lui	a4,0x6001
20009424:	11570713          	addi	a4,a4,277 # 6001115 <FLASH_SIZE+0x5f01115>
20009428:	66eda6a3          	sw	a4,1645(s11)
2000942c:	40000713          	li	a4,1024
20009430:	66ed98a3          	sh	a4,1649(s11)
20009434:	66cd8593          	addi	a1,s11,1644
20009438:	d7cff06f          	j	200089b4 <blc_l2cap_packet_receive+0x320>
2000943c:	04000713          	li	a4,64
20009440:	4611                	c.li	a2,4
20009442:	180c                	c.addi4spn	a1,sp,48
20009444:	4501                	c.li	a0,0
20009446:	d83a                	c.swsp	a4,48(sp)
20009448:	8acfd0ef          	jal	ra,200064f4 <blc_gap_send_event>
2000944c:	e40ff06f          	j	20008a8c <blc_l2cap_packet_receive+0x3f8>
20009450:	02091063          	bnez	s2,20009470 <blc_l2cap_packet_receive+0xddc>
20009454:	4711                	c.li	a4,4
20009456:	68fd8593          	addi	a1,s11,1679
2000945a:	68ed87a3          	sb	a4,1679(s11)
2000945e:	689d9823          	sh	s1,1680(s11)
20009462:	68add903          	lhu	s2,1674(s11)
20009466:	c62e                	c.swsp	a1,12(sp)
20009468:	688d8993          	addi	s3,s11,1672
2000946c:	83dff06f          	j	20008ca8 <blc_l2cap_packet_receive+0x614>
20009470:	0909                	c.addi	s2,2
20009472:	3c09295b          	bfoz	s2,s2,15,0
20009476:	00490713          	addi	a4,s2,4
2000947a:	00e980a3          	sb	a4,1(s3)
2000947e:	00b983a3          	sb	a1,7(s3)
20009482:	4715                	c.li	a4,5
20009484:	00798593          	addi	a1,s3,7
20009488:	01299123          	sh	s2,2(s3)
2000948c:	00e98323          	sb	a4,6(s3)
20009490:	00b12623          	sw	a1,12(sp)
20009494:	815ff06f          	j	20008ca8 <blc_l2cap_packet_receive+0x614>
20009498:	0e9dc603          	lbu	a2,233(s11)
2000949c:	0e2dc683          	lbu	a3,226(s11)
200094a0:	160d8223          	sb	zero,356(s11)
200094a4:	96b2                	c.add	a3,a2
200094a6:	4605                	c.li	a2,1
200094a8:	8b3d                	c.andi	a4,15
200094aa:	28d64b63          	blt	a2,a3,20009740 <blc_l2cap_packet_receive+0x10ac>
200094ae:	4901                	c.li	s2,0
200094b0:	00000613          	li	a2,0
200094b4:	0e8da683          	lw	a3,232(s11)
200094b8:	0e0da583          	lw	a1,224(s11)
200094bc:	4926a6db          	bfoz	a3,a3,18,18
200094c0:	69a5a5db          	bfoz	a1,a1,26,26
200094c4:	8ecd                	c.or	a3,a1
200094c6:	14068d63          	beqz	a3,20009620 <blc_l2cap_packet_receive+0xf8c>
200094ca:	0e8dc583          	lbu	a1,232(s11)
200094ce:	4511                	c.li	a0,4
200094d0:	14b54863          	blt	a0,a1,20009620 <blc_l2cap_packet_receive+0xf8c>
200094d4:	0e1dc683          	lbu	a3,225(s11)
200094d8:	14d54463          	blt	a0,a3,20009620 <blc_l2cap_packet_receive+0xf8c>
200094dc:	ea15                	c.bnez	a2,20009510 <blc_l2cap_packet_receive+0xe7c>
200094de:	4615                	c.li	a2,5
200094e0:	c4c596ff          	maddr32	a3,a1,a2
200094e4:	2000e637          	lui	a2,0x2000e
200094e8:	fc060613          	addi	a2,a2,-64 # 2000dfc0 <gen_method_legacy>
200094ec:	0cd606db          	lea.w	a3,a2,a3
200094f0:	0006a683          	lw	a3,0(a3)
200094f4:	16dd82a3          	sb	a3,357(s11)
200094f8:	0487505b          	beqc	a4,8,20009538 <blc_l2cap_packet_receive+0xea4>
200094fc:	165dc483          	lbu	s1,357(s11)
20009500:	00300713          	li	a4,3
20009504:	0eed8623          	sb	a4,236(s11)
20009508:	0eed86a3          	sb	a4,237(s11)
2000950c:	e14ff06f          	j	20008b20 <blc_l2cap_packet_receive+0x48c>
20009510:	00500613          	li	a2,5
20009514:	c4c596ff          	maddr32	a3,a1,a2
20009518:	2000e637          	lui	a2,0x2000e
2000951c:	02460613          	addi	a2,a2,36 # 2000e024 <gen_method_sc>
20009520:	0cd606db          	lea.w	a3,a2,a3
20009524:	0006c683          	lbu	a3,0(a3)
20009528:	16dd82a3          	sb	a3,357(s11)
2000952c:	dc069a63          	bnez	a3,20008b00 <blc_l2cap_packet_receive+0x46c>
20009530:	0087545b          	beqc	a4,8,20009538 <blc_l2cap_packet_receive+0xea4>
20009534:	dccff06f          	j	20008b00 <blc_l2cap_packet_receive+0x46c>
20009538:	08200513          	li	a0,130
2000953c:	a5cfd0ef          	jal	ra,20006798 <blc_smp_procParingEnd>
20009540:	4709                	c.li	a4,2
20009542:	66ed9723          	sh	a4,1646(s11)
20009546:	6705                	c.lui	a4,0x1
20009548:	80570713          	addi	a4,a4,-2043 # 805 <pkt_errRsp+0x5>
2000954c:	66ed9923          	sh	a4,1650(s11)
20009550:	00600713          	li	a4,6
20009554:	66ed86a3          	sb	a4,1645(s11)
20009558:	66cd8593          	addi	a1,s11,1644
2000955c:	c58ff06f          	j	200089b4 <blc_l2cap_packet_receive+0x320>
20009560:	00600513          	li	a0,6
20009564:	a34fd0ef          	jal	ra,20006798 <blc_smp_procParingEnd>
20009568:	00200713          	li	a4,2
2000956c:	66ed9723          	sh	a4,1646(s11)
20009570:	60500713          	li	a4,1541
20009574:	66ed9923          	sh	a4,1650(s11)
20009578:	672d86a3          	sb	s2,1645(s11)
2000957c:	66cd8593          	addi	a1,s11,1644
20009580:	c34ff06f          	j	200089b4 <blc_l2cap_packet_receive+0x320>
20009584:	00000993          	li	s3,0
20009588:	00266c5b          	bnec	a2,2,200095a0 <blc_l2cap_packet_receive+0xf0c>
2000958c:	7d8dd703          	lhu	a4,2008(s11)
20009590:	794d8993          	addi	s3,s11,1940
20009594:	00875693          	srli	a3,a4,0x8
20009598:	78ed8da3          	sb	a4,1947(s11)
2000959c:	78dd8e23          	sb	a3,1948(s11)
200095a0:	0074c683          	lbu	a3,7(s1)
200095a4:	0084c703          	lbu	a4,8(s1)
200095a8:	4659                	c.li	a2,22
200095aa:	0722                	c.slli	a4,0x8
200095ac:	8f55                	c.or	a4,a3
200095ae:	46dd                	c.li	a3,23
200095b0:	00e67863          	bgeu	a2,a4,200095c0 <blc_l2cap_packet_receive+0xf2c>
200095b4:	7d8dd683          	lhu	a3,2008(s11)
200095b8:	00d77463          	bgeu	a4,a3,200095c0 <blc_l2cap_packet_receive+0xf2c>
200095bc:	00e006b3          	add	a3,zero,a4
200095c0:	1a8da603          	lw	a2,424(s11)
200095c4:	7cdd9d23          	sh	a3,2010(s11)
200095c8:	41067c5b          	bbs	a2,16,200095e0 <blc_l2cap_packet_receive+0xf4c>
200095cc:	96098063          	beqz	s3,2000872c <blc_l2cap_packet_receive+0x98>
200095d0:	00798593          	addi	a1,s3,7
200095d4:	0029d903          	lhu	s2,2(s3)
200095d8:	00b12623          	sw	a1,12(sp)
200095dc:	eccff06f          	j	20008ca8 <blc_l2cap_packet_receive+0x614>
200095e0:	4619                	c.li	a2,6
200095e2:	180c                	c.addi4spn	a1,sp,48
200095e4:	01000513          	li	a0,16
200095e8:	02811823          	sh	s0,48(sp)
200095ec:	02e11923          	sh	a4,50(sp)
200095f0:	02d11a23          	sh	a3,52(sp)
200095f4:	f01fc0ef          	jal	ra,200064f4 <blc_gap_send_event>
200095f8:	fd5ff06f          	j	200095cc <blc_l2cap_packet_receive+0xf38>
200095fc:	03010a93          	addi	s5,sp,48
20009600:	4641                	c.li	a2,16
20009602:	8556                	c.mv	a0,s5
20009604:	7d4010ef          	jal	ra,2000add8 <memcpy>
20009608:	0074d603          	lhu	a2,7(s1)
2000960c:	0094d683          	lhu	a3,9(s1)
20009610:	44c1                	c.li	s1,16
20009612:	00c6b733          	sltu	a4,a3,a2
20009616:	68ed8923          	sb	a4,1682(s11)
2000961a:	c2c6fde3          	bgeu	a3,a2,20009254 <blc_l2cap_packet_receive+0xbc0>
2000961e:	b249                	c.j	20008fa0 <blc_l2cap_packet_receive+0x90c>
20009620:	160d82a3          	sb	zero,357(s11)
20009624:	b0875a5b          	beqc	a4,8,20009538 <blc_l2cap_packet_receive+0xea4>
20009628:	ec060ae3          	beqz	a2,200094fc <blc_l2cap_packet_receive+0xe68>
2000962c:	cd4ff06f          	j	20008b00 <blc_l2cap_packet_receive+0x46c>
20009630:	00500513          	li	a0,5
20009634:	964fd0ef          	jal	ra,20006798 <blc_smp_procParingEnd>
20009638:	4709                	c.li	a4,2
2000963a:	66ed9723          	sh	a4,1646(s11)
2000963e:	50500713          	li	a4,1285
20009642:	66ed9923          	sh	a4,1650(s11)
20009646:	4719                	c.li	a4,6
20009648:	66ed86a3          	sb	a4,1645(s11)
2000964c:	66cd8593          	addi	a1,s11,1644
20009650:	b64ff06f          	j	200089b4 <blc_l2cap_packet_receive+0x320>
20009654:	0f057713          	andi	a4,a0,240
20009658:	30071c63          	bnez	a4,20009970 <blc_l2cap_packet_receive+0x12dc>
2000965c:	0064c703          	lbu	a4,6(s1)
20009660:	0127645b          	bnec	a4,18,20009668 <blc_l2cap_packet_receive+0xfd4>
20009664:	5800006f          	j	20009be4 <blc_l2cap_packet_receive+0x1550>
20009668:	01092703          	lw	a4,16(s2)
2000966c:	5e070a63          	beqz	a4,20009c60 <blc_l2cap_packet_receive+0x15cc>
20009670:	85a6                	c.mv	a1,s1
20009672:	8522                	c.mv	a0,s0
20009674:	9702                	c.jalr	a4
20009676:	e119                	c.bnez	a0,2000967c <blc_l2cap_packet_receive+0xfe8>
20009678:	8b4ff06f          	j	2000872c <blc_l2cap_packet_receive+0x98>
2000967c:	68ad8923          	sb	a0,1682(s11)
20009680:	0064c703          	lbu	a4,6(s1)
20009684:	d1276a5b          	bnec	a4,82,20009398 <blc_l2cap_packet_receive+0xd04>
20009688:	8a4ff06f          	j	2000872c <blc_l2cap_packet_receive+0x98>
2000968c:	4709                	c.li	a4,2
2000968e:	66ed9723          	sh	a4,1646(s11)
20009692:	6705                	c.lui	a4,0x1
20009694:	a0570713          	addi	a4,a4,-1531 # a05 <app_acl_txfifo+0x81>
20009698:	66ed9923          	sh	a4,1650(s11)
2000969c:	672d86a3          	sb	s2,1645(s11)
200096a0:	66cd8593          	addi	a1,s11,1644
200096a4:	b10ff06f          	j	200089b4 <blc_l2cap_packet_receive+0x320>
200096a8:	00400513          	li	a0,4
200096ac:	8ecfd0ef          	jal	ra,20006798 <blc_smp_procParingEnd>
200096b0:	4709                	c.li	a4,2
200096b2:	66ed9723          	sh	a4,1646(s11)
200096b6:	40500713          	li	a4,1029
200096ba:	66ed9923          	sh	a4,1650(s11)
200096be:	4719                	c.li	a4,6
200096c0:	66ed86a3          	sb	a4,1645(s11)
200096c4:	66cd8593          	addi	a1,s11,1644
200096c8:	aecff06f          	j	200089b4 <blc_l2cap_packet_receive+0x320>
200096cc:	c60b8ae3          	beqz	s7,20009340 <blc_l2cap_packet_receive+0xcac>
200096d0:	001b9913          	slli	s2,s7,0x1
200096d4:	0905                	c.addi	s2,1
200096d6:	3c09295b          	bfoz	s2,s2,15,0
200096da:	00490713          	addi	a4,s2,4
200096de:	00e980a3          	sb	a4,1(s3)
200096e2:	00798593          	addi	a1,s3,7
200096e6:	471d                	c.li	a4,7
200096e8:	01299123          	sh	s2,2(s3)
200096ec:	00e98323          	sb	a4,6(s3)
200096f0:	00b12623          	sw	a1,12(sp)
200096f4:	db4ff06f          	j	20008ca8 <blc_l2cap_packet_receive+0x614>
200096f8:	688d8993          	addi	s3,s11,1672
200096fc:	4709                	c.li	a4,2
200096fe:	00798593          	addi	a1,s3,7
20009702:	68ed8923          	sb	a4,1682(s11)
20009706:	68add903          	lhu	s2,1674(s11)
2000970a:	c62e                	c.swsp	a1,12(sp)
2000970c:	d9cff06f          	j	20008ca8 <blc_l2cap_packet_receive+0x614>
20009710:	1a8da683          	lw	a3,424(s11)
20009714:	16ed8323          	sb	a4,358(s11)
20009718:	40a6f45b          	bbs	a3,10,20009720 <blc_l2cap_packet_receive+0x108c>
2000971c:	c88ff06f          	j	20008ba4 <blc_l2cap_packet_receive+0x510>
20009720:	4601                	c.li	a2,0
20009722:	4581                	c.li	a1,0
20009724:	00a00513          	li	a0,10
20009728:	dcdfc0ef          	jal	ra,200064f4 <blc_gap_send_event>
2000972c:	c78ff06f          	j	20008ba4 <blc_l2cap_packet_receive+0x510>
20009730:	00100713          	li	a4,1
20009734:	688d8993          	addi	s3,s11,1672
20009738:	68ed8923          	sb	a4,1682(s11)
2000973c:	f54ff06f          	j	20008e90 <blc_l2cap_packet_receive+0x7fc>
20009740:	4691                	c.li	a3,4
20009742:	16dd82a3          	sb	a3,357(s11)
20009746:	9e87595b          	beqc	a4,8,20009538 <blc_l2cap_packet_receive+0xea4>
2000974a:	4901                	c.li	s2,0
2000974c:	4491                	c.li	s1,4
2000974e:	bb4d                	c.j	20009500 <blc_l2cap_packet_receive+0xe6c>
20009750:	000983a3          	sb	zero,7(s3)
20009754:	692dc703          	lbu	a4,1682(s11)
20009758:	849ff06f          	j	20008fa0 <blc_l2cap_packet_receive+0x90c>
2000975c:	0024d683          	lhu	a3,2(s1)
20009760:	2b56dc5b          	beqc	a3,21,20009a18 <blc_l2cap_packet_receive+0x1384>
20009764:	0076e45b          	bnec	a3,7,2000976c <blc_l2cap_packet_receive+0x10d8>
20009768:	4b80006f          	j	20009c20 <blc_l2cap_packet_receive+0x158c>
2000976c:	00d00713          	li	a4,13
20009770:	68ed8923          	sb	a4,1682(s11)
20009774:	f08ff06f          	j	20008e7c <blc_l2cap_packet_receive+0x7e8>
20009778:	16cda703          	lw	a4,364(s11)
2000977c:	780726db          	bfoz	a3,a4,30,0
20009780:	02d12623          	sw	a3,44(sp)
20009784:	00075863          	bgez	a4,20009794 <blc_l2cap_packet_receive+0x1100>
20009788:	000f4737          	lui	a4,0xf4
2000978c:	23f70713          	addi	a4,a4,575 # f423f <_STACK_TOP+0x5423f>
20009790:	4ad75463          	bge	a4,a3,20009c38 <blc_l2cap_packet_receive+0x15a4>
20009794:	02c10b13          	addi	s6,sp,44
20009798:	85da                	c.mv	a1,s6
2000979a:	4511                	c.li	a0,4
2000979c:	e88fd0ef          	jal	ra,20006e24 <generateRandomNum>
200097a0:	5732                	c.lwsp	a4,44(sp)
200097a2:	66e1                	c.lui	a3,0x18
200097a4:	6a068693          	addi	a3,a3,1696 # 186a0 <BIN_SIZE+0x9eb0>
200097a8:	9736                	c.add	a4,a3
200097aa:	000f46b7          	lui	a3,0xf4
200097ae:	0c0d8413          	addi	s0,s11,192
200097b2:	23f68693          	addi	a3,a3,575 # f423f <_STACK_TOP+0x5423f>
200097b6:	8f75                	c.and	a4,a3
200097b8:	4641                	c.li	a2,16
200097ba:	4581                	c.li	a1,0
200097bc:	8522                	c.mv	a0,s0
200097be:	d63a                	c.swsp	a4,44(sp)
200097c0:	712010ef          	jal	ra,2000aed2 <memset>
200097c4:	4611                	c.li	a2,4
200097c6:	85da                	c.mv	a1,s6
200097c8:	00800533          	add	a0,zero,s0
200097cc:	60c010ef          	jal	ra,2000add8 <memcpy>
200097d0:	1a8da703          	lw	a4,424(s11)
200097d4:	4087745b          	bbs	a4,8,200097dc <blc_l2cap_packet_receive+0x1148>
200097d8:	bccff06f          	j	20008ba4 <blc_l2cap_packet_receive+0x510>
200097dc:	4611                	c.li	a2,4
200097de:	85da                	c.mv	a1,s6
200097e0:	00800513          	li	a0,8
200097e4:	d11fc0ef          	jal	ra,200064f4 <blc_gap_send_event>
200097e8:	bbcff06f          	j	20008ba4 <blc_l2cap_packet_receive+0x510>
200097ec:	1a4da703          	lw	a4,420(s11)
200097f0:	0037765b          	bbc	a4,3,200097fc <blc_l2cap_packet_receive+0x1168>
200097f4:	01076713          	ori	a4,a4,16
200097f8:	1aeda223          	sw	a4,420(s11)
200097fc:	01000613          	li	a2,16
20009800:	7acd8593          	addi	a1,s11,1964
20009804:	673d8513          	addi	a0,s11,1651
20009808:	5d0010ef          	jal	ra,2000add8 <memcpy>
2000980c:	c15ff06f          	j	20009420 <blc_l2cap_packet_receive+0xd8c>
20009810:	688d8993          	addi	s3,s11,1672
20009814:	470d                	c.li	a4,3
20009816:	00798593          	addi	a1,s3,7
2000981a:	68ed8923          	sb	a4,1682(s11)
2000981e:	68add903          	lhu	s2,1674(s11)
20009822:	c62e                	c.swsp	a1,12(sp)
20009824:	c84ff06f          	j	20008ca8 <blc_l2cap_packet_receive+0x614>
20009828:	694d8593          	addi	a1,s11,1684
2000982c:	9b5ff06f          	j	200091e0 <blc_l2cap_packet_receive+0xb4c>
20009830:	c55fc0ef          	jal	ra,20006484 <blc_gatt_requestServiceAccess.constprop.4>
20009834:	e8050e63          	beqz	a0,20008ed0 <blc_l2cap_packet_receive+0x83c>
20009838:	688d8993          	addi	s3,s11,1672
2000983c:	00798593          	addi	a1,s3,7
20009840:	68ad8923          	sb	a0,1682(s11)
20009844:	68add903          	lhu	s2,1674(s11)
20009848:	00b12623          	sw	a1,12(sp)
2000984c:	c5cff06f          	j	20008ca8 <blc_l2cap_packet_receive+0x614>
20009850:	00000493          	li	s1,0
20009854:	f29704ff          	maxw	s1,a4,s1
20009858:	ec0ff06f          	j	20008f18 <blc_l2cap_packet_receive+0x884>
2000985c:	1a8da683          	lw	a3,424(s11)
20009860:	16ed8323          	sb	a4,358(s11)
20009864:	4096f45b          	bbs	a3,9,2000986c <blc_l2cap_packet_receive+0x11d8>
20009868:	b3cff06f          	j	20008ba4 <blc_l2cap_packet_receive+0x510>
2000986c:	4601                	c.li	a2,0
2000986e:	4581                	c.li	a1,0
20009870:	00900513          	li	a0,9
20009874:	c81fc0ef          	jal	ra,200064f4 <blc_gap_send_event>
20009878:	b2cff06f          	j	20008ba4 <blc_l2cap_packet_receive+0x510>
2000987c:	03114703          	lbu	a4,49(sp)
20009880:	008754db          	beqc	a4,40,20009888 <blc_l2cap_packet_receive+0x11f4>
20009884:	9d1ff06f          	j	20009254 <blc_l2cap_packet_receive+0xbc0>
20009888:	4a01                	c.li	s4,0
2000988a:	4481                	c.li	s1,0
2000988c:	02c10b13          	addi	s6,sp,44
20009890:	0a40006f          	j	20009934 <blc_l2cap_packet_receive+0x12a0>
20009894:	000a0663          	beqz	s4,200098a0 <blc_l2cap_packet_receive+0x120c>
20009898:	01bbc703          	lbu	a4,27(s7)
2000989c:	0b471863          	bne	a4,s4,2000994c <blc_l2cap_packet_receive+0x12b8>
200098a0:	7dadd703          	lhu	a4,2010(s11)
200098a4:	009a06b3          	add	a3,s4,s1
200098a8:	0691                	c.addi	a3,4
200098aa:	1779                	c.addi	a4,-2
200098ac:	0ae6d063          	bge	a3,a4,2000994c <blc_l2cap_packet_receive+0x12b8>
200098b0:	02c15603          	lhu	a2,44(sp)
200098b4:	00148693          	addi	a3,s1,1
200098b8:	00160513          	addi	a0,a2,1
200098bc:	3c05255b          	bfoz	a0,a0,15,0
200098c0:	02a11623          	sh	a0,44(sp)
200098c4:	00998733          	add	a4,s3,s1
200098c8:	3c06a6db          	bfoz	a3,a3,15,0
200098cc:	00c70423          	sb	a2,8(a4)
200098d0:	96ce                	c.add	a3,s3
200098d2:	00068423          	sb	zero,8(a3)
200098d6:	00cba703          	lw	a4,12(s7)
200098da:	00248593          	addi	a1,s1,2
200098de:	00074703          	lbu	a4,0(a4)
200098e2:	3c05a5db          	bfoz	a1,a1,15,0
200098e6:	95ce                	c.add	a1,s3
200098e8:	00348693          	addi	a3,s1,3
200098ec:	00e58423          	sb	a4,8(a1)
200098f0:	0609                	c.addi	a2,2
200098f2:	00448713          	addi	a4,s1,4
200098f6:	3c06a6db          	bfoz	a3,a3,15,0
200098fa:	02c11623          	sh	a2,44(sp)
200098fe:	96ce                	c.add	a3,s3
20009900:	0495                	c.addi	s1,5
20009902:	3c07275b          	bfoz	a4,a4,15,0
20009906:	00a68423          	sb	a0,8(a3)
2000990a:	3c04a4db          	bfoz	s1,s1,15,0
2000990e:	974e                	c.add	a4,s3
20009910:	00070423          	sb	zero,8(a4)
20009914:	00848513          	addi	a0,s1,8
20009918:	01bbc603          	lbu	a2,27(s7)
2000991c:	020ba583          	lw	a1,32(s7)
20009920:	01350533          	add	a0,a0,s3
20009924:	4b4010ef          	jal	ra,2000add8 <memcpy>
20009928:	01bbca03          	lbu	s4,27(s7)
2000992c:	014484b3          	add	s1,s1,s4
20009930:	3c04a4db          	bfoz	s1,s1,15,0
20009934:	02c15503          	lhu	a0,44(sp)
20009938:	86da                	c.mv	a3,s6
2000993a:	8656                	c.mv	a2,s5
2000993c:	012005b3          	add	a1,zero,s2
20009940:	c59fc0ef          	jal	ra,20006598 <l2cap_att_search>
20009944:	00a00bb3          	add	s7,zero,a0
20009948:	f40516e3          	bnez	a0,20009894 <blc_l2cap_packet_receive+0x1200>
2000994c:	005a0a13          	addi	s4,s4,5
20009950:	014983a3          	sb	s4,7(s3)
20009954:	26049863          	bnez	s1,20009bc4 <blc_l2cap_packet_receive+0x1530>
20009958:	692dc703          	lbu	a4,1682(s11)
2000995c:	e44ff06f          	j	20008fa0 <blc_l2cap_packet_receive+0x90c>
20009960:	4601                	c.li	a2,0
20009962:	4581                	c.li	a1,0
20009964:	00900513          	li	a0,9
20009968:	b8dfc0ef          	jal	ra,200064f4 <blc_gap_send_event>
2000996c:	894ff06f          	j	20008a00 <blc_l2cap_packet_receive+0x36c>
20009970:	b15fc0ef          	jal	ra,20006484 <blc_gatt_requestServiceAccess.constprop.4>
20009974:	ce0504e3          	beqz	a0,2000965c <blc_l2cap_packet_receive+0xfc8>
20009978:	68ad8923          	sb	a0,1682(s11)
2000997c:	0064c703          	lbu	a4,6(s1)
20009980:	4127545b          	beqc	a4,82,20009988 <blc_l2cap_packet_receive+0x12f4>
20009984:	c94ff06f          	j	20008e18 <blc_l2cap_packet_receive+0x784>
20009988:	da5fe06f          	j	2000872c <blc_l2cap_packet_receive+0x98>
2000998c:	46b5                	c.li	a3,13
2000998e:	00d98323          	sb	a3,6(s3)
20009992:	0094d683          	lhu	a3,9(s1)
20009996:	00492603          	lw	a2,4(s2)
2000999a:	26d66f63          	bltu	a2,a3,20009c18 <blc_l2cap_packet_receive+0x1584>
2000999e:	8f15                	c.sub	a4,a3
200099a0:	00d585b3          	add	a1,a1,a3
200099a4:	d68ff06f          	j	20008f0c <blc_l2cap_packet_receive+0x878>
200099a8:	00892683          	lw	a3,8(s2)
200099ac:	0006c603          	lbu	a2,0(a3)
200099b0:	40b6545b          	beqc	a2,75,200099b8 <blc_l2cap_packet_receive+0x1324>
200099b4:	d44ff06f          	j	20008ef8 <blc_l2cap_packet_receive+0x864>
200099b8:	0016c683          	lbu	a3,1(a3)
200099bc:	00a6d4db          	beqc	a3,42,200099c4 <blc_l2cap_packet_receive+0x1330>
200099c0:	d38ff06f          	j	20008ef8 <blc_l2cap_packet_receive+0x864>
200099c4:	7ecda683          	lw	a3,2028(s11)
200099c8:	d2068863          	beqz	a3,20008ef8 <blc_l2cap_packet_receive+0x864>
200099cc:	7f0da703          	lw	a4,2032(s11)
200099d0:	00d005b3          	add	a1,zero,a3
200099d4:	d24ff06f          	j	20008ef8 <blc_l2cap_packet_receive+0x864>
200099d8:	2e090663          	beqz	s2,20009cc4 <blc_l2cap_packet_receive+0x1630>
200099dc:	793dc703          	lbu	a4,1939(s11)
200099e0:	792dc603          	lbu	a2,1938(s11)
200099e4:	0722                	c.slli	a4,0x8
200099e6:	00249683          	lh	a3,2(s1)
200099ea:	8f51                	c.or	a4,a2
200099ec:	176d                	c.addi	a4,-5
200099ee:	9736                	c.add	a4,a3
200099f0:	3c07275b          	bfoz	a4,a4,15,0
200099f4:	00875693          	srli	a3,a4,0x8
200099f8:	78dd89a3          	sb	a3,1939(s11)
200099fc:	78ed8923          	sb	a4,1938(s11)
20009a00:	0fd00693          	li	a3,253
20009a04:	a6e6f063          	bgeu	a3,a4,20008c64 <blc_l2cap_packet_receive+0x5d0>
20009a08:	4725                	c.li	a4,9
20009a0a:	b269                	c.j	20009394 <blc_l2cap_packet_receive+0xd00>
20009a0c:	a79fc0ef          	jal	ra,20006484 <blc_gatt_requestServiceAccess.constprop.4>
20009a10:	a0050663          	beqz	a0,20008c1c <blc_l2cap_packet_receive+0x588>
20009a14:	e25ff06f          	j	20009838 <blc_l2cap_packet_receive+0x11a4>
20009a18:	01000c93          	li	s9,16
20009a1c:	0ff77593          	andi	a1,a4,255
20009a20:	c62e                	c.swsp	a1,12(sp)
20009a22:	4889                	c.li	a7,2
20009a24:	008bd593          	srli	a1,s7,0x8
20009a28:	4e81                	c.li	t4,0
20009a2a:	4a81                	c.li	s5,0
20009a2c:	4d61                	c.li	s10,24
20009a2e:	01611c23          	sh	s6,24(sp)
20009a32:	ce2e                	c.swsp	a1,28(sp)
20009a34:	0bcda303          	lw	t1,188(s11)
20009a38:	00035583          	lhu	a1,0(t1)
20009a3c:	10b97263          	bgeu	s2,a1,20009b40 <blc_l2cap_packet_receive+0x14ac>
20009a40:	01811683          	lh	a3,24(sp)
20009a44:	0165f463          	bgeu	a1,s6,20009a4c <blc_l2cap_packet_receive+0x13b8>
20009a48:	00b006b3          	add	a3,zero,a1
20009a4c:	3c06a6db          	bfoz	a3,a3,15,0
20009a50:	0f26e863          	bltu	a3,s2,20009b40 <blc_l2cap_packet_receive+0x14ac>
20009a54:	5542                	c.lwsp	a0,48(sp)
20009a56:	a829                	c.j	20009a70 <blc_l2cap_packet_receive+0x13dc>
20009a58:	010ce65b          	bnec	s9,16,20009a64 <blc_l2cap_packet_receive+0x13d0>
20009a5c:	00072603          	lw	a2,0(a4)
20009a60:	10a60463          	beq	a2,a0,20009b68 <blc_l2cap_packet_receive+0x14d4>
20009a64:	00190913          	addi	s2,s2,1
20009a68:	3c09295b          	bfoz	s2,s2,15,0
20009a6c:	0d26ea63          	bltu	a3,s2,20009b40 <blc_l2cap_packet_receive+0x14ac>
20009a70:	8a1a                	c.mv	s4,t1
20009a72:	c5a91a7f          	maddr32	s4,s2,s10
20009a76:	008a2703          	lw	a4,8(s4)
20009a7a:	bc2cef5b          	bnec	s9,2,20009a58 <blc_l2cap_packet_receive+0x13c4>
20009a7e:	00074603          	lbu	a2,0(a4)
20009a82:	47b2                	c.lwsp	a5,12(sp)
20009a84:	fef610e3          	bne	a2,a5,20009a64 <blc_l2cap_packet_receive+0x13d0>
20009a88:	00174703          	lbu	a4,1(a4)
20009a8c:	01c12603          	lw	a2,28(sp)
20009a90:	fcc71ae3          	bne	a4,a2,20009a64 <blc_l2cap_packet_receive+0x13d0>
20009a94:	865e                	c.mv	a2,s7
20009a96:	854a                	c.mv	a0,s2
20009a98:	ca46                	c.swsp	a7,20(sp)
20009a9a:	c876                	c.swsp	t4,16(sp)
20009a9c:	a71fc0ef          	jal	ra,2000650c <att_Find_end_group>
20009aa0:	4ec2                	c.lwsp	t4,16(sp)
20009aa2:	8e2a                	c.mv	t3,a0
20009aa4:	01412883          	lw	a7,20(sp)
20009aa8:	080a0c63          	beqz	s4,20009b40 <blc_l2cap_packet_receive+0x14ac>
20009aac:	004a2c03          	lw	s8,4(s4)
20009ab0:	000e8463          	beqz	t4,20009ab8 <blc_l2cap_packet_receive+0x1424>
20009ab4:	09dc1663          	bne	s8,t4,20009b40 <blc_l2cap_packet_receive+0x14ac>
20009ab8:	7dadd703          	lhu	a4,2010(s11)
20009abc:	ca46                	c.swsp	a7,20(sp)
20009abe:	1771                	c.addi	a4,-4
20009ac0:	41870733          	sub	a4,a4,s8
20009ac4:	17176063          	bltu	a4,a7,20009c24 <blc_l2cap_packet_receive+0x1590>
20009ac8:	001a8613          	addi	a2,s5,1
20009acc:	01598733          	add	a4,s3,s5
20009ad0:	002a8693          	addi	a3,s5,2
20009ad4:	3c06265b          	bfoz	a2,a2,15,0
20009ad8:	01270423          	sb	s2,8(a4)
20009adc:	964e                	c.add	a2,s3
20009ade:	00895913          	srli	s2,s2,0x8
20009ae2:	003a8713          	addi	a4,s5,3
20009ae6:	3c06a6db          	bfoz	a3,a3,15,0
20009aea:	01260423          	sb	s2,8(a2)
20009aee:	96ce                	c.add	a3,s3
20009af0:	0a91                	c.addi	s5,4
20009af2:	3c07275b          	bfoz	a4,a4,15,0
20009af6:	01c68423          	sb	t3,8(a3)
20009afa:	974e                	c.add	a4,s3
20009afc:	008e5693          	srli	a3,t3,0x8
20009b00:	3c0aaadb          	bfoz	s5,s5,15,0
20009b04:	00d70423          	sb	a3,8(a4)
20009b08:	008a8513          	addi	a0,s5,8
20009b0c:	004a2603          	lw	a2,4(s4)
20009b10:	00ca2583          	lw	a1,12(s4)
20009b14:	954e                	c.add	a0,s3
20009b16:	c872                	c.swsp	t3,16(sp)
20009b18:	2c0010ef          	jal	ra,2000add8 <memcpy>
20009b1c:	4e42                	c.lwsp	t3,16(sp)
20009b1e:	004a2683          	lw	a3,4(s4)
20009b22:	48d2                	c.lwsp	a7,20(sp)
20009b24:	004c0713          	addi	a4,s8,4
20009b28:	0e05                	c.addi	t3,1
20009b2a:	98ba                	c.add	a7,a4
20009b2c:	9ab6                	c.add	s5,a3
20009b2e:	3c0e295b          	bfoz	s2,t3,15,0
20009b32:	3c08a8db          	bfoz	a7,a7,15,0
20009b36:	3c0aaadb          	bfoz	s5,s5,15,0
20009b3a:	8ee2                	c.mv	t4,s8
20009b3c:	ef2b7ce3          	bgeu	s6,s2,20009a34 <blc_l2cap_packet_receive+0x13a0>
20009b40:	b20a8e63          	beqz	s5,20008e7c <blc_l2cap_packet_receive+0x7e8>
20009b44:	002a8713          	addi	a4,s5,2
20009b48:	3c07275b          	bfoz	a4,a4,15,0
20009b4c:	00470693          	addi	a3,a4,4
20009b50:	0e91                	c.addi	t4,4
20009b52:	00e99123          	sh	a4,2(s3)
20009b56:	4745                	c.li	a4,17
20009b58:	00d980a3          	sb	a3,1(s3)
20009b5c:	00e98323          	sb	a4,6(s3)
20009b60:	01d983a3          	sb	t4,7(s3)
20009b64:	b2cff06f          	j	20008e90 <blc_l2cap_packet_receive+0x7fc>
20009b68:	00472e03          	lw	t3,4(a4)
20009b6c:	5652                	c.lwsp	a2,52(sp)
20009b6e:	eece1be3          	bne	t3,a2,20009a64 <blc_l2cap_packet_receive+0x13d0>
20009b72:	00872e03          	lw	t3,8(a4)
20009b76:	5662                	c.lwsp	a2,56(sp)
20009b78:	eece16e3          	bne	t3,a2,20009a64 <blc_l2cap_packet_receive+0x13d0>
20009b7c:	4750                	c.lw	a2,12(a4)
20009b7e:	5772                	c.lwsp	a4,60(sp)
20009b80:	eee612e3          	bne	a2,a4,20009a64 <blc_l2cap_packet_receive+0x13d0>
20009b84:	f11ff06f          	j	20009a94 <blc_l2cap_packet_receive+0x1400>
20009b88:	7dad9603          	lh	a2,2010(s11)
20009b8c:	00875693          	srli	a3,a4,0x8
20009b90:	00e98423          	sb	a4,8(s3)
20009b94:	00d984a3          	sb	a3,9(s3)
20009b98:	1671                	c.addi	a2,-4
20009b9a:	4158                	c.lw	a4,4(a0)
20009b9c:	3c06265b          	bfoz	a2,a2,15,0
20009ba0:	00c77463          	bgeu	a4,a2,20009ba8 <blc_l2cap_packet_receive+0x1514>
20009ba4:	00e00633          	add	a2,zero,a4
20009ba8:	0ff67493          	andi	s1,a2,255
20009bac:	454c                	c.lw	a1,12(a0)
20009bae:	8626                	c.mv	a2,s1
20009bb0:	00a98513          	addi	a0,s3,10
20009bb4:	224010ef          	jal	ra,2000add8 <memcpy>
20009bb8:	00248713          	addi	a4,s1,2
20009bbc:	3c0724db          	bfoz	s1,a4,15,0
20009bc0:	00e983a3          	sb	a4,7(s3)
20009bc4:	00248713          	addi	a4,s1,2
20009bc8:	3c07275b          	bfoz	a4,a4,15,0
20009bcc:	00470693          	addi	a3,a4,4
20009bd0:	00e99123          	sh	a4,2(s3)
20009bd4:	00900713          	li	a4,9
20009bd8:	00d980a3          	sb	a3,1(s3)
20009bdc:	00e98323          	sb	a4,6(s3)
20009be0:	ab0ff06f          	j	20008e90 <blc_l2cap_packet_receive+0x7fc>
20009be4:	6741                	c.lui	a4,0x10
20009be6:	50270713          	addi	a4,a4,1282 # 10502 <BIN_SIZE+0x1d12>
20009bea:	d83a                	c.swsp	a4,48(sp)
20009bec:	4711                	c.li	a4,4
20009bee:	02e11a23          	sh	a4,52(sp)
20009bf2:	461d                	c.li	a2,7
20009bf4:	474d                	c.li	a4,19
20009bf6:	180c                	c.addi4spn	a1,sp,48
20009bf8:	01300533          	add	a0,zero,s3
20009bfc:	02e10b23          	sb	a4,54(sp)
20009c00:	1d8010ef          	jal	ra,2000add8 <memcpy>
20009c04:	01092703          	lw	a4,16(s2)
20009c08:	cb71                	c.beqz	a4,20009cdc <blc_l2cap_packet_receive+0x1648>
20009c0a:	85a6                	c.mv	a1,s1
20009c0c:	8522                	c.mv	a0,s0
20009c0e:	9702                	c.jalr	a4
20009c10:	a60516e3          	bnez	a0,2000967c <blc_l2cap_packet_receive+0xfe8>
20009c14:	a7cff06f          	j	20008e90 <blc_l2cap_packet_receive+0x7fc>
20009c18:	00700713          	li	a4,7
20009c1c:	f78ff06f          	j	20009394 <blc_l2cap_packet_receive+0xd00>
20009c20:	4c89                	c.li	s9,2
20009c22:	bbed                	c.j	20009a1c <blc_l2cap_packet_receive+0x1388>
20009c24:	8ee2                	c.mv	t4,s8
20009c26:	bf29                	c.j	20009b40 <blc_l2cap_packet_receive+0x14ac>
20009c28:	694d8993          	addi	s3,s11,1684
20009c2c:	01350533          	add	a0,a0,s3
20009c30:	1a8010ef          	jal	ra,2000add8 <memcpy>
20009c34:	854ff06f          	j	20008c88 <blc_l2cap_packet_receive+0x5f4>
20009c38:	0c0d8413          	addi	s0,s11,192
20009c3c:	4641                	c.li	a2,16
20009c3e:	4581                	c.li	a1,0
20009c40:	00800533          	add	a0,zero,s0
20009c44:	28e010ef          	jal	ra,2000aed2 <memset>
20009c48:	02c10b13          	addi	s6,sp,44
20009c4c:	4611                	c.li	a2,4
20009c4e:	85da                	c.mv	a1,s6
20009c50:	00800533          	add	a0,zero,s0
20009c54:	dfff7097          	auipc	ra,0xdfff7
20009c58:	714080e7          	jalr	1812(ra) # 1368 <smemcpy>
20009c5c:	b75ff06f          	j	200097d0 <blc_l2cap_packet_receive+0x113c>
20009c60:	0024d703          	lhu	a4,2(s1)
20009c64:	4689                	c.li	a3,2
20009c66:	4981                	c.li	s3,0
20009c68:	00e6e463          	bltu	a3,a4,20009c70 <blc_l2cap_packet_receive+0x15dc>
20009c6c:	ac1fe06f          	j	2000872c <blc_l2cap_packet_receive+0x98>
20009c70:	1775                	c.addi	a4,-3
20009c72:	00492683          	lw	a3,4(s2)
20009c76:	3c07265b          	bfoz	a2,a4,15,0
20009c7a:	06c6f963          	bgeu	a3,a2,20009cec <blc_l2cap_packet_receive+0x1658>
20009c7e:	4735                	c.li	a4,13
20009c80:	68ed8923          	sb	a4,1682(s11)
20009c84:	0064c703          	lbu	a4,6(s1)
20009c88:	4127545b          	beqc	a4,82,20009c90 <blc_l2cap_packet_receive+0x15fc>
20009c8c:	f0cff06f          	j	20009398 <blc_l2cap_packet_receive+0xd04>
20009c90:	a9dfe06f          	j	2000872c <blc_l2cap_packet_receive+0x98>
20009c94:	0025d683          	lhu	a3,2(a1)
20009c98:	4609                	c.li	a2,2
20009c9a:	9ed67b63          	bgeu	a2,a3,20008e90 <blc_l2cap_packet_receive+0x7fc>
20009c9e:	16f5                	c.addi	a3,-3
20009ca0:	4348                	c.lw	a0,4(a4)
20009ca2:	3c06a65b          	bfoz	a2,a3,15,0
20009ca6:	04c57b63          	bgeu	a0,a2,20009cfc <blc_l2cap_packet_receive+0x1668>
20009caa:	688d8993          	addi	s3,s11,1672
20009cae:	4735                	c.li	a4,13
20009cb0:	00798593          	addi	a1,s3,7
20009cb4:	68ed8923          	sb	a4,1682(s11)
20009cb8:	68add903          	lhu	s2,1674(s11)
20009cbc:	00b12623          	sw	a1,12(sp)
20009cc0:	fe9fe06f          	j	20008ca8 <blc_l2cap_packet_receive+0x614>
20009cc4:	4725                	c.li	a4,9
20009cc6:	4625                	c.li	a2,9
20009cc8:	009005b3          	add	a1,zero,s1
20009ccc:	694d8513          	addi	a0,s11,1684
20009cd0:	78ed9923          	sh	a4,1938(s11)
20009cd4:	104010ef          	jal	ra,2000add8 <memcpy>
20009cd8:	d05ff06f          	j	200099dc <blc_l2cap_packet_receive+0x1348>
20009cdc:	0024d703          	lhu	a4,2(s1)
20009ce0:	00200693          	li	a3,2
20009ce4:	f8e6e6e3          	bltu	a3,a4,20009c70 <blc_l2cap_packet_receive+0x15dc>
20009ce8:	9a8ff06f          	j	20008e90 <blc_l2cap_packet_receive+0x7fc>
20009cec:	00c92503          	lw	a0,12(s2)
20009cf0:	00948593          	addi	a1,s1,9
20009cf4:	0e4010ef          	jal	ra,2000add8 <memcpy>
20009cf8:	8d5ff06f          	j	200095cc <blc_l2cap_packet_receive+0xf38>
20009cfc:	4748                	c.lw	a0,12(a4)
20009cfe:	05a5                	c.addi	a1,9
20009d00:	0d8010ef          	jal	ra,2000add8 <memcpy>
20009d04:	98cff06f          	j	20008e90 <blc_l2cap_packet_receive+0x7fc>
20009d08:	0001                	c.nop
	...

20009d0c <fl_controller_event_callback>:
20009d0c:	0195765b          	bbc	a0,25,20009d18 <fl_controller_event_callback+0xc>
20009d10:	0ff57513          	andi	a0,a0,255
20009d14:	01e554db          	beqc	a0,62,20009d1c <fl_controller_event_callback+0x10>
20009d18:	4501                	c.li	a0,0
20009d1a:	8082                	c.jr	ra
20009d1c:	0005c783          	lbu	a5,0(a1)
20009d20:	be27ec5b          	bnec	a5,2,20009d18 <fl_controller_event_callback+0xc>
20009d24:	7119                	c.addi16sp	sp,-128
20009d26:	dca2                	c.swsp	s0,120(sp)
20009d28:	daa6                	c.swsp	s1,116(sp)
20009d2a:	d8ca                	c.swsp	s2,112(sp)
20009d2c:	d6ce                	c.swsp	s3,108(sp)
20009d2e:	d4d2                	c.swsp	s4,104(sp)
20009d30:	de86                	c.swsp	ra,124(sp)
20009d32:	00a5c783          	lbu	a5,10(a1)
20009d36:	842e                	c.mv	s0,a1
20009d38:	0785                	c.addi	a5,1
20009d3a:	863e                	c.mv	a2,a5
20009d3c:	00b58593          	addi	a1,a1,11
20009d40:	01d10513          	addi	a0,sp,29
20009d44:	00f10e23          	sb	a5,28(sp)
20009d48:	090010ef          	jal	ra,2000add8 <memcpy>
20009d4c:	01c10a03          	lb	s4,28(sp)
20009d50:	1a7d                	c.addi	s4,-1
20009d52:	4901                	c.li	s2,0
20009d54:	0ffa7a13          	andi	s4,s4,255
20009d58:	4481                	c.li	s1,0
20009d5a:	879f998b          	addigp	s3,-1928 # 80078 <G_DATA_CONTAINER>
20009d5e:	a809                	c.j	20009d70 <fl_controller_event_callback+0x64>
20009d60:	0049c783          	lbu	a5,4(s3)
20009d64:	00148493          	addi	s1,s1,1
20009d68:	04190913          	addi	s2,s2,65
20009d6c:	0297ce63          	blt	a5,s1,20009da8 <fl_controller_event_callback+0x9c>
20009d70:	0009a503          	lw	a0,0(s3)
20009d74:	8652                	c.mv	a2,s4
20009d76:	954a                	c.add	a0,s2
20009d78:	01d10593          	addi	a1,sp,29
20009d7c:	00150513          	addi	a0,a0,1
20009d80:	008010ef          	jal	ra,2000ad88 <memcmp>
20009d84:	fd71                	c.bnez	a0,20009d60 <fl_controller_event_callback+0x54>
20009d86:	1c04b4db          	bfos	s1,s1,7,0
20009d8a:	57fd                	c.li	a5,-1
20009d8c:	00f48c63          	beq	s1,a5,20009da4 <fl_controller_event_callback+0x98>
20009d90:	50f6                	c.lwsp	ra,124(sp)
20009d92:	5466                	c.lwsp	s0,120(sp)
20009d94:	54d6                	c.lwsp	s1,116(sp)
20009d96:	5946                	c.lwsp	s2,112(sp)
20009d98:	59b6                	c.lwsp	s3,108(sp)
20009d9a:	5a26                	c.lwsp	s4,104(sp)
20009d9c:	4501                	c.li	a0,0
20009d9e:	6109                	c.addi16sp	sp,128
20009da0:	00008067          	ret
20009da4:	0049c783          	lbu	a5,4(s3)
20009da8:	00a44703          	lbu	a4,10(s0)
20009dac:	0079c683          	lbu	a3,7(s3)
20009db0:	9722                	c.add	a4,s0
20009db2:	00b74483          	lbu	s1,11(a4)
20009db6:	0af68f63          	beq	a3,a5,20009e74 <fl_controller_event_callback+0x168>
20009dba:	0069c703          	lbu	a4,6(s3)
20009dbe:	0009a503          	lw	a0,0(s3)
20009dc2:	00671793          	slli	a5,a4,0x6
20009dc6:	97ba                	c.add	a5,a4
20009dc8:	953e                	c.add	a0,a5
20009dca:	04100613          	li	a2,65
20009dce:	086c                	c.addi4spn	a1,sp,28
20009dd0:	008010ef          	jal	ra,2000add8 <memcpy>
20009dd4:	00698783          	lb	a5,6(s3)
20009dd8:	00498683          	lb	a3,4(s3)
20009ddc:	00798703          	lb	a4,7(s3)
20009de0:	0785                	c.addi	a5,1
20009de2:	8ff5                	c.and	a5,a3
20009de4:	1c07b7db          	bfos	a5,a5,7,0
20009de8:	00170713          	addi	a4,a4,1
20009dec:	00f98323          	sb	a5,6(s3)
20009df0:	00e983a3          	sb	a4,7(s3)
20009df4:	0807c063          	bltz	a5,20009e74 <fl_controller_event_callback+0x168>
20009df8:	875f97ab          	lhgp	a5,-1932 # 80074 <FmDebug>
20009dfc:	b827fa5b          	bbc	a5,2,20009d90 <fl_controller_event_callback+0x84>
20009e00:	2000e537          	lui	a0,0x2000e
20009e04:	f7c50513          	addi	a0,a0,-132 # 2000df7c <cmd_length_array+0x78>
20009e08:	174010ef          	jal	ra,2000af7c <printf>
20009e0c:	2000e937          	lui	s2,0x2000e
20009e10:	02f00593          	li	a1,47
20009e14:	f2090513          	addi	a0,s2,-224 # 2000df20 <cmd_length_array+0x1c>
20009e18:	24a010ef          	jal	ra,2000b062 <strrchr>
20009e1c:	f2090593          	addi	a1,s2,-224
20009e20:	00050a63          	beqz	a0,20009e34 <fl_controller_event_callback+0x128>
20009e24:	02f00593          	li	a1,47
20009e28:	f2090513          	addi	a0,s2,-224
20009e2c:	236010ef          	jal	ra,2000b062 <strrchr>
20009e30:	00150593          	addi	a1,a0,1
20009e34:	00a44703          	lbu	a4,10(s0)
20009e38:	0069c303          	lbu	t1,6(s3)
20009e3c:	0059c883          	lbu	a7,5(s3)
20009e40:	0079c803          	lbu	a6,7(s3)
20009e44:	2000e637          	lui	a2,0x2000e
20009e48:	2000e537          	lui	a0,0x2000e
20009e4c:	1c04b7db          	bfos	a5,s1,7,0
20009e50:	04800693          	li	a3,72
20009e54:	e9060613          	addi	a2,a2,-368 # 2000de90 <__FUNCTION__.12968>
20009e58:	f8450513          	addi	a0,a0,-124 # 2000df84 <cmd_length_array+0x80>
20009e5c:	00612023          	sw	t1,0(sp)
20009e60:	11c010ef          	jal	ra,2000af7c <printf>
20009e64:	2000e537          	lui	a0,0x2000e
20009e68:	f7450513          	addi	a0,a0,-140 # 2000df74 <cmd_length_array+0x70>
20009e6c:	110010ef          	jal	ra,2000af7c <printf>
20009e70:	f21ff06f          	j	20009d90 <fl_controller_event_callback+0x84>
20009e74:	2000e537          	lui	a0,0x2000e
20009e78:	f4450513          	addi	a0,a0,-188 # 2000df44 <cmd_length_array+0x40>
20009e7c:	100010ef          	jal	ra,2000af7c <printf>
20009e80:	2000e437          	lui	s0,0x2000e
20009e84:	02f00593          	li	a1,47
20009e88:	f2040513          	addi	a0,s0,-224 # 2000df20 <cmd_length_array+0x1c>
20009e8c:	1d6010ef          	jal	ra,2000b062 <strrchr>
20009e90:	f2040593          	addi	a1,s0,-224
20009e94:	00050a63          	beqz	a0,20009ea8 <fl_controller_event_callback+0x19c>
20009e98:	02f00593          	li	a1,47
20009e9c:	f2040513          	addi	a0,s0,-224
20009ea0:	1c2010ef          	jal	ra,2000b062 <strrchr>
20009ea4:	00150593          	addi	a1,a0,1
20009ea8:	2000e637          	lui	a2,0x2000e
20009eac:	2000e537          	lui	a0,0x2000e
20009eb0:	04500693          	li	a3,69
20009eb4:	e9060613          	addi	a2,a2,-368 # 2000de90 <__FUNCTION__.12968>
20009eb8:	f4c50513          	addi	a0,a0,-180 # 2000df4c <cmd_length_array+0x48>
20009ebc:	0c0010ef          	jal	ra,2000af7c <printf>
20009ec0:	2000e537          	lui	a0,0x2000e
20009ec4:	f7450513          	addi	a0,a0,-140 # 2000df74 <cmd_length_array+0x70>
20009ec8:	0b4010ef          	jal	ra,2000af7c <printf>
20009ecc:	b5d1                	c.j	20009d90 <fl_controller_event_callback+0x84>
20009ece:	0001                	c.nop

20009ed0 <user_init_normal>:
20009ed0:	715d                	c.addi16sp	sp,-80
20009ed2:	801406b7          	lui	a3,0x80140
20009ed6:	c686                	c.swsp	ra,76(sp)
20009ed8:	c4a2                	c.swsp	s0,72(sp)
20009eda:	c2a6                	c.swsp	s1,68(sp)
20009edc:	c0ca                	c.swsp	s2,64(sp)
20009ede:	de4e                	c.swsp	s3,60(sp)
20009ee0:	dc52                	c.swsp	s4,56(sp)
20009ee2:	da56                	c.swsp	s5,52(sp)
20009ee4:	1e268703          	lb	a4,482(a3) # 801401e2 <_DATA_LMA_START+0x60131aae>
20009ee8:	801027b7          	lui	a5,0x80102
20009eec:	0ff77713          	andi	a4,a4,255
20009ef0:	00476713          	ori	a4,a4,4
20009ef4:	1ee68123          	sb	a4,482(a3)
20009ef8:	1e668703          	lb	a4,486(a3)
20009efc:	80102637          	lui	a2,0x80102
20009f00:	0ff77713          	andi	a4,a4,255
20009f04:	00476713          	ori	a4,a4,4
20009f08:	1ee68323          	sb	a4,486(a3)
20009f0c:	80078703          	lb	a4,-2048(a5) # 80101800 <_DATA_LMA_START+0x600f30cc>
20009f10:	0fe77713          	andi	a4,a4,254
20009f14:	80e78023          	sb	a4,-2048(a5)
20009f18:	8007a223          	sw	zero,-2044(a5)
20009f1c:	80078703          	lb	a4,-2048(a5)
20009f20:	0ff77713          	andi	a4,a4,255
20009f24:	00176713          	ori	a4,a4,1
20009f28:	80e78023          	sb	a4,-2048(a5)
20009f2c:	80860783          	lb	a5,-2040(a2) # 80101808 <_DATA_LMA_START+0x600f30d4>
20009f30:	be07fe5b          	bbc	a5,0,20009f2c <user_init_normal+0x5c>
20009f34:	00000437          	lui	s0,0x0
20009f38:	80c62683          	lw	a3,-2036(a2)
20009f3c:	17840713          	addi	a4,s0,376 # 178 <_AES_VMA_END>
20009f40:	801027b7          	lui	a5,0x80102
20009f44:	17840413          	addi	s0,s0,376
20009f48:	3ed72e23          	sw	a3,1020(a4)
20009f4c:	80878703          	lb	a4,-2040(a5) # 80101808 <_DATA_LMA_START+0x600f30d4>
20009f50:	be077e5b          	bbc	a4,0,20009f4c <user_init_normal+0x7c>
20009f54:	80140737          	lui	a4,0x80140
20009f58:	80c7a603          	lw	a2,-2036(a5)
20009f5c:	1e270683          	lb	a3,482(a4) # 801401e2 <_DATA_LMA_START+0x60131aae>
20009f60:	40c42023          	sw	a2,1024(s0)
20009f64:	0fb6f693          	andi	a3,a3,251
20009f68:	49042483          	lw	s1,1168(s0)
20009f6c:	1ed70123          	sb	a3,482(a4)
20009f70:	1e670683          	lb	a3,486(a4)
20009f74:	0fb6f693          	andi	a3,a3,251
20009f78:	1ed70323          	sb	a3,486(a4)
20009f7c:	80078703          	lb	a4,-2048(a5)
20009f80:	0e077713          	andi	a4,a4,224
20009f84:	80e78023          	sb	a4,-2048(a5)
20009f88:	ccf1                	c.beqz	s1,2000a064 <user_init_normal+0x194>
20009f8a:	5d442783          	lw	a5,1492(s0)
20009f8e:	1030                	c.addi4spn	a2,sp,40
20009f90:	45a1                	c.li	a1,8
20009f92:	8526                	c.mv	a0,s1
20009f94:	9782                	c.jalr	a5
20009f96:	002c                	c.addi4spn	a1,sp,8
20009f98:	00500513          	li	a0,5
20009f9c:	e89fc0ef          	jal	ra,20006e24 <generateRandomNum>
20009fa0:	57fd                	c.li	a5,-1
20009fa2:	4619                	c.li	a2,6
20009fa4:	100c                	c.addi4spn	a1,sp,32
20009fa6:	1028                	c.addi4spn	a0,sp,40
20009fa8:	02f12023          	sw	a5,32(sp)
20009fac:	02f11223          	sh	a5,36(sp)
20009fb0:	5d9000ef          	jal	ra,2000ad88 <memcmp>
20009fb4:	c901                	c.beqz	a0,20009fc4 <user_init_normal+0xf4>
20009fb6:	4619                	c.li	a2,6
20009fb8:	102c                	c.addi4spn	a1,sp,40
20009fba:	0828                	c.addi4spn	a0,sp,24
20009fbc:	61d000ef          	jal	ra,2000add8 <memcpy>
20009fc0:	03c0006f          	j	20009ffc <user_init_normal+0x12c>
20009fc4:	00810783          	lb	a5,8(sp)
20009fc8:	5d042703          	lw	a4,1488(s0)
20009fcc:	00f10c23          	sb	a5,24(sp)
20009fd0:	00910783          	lb	a5,9(sp)
20009fd4:	0830                	c.addi4spn	a2,sp,24
20009fd6:	00f10ca3          	sb	a5,25(sp)
20009fda:	00a10783          	lb	a5,10(sp)
20009fde:	4599                	c.li	a1,6
20009fe0:	00f10d23          	sb	a5,26(sp)
20009fe4:	6789                	c.lui	a5,0x2
20009fe6:	9d178793          	addi	a5,a5,-1583 # 19d1 <bls_ll_setNewConnection_timing+0x7d>
20009fea:	00f11da3          	sh	a5,27(sp)
20009fee:	8526                	c.mv	a0,s1
20009ff0:	fc400793          	li	a5,-60
20009ff4:	00f10ea3          	sb	a5,29(sp)
20009ff8:	000700e7          	jalr	a4
20009ffc:	02e14703          	lbu	a4,46(sp)
2000a000:	02f14783          	lbu	a5,47(sp)
2000a004:	07a2                	c.slli	a5,0x8
2000a006:	8fd9                	c.or	a5,a4
2000a008:	01810703          	lb	a4,24(sp)
2000a00c:	3c07b7db          	bfos	a5,a5,15,0
2000a010:	00e10823          	sb	a4,16(sp)
2000a014:	01910703          	lb	a4,25(sp)
2000a018:	00e108a3          	sb	a4,17(sp)
2000a01c:	01a10703          	lb	a4,26(sp)
2000a020:	00e10923          	sb	a4,18(sp)
2000a024:	fc000713          	li	a4,-64
2000a028:	00e10aa3          	sb	a4,21(sp)
2000a02c:	577d                	c.li	a4,-1
2000a02e:	00e78b63          	beq	a5,a4,2000a044 <user_init_normal+0x174>
2000a032:	4609                	c.li	a2,2
2000a034:	02e10593          	addi	a1,sp,46
2000a038:	01310513          	addi	a0,sp,19
2000a03c:	59d000ef          	jal	ra,2000add8 <memcpy>
2000a040:	0240006f          	j	2000a064 <user_init_normal+0x194>
2000a044:	00b10703          	lb	a4,11(sp)
2000a048:	5d042783          	lw	a5,1488(s0)
2000a04c:	00e109a3          	sb	a4,19(sp)
2000a050:	00c10703          	lb	a4,12(sp)
2000a054:	01310613          	addi	a2,sp,19
2000a058:	4589                	c.li	a1,2
2000a05a:	00648513          	addi	a0,s1,6
2000a05e:	00e10a23          	sb	a4,20(sp)
2000a062:	9782                	c.jalr	a5
2000a064:	000014b7          	lui	s1,0x1
2000a068:	dfff9097          	auipc	ra,0xdfff9
2000a06c:	9e4080e7          	jalr	-1564(ra) # 2a4c <blc_ll_initBasicMCU>
2000a070:	17848913          	addi	s2,s1,376 # 1178 <blt_buff_ll_rx+0x40>
2000a074:	80090913          	addi	s2,s2,-2048
2000a078:	000027b7          	lui	a5,0x2
2000a07c:	854a                	c.mv	a0,s2
2000a07e:	61478793          	addi	a5,a5,1556 # 2614 <blt_event_callback_func>
2000a082:	4619                	c.li	a2,6
2000a084:	01810593          	addi	a1,sp,24
2000a088:	3af42023          	sw	a5,928(s0)
2000a08c:	dfff7097          	auipc	ra,0xdfff7
2000a090:	2dc080e7          	jalr	732(ra) # 1368 <smemcpy>
2000a094:	57fd                	c.li	a5,-1
2000a096:	18f40623          	sb	a5,396(s0)
2000a09a:	200077b7          	lui	a5,0x20007
2000a09e:	45078793          	addi	a5,a5,1104 # 20007450 <blt_send_adv>
2000a0a2:	50f42e23          	sw	a5,1308(s0)
2000a0a6:	000027b7          	lui	a5,0x2
2000a0aa:	52078793          	addi	a5,a5,1312 # 2520 <bls_ll_setAdvEnable>
2000a0ae:	85ca                	c.mv	a1,s2
2000a0b0:	00600613          	li	a2,6
2000a0b4:	57240513          	addi	a0,s0,1394
2000a0b8:	2af42c23          	sw	a5,696(s0)
2000a0bc:	dfff7097          	auipc	ra,0xdfff7
2000a0c0:	2ac080e7          	jalr	684(ra) # 1368 <smemcpy>
2000a0c4:	85ca                	c.mv	a1,s2
2000a0c6:	4619                	c.li	a2,6
2000a0c8:	59e40513          	addi	a0,s0,1438
2000a0cc:	dfff7097          	auipc	ra,0xdfff7
2000a0d0:	29c080e7          	jalr	668(ra) # 1368 <smemcpy>
2000a0d4:	0030d737          	lui	a4,0x30d
2000a0d8:	40070713          	addi	a4,a4,1024 # 30d400 <FLASH_SIZE+0x20d400>
2000a0dc:	38e42423          	sw	a4,904(s0)
2000a0e0:	20007737          	lui	a4,0x20007
2000a0e4:	9b470713          	addi	a4,a4,-1612 # 200069b4 <blt_connect>
2000a0e8:	5ce42223          	sw	a4,1476(s0)
2000a0ec:	00002737          	lui	a4,0x2
2000a0f0:	f8c70713          	addi	a4,a4,-116 # 1f8c <irq_blc_slave_tx>
2000a0f4:	48e42623          	sw	a4,1164(s0)
2000a0f8:	00002737          	lui	a4,0x2
2000a0fc:	dd870713          	addi	a4,a4,-552 # 1dd8 <irq_blc_slave_rx_data>
2000a100:	4785                	c.li	a5,1
2000a102:	48e42223          	sw	a4,1156(s0)
2000a106:	00003737          	lui	a4,0x3
2000a10a:	18f40723          	sb	a5,398(s0)
2000a10e:	d0c70713          	addi	a4,a4,-756 # 2d0c <irq_slave_system_timer>
2000a112:	16f40d23          	sb	a5,378(s0)
2000a116:	38e42a23          	sw	a4,916(s0)
2000a11a:	20008737          	lui	a4,0x20008
2000a11e:	cdc70713          	addi	a4,a4,-804 # 20007cdc <blt_slave_main_loop_data>
2000a122:	16f40fa3          	sb	a5,383(s0)
2000a126:	200077b7          	lui	a5,0x20007
2000a12a:	fcc78793          	addi	a5,a5,-52 # 20006fcc <bls_ll_pushTxFifo>
2000a12e:	4ee42e23          	sw	a4,1276(s0)
2000a132:	20007737          	lui	a4,0x20007
2000a136:	c8470713          	addi	a4,a4,-892 # 20006c84 <blt_slave_main_loop_post>
2000a13a:	cc5c                	c.sw	a5,28(s0)
2000a13c:	31544683          	lbu	a3,789(s0)
2000a140:	57fd                	c.li	a5,-1
2000a142:	00001937          	lui	s2,0x1
2000a146:	50e42223          	sw	a4,1284(s0)
2000a14a:	1ef41923          	sh	a5,498(s0)
2000a14e:	17848493          	addi	s1,s1,376
2000a152:	97890913          	addi	s2,s2,-1672 # 978 <bltMac>
2000a156:	c699                	c.beqz	a3,2000a164 <user_init_normal+0x294>
2000a158:	000017b7          	lui	a5,0x1
2000a15c:	96078793          	addi	a5,a5,-1696 # 960 <prepare_pkt_current_len>
2000a160:	30f42823          	sw	a5,784(s0)
2000a164:	49ed                	c.li	s3,27
2000a166:	80c48713          	addi	a4,s1,-2036
2000a16a:	19340823          	sb	s3,400(s0)
2000a16e:	000f17b7          	lui	a5,0xf1
2000a172:	4a05                	c.li	s4,1
2000a174:	83c48693          	addi	a3,s1,-1988
2000a178:	0791                	c.addi	a5,4
2000a17a:	193408a3          	sb	s3,401(s0)
2000a17e:	03000a93          	li	s5,48
2000a182:	853a                	c.mv	a0,a4
2000a184:	00600613          	li	a2,6
2000a188:	885f958b          	addigp	a1,-1916 # 80084 <blt_tx_empty_packet>
2000a18c:	2ef427a3          	sw	a5,751(s0)
2000a190:	2ee42a23          	sw	a4,756(s0)
2000a194:	2ed42c23          	sw	a3,760(s0)
2000a198:	17440ea3          	sb	s4,381(s0)
2000a19c:	2f541623          	sh	s5,748(s0)
2000a1a0:	2e0409a3          	sb	zero,755(s0)
2000a1a4:	dfff7097          	auipc	ra,0xdfff7
2000a1a8:	1c4080e7          	jalr	452(ra) # 1368 <smemcpy>
2000a1ac:	b3c48713          	addi	a4,s1,-1220
2000a1b0:	17440e23          	sb	s4,380(s0)
2000a1b4:	18e42a23          	sw	a4,404(s0)
2000a1b8:	478d                	c.li	a5,3
2000a1ba:	18f403a3          	sb	a5,391(s0)
2000a1be:	17440ba3          	sb	s4,375(s0)
2000a1c2:	19040783          	lb	a5,400(s0)
2000a1c6:	70800693          	li	a3,1800
2000a1ca:	47541a23          	sh	s5,1140(s0)
2000a1ce:	46d42c23          	sw	a3,1144(s0)
2000a1d2:	48e42023          	sw	a4,1152(s0)
2000a1d6:	0ff7f793          	andi	a5,a5,255
2000a1da:	e399                	c.bnez	a5,2000a1e0 <user_init_normal+0x310>
2000a1dc:	19340823          	sb	s3,400(s0)
2000a1e0:	19140783          	lb	a5,401(s0)
2000a1e4:	0ff7f793          	andi	a5,a5,255
2000a1e8:	e781                	c.bnez	a5,2000a1f0 <user_init_normal+0x320>
2000a1ea:	47ed                	c.li	a5,27
2000a1ec:	18f408a3          	sb	a5,401(s0)
2000a1f0:	17c40783          	lb	a5,380(s0)
2000a1f4:	0ff7f793          	andi	a5,a5,255
2000a1f8:	cb91                	c.beqz	a5,2000a20c <user_init_normal+0x33c>
2000a1fa:	19040783          	lb	a5,400(s0)
2000a1fe:	476d                	c.li	a4,27
2000a200:	0ff7f793          	andi	a5,a5,255
2000a204:	00f77e63          	bgeu	a4,a5,2000a220 <user_init_normal+0x350>
2000a208:	0a40006f          	j	2000a2ac <user_init_normal+0x3dc>
2000a20c:	17e40783          	lb	a5,382(s0)
2000a210:	0ff7f793          	andi	a5,a5,255
2000a214:	e3c5                	c.bnez	a5,2000a2b4 <user_init_normal+0x3e4>
2000a216:	17f40783          	lb	a5,383(s0)
2000a21a:	0ff7f793          	andi	a5,a5,255
2000a21e:	ebd9                	c.bnez	a5,2000a2b4 <user_init_normal+0x3e4>
2000a220:	17d40783          	lb	a5,381(s0)
2000a224:	0ff7f793          	andi	a5,a5,255
2000a228:	cb91                	c.beqz	a5,2000a23c <user_init_normal+0x36c>
2000a22a:	19140783          	lb	a5,401(s0)
2000a22e:	02600713          	li	a4,38
2000a232:	0ff7f793          	andi	a5,a5,255
2000a236:	00f77d63          	bgeu	a4,a5,2000a250 <user_init_normal+0x380>
2000a23a:	a049                	c.j	2000a2bc <user_init_normal+0x3ec>
2000a23c:	17e40783          	lb	a5,382(s0)
2000a240:	0ff7f793          	andi	a5,a5,255
2000a244:	e3c1                	c.bnez	a5,2000a2c4 <user_init_normal+0x3f4>
2000a246:	17f40783          	lb	a5,383(s0)
2000a24a:	0ff7f793          	andi	a5,a5,255
2000a24e:	ebbd                	c.bnez	a5,2000a2c4 <user_init_normal+0x3f4>
2000a250:	19040703          	lb	a4,400(s0)
2000a254:	19140783          	lb	a5,401(s0)
2000a258:	46ed                	c.li	a3,27
2000a25a:	0ff7f793          	andi	a5,a5,255
2000a25e:	24f41923          	sh	a5,594(s0)
2000a262:	24f41d23          	sh	a5,602(s0)
2000a266:	200087b7          	lui	a5,0x20008
2000a26a:	24d40e23          	sb	a3,604(s0)
2000a26e:	69478793          	addi	a5,a5,1684 # 20008694 <blc_l2cap_packet_receive>
2000a272:	001b06b7          	lui	a3,0x1b0
2000a276:	0ff77713          	andi	a4,a4,255
2000a27a:	06ed                	c.addi	a3,27
2000a27c:	62f42223          	sw	a5,1572(s0)
2000a280:	00100793          	li	a5,1
2000a284:	14f40c23          	sb	a5,344(s0)
2000a288:	24d42623          	sw	a3,588(s0)
2000a28c:	24e41823          	sh	a4,592(s0)
2000a290:	24e41c23          	sh	a4,600(s0)
2000a294:	24041f23          	sh	zero,606(s0)
2000a298:	dfff7097          	auipc	ra,0xdfff7
2000a29c:	068080e7          	jalr	104(ra) # 1300 <rf_set_power_level_index.constprop.37>
2000a2a0:	875f97ab          	lhgp	a5,-1932 # 80074 <FmDebug>
2000a2a4:	0857f65b          	bbc	a5,5,2000a330 <user_init_normal+0x460>
2000a2a8:	0300006f          	j	2000a2d8 <user_init_normal+0x408>
2000a2ac:	0e200793          	li	a5,226
2000a2b0:	0180006f          	j	2000a2c8 <user_init_normal+0x3f8>
2000a2b4:	0e000793          	li	a5,224
2000a2b8:	0100006f          	j	2000a2c8 <user_init_normal+0x3f8>
2000a2bc:	0e600793          	li	a5,230
2000a2c0:	0080006f          	j	2000a2c8 <user_init_normal+0x3f8>
2000a2c4:	0e300793          	li	a5,227
2000a2c8:	88880737          	lui	a4,0x88880
2000a2cc:	00e7e7b3          	or	a5,a5,a4
2000a2d0:	00f02a23          	sw	a5,20(zero) # 14 <_ITB_BASE_+0x14>
2000a2d4:	0000006f          	j	2000a2d4 <user_init_normal+0x404>
2000a2d8:	2000e537          	lui	a0,0x2000e
2000a2dc:	2b450513          	addi	a0,a0,692 # 2000e2b4 <gen_method_sc+0x290>
2000a2e0:	49d000ef          	jal	ra,2000af7c <printf>
2000a2e4:	2000e9b7          	lui	s3,0x2000e
2000a2e8:	02f00593          	li	a1,47
2000a2ec:	f2098513          	addi	a0,s3,-224 # 2000df20 <cmd_length_array+0x1c>
2000a2f0:	573000ef          	jal	ra,2000b062 <strrchr>
2000a2f4:	f2098593          	addi	a1,s3,-224
2000a2f8:	00050a63          	beqz	a0,2000a30c <user_init_normal+0x43c>
2000a2fc:	02f00593          	li	a1,47
2000a300:	f2098513          	addi	a0,s3,-224
2000a304:	55f000ef          	jal	ra,2000b062 <strrchr>
2000a308:	00150593          	addi	a1,a0,1
2000a30c:	2000e637          	lui	a2,0x2000e
2000a310:	2000e537          	lui	a0,0x2000e
2000a314:	0b900693          	li	a3,185
2000a318:	eb060613          	addi	a2,a2,-336 # 2000deb0 <__FUNCTION__.13075>
2000a31c:	2bc50513          	addi	a0,a0,700 # 2000e2bc <gen_method_sc+0x298>
2000a320:	45d000ef          	jal	ra,2000af7c <printf>
2000a324:	2000e537          	lui	a0,0x2000e
2000a328:	f7450513          	addi	a0,a0,-140 # 2000df74 <cmd_length_array+0x70>
2000a32c:	451000ef          	jal	ra,2000af7c <printf>
2000a330:	801f978b          	addigp	a5,-2048 # 80000 <_DATA_VMA_START>
2000a334:	00478703          	lb	a4,4(a5)
2000a338:	4689                	c.li	a3,2
2000a33a:	00678993          	addi	s3,a5,6
2000a33e:	1ad42c23          	sw	a3,440(s0)
2000a342:	2000a6b7          	lui	a3,0x2000a
2000a346:	d0c68693          	addi	a3,a3,-756 # 20009d0c <fl_controller_event_callback>
2000a34a:	fbf77713          	andi	a4,a4,-65
2000a34e:	85ca                	c.mv	a1,s2
2000a350:	854e                	c.mv	a0,s3
2000a352:	4619                	c.li	a2,6
2000a354:	1ad42623          	sw	a3,428(s0)
2000a358:	00e78223          	sb	a4,4(a5)
2000a35c:	440412a3          	sh	zero,1093(s0)
2000a360:	dfff7097          	auipc	ra,0xdfff7
2000a364:	008080e7          	jalr	8(ra) # 1368 <smemcpy>
2000a368:	000037b7          	lui	a5,0x3
2000a36c:	71478793          	addi	a5,a5,1812 # 3714 <irq_scan_rx_primary_channel>
2000a370:	48f42423          	sw	a5,1160(s0)
2000a374:	200077b7          	lui	a5,0x20007
2000a378:	80478793          	addi	a5,a5,-2044 # 20006804 <blt_leg_scan_mainloop_task>
2000a37c:	50f42023          	sw	a5,1280(s0)
2000a380:	000037b7          	lui	a5,0x3
2000a384:	85ca                	c.mv	a1,s2
2000a386:	4619                	c.li	a2,6
2000a388:	01300533          	add	a0,zero,s3
2000a38c:	b2c78793          	addi	a5,a5,-1236 # 2b2c <blt_setScan_enter_manaul_rx>
2000a390:	46f42623          	sw	a5,1132(s0)
2000a394:	dfff7097          	auipc	ra,0xdfff7
2000a398:	fd4080e7          	jalr	-44(ra) # 1368 <smemcpy>
2000a39c:	70800713          	li	a4,1800
2000a3a0:	44a40783          	lb	a5,1098(s0)
2000a3a4:	1ae42823          	sw	a4,432(s0)
2000a3a8:	4711                	c.li	a4,4
2000a3aa:	cbc48493          	addi	s1,s1,-836
2000a3ae:	44e40623          	sb	a4,1100(s0)
2000a3b2:	00027737          	lui	a4,0x27
2000a3b6:	0207e793          	ori	a5,a5,32
2000a3ba:	10070713          	addi	a4,a4,256 # 27100 <BIN_SIZE+0x18910>
2000a3be:	1a942a23          	sw	s1,436(s0)
2000a3c2:	44942823          	sw	s1,1104(s0)
2000a3c6:	4505                	c.li	a0,1
2000a3c8:	44e42c23          	sw	a4,1112(s0)
2000a3cc:	44f40523          	sb	a5,1098(s0)
2000a3d0:	879f948b          	addigp	s1,-1928 # 80078 <G_DATA_CONTAINER>
2000a3d4:	dfff8097          	auipc	ra,0xdfff8
2000a3d8:	14c080e7          	jalr	332(ra) # 2520 <bls_ll_setAdvEnable>
2000a3dc:	4088                	c.lw	a0,0(s1)
2000a3de:	4601                	c.li	a2,0
2000a3e0:	00000593          	li	a1,0
2000a3e4:	2ef000ef          	jal	ra,2000aed2 <memset>
2000a3e8:	479d                	c.li	a5,7
2000a3ea:	c0dc                	c.sw	a5,4(s1)
2000a3ec:	dfff7097          	auipc	ra,0xdfff7
2000a3f0:	f14080e7          	jalr	-236(ra) # 1300 <rf_set_power_level_index.constprop.37>
2000a3f4:	6785                	c.lui	a5,0x1
2000a3f6:	b0a78793          	addi	a5,a5,-1270 # b0a <app_acl_txfifo+0x186>
2000a3fa:	44f41e23          	sh	a5,1116(s0)
2000a3fe:	47b1                	c.li	a5,12
2000a400:	44f40f23          	sb	a5,1118(s0)
2000a404:	40b6                	c.lwsp	ra,76(sp)
2000a406:	4426                	c.lwsp	s0,72(sp)
2000a408:	4496                	c.lwsp	s1,68(sp)
2000a40a:	4906                	c.lwsp	s2,64(sp)
2000a40c:	59f2                	c.lwsp	s3,60(sp)
2000a40e:	5a62                	c.lwsp	s4,56(sp)
2000a410:	5ad2                	c.lwsp	s5,52(sp)
2000a412:	6161                	c.addi16sp	sp,80
2000a414:	8082                	c.jr	ra
	...

2000a418 <main_loop>:
2000a418:	7111                	c.addi16sp	sp,-256
2000a41a:	df86                	c.swsp	ra,252(sp)
2000a41c:	dda2                	c.swsp	s0,248(sp)
2000a41e:	dba6                	c.swsp	s1,244(sp)
2000a420:	d9ca                	c.swsp	s2,240(sp)
2000a422:	d7ce                	c.swsp	s3,236(sp)
2000a424:	d5d2                	c.swsp	s4,232(sp)
2000a426:	d3d6                	c.swsp	s5,228(sp)
2000a428:	dfffa097          	auipc	ra,0xdfffa
2000a42c:	fc0080e7          	jalr	-64(ra) # 43e8 <blt_sdk_main_loop>
2000a430:	000007b7          	lui	a5,0x0
2000a434:	17878793          	addi	a5,a5,376 # 178 <_AES_VMA_END>
2000a438:	18178783          	lb	a5,385(a5)
2000a43c:	0ff7f793          	andi	a5,a5,255
2000a440:	1e27d45b          	beqc	a5,2,2000a628 <main_loop+0x210>
2000a444:	879f940b          	addigp	s0,-1928 # 80078 <G_DATA_CONTAINER>
2000a448:	00544903          	lbu	s2,5(s0)
2000a44c:	00644783          	lbu	a5,6(s0)
2000a450:	1d278c63          	beq	a5,s2,2000a628 <main_loop+0x210>
2000a454:	400c                	c.lw	a1,0(s0)
2000a456:	00691793          	slli	a5,s2,0x6
2000a45a:	97ca                	c.add	a5,s2
2000a45c:	95be                	c.add	a1,a5
2000a45e:	04100613          	li	a2,65
2000a462:	08a8                	c.addi4spn	a0,sp,88
2000a464:	175000ef          	jal	ra,2000add8 <memcpy>
2000a468:	00740783          	lb	a5,7(s0)
2000a46c:	00440683          	lb	a3,4(s0)
2000a470:	875f948b          	addigp	s1,-1932 # 80074 <FmDebug>
2000a474:	0905                	c.addi	s2,1
2000a476:	00d97933          	and	s2,s2,a3
2000a47a:	17fd                	c.addi	a5,-1
2000a47c:	00049703          	lh	a4,0(s1)
2000a480:	012402a3          	sb	s2,5(s0)
2000a484:	00f403a3          	sb	a5,7(s0)
2000a488:	0027745b          	bbc	a4,2,2000a490 <main_loop+0x78>
2000a48c:	3180006f          	j	2000a7a4 <main_loop+0x38c>
2000a490:	08bc                	c.addi4spn	a5,sp,88
2000a492:	0978                	c.addi4spn	a4,sp,156
2000a494:	09410693          	addi	a3,sp,148
2000a498:	4388                	c.lw	a0,0(a5)
2000a49a:	43cc                	c.lw	a1,4(a5)
2000a49c:	4790                	c.lw	a2,8(a5)
2000a49e:	c308                	c.sw	a0,0(a4)
2000a4a0:	c34c                	c.sw	a1,4(a4)
2000a4a2:	c710                	c.sw	a2,8(a4)
2000a4a4:	07b1                	c.addi	a5,12
2000a4a6:	0731                	c.addi	a4,12
2000a4a8:	fed798e3          	bne	a5,a3,2000a498 <main_loop+0x80>
2000a4ac:	4394                	c.lw	a3,0(a5)
2000a4ae:	c314                	c.sw	a3,0(a4)
2000a4b0:	00478783          	lb	a5,4(a5)
2000a4b4:	00f70223          	sb	a5,4(a4)
2000a4b8:	09c14783          	lbu	a5,156(sp)
2000a4bc:	19b7d45b          	beqc	a5,27,2000a644 <main_loop+0x22c>
2000a4c0:	2000e537          	lui	a0,0x2000e
2000a4c4:	f4450513          	addi	a0,a0,-188 # 2000df44 <cmd_length_array+0x40>
2000a4c8:	2b5000ef          	jal	ra,2000af7c <printf>
2000a4cc:	2000e437          	lui	s0,0x2000e
2000a4d0:	02f00593          	li	a1,47
2000a4d4:	f2040513          	addi	a0,s0,-224 # 2000df20 <cmd_length_array+0x1c>
2000a4d8:	38b000ef          	jal	ra,2000b062 <strrchr>
2000a4dc:	f2040593          	addi	a1,s0,-224
2000a4e0:	00050a63          	beqz	a0,2000a4f4 <main_loop+0xdc>
2000a4e4:	02f00593          	li	a1,47
2000a4e8:	f2040513          	addi	a0,s0,-224
2000a4ec:	377000ef          	jal	ra,2000b062 <strrchr>
2000a4f0:	00150593          	addi	a1,a0,1
2000a4f4:	2000e937          	lui	s2,0x2000e
2000a4f8:	2000e537          	lui	a0,0x2000e
2000a4fc:	11900693          	li	a3,281
2000a500:	ed890613          	addi	a2,s2,-296 # 2000ded8 <__FUNCTION__.13306>
2000a504:	1a450513          	addi	a0,a0,420 # 2000e1a4 <gen_method_sc+0x180>
2000a508:	275000ef          	jal	ra,2000af7c <printf>
2000a50c:	2000e9b7          	lui	s3,0x2000e
2000a510:	f7498513          	addi	a0,s3,-140 # 2000df74 <cmd_length_array+0x70>
2000a514:	269000ef          	jal	ra,2000af7c <printf>
2000a518:	00049783          	lh	a5,0(s1)
2000a51c:	1027f65b          	bbc	a5,2,2000a628 <main_loop+0x210>
2000a520:	00049783          	lh	a5,0(s1)
2000a524:	0027f45b          	bbc	a5,2,2000a52c <main_loop+0x114>
2000a528:	4c40006f          	j	2000a9ec <main_loop+0x5d4>
2000a52c:	00049783          	lh	a5,0(s1)
2000a530:	05814903          	lbu	s2,88(sp)
2000a534:	0027f45b          	bbc	a5,2,2000a53c <main_loop+0x124>
2000a538:	4880006f          	j	2000a9c0 <main_loop+0x5a8>
2000a53c:	3c09295b          	bfoz	s2,s2,15,0
2000a540:	22090c63          	beqz	s2,2000a778 <main_loop+0x360>
2000a544:	197d                	c.addi	s2,-1
2000a546:	3c09295b          	bfoz	s2,s2,15,0
2000a54a:	05a10613          	addi	a2,sp,90
2000a54e:	05910413          	addi	s0,sp,89
2000a552:	9932                	c.add	s2,a2
2000a554:	2000eab7          	lui	s5,0x2000e
2000a558:	2000ea37          	lui	s4,0x2000e
2000a55c:	00c0006f          	j	2000a568 <main_loop+0x150>
2000a560:	00140413          	addi	s0,s0,1
2000a564:	21240a63          	beq	s0,s2,2000a778 <main_loop+0x360>
2000a568:	00049783          	lh	a5,0(s1)
2000a56c:	be27fa5b          	bbc	a5,2,2000a560 <main_loop+0x148>
2000a570:	f7ca8513          	addi	a0,s5,-132 # 2000df7c <cmd_length_array+0x78>
2000a574:	209000ef          	jal	ra,2000af7c <printf>
2000a578:	00044583          	lbu	a1,0(s0)
2000a57c:	0fca0513          	addi	a0,s4,252 # 2000e0fc <gen_method_sc+0xd8>
2000a580:	1fd000ef          	jal	ra,2000af7c <printf>
2000a584:	f7498513          	addi	a0,s3,-140
2000a588:	1f5000ef          	jal	ra,2000af7c <printf>
2000a58c:	fd5ff06f          	j	2000a560 <main_loop+0x148>
2000a590:	00049783          	lh	a5,0(s1)
2000a594:	0247f45b          	bbc	a5,4,2000a5bc <main_loop+0x1a4>
2000a598:	2000e537          	lui	a0,0x2000e
2000a59c:	0b450513          	addi	a0,a0,180 # 2000e0b4 <gen_method_sc+0x90>
2000a5a0:	1dd000ef          	jal	ra,2000af7c <printf>
2000a5a4:	2000e537          	lui	a0,0x2000e
2000a5a8:	2e850513          	addi	a0,a0,744 # 2000e2e8 <gen_method_sc+0x2c4>
2000a5ac:	1d1000ef          	jal	ra,2000af7c <printf>
2000a5b0:	2000e537          	lui	a0,0x2000e
2000a5b4:	f7450513          	addi	a0,a0,-140 # 2000df74 <cmd_length_array+0x70>
2000a5b8:	1c5000ef          	jal	ra,2000af7c <printf>
2000a5bc:	00049783          	lh	a5,0(s1)
2000a5c0:	6647f65b          	bbs	a5,4,2000a82c <main_loop+0x414>
2000a5c4:	00049783          	lh	a5,0(s1)
2000a5c8:	0647f05b          	bbc	a5,4,2000a628 <main_loop+0x210>
2000a5cc:	2000e537          	lui	a0,0x2000e
2000a5d0:	0b450513          	addi	a0,a0,180 # 2000e0b4 <gen_method_sc+0x90>
2000a5d4:	1a9000ef          	jal	ra,2000af7c <printf>
2000a5d8:	2000e437          	lui	s0,0x2000e
2000a5dc:	02f00593          	li	a1,47
2000a5e0:	f2040513          	addi	a0,s0,-224 # 2000df20 <cmd_length_array+0x1c>
2000a5e4:	27f000ef          	jal	ra,2000b062 <strrchr>
2000a5e8:	f2040593          	addi	a1,s0,-224
2000a5ec:	00050a63          	beqz	a0,2000a600 <main_loop+0x1e8>
2000a5f0:	02f00593          	li	a1,47
2000a5f4:	f2040513          	addi	a0,s0,-224
2000a5f8:	26b000ef          	jal	ra,2000b062 <strrchr>
2000a5fc:	00150593          	addi	a1,a0,1
2000a600:	05610703          	lb	a4,86(sp)
2000a604:	2000e637          	lui	a2,0x2000e
2000a608:	2000e537          	lui	a0,0x2000e
2000a60c:	0fe00693          	li	a3,254
2000a610:	ec460613          	addi	a2,a2,-316 # 2000dec4 <__FUNCTION__.13105>
2000a614:	18850513          	addi	a0,a0,392 # 2000e188 <gen_method_sc+0x164>
2000a618:	165000ef          	jal	ra,2000af7c <printf>
2000a61c:	2000e537          	lui	a0,0x2000e
2000a620:	f7450513          	addi	a0,a0,-140 # 2000df74 <cmd_length_array+0x70>
2000a624:	159000ef          	jal	ra,2000af7c <printf>
2000a628:	00000513          	li	a0,0
2000a62c:	ed5fd0ef          	jal	ra,20008500 <blt_soft_timer_process>
2000a630:	50fe                	c.lwsp	ra,252(sp)
2000a632:	546e                	c.lwsp	s0,248(sp)
2000a634:	54de                	c.lwsp	s1,244(sp)
2000a636:	594e                	c.lwsp	s2,240(sp)
2000a638:	59be                	c.lwsp	s3,236(sp)
2000a63a:	5a2e                	c.lwsp	s4,232(sp)
2000a63c:	5a9e                	c.lwsp	s5,228(sp)
2000a63e:	6111                	c.addi16sp	sp,256
2000a640:	00008067          	ret
2000a644:	466d                	c.li	a2,27
2000a646:	09d10593          	addi	a1,sp,157
2000a64a:	1868                	c.addi4spn	a0,sp,60
2000a64c:	78c000ef          	jal	ra,2000add8 <memcpy>
2000a650:	5772                	c.lwsp	a4,60(sp)
2000a652:	00049783          	lh	a5,0(s1)
2000a656:	d03a                	c.swsp	a4,32(sp)
2000a658:	4706                	c.lwsp	a4,64(sp)
2000a65a:	d23a                	c.swsp	a4,36(sp)
2000a65c:	4716                	c.lwsp	a4,68(sp)
2000a65e:	d43a                	c.swsp	a4,40(sp)
2000a660:	4726                	c.lwsp	a4,72(sp)
2000a662:	d63a                	c.swsp	a4,44(sp)
2000a664:	4736                	c.lwsp	a4,76(sp)
2000a666:	d83a                	c.swsp	a4,48(sp)
2000a668:	4746                	c.lwsp	a4,80(sp)
2000a66a:	da3a                	c.swsp	a4,52(sp)
2000a66c:	05411703          	lh	a4,84(sp)
2000a670:	02e11c23          	sh	a4,56(sp)
2000a674:	05610703          	lb	a4,86(sp)
2000a678:	02e10d23          	sb	a4,58(sp)
2000a67c:	6e47f25b          	bbs	a5,4,2000a960 <main_loop+0x548>
2000a680:	00049783          	lh	a5,0(s1)
2000a684:	0647f65b          	bbc	a5,4,2000a6f0 <main_loop+0x2d8>
2000a688:	00049783          	lh	a5,0(s1)
2000a68c:	0047f45b          	bbc	a5,4,2000a694 <main_loop+0x27c>
2000a690:	3ac0006f          	j	2000aa3c <main_loop+0x624>
2000a694:	00049783          	lh	a5,0(s1)
2000a698:	0047f45b          	bbc	a5,4,2000a6a0 <main_loop+0x288>
2000a69c:	3f80006f          	j	2000aa94 <main_loop+0x67c>
2000a6a0:	03c10413          	addi	s0,sp,60
2000a6a4:	04010913          	addi	s2,sp,64
2000a6a8:	2000eab7          	lui	s5,0x2000e
2000a6ac:	2000ea37          	lui	s4,0x2000e
2000a6b0:	2000e9b7          	lui	s3,0x2000e
2000a6b4:	00049783          	lh	a5,0(s1)
2000a6b8:	5447fa5b          	bbs	a5,4,2000a80c <main_loop+0x3f4>
2000a6bc:	00140413          	addi	s0,s0,1
2000a6c0:	ff241ae3          	bne	s0,s2,2000a6b4 <main_loop+0x29c>
2000a6c4:	00049783          	lh	a5,0(s1)
2000a6c8:	0247f45b          	bbc	a5,4,2000a6f0 <main_loop+0x2d8>
2000a6cc:	2000e537          	lui	a0,0x2000e
2000a6d0:	0b450513          	addi	a0,a0,180 # 2000e0b4 <gen_method_sc+0x90>
2000a6d4:	0a9000ef          	jal	ra,2000af7c <printf>
2000a6d8:	2000e537          	lui	a0,0x2000e
2000a6dc:	2e850513          	addi	a0,a0,744 # 2000e2e8 <gen_method_sc+0x2c4>
2000a6e0:	09d000ef          	jal	ra,2000af7c <printf>
2000a6e4:	2000e537          	lui	a0,0x2000e
2000a6e8:	f7450513          	addi	a0,a0,-140 # 2000df74 <cmd_length_array+0x70>
2000a6ec:	091000ef          	jal	ra,2000af7c <printf>
2000a6f0:	03d12783          	lw	a5,61(sp)
2000a6f4:	0868                	c.addi4spn	a0,sp,28
2000a6f6:	ce3e                	c.swsp	a5,28(sp)
2000a6f8:	4a0000ef          	jal	ra,2000ab98 <localtime>
2000a6fc:	00049783          	lh	a5,0(s1)
2000a700:	00a00433          	add	s0,zero,a0
2000a704:	5e47fe5b          	bbs	a5,4,2000a900 <main_loop+0x4e8>
2000a708:	00049783          	lh	a5,0(s1)
2000a70c:	5847f05b          	bbs	a5,4,2000a88c <main_loop+0x474>
2000a710:	00049783          	lh	a5,0(s1)
2000a714:	aa47f45b          	bbc	a5,4,2000a5bc <main_loop+0x1a4>
2000a718:	00049783          	lh	a5,0(s1)
2000a71c:	0047f45b          	bbc	a5,4,2000a724 <main_loop+0x30c>
2000a720:	3d40006f          	j	2000aaf4 <main_loop+0x6dc>
2000a724:	00049783          	lh	a5,0(s1)
2000a728:	0047f45b          	bbc	a5,4,2000a730 <main_loop+0x318>
2000a72c:	3980006f          	j	2000aac4 <main_loop+0x6ac>
2000a730:	04110413          	addi	s0,sp,65
2000a734:	05510913          	addi	s2,sp,85
2000a738:	2000eab7          	lui	s5,0x2000e
2000a73c:	2000ea37          	lui	s4,0x2000e
2000a740:	2000e9b7          	lui	s3,0x2000e
2000a744:	00c0006f          	j	2000a750 <main_loop+0x338>
2000a748:	00140413          	addi	s0,s0,1
2000a74c:	e52402e3          	beq	s0,s2,2000a590 <main_loop+0x178>
2000a750:	00049783          	lh	a5,0(s1)
2000a754:	be47fa5b          	bbc	a5,4,2000a748 <main_loop+0x330>
2000a758:	0b4a8513          	addi	a0,s5,180 # 2000e0b4 <gen_method_sc+0x90>
2000a75c:	021000ef          	jal	ra,2000af7c <printf>
2000a760:	00044583          	lbu	a1,0(s0)
2000a764:	0fca0513          	addi	a0,s4,252 # 2000e0fc <gen_method_sc+0xd8>
2000a768:	015000ef          	jal	ra,2000af7c <printf>
2000a76c:	f7498513          	addi	a0,s3,-140 # 2000df74 <cmd_length_array+0x70>
2000a770:	00d000ef          	jal	ra,2000af7c <printf>
2000a774:	fd5ff06f          	j	2000a748 <main_loop+0x330>
2000a778:	00049783          	lh	a5,0(s1)
2000a77c:	aa27f65b          	bbc	a5,2,2000a628 <main_loop+0x210>
2000a780:	2000e537          	lui	a0,0x2000e
2000a784:	f7c50513          	addi	a0,a0,-132 # 2000df7c <cmd_length_array+0x78>
2000a788:	7f4000ef          	jal	ra,2000af7c <printf>
2000a78c:	2000e537          	lui	a0,0x2000e
2000a790:	2e850513          	addi	a0,a0,744 # 2000e2e8 <gen_method_sc+0x2c4>
2000a794:	7e8000ef          	jal	ra,2000af7c <printf>
2000a798:	f7498513          	addi	a0,s3,-140
2000a79c:	7e0000ef          	jal	ra,2000af7c <printf>
2000a7a0:	e89ff06f          	j	2000a628 <main_loop+0x210>
2000a7a4:	2000e537          	lui	a0,0x2000e
2000a7a8:	f7c50513          	addi	a0,a0,-132 # 2000df7c <cmd_length_array+0x78>
2000a7ac:	7d0000ef          	jal	ra,2000af7c <printf>
2000a7b0:	2000e937          	lui	s2,0x2000e
2000a7b4:	02f00593          	li	a1,47
2000a7b8:	f2090513          	addi	a0,s2,-224 # 2000df20 <cmd_length_array+0x1c>
2000a7bc:	0a7000ef          	jal	ra,2000b062 <strrchr>
2000a7c0:	f2090593          	addi	a1,s2,-224
2000a7c4:	00050a63          	beqz	a0,2000a7d8 <main_loop+0x3c0>
2000a7c8:	02f00593          	li	a1,47
2000a7cc:	f2090513          	addi	a0,s2,-224
2000a7d0:	093000ef          	jal	ra,2000b062 <strrchr>
2000a7d4:	00150593          	addi	a1,a0,1
2000a7d8:	00644803          	lbu	a6,6(s0)
2000a7dc:	00544783          	lbu	a5,5(s0)
2000a7e0:	00744703          	lbu	a4,7(s0)
2000a7e4:	2000e637          	lui	a2,0x2000e
2000a7e8:	2000e537          	lui	a0,0x2000e
2000a7ec:	10d00693          	li	a3,269
2000a7f0:	ed860613          	addi	a2,a2,-296 # 2000ded8 <__FUNCTION__.13306>
2000a7f4:	08850513          	addi	a0,a0,136 # 2000e088 <gen_method_sc+0x64>
2000a7f8:	784000ef          	jal	ra,2000af7c <printf>
2000a7fc:	2000e537          	lui	a0,0x2000e
2000a800:	f7450513          	addi	a0,a0,-140 # 2000df74 <cmd_length_array+0x70>
2000a804:	778000ef          	jal	ra,2000af7c <printf>
2000a808:	c89ff06f          	j	2000a490 <main_loop+0x78>
2000a80c:	0b4a8513          	addi	a0,s5,180
2000a810:	76c000ef          	jal	ra,2000af7c <printf>
2000a814:	00144583          	lbu	a1,1(s0)
2000a818:	0fca0513          	addi	a0,s4,252
2000a81c:	760000ef          	jal	ra,2000af7c <printf>
2000a820:	f7498513          	addi	a0,s3,-140
2000a824:	758000ef          	jal	ra,2000af7c <printf>
2000a828:	e95ff06f          	j	2000a6bc <main_loop+0x2a4>
2000a82c:	2000e537          	lui	a0,0x2000e
2000a830:	0b450513          	addi	a0,a0,180 # 2000e0b4 <gen_method_sc+0x90>
2000a834:	748000ef          	jal	ra,2000af7c <printf>
2000a838:	2000e437          	lui	s0,0x2000e
2000a83c:	02f00593          	li	a1,47
2000a840:	f2040513          	addi	a0,s0,-224 # 2000df20 <cmd_length_array+0x1c>
2000a844:	01f000ef          	jal	ra,2000b062 <strrchr>
2000a848:	f2040593          	addi	a1,s0,-224
2000a84c:	00050a63          	beqz	a0,2000a860 <main_loop+0x448>
2000a850:	02f00593          	li	a1,47
2000a854:	f2040513          	addi	a0,s0,-224
2000a858:	00b000ef          	jal	ra,2000b062 <strrchr>
2000a85c:	00150593          	addi	a1,a0,1
2000a860:	05514703          	lbu	a4,85(sp)
2000a864:	2000e637          	lui	a2,0x2000e
2000a868:	2000e537          	lui	a0,0x2000e
2000a86c:	0fd00693          	li	a3,253
2000a870:	ec460613          	addi	a2,a2,-316 # 2000dec4 <__FUNCTION__.13105>
2000a874:	16450513          	addi	a0,a0,356 # 2000e164 <gen_method_sc+0x140>
2000a878:	704000ef          	jal	ra,2000af7c <printf>
2000a87c:	2000e537          	lui	a0,0x2000e
2000a880:	f7450513          	addi	a0,a0,-140 # 2000df74 <cmd_length_array+0x70>
2000a884:	6f8000ef          	jal	ra,2000af7c <printf>
2000a888:	d3dff06f          	j	2000a5c4 <main_loop+0x1ac>
2000a88c:	2000e537          	lui	a0,0x2000e
2000a890:	0b450513          	addi	a0,a0,180 # 2000e0b4 <gen_method_sc+0x90>
2000a894:	6e8000ef          	jal	ra,2000af7c <printf>
2000a898:	2000e937          	lui	s2,0x2000e
2000a89c:	02f00593          	li	a1,47
2000a8a0:	f2090513          	addi	a0,s2,-224 # 2000df20 <cmd_length_array+0x1c>
2000a8a4:	7be000ef          	jal	ra,2000b062 <strrchr>
2000a8a8:	f2090593          	addi	a1,s2,-224
2000a8ac:	00050a63          	beqz	a0,2000a8c0 <main_loop+0x4a8>
2000a8b0:	02f00593          	li	a1,47
2000a8b4:	f2090513          	addi	a0,s2,-224
2000a8b8:	7aa000ef          	jal	ra,2000b062 <strrchr>
2000a8bc:	00150593          	addi	a1,a0,1
2000a8c0:	4014                	c.lw	a3,0(s0)
2000a8c2:	00842883          	lw	a7,8(s0)
2000a8c6:	00c42803          	lw	a6,12(s0)
2000a8ca:	481c                	c.lw	a5,16(s0)
2000a8cc:	4858                	c.lw	a4,20(s0)
2000a8ce:	2000e637          	lui	a2,0x2000e
2000a8d2:	c236                	c.swsp	a3,4(sp)
2000a8d4:	2000e537          	lui	a0,0x2000e
2000a8d8:	00442303          	lw	t1,4(s0)
2000a8dc:	0fb00693          	li	a3,251
2000a8e0:	ec460613          	addi	a2,a2,-316 # 2000dec4 <__FUNCTION__.13105>
2000a8e4:	12450513          	addi	a0,a0,292 # 2000e124 <gen_method_sc+0x100>
2000a8e8:	00612023          	sw	t1,0(sp)
2000a8ec:	690000ef          	jal	ra,2000af7c <printf>
2000a8f0:	2000e537          	lui	a0,0x2000e
2000a8f4:	f7450513          	addi	a0,a0,-140 # 2000df74 <cmd_length_array+0x70>
2000a8f8:	684000ef          	jal	ra,2000af7c <printf>
2000a8fc:	e15ff06f          	j	2000a710 <main_loop+0x2f8>
2000a900:	2000e537          	lui	a0,0x2000e
2000a904:	0b450513          	addi	a0,a0,180 # 2000e0b4 <gen_method_sc+0x90>
2000a908:	674000ef          	jal	ra,2000af7c <printf>
2000a90c:	2000e937          	lui	s2,0x2000e
2000a910:	02f00593          	li	a1,47
2000a914:	f2090513          	addi	a0,s2,-224 # 2000df20 <cmd_length_array+0x1c>
2000a918:	74a000ef          	jal	ra,2000b062 <strrchr>
2000a91c:	f2090593          	addi	a1,s2,-224
2000a920:	00050a63          	beqz	a0,2000a934 <main_loop+0x51c>
2000a924:	02f00593          	li	a1,47
2000a928:	f2090513          	addi	a0,s2,-224
2000a92c:	736000ef          	jal	ra,2000b062 <strrchr>
2000a930:	00150593          	addi	a1,a0,1
2000a934:	01c12703          	lw	a4,28(sp)
2000a938:	2000e637          	lui	a2,0x2000e
2000a93c:	2000e537          	lui	a0,0x2000e
2000a940:	0f900693          	li	a3,249
2000a944:	ec460613          	addi	a2,a2,-316 # 2000dec4 <__FUNCTION__.13105>
2000a948:	10450513          	addi	a0,a0,260 # 2000e104 <gen_method_sc+0xe0>
2000a94c:	630000ef          	jal	ra,2000af7c <printf>
2000a950:	2000e537          	lui	a0,0x2000e
2000a954:	f7450513          	addi	a0,a0,-140 # 2000df74 <cmd_length_array+0x70>
2000a958:	624000ef          	jal	ra,2000af7c <printf>
2000a95c:	dadff06f          	j	2000a708 <main_loop+0x2f0>
2000a960:	2000e537          	lui	a0,0x2000e
2000a964:	0b450513          	addi	a0,a0,180 # 2000e0b4 <gen_method_sc+0x90>
2000a968:	614000ef          	jal	ra,2000af7c <printf>
2000a96c:	2000e437          	lui	s0,0x2000e
2000a970:	02f00593          	li	a1,47
2000a974:	f2040513          	addi	a0,s0,-224 # 2000df20 <cmd_length_array+0x1c>
2000a978:	6ea000ef          	jal	ra,2000b062 <strrchr>
2000a97c:	f2040593          	addi	a1,s0,-224
2000a980:	00050a63          	beqz	a0,2000a994 <main_loop+0x57c>
2000a984:	02f00593          	li	a1,47
2000a988:	f2040513          	addi	a0,s0,-224
2000a98c:	6d6000ef          	jal	ra,2000b062 <strrchr>
2000a990:	00150593          	addi	a1,a0,1
2000a994:	03c14703          	lbu	a4,60(sp)
2000a998:	2000e637          	lui	a2,0x2000e
2000a99c:	2000e537          	lui	a0,0x2000e
2000a9a0:	0f300693          	li	a3,243
2000a9a4:	ec460613          	addi	a2,a2,-316 # 2000dec4 <__FUNCTION__.13105>
2000a9a8:	0bc50513          	addi	a0,a0,188 # 2000e0bc <gen_method_sc+0x98>
2000a9ac:	5d0000ef          	jal	ra,2000af7c <printf>
2000a9b0:	2000e537          	lui	a0,0x2000e
2000a9b4:	f7450513          	addi	a0,a0,-140 # 2000df74 <cmd_length_array+0x70>
2000a9b8:	5c4000ef          	jal	ra,2000af7c <printf>
2000a9bc:	cc5ff06f          	j	2000a680 <main_loop+0x268>
2000a9c0:	2000e537          	lui	a0,0x2000e
2000a9c4:	f7c50513          	addi	a0,a0,-132 # 2000df7c <cmd_length_array+0x78>
2000a9c8:	5b4000ef          	jal	ra,2000af7c <printf>
2000a9cc:	2000e5b7          	lui	a1,0x2000e
2000a9d0:	2000e537          	lui	a0,0x2000e
2000a9d4:	864a                	c.mv	a2,s2
2000a9d6:	1cc58593          	addi	a1,a1,460 # 2000e1cc <gen_method_sc+0x1a8>
2000a9da:	1d450513          	addi	a0,a0,468 # 2000e1d4 <gen_method_sc+0x1b0>
2000a9de:	2b79                	c.jal	2000af7c <printf>
2000a9e0:	f7498513          	addi	a0,s3,-140
2000a9e4:	598000ef          	jal	ra,2000af7c <printf>
2000a9e8:	b55ff06f          	j	2000a53c <main_loop+0x124>
2000a9ec:	2000e537          	lui	a0,0x2000e
2000a9f0:	f7c50513          	addi	a0,a0,-132 # 2000df7c <cmd_length_array+0x78>
2000a9f4:	588000ef          	jal	ra,2000af7c <printf>
2000a9f8:	02f00593          	li	a1,47
2000a9fc:	f2040513          	addi	a0,s0,-224
2000aa00:	662000ef          	jal	ra,2000b062 <strrchr>
2000aa04:	f2040593          	addi	a1,s0,-224
2000aa08:	00050a63          	beqz	a0,2000aa1c <main_loop+0x604>
2000aa0c:	02f00593          	li	a1,47
2000aa10:	f2040513          	addi	a0,s0,-224
2000aa14:	64e000ef          	jal	ra,2000b062 <strrchr>
2000aa18:	00150593          	addi	a1,a0,1
2000aa1c:	2000e537          	lui	a0,0x2000e
2000aa20:	11a00693          	li	a3,282
2000aa24:	ed890613          	addi	a2,s2,-296
2000aa28:	0d850513          	addi	a0,a0,216 # 2000e0d8 <gen_method_sc+0xb4>
2000aa2c:	550000ef          	jal	ra,2000af7c <printf>
2000aa30:	f7498513          	addi	a0,s3,-140
2000aa34:	548000ef          	jal	ra,2000af7c <printf>
2000aa38:	af5ff06f          	j	2000a52c <main_loop+0x114>
2000aa3c:	2000e537          	lui	a0,0x2000e
2000aa40:	0b450513          	addi	a0,a0,180 # 2000e0b4 <gen_method_sc+0x90>
2000aa44:	538000ef          	jal	ra,2000af7c <printf>
2000aa48:	2000e437          	lui	s0,0x2000e
2000aa4c:	02f00593          	li	a1,47
2000aa50:	f2040513          	addi	a0,s0,-224 # 2000df20 <cmd_length_array+0x1c>
2000aa54:	60e000ef          	jal	ra,2000b062 <strrchr>
2000aa58:	f2040593          	addi	a1,s0,-224
2000aa5c:	c901                	c.beqz	a0,2000aa6c <main_loop+0x654>
2000aa5e:	02f00593          	li	a1,47
2000aa62:	f2040513          	addi	a0,s0,-224
2000aa66:	2bf5                	c.jal	2000b062 <strrchr>
2000aa68:	00150593          	addi	a1,a0,1
2000aa6c:	2000e637          	lui	a2,0x2000e
2000aa70:	2000e537          	lui	a0,0x2000e
2000aa74:	0f400693          	li	a3,244
2000aa78:	ec460613          	addi	a2,a2,-316 # 2000dec4 <__FUNCTION__.13105>
2000aa7c:	0d850513          	addi	a0,a0,216 # 2000e0d8 <gen_method_sc+0xb4>
2000aa80:	4fc000ef          	jal	ra,2000af7c <printf>
2000aa84:	2000e537          	lui	a0,0x2000e
2000aa88:	f7450513          	addi	a0,a0,-140 # 2000df74 <cmd_length_array+0x70>
2000aa8c:	4f0000ef          	jal	ra,2000af7c <printf>
2000aa90:	c05ff06f          	j	2000a694 <main_loop+0x27c>
2000aa94:	2000e537          	lui	a0,0x2000e
2000aa98:	0b450513          	addi	a0,a0,180 # 2000e0b4 <gen_method_sc+0x90>
2000aa9c:	4e0000ef          	jal	ra,2000af7c <printf>
2000aaa0:	2000e5b7          	lui	a1,0x2000e
2000aaa4:	2000e537          	lui	a0,0x2000e
2000aaa8:	0ec58593          	addi	a1,a1,236 # 2000e0ec <gen_method_sc+0xc8>
2000aaac:	0f850513          	addi	a0,a0,248 # 2000e0f8 <gen_method_sc+0xd4>
2000aab0:	4cc000ef          	jal	ra,2000af7c <printf>
2000aab4:	2000e537          	lui	a0,0x2000e
2000aab8:	f7450513          	addi	a0,a0,-140 # 2000df74 <cmd_length_array+0x70>
2000aabc:	4c0000ef          	jal	ra,2000af7c <printf>
2000aac0:	be1ff06f          	j	2000a6a0 <main_loop+0x288>
2000aac4:	2000e537          	lui	a0,0x2000e
2000aac8:	0b450513          	addi	a0,a0,180 # 2000e0b4 <gen_method_sc+0x90>
2000aacc:	4b0000ef          	jal	ra,2000af7c <printf>
2000aad0:	2000e5b7          	lui	a1,0x2000e
2000aad4:	2000e537          	lui	a0,0x2000e
2000aad8:	15c58593          	addi	a1,a1,348 # 2000e15c <gen_method_sc+0x138>
2000aadc:	0f850513          	addi	a0,a0,248 # 2000e0f8 <gen_method_sc+0xd4>
2000aae0:	49c000ef          	jal	ra,2000af7c <printf>
2000aae4:	2000e537          	lui	a0,0x2000e
2000aae8:	f7450513          	addi	a0,a0,-140 # 2000df74 <cmd_length_array+0x70>
2000aaec:	490000ef          	jal	ra,2000af7c <printf>
2000aaf0:	c41ff06f          	j	2000a730 <main_loop+0x318>
2000aaf4:	2000e537          	lui	a0,0x2000e
2000aaf8:	0b450513          	addi	a0,a0,180 # 2000e0b4 <gen_method_sc+0x90>
2000aafc:	480000ef          	jal	ra,2000af7c <printf>
2000ab00:	2000e437          	lui	s0,0x2000e
2000ab04:	02f00593          	li	a1,47
2000ab08:	f2040513          	addi	a0,s0,-224 # 2000df20 <cmd_length_array+0x1c>
2000ab0c:	556000ef          	jal	ra,2000b062 <strrchr>
2000ab10:	f2040593          	addi	a1,s0,-224
2000ab14:	c901                	c.beqz	a0,2000ab24 <main_loop+0x70c>
2000ab16:	02f00593          	li	a1,47
2000ab1a:	f2040513          	addi	a0,s0,-224
2000ab1e:	2391                	c.jal	2000b062 <strrchr>
2000ab20:	00150593          	addi	a1,a0,1
2000ab24:	2000e637          	lui	a2,0x2000e
2000ab28:	2000e537          	lui	a0,0x2000e
2000ab2c:	0fc00693          	li	a3,252
2000ab30:	ec460613          	addi	a2,a2,-316 # 2000dec4 <__FUNCTION__.13105>
2000ab34:	0d850513          	addi	a0,a0,216 # 2000e0d8 <gen_method_sc+0xb4>
2000ab38:	444000ef          	jal	ra,2000af7c <printf>
2000ab3c:	2000e537          	lui	a0,0x2000e
2000ab40:	f7450513          	addi	a0,a0,-140 # 2000df74 <cmd_length_array+0x70>
2000ab44:	438000ef          	jal	ra,2000af7c <printf>
2000ab48:	bef1                	c.j	2000a724 <main_loop+0x30c>
2000ab4a:	0001                	c.nop

2000ab4c <_write>:
2000ab4c:	1141                	c.addi	sp,-16
2000ab4e:	c606                	c.swsp	ra,12(sp)
2000ab50:	c422                	c.swsp	s0,8(sp)
2000ab52:	c226                	c.swsp	s1,4(sp)
2000ab54:	c04a                	c.swsp	s2,0(sp)
2000ab56:	02c05963          	blez	a2,2000ab88 <_write+0x3c>
2000ab5a:	8932                	c.mv	s2,a2
2000ab5c:	00b00433          	add	s0,zero,a1
2000ab60:	00c584b3          	add	s1,a1,a2
2000ab64:	00044503          	lbu	a0,0(s0)
2000ab68:	00140413          	addi	s0,s0,1
2000ab6c:	dfffa097          	auipc	ra,0xdfffa
2000ab70:	c48080e7          	jalr	-952(ra) # 47b4 <dr_putchar>
2000ab74:	fe9418e3          	bne	s0,s1,2000ab64 <_write+0x18>
2000ab78:	40b2                	c.lwsp	ra,12(sp)
2000ab7a:	4422                	c.lwsp	s0,8(sp)
2000ab7c:	854a                	c.mv	a0,s2
2000ab7e:	4492                	c.lwsp	s1,4(sp)
2000ab80:	4902                	c.lwsp	s2,0(sp)
2000ab82:	0141                	c.addi	sp,16
2000ab84:	00008067          	ret
2000ab88:	40b2                	c.lwsp	ra,12(sp)
2000ab8a:	4422                	c.lwsp	s0,8(sp)
2000ab8c:	4901                	c.li	s2,0
2000ab8e:	854a                	c.mv	a0,s2
2000ab90:	4492                	c.lwsp	s1,4(sp)
2000ab92:	4902                	c.lwsp	s2,0(sp)
2000ab94:	0141                	c.addi	sp,16
2000ab96:	8082                	c.jr	ra

2000ab98 <localtime>:
2000ab98:	12e032ef          	jal	t0,2000dcc6 <__riscv_save_0>
2000ab9c:	b09f958b          	addigp	a1,-1272 # 80308 <__mculib_REENT_localtime_buf>
2000aba0:	2019                	c.jal	2000aba6 <localtime_r>
2000aba2:	1480306f          	j	2000dcea <__riscv_restore_0>

2000aba6 <localtime_r>:
2000aba6:	106032ef          	jal	t0,2000dcac <__riscv_save_4>
2000abaa:	1141                	c.addi	sp,-16
2000abac:	89aa                	c.mv	s3,a0
2000abae:	c62e                	c.swsp	a1,12(sp)
2000abb0:	243000ef          	jal	ra,2000b5f2 <__gettzinfo>
2000abb4:	45b2                	c.lwsp	a1,12(sp)
2000abb6:	892a                	c.mv	s2,a0
2000abb8:	854e                	c.mv	a0,s3
2000abba:	23f000ef          	jal	ra,2000b5f8 <gmtime_r>
2000abbe:	842a                	c.mv	s0,a0
2000abc0:	4948                	c.lw	a0,20(a0)
2000abc2:	76c50513          	addi	a0,a0,1900
2000abc6:	00357793          	andi	a5,a0,3
2000abca:	e799                	c.bnez	a5,2000abd8 <localtime_r+0x32>
2000abcc:	06400793          	li	a5,100
2000abd0:	02f567b3          	rem	a5,a0,a5
2000abd4:	4485                	c.li	s1,1
2000abd6:	e799                	c.bnez	a5,2000abe4 <localtime_r+0x3e>
2000abd8:	19000493          	li	s1,400
2000abdc:	029564b3          	rem	s1,a0,s1
2000abe0:	0014b493          	seqz	s1,s1
2000abe4:	03000793          	li	a5,48
2000abe8:	02f484b3          	mul	s1,s1,a5
2000abec:	2000e7b7          	lui	a5,0x2000e
2000abf0:	2ec78793          	addi	a5,a5,748 # 2000e2ec <__month_lengths>
2000abf4:	c62a                	c.swsp	a0,12(sp)
2000abf6:	94be                	c.add	s1,a5
2000abf8:	2b5d                	c.jal	2000b1ae <__tz_lock>
2000abfa:	2b65                	c.jal	2000b1b2 <_tzset_unlocked>
2000abfc:	8dbfa7ab          	lwgp	a5,-1832 # 800d8 <_daylight>
2000ac00:	cff1                	c.beqz	a5,2000acdc <localtime_r+0x136>
2000ac02:	00492783          	lw	a5,4(s2)
2000ac06:	4532                	c.lwsp	a0,12(sp)
2000ac08:	0aa79e63          	bne	a5,a0,2000acc4 <localtime_r+0x11e>
2000ac0c:	00092783          	lw	a5,0(s2)
2000ac10:	0009a703          	lw	a4,0(s3)
2000ac14:	01c92683          	lw	a3,28(s2)
2000ac18:	ebd5                	c.bnez	a5,2000accc <localtime_r+0x126>
2000ac1a:	4785                	c.li	a5,1
2000ac1c:	0ad74b63          	blt	a4,a3,2000acd2 <localtime_r+0x12c>
2000ac20:	d01c                	c.sw	a5,32(s0)
2000ac22:	501c                	c.lw	a5,32(s0)
2000ac24:	0a17ef5b          	bnec	a5,1,2000ace2 <localtime_r+0x13c>
2000ac28:	03c92703          	lw	a4,60(s2)
2000ac2c:	6605                	c.lui	a2,0x1
2000ac2e:	e1060613          	addi	a2,a2,-496 # e10 <app_acl_rxfifo+0x15c>
2000ac32:	02c766b3          	rem	a3,a4,a2
2000ac36:	03c00593          	li	a1,60
2000ac3a:	401c                	c.lw	a5,0(s0)
2000ac3c:	02c74633          	div	a2,a4,a2
2000ac40:	4418                	c.lw	a4,8(s0)
2000ac42:	02b6e533          	rem	a0,a3,a1
2000ac46:	8f11                	c.sub	a4,a2
2000ac48:	c418                	c.sw	a4,8(s0)
2000ac4a:	03b00613          	li	a2,59
2000ac4e:	02b6c5b3          	div	a1,a3,a1
2000ac52:	4054                	c.lw	a3,4(s0)
2000ac54:	8f89                	c.sub	a5,a0
2000ac56:	c01c                	c.sw	a5,0(s0)
2000ac58:	8e8d                	c.sub	a3,a1
2000ac5a:	c054                	c.sw	a3,4(s0)
2000ac5c:	08f65663          	bge	a2,a5,2000ace8 <localtime_r+0x142>
2000ac60:	0685                	c.addi	a3,1
2000ac62:	fc478793          	addi	a5,a5,-60
2000ac66:	c054                	c.sw	a3,4(s0)
2000ac68:	c01c                	c.sw	a5,0(s0)
2000ac6a:	405c                	c.lw	a5,4(s0)
2000ac6c:	03b00693          	li	a3,59
2000ac70:	08f6d363          	bge	a3,a5,2000acf6 <localtime_r+0x150>
2000ac74:	0705                	c.addi	a4,1
2000ac76:	fc478793          	addi	a5,a5,-60
2000ac7a:	c418                	c.sw	a4,8(s0)
2000ac7c:	c05c                	c.sw	a5,4(s0)
2000ac7e:	441c                	c.lw	a5,8(s0)
2000ac80:	475d                	c.li	a4,23
2000ac82:	08f75c63          	bge	a4,a5,2000ad1a <localtime_r+0x174>
2000ac86:	4c58                	c.lw	a4,28(s0)
2000ac88:	4699                	c.li	a3,6
2000ac8a:	0705                	c.addi	a4,1
2000ac8c:	cc58                	c.sw	a4,28(s0)
2000ac8e:	4c18                	c.lw	a4,24(s0)
2000ac90:	0705                	c.addi	a4,1
2000ac92:	06e6c963          	blt	a3,a4,2000ad04 <localtime_r+0x15e>
2000ac96:	cc18                	c.sw	a4,24(s0)
2000ac98:	17a1                	c.addi	a5,-24
2000ac9a:	4458                	c.lw	a4,12(s0)
2000ac9c:	c41c                	c.sw	a5,8(s0)
2000ac9e:	481c                	c.lw	a5,16(s0)
2000aca0:	0705                	c.addi	a4,1
2000aca2:	0cf484db          	lea.w	s1,s1,a5
2000aca6:	c458                	c.sw	a4,12(s0)
2000aca8:	4094                	c.lw	a3,0(s1)
2000acaa:	00e6d863          	bge	a3,a4,2000acba <localtime_r+0x114>
2000acae:	8f15                	c.sub	a4,a3
2000acb0:	c458                	c.sw	a4,12(s0)
2000acb2:	0785                	c.addi	a5,1
2000acb4:	04c7db5b          	beqc	a5,12,2000ad0a <localtime_r+0x164>
2000acb8:	c81c                	c.sw	a5,16(s0)
2000acba:	29dd                	c.jal	2000b1b0 <__tz_unlock>
2000acbc:	8522                	c.mv	a0,s0
2000acbe:	0141                	c.addi	sp,16
2000acc0:	0200306f          	j	2000dce0 <__riscv_restore_4>
2000acc4:	26e9                	c.jal	2000b08e <__tzcalc_limits>
2000acc6:	f139                	c.bnez	a0,2000ac0c <localtime_r+0x66>
2000acc8:	57fd                	c.li	a5,-1
2000acca:	bf99                	c.j	2000ac20 <localtime_r+0x7a>
2000accc:	4781                	c.li	a5,0
2000acce:	f4d749e3          	blt	a4,a3,2000ac20 <localtime_r+0x7a>
2000acd2:	03892783          	lw	a5,56(s2)
2000acd6:	00f727b3          	slt	a5,a4,a5
2000acda:	b799                	c.j	2000ac20 <localtime_r+0x7a>
2000acdc:	02042023          	sw	zero,32(s0)
2000ace0:	b789                	c.j	2000ac22 <localtime_r+0x7c>
2000ace2:	02092703          	lw	a4,32(s2)
2000ace6:	b799                	c.j	2000ac2c <localtime_r+0x86>
2000ace8:	f807d1e3          	bgez	a5,2000ac6a <localtime_r+0xc4>
2000acec:	16fd                	c.addi	a3,-1
2000acee:	c054                	c.sw	a3,4(s0)
2000acf0:	03c78793          	addi	a5,a5,60
2000acf4:	bf95                	c.j	2000ac68 <localtime_r+0xc2>
2000acf6:	f807d4e3          	bgez	a5,2000ac7e <localtime_r+0xd8>
2000acfa:	177d                	c.addi	a4,-1
2000acfc:	c418                	c.sw	a4,8(s0)
2000acfe:	03c78793          	addi	a5,a5,60
2000ad02:	bfad                	c.j	2000ac7c <localtime_r+0xd6>
2000ad04:	00042c23          	sw	zero,24(s0)
2000ad08:	bf41                	c.j	2000ac98 <localtime_r+0xf2>
2000ad0a:	485c                	c.lw	a5,20(s0)
2000ad0c:	00042823          	sw	zero,16(s0)
2000ad10:	0785                	c.addi	a5,1
2000ad12:	c85c                	c.sw	a5,20(s0)
2000ad14:	00042e23          	sw	zero,28(s0)
2000ad18:	b74d                	c.j	2000acba <localtime_r+0x114>
2000ad1a:	fa07d0e3          	bgez	a5,2000acba <localtime_r+0x114>
2000ad1e:	4c58                	c.lw	a4,28(s0)
2000ad20:	177d                	c.addi	a4,-1
2000ad22:	cc58                	c.sw	a4,28(s0)
2000ad24:	4c18                	c.lw	a4,24(s0)
2000ad26:	177d                	c.addi	a4,-1
2000ad28:	02074463          	bltz	a4,2000ad50 <localtime_r+0x1aa>
2000ad2c:	cc18                	c.sw	a4,24(s0)
2000ad2e:	4458                	c.lw	a4,12(s0)
2000ad30:	07e1                	c.addi	a5,24
2000ad32:	177d                	c.addi	a4,-1
2000ad34:	c458                	c.sw	a4,12(s0)
2000ad36:	c41c                	c.sw	a5,8(s0)
2000ad38:	f349                	c.bnez	a4,2000acba <localtime_r+0x114>
2000ad3a:	481c                	c.lw	a5,16(s0)
2000ad3c:	17fd                	c.addi	a5,-1
2000ad3e:	0007cb63          	bltz	a5,2000ad54 <localtime_r+0x1ae>
2000ad42:	c81c                	c.sw	a5,16(s0)
2000ad44:	481c                	c.lw	a5,16(s0)
2000ad46:	0cf484db          	lea.w	s1,s1,a5
2000ad4a:	409c                	c.lw	a5,0(s1)
2000ad4c:	c45c                	c.sw	a5,12(s0)
2000ad4e:	b7b5                	c.j	2000acba <localtime_r+0x114>
2000ad50:	4719                	c.li	a4,6
2000ad52:	bfe9                	c.j	2000ad2c <localtime_r+0x186>
2000ad54:	47ad                	c.li	a5,11
2000ad56:	c81c                	c.sw	a5,16(s0)
2000ad58:	485c                	c.lw	a5,20(s0)
2000ad5a:	fff78713          	addi	a4,a5,-1
2000ad5e:	c858                	c.sw	a4,20(s0)
2000ad60:	8b0d                	c.andi	a4,3
2000ad62:	76b78793          	addi	a5,a5,1899
2000ad66:	e719                	c.bnez	a4,2000ad74 <localtime_r+0x1ce>
2000ad68:	06400693          	li	a3,100
2000ad6c:	02d7e6b3          	rem	a3,a5,a3
2000ad70:	4705                	c.li	a4,1
2000ad72:	e699                	c.bnez	a3,2000ad80 <localtime_r+0x1da>
2000ad74:	19000713          	li	a4,400
2000ad78:	02e7e7b3          	rem	a5,a5,a4
2000ad7c:	0017b713          	seqz	a4,a5
2000ad80:	16c70793          	addi	a5,a4,364
2000ad84:	cc5c                	c.sw	a5,28(s0)
2000ad86:	bf7d                	c.j	2000ad44 <localtime_r+0x19e>

2000ad88 <memcmp>:
2000ad88:	00b567b3          	or	a5,a0,a1
2000ad8c:	8b8d                	c.andi	a5,3
2000ad8e:	e39d                	c.bnez	a5,2000adb4 <memcmp+0x2c>
2000ad90:	00265793          	srli	a5,a2,0x2
2000ad94:	c385                	c.beqz	a5,2000adb4 <memcmp+0x2c>
2000ad96:	078a                	c.slli	a5,0x2
2000ad98:	97aa                	c.add	a5,a0
2000ad9a:	8a0d                	c.andi	a2,3
2000ad9c:	4114                	c.lw	a3,0(a0)
2000ad9e:	0511                	c.addi	a0,4
2000ada0:	4198                	c.lw	a4,0(a1)
2000ada2:	0591                	c.addi	a1,4
2000ada4:	00e69563          	bne	a3,a4,2000adae <memcmp+0x26>
2000ada8:	fef51ae3          	bne	a0,a5,2000ad9c <memcmp+0x14>
2000adac:	a021                	c.j	2000adb4 <memcmp+0x2c>
2000adae:	1571                	c.addi	a0,-4
2000adb0:	15f1                	c.addi	a1,-4
2000adb2:	0611                	c.addi	a2,4
2000adb4:	00c507b3          	add	a5,a0,a2
2000adb8:	00f50d63          	beq	a0,a5,2000add2 <memcmp+0x4a>
2000adbc:	00054683          	lbu	a3,0(a0)
2000adc0:	0505                	c.addi	a0,1
2000adc2:	0005c703          	lbu	a4,0(a1)
2000adc6:	0585                	c.addi	a1,1
2000adc8:	fee688e3          	beq	a3,a4,2000adb8 <memcmp+0x30>
2000adcc:	40e68533          	sub	a0,a3,a4
2000add0:	8082                	c.jr	ra
2000add2:	4501                	c.li	a0,0
2000add4:	8082                	c.jr	ra
	...

2000add8 <memcpy>:
2000add8:	00a5c7b3          	xor	a5,a1,a0
2000addc:	8b8d                	c.andi	a5,3
2000adde:	00c508b3          	add	a7,a0,a2
2000ade2:	ebb9                	c.bnez	a5,2000ae38 <memcpy+0x60>
2000ade4:	478d                	c.li	a5,3
2000ade6:	04c7f963          	bgeu	a5,a2,2000ae38 <memcpy+0x60>
2000adea:	00357713          	andi	a4,a0,3
2000adee:	87aa                	c.mv	a5,a0
2000adf0:	06071263          	bnez	a4,2000ae54 <memcpy+0x7c>
2000adf4:	ffc8f813          	andi	a6,a7,-4
2000adf8:	40f806b3          	sub	a3,a6,a5
2000adfc:	02000713          	li	a4,32
2000ae00:	02000393          	li	t2,32
2000ae04:	06d74c63          	blt	a4,a3,2000ae7c <memcpy+0xa4>
2000ae08:	0307f463          	bgeu	a5,a6,2000ae30 <memcpy+0x58>
2000ae0c:	86ae                	c.mv	a3,a1
2000ae0e:	873e                	c.mv	a4,a5
2000ae10:	4290                	c.lw	a2,0(a3)
2000ae12:	0711                	c.addi	a4,4
2000ae14:	fec72e23          	sw	a2,-4(a4)
2000ae18:	0691                	c.addi	a3,4
2000ae1a:	ff076be3          	bltu	a4,a6,2000ae10 <memcpy+0x38>
2000ae1e:	fff7c713          	not	a4,a5
2000ae22:	983a                	c.add	a6,a4
2000ae24:	ffc87813          	andi	a6,a6,-4
2000ae28:	0811                	c.addi	a6,4
2000ae2a:	97c2                	c.add	a5,a6
2000ae2c:	010585b3          	add	a1,a1,a6
2000ae30:	0117e863          	bltu	a5,a7,2000ae40 <memcpy+0x68>
2000ae34:	00008067          	ret
2000ae38:	ff157ee3          	bgeu	a0,a7,2000ae34 <memcpy+0x5c>
2000ae3c:	00a007b3          	add	a5,zero,a0
2000ae40:	0005c703          	lbu	a4,0(a1)
2000ae44:	0785                	c.addi	a5,1
2000ae46:	fee78fa3          	sb	a4,-1(a5)
2000ae4a:	0585                	c.addi	a1,1
2000ae4c:	ff17eae3          	bltu	a5,a7,2000ae40 <memcpy+0x68>
2000ae50:	00008067          	ret
2000ae54:	0005c703          	lbu	a4,0(a1)
2000ae58:	0785                	c.addi	a5,1
2000ae5a:	fee78fa3          	sb	a4,-1(a5)
2000ae5e:	0037f713          	andi	a4,a5,3
2000ae62:	0585                	c.addi	a1,1
2000ae64:	db41                	c.beqz	a4,2000adf4 <memcpy+0x1c>
2000ae66:	0005c703          	lbu	a4,0(a1)
2000ae6a:	0785                	c.addi	a5,1
2000ae6c:	fee78fa3          	sb	a4,-1(a5)
2000ae70:	0037f713          	andi	a4,a5,3
2000ae74:	0585                	c.addi	a1,1
2000ae76:	ff79                	c.bnez	a4,2000ae54 <memcpy+0x7c>
2000ae78:	f7dff06f          	j	2000adf4 <memcpy+0x1c>
2000ae7c:	4dd8                	c.lw	a4,28(a1)
2000ae7e:	0005a283          	lw	t0,0(a1)
2000ae82:	0045af83          	lw	t6,4(a1)
2000ae86:	0085af03          	lw	t5,8(a1)
2000ae8a:	00c5ae83          	lw	t4,12(a1)
2000ae8e:	0105ae03          	lw	t3,16(a1)
2000ae92:	0145a303          	lw	t1,20(a1)
2000ae96:	4d90                	c.lw	a2,24(a1)
2000ae98:	02458593          	addi	a1,a1,36
2000ae9c:	ffc5a683          	lw	a3,-4(a1)
2000aea0:	02478793          	addi	a5,a5,36
2000aea4:	fee7ac23          	sw	a4,-8(a5)
2000aea8:	fc57ae23          	sw	t0,-36(a5)
2000aeac:	fff7a023          	sw	t6,-32(a5)
2000aeb0:	ffe7a223          	sw	t5,-28(a5)
2000aeb4:	ffd7a423          	sw	t4,-24(a5)
2000aeb8:	ffc7a623          	sw	t3,-20(a5)
2000aebc:	fe67a823          	sw	t1,-16(a5)
2000aec0:	fec7aa23          	sw	a2,-12(a5)
2000aec4:	40f80733          	sub	a4,a6,a5
2000aec8:	fed7ae23          	sw	a3,-4(a5)
2000aecc:	fae3c8e3          	blt	t2,a4,2000ae7c <memcpy+0xa4>
2000aed0:	bf25                	c.j	2000ae08 <memcpy+0x30>

2000aed2 <memset>:
2000aed2:	433d                	c.li	t1,15
2000aed4:	872a                	c.mv	a4,a0
2000aed6:	02c37363          	bgeu	t1,a2,2000aefc <memset+0x2a>
2000aeda:	00f77793          	andi	a5,a4,15
2000aede:	e3c1                	c.bnez	a5,2000af5e <memset+0x8c>
2000aee0:	e5b5                	c.bnez	a1,2000af4c <memset+0x7a>
2000aee2:	ff067693          	andi	a3,a2,-16
2000aee6:	8a3d                	c.andi	a2,15
2000aee8:	96ba                	c.add	a3,a4
2000aeea:	c30c                	c.sw	a1,0(a4)
2000aeec:	c34c                	c.sw	a1,4(a4)
2000aeee:	c70c                	c.sw	a1,8(a4)
2000aef0:	c74c                	c.sw	a1,12(a4)
2000aef2:	0741                	c.addi	a4,16
2000aef4:	fed76be3          	bltu	a4,a3,2000aeea <memset+0x18>
2000aef8:	e211                	c.bnez	a2,2000aefc <memset+0x2a>
2000aefa:	8082                	c.jr	ra
2000aefc:	40c306b3          	sub	a3,t1,a2
2000af00:	068a                	c.slli	a3,0x2
2000af02:	00000297          	auipc	t0,0x0
2000af06:	005686b3          	add	a3,a3,t0
2000af0a:	00c68067          	jr	12(a3)
2000af0e:	00b70723          	sb	a1,14(a4)
2000af12:	00b706a3          	sb	a1,13(a4)
2000af16:	00b70623          	sb	a1,12(a4)
2000af1a:	00b705a3          	sb	a1,11(a4)
2000af1e:	00b70523          	sb	a1,10(a4)
2000af22:	00b704a3          	sb	a1,9(a4)
2000af26:	00b70423          	sb	a1,8(a4)
2000af2a:	00b703a3          	sb	a1,7(a4)
2000af2e:	00b70323          	sb	a1,6(a4)
2000af32:	00b702a3          	sb	a1,5(a4)
2000af36:	00b70223          	sb	a1,4(a4)
2000af3a:	00b701a3          	sb	a1,3(a4)
2000af3e:	00b70123          	sb	a1,2(a4)
2000af42:	00b700a3          	sb	a1,1(a4)
2000af46:	00b70023          	sb	a1,0(a4)
2000af4a:	8082                	c.jr	ra
2000af4c:	0ff5f593          	andi	a1,a1,255
2000af50:	00859693          	slli	a3,a1,0x8
2000af54:	8dd5                	c.or	a1,a3
2000af56:	01059693          	slli	a3,a1,0x10
2000af5a:	8dd5                	c.or	a1,a3
2000af5c:	b759                	c.j	2000aee2 <memset+0x10>
2000af5e:	00279693          	slli	a3,a5,0x2
2000af62:	00000297          	auipc	t0,0x0
2000af66:	9696                	c.add	a3,t0
2000af68:	8286                	c.mv	t0,ra
2000af6a:	fa8680e7          	jalr	-88(a3)
2000af6e:	8096                	c.mv	ra,t0
2000af70:	17c1                	c.addi	a5,-16
2000af72:	8f1d                	c.sub	a4,a5
2000af74:	963e                	c.add	a2,a5
2000af76:	f8c373e3          	bgeu	t1,a2,2000aefc <memset+0x2a>
2000af7a:	b79d                	c.j	2000aee0 <memset+0xe>

2000af7c <printf>:
2000af7c:	7139                	c.addi16sp	sp,-64
2000af7e:	d22e                	c.swsp	a1,36(sp)
2000af80:	104c                	c.addi4spn	a1,sp,36
2000af82:	ce06                	c.swsp	ra,28(sp)
2000af84:	d432                	c.swsp	a2,40(sp)
2000af86:	d636                	c.swsp	a3,44(sp)
2000af88:	d83a                	c.swsp	a4,48(sp)
2000af8a:	da3e                	c.swsp	a5,52(sp)
2000af8c:	dc42                	c.swsp	a6,56(sp)
2000af8e:	de46                	c.swsp	a7,60(sp)
2000af90:	c62e                	c.swsp	a1,12(sp)
2000af92:	2b59                	c.jal	2000b528 <vprintf>
2000af94:	40f2                	c.lwsp	ra,28(sp)
2000af96:	6121                	c.addi16sp	sp,64
2000af98:	8082                	c.jr	ra
	...

2000af9c <strlen>:
2000af9c:	00357793          	andi	a5,a0,3
2000afa0:	872a                	c.mv	a4,a0
2000afa2:	e79d                	c.bnez	a5,2000afd0 <strlen+0x34>
2000afa4:	0511                	c.addi	a0,4
2000afa6:	ffc52783          	lw	a5,-4(a0)
2000afaa:	200787db          	ffb	a5,a5,zero
2000afae:	dbfd                	c.beqz	a5,2000afa4 <strlen+0x8>
2000afb0:	ffc54783          	lbu	a5,-4(a0)
2000afb4:	40e50733          	sub	a4,a0,a4
2000afb8:	ffd54683          	lbu	a3,-3(a0)
2000afbc:	ffe54603          	lbu	a2,-2(a0)
2000afc0:	c795                	c.beqz	a5,2000afec <strlen+0x50>
2000afc2:	c28d                	c.beqz	a3,2000afe4 <strlen+0x48>
2000afc4:	ca05                	c.beqz	a2,2000aff4 <strlen+0x58>
2000afc6:	fff70513          	addi	a0,a4,-1
2000afca:	8082                	c.jr	ra
2000afcc:	fc068ce3          	beqz	a3,2000afa4 <strlen+0x8>
2000afd0:	00054783          	lbu	a5,0(a0)
2000afd4:	0505                	c.addi	a0,1
2000afd6:	00357693          	andi	a3,a0,3
2000afda:	fbed                	c.bnez	a5,2000afcc <strlen+0x30>
2000afdc:	8d19                	c.sub	a0,a4
2000afde:	157d                	c.addi	a0,-1
2000afe0:	00008067          	ret
2000afe4:	ffd70513          	addi	a0,a4,-3
2000afe8:	00008067          	ret
2000afec:	ffc70513          	addi	a0,a4,-4
2000aff0:	00008067          	ret
2000aff4:	ffe70513          	addi	a0,a4,-2
2000aff8:	8082                	c.jr	ra
2000affa:	0001                	c.nop

2000affc <strncmp>:
2000affc:	c231                	c.beqz	a2,2000b040 <strncmp+0x44>
2000affe:	00b567b3          	or	a5,a0,a1
2000b002:	8b8d                	c.andi	a5,3
2000b004:	e7a1                	c.bnez	a5,2000b04c <strncmp+0x50>
2000b006:	478d                	c.li	a5,3
2000b008:	04c7f263          	bgeu	a5,a2,2000b04c <strncmp+0x50>
2000b00c:	411c                	c.lw	a5,0(a0)
2000b00e:	4198                	c.lw	a4,0(a1)
2000b010:	02e79e63          	bne	a5,a4,2000b04c <strncmp+0x50>
2000b014:	1671                	c.addi	a2,-4
2000b016:	c60d                	c.beqz	a2,2000b040 <strncmp+0x44>
2000b018:	200787db          	ffb	a5,a5,zero
2000b01c:	e395                	c.bnez	a5,2000b040 <strncmp+0x44>
2000b01e:	468d                	c.li	a3,3
2000b020:	00c0006f          	j	2000b02c <strncmp+0x30>
2000b024:	200787db          	ffb	a5,a5,zero
2000b028:	00079c63          	bnez	a5,2000b040 <strncmp+0x44>
2000b02c:	0511                	c.addi	a0,4
2000b02e:	0591                	c.addi	a1,4
2000b030:	00c6fe63          	bgeu	a3,a2,2000b04c <strncmp+0x50>
2000b034:	411c                	c.lw	a5,0(a0)
2000b036:	4198                	c.lw	a4,0(a1)
2000b038:	00e79a63          	bne	a5,a4,2000b04c <strncmp+0x50>
2000b03c:	1671                	c.addi	a2,-4
2000b03e:	f27d                	c.bnez	a2,2000b024 <strncmp+0x28>
2000b040:	4501                	c.li	a0,0
2000b042:	8082                	c.jr	ra
2000b044:	de75                	c.beqz	a2,2000b040 <strncmp+0x44>
2000b046:	dfed                	c.beqz	a5,2000b040 <strncmp+0x44>
2000b048:	0505                	c.addi	a0,1
2000b04a:	0585                	c.addi	a1,1
2000b04c:	00054783          	lbu	a5,0(a0)
2000b050:	0005c703          	lbu	a4,0(a1)
2000b054:	167d                	c.addi	a2,-1
2000b056:	fee787e3          	beq	a5,a4,2000b044 <strncmp+0x48>
2000b05a:	40e78533          	sub	a0,a5,a4
2000b05e:	8082                	c.jr	ra
2000b060:	0001                	c.nop

2000b062 <strrchr>:
2000b062:	465022ef          	jal	t0,2000dcc6 <__riscv_save_0>
2000b066:	e185                	c.bnez	a1,2000b086 <strrchr+0x24>
2000b068:	1fc010ef          	jal	ra,2000c264 <strchr>
2000b06c:	842a                	c.mv	s0,a0
2000b06e:	a809                	c.j	2000b080 <strrchr+0x1e>
2000b070:	00150793          	addi	a5,a0,1
2000b074:	842a                	c.mv	s0,a0
2000b076:	85a6                	c.mv	a1,s1
2000b078:	853e                	c.mv	a0,a5
2000b07a:	1ea010ef          	jal	ra,2000c264 <strchr>
2000b07e:	f96d                	c.bnez	a0,2000b070 <strrchr+0xe>
2000b080:	8522                	c.mv	a0,s0
2000b082:	4690206f          	j	2000dcea <__riscv_restore_0>
2000b086:	87aa                	c.mv	a5,a0
2000b088:	84ae                	c.mv	s1,a1
2000b08a:	4401                	c.li	s0,0
2000b08c:	b7ed                	c.j	2000b076 <strrchr+0x14>

2000b08e <__tzcalc_limits>:
2000b08e:	439022ef          	jal	t0,2000dcc6 <__riscv_save_0>
2000b092:	842a                	c.mv	s0,a0
2000b094:	2bb9                	c.jal	2000b5f2 <__gettzinfo>
2000b096:	7b100793          	li	a5,1969
2000b09a:	1087d863          	bge	a5,s0,2000b1aa <__tzcalc_limits+0x11c>
2000b09e:	16d00793          	li	a5,365
2000b0a2:	84e40693          	addi	a3,s0,-1970
2000b0a6:	02f686b3          	mul	a3,a3,a5
2000b0aa:	84f40793          	addi	a5,s0,-1969
2000b0ae:	8789                	c.srai	a5,0x2
2000b0b0:	f9c00713          	li	a4,-100
2000b0b4:	19000893          	li	a7,400
2000b0b8:	06400313          	li	t1,100
2000b0bc:	02646333          	rem	t1,s0,t1
2000b0c0:	2000eeb7          	lui	t4,0x2000e
2000b0c4:	6e55                	c.lui	t3,0x15
2000b0c6:	00850593          	addi	a1,a0,8
2000b0ca:	96be                	c.add	a3,a5
2000b0cc:	89340793          	addi	a5,s0,-1901
2000b0d0:	04050293          	addi	t0,a0,64
2000b0d4:	03000393          	li	t2,48
2000b0d8:	2ece8e93          	addi	t4,t4,748 # 2000e2ec <__month_lengths>
2000b0dc:	4f9d                	c.li	t6,7
2000b0de:	180e0e13          	addi	t3,t3,384 # 15180 <BIN_SIZE+0x6990>
2000b0e2:	c140                	c.sw	s0,4(a0)
2000b0e4:	02e7c7b3          	div	a5,a5,a4
2000b0e8:	00347713          	andi	a4,s0,3
2000b0ec:	96be                	c.add	a3,a5
2000b0ee:	9bf40793          	addi	a5,s0,-1601
2000b0f2:	0317c7b3          	div	a5,a5,a7
2000b0f6:	031468b3          	rem	a7,s0,a7
2000b0fa:	96be                	c.add	a3,a5
2000b0fc:	0018bf13          	seqz	t5,a7
2000b100:	0005c783          	lbu	a5,0(a1)
2000b104:	45d0                	c.lw	a2,12(a1)
2000b106:	44a7e45b          	bnec	a5,74,2000b14e <__tzcalc_limits+0xc0>
2000b10a:	00c687b3          	add	a5,a3,a2
2000b10e:	e319                	c.bnez	a4,2000b114 <__tzcalc_limits+0x86>
2000b110:	00031563          	bnez	t1,2000b11a <__tzcalc_limits+0x8c>
2000b114:	4801                	c.li	a6,0
2000b116:	00089663          	bnez	a7,2000b122 <__tzcalc_limits+0x94>
2000b11a:	03c62613          	slti	a2,a2,60
2000b11e:	00164813          	xori	a6,a2,1
2000b122:	97c2                	c.add	a5,a6
2000b124:	17fd                	c.addi	a5,-1
2000b126:	03c787b3          	mul	a5,a5,t3
2000b12a:	4990                	c.lw	a2,16(a1)
2000b12c:	05f1                	c.addi	a1,28
2000b12e:	97b2                	c.add	a5,a2
2000b130:	ffc5a603          	lw	a2,-4(a1)
2000b134:	97b2                	c.add	a5,a2
2000b136:	fef5ac23          	sw	a5,-8(a1)
2000b13a:	fcb293e3          	bne	t0,a1,2000b100 <__tzcalc_limits+0x72>
2000b13e:	4d5c                	c.lw	a5,28(a0)
2000b140:	5d18                	c.lw	a4,56(a0)
2000b142:	00e7a7b3          	slt	a5,a5,a4
2000b146:	c11c                	c.sw	a5,0(a0)
2000b148:	4505                	c.li	a0,1
2000b14a:	3a10206f          	j	2000dcea <__riscv_restore_0>
2000b14e:	4047e55b          	bnec	a5,68,2000b158 <__tzcalc_limits+0xca>
2000b152:	00c687b3          	add	a5,a3,a2
2000b156:	bfc1                	c.j	2000b126 <__tzcalc_limits+0x98>
2000b158:	887a                	c.mv	a6,t5
2000b15a:	e701                	c.bnez	a4,2000b162 <__tzcalc_limits+0xd4>
2000b15c:	00030363          	beqz	t1,2000b162 <__tzcalc_limits+0xd4>
2000b160:	4805                	c.li	a6,1
2000b162:	02780833          	mul	a6,a6,t2
2000b166:	0045a903          	lw	s2,4(a1)
2000b16a:	87b6                	c.mv	a5,a3
2000b16c:	4405                	c.li	s0,1
2000b16e:	9876                	c.add	a6,t4
2000b170:	0811                	c.addi	a6,4
2000b172:	ffc82483          	lw	s1,-4(a6)
2000b176:	03244563          	blt	s0,s2,2000b1a0 <__tzcalc_limits+0x112>
2000b17a:	00478813          	addi	a6,a5,4
2000b17e:	03f86833          	rem	a6,a6,t6
2000b182:	41060633          	sub	a2,a2,a6
2000b186:	00065363          	bgez	a2,2000b18c <__tzcalc_limits+0xfe>
2000b18a:	061d                	c.addi	a2,7
2000b18c:	0085a803          	lw	a6,8(a1)
2000b190:	187d                	c.addi	a6,-1
2000b192:	03f80833          	mul	a6,a6,t6
2000b196:	9642                	c.add	a2,a6
2000b198:	00965763          	bge	a2,s1,2000b1a6 <__tzcalc_limits+0x118>
2000b19c:	97b2                	c.add	a5,a2
2000b19e:	b761                	c.j	2000b126 <__tzcalc_limits+0x98>
2000b1a0:	97a6                	c.add	a5,s1
2000b1a2:	0405                	c.addi	s0,1
2000b1a4:	b7f1                	c.j	2000b170 <__tzcalc_limits+0xe2>
2000b1a6:	1665                	c.addi	a2,-7
2000b1a8:	bfc5                	c.j	2000b198 <__tzcalc_limits+0x10a>
2000b1aa:	4501                	c.li	a0,0
2000b1ac:	bf79                	c.j	2000b14a <__tzcalc_limits+0xbc>

2000b1ae <__tz_lock>:
2000b1ae:	8082                	c.jr	ra

2000b1b0 <__tz_unlock>:
2000b1b0:	8082                	c.jr	ra

2000b1b2 <_tzset_unlocked>:
2000b1b2:	315022ef          	jal	t0,2000dcc6 <__riscv_save_0>
2000b1b6:	8abfa52b          	lwgp	a0,-1880 # 800a8 <_impure_ptr>
2000b1ba:	2019                	c.jal	2000b1c0 <_tzset_unlocked_r>
2000b1bc:	32f0206f          	j	2000dcea <__riscv_restore_0>

2000b1c0 <_tzset_unlocked_r>:
2000b1c0:	2df022ef          	jal	t0,2000dc9e <__riscv_save_10>
2000b1c4:	1101                	c.addi	sp,-32
2000b1c6:	89aa                	c.mv	s3,a0
2000b1c8:	212d                	c.jal	2000b5f2 <__gettzinfo>
2000b1ca:	2000e5b7          	lui	a1,0x2000e
2000b1ce:	84aa                	c.mv	s1,a0
2000b1d0:	34c58593          	addi	a1,a1,844 # 2000e34c <__month_lengths+0x60>
2000b1d4:	854e                	c.mv	a0,s3
2000b1d6:	2131                	c.jal	2000b5e2 <_getenv_r>
2000b1d8:	8d5f990b          	addigp	s2,-1836 # 800d4 <prev_tzenv>
2000b1dc:	e515                	c.bnez	a0,2000b208 <_tzset_unlocked_r+0x48>
2000b1de:	8c0fcfab          	swgp	zero,-1828 # 800dc <_timezone>
2000b1e2:	2000e737          	lui	a4,0x2000e
2000b1e6:	35070713          	addi	a4,a4,848 # 2000e350 <__month_lengths+0x64>
2000b1ea:	8c0fcdab          	swgp	zero,-1832 # 800d8 <_daylight>
2000b1ee:	00092503          	lw	a0,0(s2)
2000b1f2:	8aefc1ab          	swgp	a4,-1888 # 800a0 <_tzname>
2000b1f6:	8a1f978b          	addigp	a5,-1888 # 800a0 <_tzname>
2000b1fa:	c3d8                	c.sw	a4,4(a5)
2000b1fc:	2b15                	c.jal	2000b730 <free>
2000b1fe:	00092023          	sw	zero,0(s2)
2000b202:	6105                	c.addi16sp	sp,32
2000b204:	2d30206f          	j	2000dcd6 <__riscv_restore_10>
2000b208:	00092583          	lw	a1,0(s2)
2000b20c:	842a                	c.mv	s0,a0
2000b20e:	0c059e63          	bnez	a1,2000b2ea <_tzset_unlocked_r+0x12a>
2000b212:	00092503          	lw	a0,0(s2)
2000b216:	2b29                	c.jal	2000b730 <free>
2000b218:	8522                	c.mv	a0,s0
2000b21a:	3349                	c.jal	2000af9c <strlen>
2000b21c:	00150593          	addi	a1,a0,1
2000b220:	854e                	c.mv	a0,s3
2000b222:	237d                	c.jal	2000b7d0 <_malloc_r>
2000b224:	00a92023          	sw	a0,0(s2)
2000b228:	e571                	c.bnez	a0,2000b2f4 <_tzset_unlocked_r+0x134>
2000b22a:	00044783          	lbu	a5,0(s0)
2000b22e:	01a7e3db          	bnec	a5,58,2000b234 <_tzset_unlocked_r+0x74>
2000b232:	0405                	c.addi	s0,1
2000b234:	2000eab7          	lui	s5,0x2000e
2000b238:	0834                	c.addi4spn	a3,sp,24
2000b23a:	b39f960b          	addigp	a2,-1224 # 80338 <__tzname_std>
2000b23e:	354a8593          	addi	a1,s5,852 # 2000e354 <__month_lengths+0x68>
2000b242:	8522                	c.mv	a0,s0
2000b244:	7cb000ef          	jal	ra,2000c20e <siscanf>
2000b248:	faa05de3          	blez	a0,2000b202 <_tzset_unlocked_r+0x42>
2000b24c:	47e2                	c.lwsp	a5,24(sp)
2000b24e:	943e                	c.add	s0,a5
2000b250:	00044783          	lbu	a5,0(s0)
2000b254:	0ad7e4db          	bnec	a5,45,2000b2fc <_tzset_unlocked_r+0x13c>
2000b258:	0405                	c.addi	s0,1
2000b25a:	59fd                	c.li	s3,-1
2000b25c:	01810893          	addi	a7,sp,24
2000b260:	2000ea37          	lui	s4,0x2000e
2000b264:	01010813          	addi	a6,sp,16
2000b268:	87c6                	c.mv	a5,a7
2000b26a:	00e10713          	addi	a4,sp,14
2000b26e:	86c6                	c.mv	a3,a7
2000b270:	0070                	c.addi4spn	a2,sp,12
2000b272:	364a0593          	addi	a1,s4,868 # 2000e364 <__month_lengths+0x78>
2000b276:	8522                	c.mv	a0,s0
2000b278:	00011723          	sh	zero,14(sp)
2000b27c:	00011823          	sh	zero,16(sp)
2000b280:	78f000ef          	jal	ra,2000c20e <siscanf>
2000b284:	f6a05fe3          	blez	a0,2000b202 <_tzset_unlocked_r+0x42>
2000b288:	00e15783          	lhu	a5,14(sp)
2000b28c:	03c00713          	li	a4,60
2000b290:	02e787b3          	mul	a5,a5,a4
2000b294:	01015703          	lhu	a4,16(sp)
2000b298:	6685                	c.lui	a3,0x1
2000b29a:	e1068693          	addi	a3,a3,-496 # e10 <app_acl_rxfifo+0x15c>
2000b29e:	b39f990b          	addigp	s2,-1224 # 80338 <__tzname_std>
2000b2a2:	354a8593          	addi	a1,s5,852
2000b2a6:	97ba                	c.add	a5,a4
2000b2a8:	00c15703          	lhu	a4,12(sp)
2000b2ac:	02d70733          	mul	a4,a4,a3
2000b2b0:	0834                	c.addi4spn	a3,sp,24
2000b2b2:	97ba                	c.add	a5,a4
2000b2b4:	033787b3          	mul	a5,a5,s3
2000b2b8:	8b2fc1ab          	swgp	s2,-1888 # 800a0 <_tzname>
2000b2bc:	b2df990b          	addigp	s2,-1236 # 8032c <__tzname_dst>
2000b2c0:	b2df960b          	addigp	a2,-1236 # 8032c <__tzname_dst>
2000b2c4:	d09c                	c.sw	a5,32(s1)
2000b2c6:	47e2                	c.lwsp	a5,24(sp)
2000b2c8:	943e                	c.add	s0,a5
2000b2ca:	8522                	c.mv	a0,s0
2000b2cc:	743000ef          	jal	ra,2000c20e <siscanf>
2000b2d0:	8a1f978b          	addigp	a5,-1888 # 800a0 <_tzname>
2000b2d4:	02a04963          	bgtz	a0,2000b306 <_tzset_unlocked_r+0x146>
2000b2d8:	8a3fa72b          	lwgp	a4,-1888 # 800a0 <_tzname>
2000b2dc:	c3d8                	c.sw	a4,4(a5)
2000b2de:	5098                	c.lw	a4,32(s1)
2000b2e0:	8cefcfab          	swgp	a4,-1828 # 800dc <_timezone>
2000b2e4:	8c0fcdab          	swgp	zero,-1832 # 800d8 <_daylight>
2000b2e8:	bf29                	c.j	2000b202 <_tzset_unlocked_r+0x42>
2000b2ea:	7af000ef          	jal	ra,2000c298 <strcmp>
2000b2ee:	f0050ae3          	beqz	a0,2000b202 <_tzset_unlocked_r+0x42>
2000b2f2:	b705                	c.j	2000b212 <_tzset_unlocked_r+0x52>
2000b2f4:	85a2                	c.mv	a1,s0
2000b2f6:	01e010ef          	jal	ra,2000c314 <strcpy>
2000b2fa:	bf05                	c.j	2000b22a <_tzset_unlocked_r+0x6a>
2000b2fc:	4985                	c.li	s3,1
2000b2fe:	b4b7efdb          	bnec	a5,43,2000b25c <_tzset_unlocked_r+0x9c>
2000b302:	0405                	c.addi	s0,1
2000b304:	bfa1                	c.j	2000b25c <_tzset_unlocked_r+0x9c>
2000b306:	0127a223          	sw	s2,4(a5)
2000b30a:	47e2                	c.lwsp	a5,24(sp)
2000b30c:	943e                	c.add	s0,a5
2000b30e:	00044783          	lbu	a5,0(s0)
2000b312:	14d7e5db          	bnec	a5,45,2000b45c <_tzset_unlocked_r+0x29c>
2000b316:	0405                	c.addi	s0,1
2000b318:	597d                	c.li	s2,-1
2000b31a:	01810893          	addi	a7,sp,24
2000b31e:	01010813          	addi	a6,sp,16
2000b322:	87c6                	c.mv	a5,a7
2000b324:	00e10713          	addi	a4,sp,14
2000b328:	86c6                	c.mv	a3,a7
2000b32a:	0070                	c.addi4spn	a2,sp,12
2000b32c:	364a0593          	addi	a1,s4,868
2000b330:	8522                	c.mv	a0,s0
2000b332:	00011623          	sh	zero,12(sp)
2000b336:	00011723          	sh	zero,14(sp)
2000b33a:	00011823          	sh	zero,16(sp)
2000b33e:	cc02                	c.swsp	zero,24(sp)
2000b340:	6cf000ef          	jal	ra,2000c20e <siscanf>
2000b344:	12a04163          	bgtz	a0,2000b466 <_tzset_unlocked_r+0x2a6>
2000b348:	509c                	c.lw	a5,32(s1)
2000b34a:	777d                	c.lui	a4,0xfffff
2000b34c:	1f070713          	addi	a4,a4,496 # fffff1f0 <_DATA_LMA_START+0xdfff0abc>
2000b350:	97ba                	c.add	a5,a4
2000b352:	dcdc                	c.sw	a5,60(s1)
2000b354:	47e2                	c.lwsp	a5,24(sp)
2000b356:	6ac1                	c.lui	s5,0x10
2000b358:	6a05                	c.lui	s4,0x1
2000b35a:	943e                	c.add	s0,a5
2000b35c:	00848913          	addi	s2,s1,8
2000b360:	4981                	c.li	s3,0
2000b362:	1afd                	c.addi	s5,-1
2000b364:	2000eb37          	lui	s6,0x2000e
2000b368:	2000ebb7          	lui	s7,0x2000e
2000b36c:	e10a0a13          	addi	s4,s4,-496 # e10 <app_acl_rxfifo+0x15c>
2000b370:	00044783          	lbu	a5,0(s0)
2000b374:	00c7e3db          	bnec	a5,44,2000b37a <_tzset_unlocked_r+0x1ba>
2000b378:	0405                	c.addi	s0,1
2000b37a:	00044c03          	lbu	s8,0(s0)
2000b37e:	50dc6a5b          	bnec	s8,77,2000b492 <_tzset_unlocked_r+0x2d2>
2000b382:	01810893          	addi	a7,sp,24
2000b386:	01610813          	addi	a6,sp,22
2000b38a:	87c6                	c.mv	a5,a7
2000b38c:	0858                	c.addi4spn	a4,sp,20
2000b38e:	86c6                	c.mv	a3,a7
2000b390:	01210613          	addi	a2,sp,18
2000b394:	378b0593          	addi	a1,s6,888 # 2000e378 <__month_lengths+0x8c>
2000b398:	8522                	c.mv	a0,s0
2000b39a:	675000ef          	jal	ra,2000c20e <siscanf>
2000b39e:	a635625b          	bnec	a0,3,2000b202 <_tzset_unlocked_r+0x42>
2000b3a2:	01215683          	lhu	a3,18(sp)
2000b3a6:	472d                	c.li	a4,11
2000b3a8:	fff68793          	addi	a5,a3,-1
2000b3ac:	3c07a7db          	bfoz	a5,a5,15,0
2000b3b0:	e4f769e3          	bltu	a4,a5,2000b202 <_tzset_unlocked_r+0x42>
2000b3b4:	01415703          	lhu	a4,20(sp)
2000b3b8:	4611                	c.li	a2,4
2000b3ba:	fff70793          	addi	a5,a4,-1
2000b3be:	3c07a7db          	bfoz	a5,a5,15,0
2000b3c2:	e4f660e3          	bltu	a2,a5,2000b202 <_tzset_unlocked_r+0x42>
2000b3c6:	01615783          	lhu	a5,22(sp)
2000b3ca:	4619                	c.li	a2,6
2000b3cc:	e2f66be3          	bltu	a2,a5,2000b202 <_tzset_unlocked_r+0x42>
2000b3d0:	01890023          	sb	s8,0(s2)
2000b3d4:	00d92223          	sw	a3,4(s2)
2000b3d8:	00e92423          	sw	a4,8(s2)
2000b3dc:	00f92623          	sw	a5,12(s2)
2000b3e0:	4c62                	c.lwsp	s8,24(sp)
2000b3e2:	9c22                	c.add	s8,s0
2000b3e4:	4789                	c.li	a5,2
2000b3e6:	00f11623          	sh	a5,12(sp)
2000b3ea:	00011723          	sh	zero,14(sp)
2000b3ee:	00011823          	sh	zero,16(sp)
2000b3f2:	cc02                	c.swsp	zero,24(sp)
2000b3f4:	000c4783          	lbu	a5,0(s8)
2000b3f8:	02f7e0db          	bnec	a5,47,2000b418 <_tzset_unlocked_r+0x258>
2000b3fc:	01810893          	addi	a7,sp,24
2000b400:	01010813          	addi	a6,sp,16
2000b404:	87c6                	c.mv	a5,a7
2000b406:	00e10713          	addi	a4,sp,14
2000b40a:	86c6                	c.mv	a3,a7
2000b40c:	0070                	c.addi4spn	a2,sp,12
2000b40e:	38cb8593          	addi	a1,s7,908 # 2000e38c <__month_lengths+0xa0>
2000b412:	8562                	c.mv	a0,s8
2000b414:	5fb000ef          	jal	ra,2000c20e <siscanf>
2000b418:	00e15783          	lhu	a5,14(sp)
2000b41c:	03c00713          	li	a4,60
2000b420:	02e787b3          	mul	a5,a5,a4
2000b424:	01015703          	lhu	a4,16(sp)
2000b428:	0971                	c.addi	s2,28
2000b42a:	97ba                	c.add	a5,a4
2000b42c:	00c15703          	lhu	a4,12(sp)
2000b430:	03470733          	mul	a4,a4,s4
2000b434:	97ba                	c.add	a5,a4
2000b436:	fef92a23          	sw	a5,-12(s2)
2000b43a:	4462                	c.lwsp	s0,24(sp)
2000b43c:	9462                	c.add	s0,s8
2000b43e:	0419e85b          	bnec	s3,1,2000b48e <_tzset_unlocked_r+0x2ce>
2000b442:	40c8                	c.lw	a0,4(s1)
2000b444:	c4bff0ef          	jal	ra,2000b08e <__tzcalc_limits>
2000b448:	5098                	c.lw	a4,32(s1)
2000b44a:	8cefcfab          	swgp	a4,-1828 # 800dc <_timezone>
2000b44e:	5cdc                	c.lw	a5,60(s1)
2000b450:	8f99                	c.sub	a5,a4
2000b452:	00f037b3          	snez	a5,a5
2000b456:	8cffcdab          	swgp	a5,-1832 # 800d8 <_daylight>
2000b45a:	b365                	c.j	2000b202 <_tzset_unlocked_r+0x42>
2000b45c:	4905                	c.li	s2,1
2000b45e:	aab7eedb          	bnec	a5,43,2000b31a <_tzset_unlocked_r+0x15a>
2000b462:	0405                	c.addi	s0,1
2000b464:	bd5d                	c.j	2000b31a <_tzset_unlocked_r+0x15a>
2000b466:	00e15783          	lhu	a5,14(sp)
2000b46a:	03c00713          	li	a4,60
2000b46e:	02e787b3          	mul	a5,a5,a4
2000b472:	01015703          	lhu	a4,16(sp)
2000b476:	6685                	c.lui	a3,0x1
2000b478:	e1068693          	addi	a3,a3,-496 # e10 <app_acl_rxfifo+0x15c>
2000b47c:	97ba                	c.add	a5,a4
2000b47e:	00c15703          	lhu	a4,12(sp)
2000b482:	02d70733          	mul	a4,a4,a3
2000b486:	97ba                	c.add	a5,a4
2000b488:	032787b3          	mul	a5,a5,s2
2000b48c:	b5d9                	c.j	2000b352 <_tzset_unlocked_r+0x192>
2000b48e:	4985                	c.li	s3,1
2000b490:	b5c5                	c.j	2000b370 <_tzset_unlocked_r+0x1b0>
2000b492:	04400c93          	li	s9,68
2000b496:	40ac655b          	bnec	s8,74,2000b4a0 <_tzset_unlocked_r+0x2e0>
2000b49a:	0405                	c.addi	s0,1
2000b49c:	04a00c93          	li	s9,74
2000b4a0:	4629                	c.li	a2,10
2000b4a2:	086c                	c.addi4spn	a1,sp,28
2000b4a4:	8522                	c.mv	a0,s0
2000b4a6:	705000ef          	jal	ra,2000c3aa <strtoul>
2000b4aa:	4c72                	c.lwsp	s8,28(sp)
2000b4ac:	00a11b23          	sh	a0,22(sp)
2000b4b0:	028c1863          	bne	s8,s0,2000b4e0 <_tzset_unlocked_r+0x320>
2000b4b4:	04d00793          	li	a5,77
2000b4b8:	00099b63          	bnez	s3,2000b4ce <_tzset_unlocked_r+0x30e>
2000b4bc:	00f48423          	sb	a5,8(s1)
2000b4c0:	478d                	c.li	a5,3
2000b4c2:	c4dc                	c.sw	a5,12(s1)
2000b4c4:	4789                	c.li	a5,2
2000b4c6:	c89c                	c.sw	a5,16(s1)
2000b4c8:	0004aa23          	sw	zero,20(s1)
2000b4cc:	bf21                	c.j	2000b3e4 <_tzset_unlocked_r+0x224>
2000b4ce:	02f48223          	sb	a5,36(s1)
2000b4d2:	47ad                	c.li	a5,11
2000b4d4:	d49c                	c.sw	a5,40(s1)
2000b4d6:	4785                	c.li	a5,1
2000b4d8:	d4dc                	c.sw	a5,44(s1)
2000b4da:	0204a823          	sw	zero,48(s1)
2000b4de:	b719                	c.j	2000b3e4 <_tzset_unlocked_r+0x224>
2000b4e0:	01557533          	and	a0,a0,s5
2000b4e4:	01990023          	sb	s9,0(s2)
2000b4e8:	00a92623          	sw	a0,12(s2)
2000b4ec:	bde5                	c.j	2000b3e4 <_tzset_unlocked_r+0x224>

2000b4ee <__vprintf_help>:
2000b4ee:	7d8022ef          	jal	t0,2000dcc6 <__riscv_save_0>
2000b4f2:	8f3fa7ab          	lwgp	a5,-1808 # 800f0 <__printf_count>
2000b4f6:	0785                	c.addi	a5,1
2000b4f8:	8effc9ab          	swgp	a5,-1808 # 800f0 <__printf_count>
2000b4fc:	8e5f940b          	addigp	s0,-1820 # 800e4 <__vprintf_buf_len>
2000b500:	8e3fa5ab          	lwgp	a1,-1824 # 800e0 <__vprintf_buf>
2000b504:	401c                	c.lw	a5,0(s0)
2000b506:	00178713          	addi	a4,a5,1
2000b50a:	97ae                	c.add	a5,a1
2000b50c:	c018                	c.sw	a4,0(s0)
2000b50e:	00a78023          	sb	a0,0(a5)
2000b512:	4007695b          	bnec	a4,64,2000b524 <__vprintf_help+0x36>
2000b516:	04000613          	li	a2,64
2000b51a:	4505                	c.li	a0,1
2000b51c:	e30ff0ef          	jal	ra,2000ab4c <_write>
2000b520:	00042023          	sw	zero,0(s0)
2000b524:	7c60206f          	j	2000dcea <__riscv_restore_0>

2000b528 <vprintf>:
2000b528:	1141                	c.addi	sp,-16
2000b52a:	c606                	c.swsp	ra,12(sp)
2000b52c:	c422                	c.swsp	s0,8(sp)
2000b52e:	c226                	c.swsp	s1,4(sp)
2000b530:	c04a                	c.swsp	s2,0(sp)
2000b532:	0800                	c.addi4spn	s0,sp,16
2000b534:	715d                	c.addi16sp	sp,-80
2000b536:	00f10793          	addi	a5,sp,15
2000b53a:	2000b637          	lui	a2,0x2000b
2000b53e:	9bc1                	c.andi	a5,-16
2000b540:	8e1f948b          	addigp	s1,-1824 # 800e0 <__vprintf_buf>
2000b544:	8e5f990b          	addigp	s2,-1820 # 800e4 <__vprintf_buf_len>
2000b548:	4ee60613          	addi	a2,a2,1262 # 2000b4ee <__vprintf_help>
2000b54c:	c09c                	c.sw	a5,0(s1)
2000b54e:	00092023          	sw	zero,0(s2)
2000b552:	2ead                	c.jal	2000b8cc <__printf_impl>
2000b554:	00092603          	lw	a2,0(s2)
2000b558:	408c                	c.lw	a1,0(s1)
2000b55a:	4505                	c.li	a0,1
2000b55c:	df0ff0ef          	jal	ra,2000ab4c <_write>
2000b560:	8f3fa52b          	lwgp	a0,-1808 # 800f0 <__printf_count>
2000b564:	ff040113          	addi	sp,s0,-16
2000b568:	40b2                	c.lwsp	ra,12(sp)
2000b56a:	4422                	c.lwsp	s0,8(sp)
2000b56c:	4492                	c.lwsp	s1,4(sp)
2000b56e:	4902                	c.lwsp	s2,0(sp)
2000b570:	0141                	c.addi	sp,16
2000b572:	8082                	c.jr	ra

2000b574 <_findenv_r>:
2000b574:	738022ef          	jal	t0,2000dcac <__riscv_save_4>
2000b578:	8aaa                	c.mv	s5,a0
2000b57a:	8a2e                	c.mv	s4,a1
2000b57c:	8b32                	c.mv	s6,a2
2000b57e:	77c010ef          	jal	ra,2000ccfa <__env_lock>
2000b582:	8b3fa42b          	lwgp	s0,-1872 # 800b0 <environ>
2000b586:	ec11                	c.bnez	s0,2000b5a2 <_findenv_r+0x2e>
2000b588:	8556                	c.mv	a0,s5
2000b58a:	772010ef          	jal	ra,2000ccfc <__env_unlock>
2000b58e:	4501                	c.li	a0,0
2000b590:	7500206f          	j	2000dce0 <__riscv_restore_4>
2000b594:	0605                	c.addi	a2,1
2000b596:	00064783          	lbu	a5,0(a2)
2000b59a:	c3a9                	c.beqz	a5,2000b5dc <_findenv_r+0x68>
2000b59c:	bfd7ecdb          	bnec	a5,61,2000b594 <_findenv_r+0x20>
2000b5a0:	b7e5                	c.j	2000b588 <_findenv_r+0x14>
2000b5a2:	89be                	c.mv	s3,a5
2000b5a4:	8652                	c.mv	a2,s4
2000b5a6:	bfc5                	c.j	2000b596 <_findenv_r+0x22>
2000b5a8:	0411                	c.addi	s0,4
2000b5aa:	4008                	c.lw	a0,0(s0)
2000b5ac:	dd71                	c.beqz	a0,2000b588 <_findenv_r+0x14>
2000b5ae:	864a                	c.mv	a2,s2
2000b5b0:	85d2                	c.mv	a1,s4
2000b5b2:	a4bff0ef          	jal	ra,2000affc <strncmp>
2000b5b6:	f96d                	c.bnez	a0,2000b5a8 <_findenv_r+0x34>
2000b5b8:	4004                	c.lw	s1,0(s0)
2000b5ba:	94ca                	c.add	s1,s2
2000b5bc:	0004c783          	lbu	a5,0(s1)
2000b5c0:	bfd7e4db          	bnec	a5,61,2000b5a8 <_findenv_r+0x34>
2000b5c4:	8b3fa7ab          	lwgp	a5,-1872 # 800b0 <environ>
2000b5c8:	8556                	c.mv	a0,s5
2000b5ca:	8c1d                	c.sub	s0,a5
2000b5cc:	8409                	c.srai	s0,0x2
2000b5ce:	008b2023          	sw	s0,0(s6)
2000b5d2:	72a010ef          	jal	ra,2000ccfc <__env_unlock>
2000b5d6:	00148513          	addi	a0,s1,1
2000b5da:	bf5d                	c.j	2000b590 <_findenv_r+0x1c>
2000b5dc:	41460933          	sub	s2,a2,s4
2000b5e0:	b7e9                	c.j	2000b5aa <_findenv_r+0x36>

2000b5e2 <_getenv_r>:
2000b5e2:	6e4022ef          	jal	t0,2000dcc6 <__riscv_save_0>
2000b5e6:	1141                	c.addi	sp,-16
2000b5e8:	0070                	c.addi4spn	a2,sp,12
2000b5ea:	3769                	c.jal	2000b574 <_findenv_r>
2000b5ec:	0141                	c.addi	sp,16
2000b5ee:	6fc0206f          	j	2000dcea <__riscv_restore_0>

2000b5f2 <__gettzinfo>:
2000b5f2:	815f950b          	addigp	a0,-2028 # 80014 <tzinfo>
2000b5f6:	8082                	c.jr	ra

2000b5f8 <gmtime_r>:
2000b5f8:	4114                	c.lw	a3,0(a0)
2000b5fa:	67d5                	c.lui	a5,0x15
2000b5fc:	18078793          	addi	a5,a5,384 # 15180 <BIN_SIZE+0x6990>
2000b600:	02f6c633          	div	a2,a3,a5
2000b604:	02f6e6b3          	rem	a3,a3,a5
2000b608:	0e06cb63          	bltz	a3,2000b6fe <gmtime_r+0x106>
2000b60c:	000b07b7          	lui	a5,0xb0
2000b610:	a6c78793          	addi	a5,a5,-1428 # afa6c <_STACK_TOP+0xfa6c>
2000b614:	6705                	c.lui	a4,0x1
2000b616:	e1070713          	addi	a4,a4,-496 # e10 <app_acl_rxfifo+0x15c>
2000b61a:	97b2                	c.add	a5,a2
2000b61c:	02e6c633          	div	a2,a3,a4
2000b620:	000248b7          	lui	a7,0x24
2000b624:	6525                	c.lui	a0,0x9
2000b626:	5b400313          	li	t1,1460
2000b62a:	02e6e6b3          	rem	a3,a3,a4
2000b62e:	03c00713          	li	a4,60
2000b632:	c590                	c.sw	a2,8(a1)
2000b634:	02e6c633          	div	a2,a3,a4
2000b638:	02e6e6b3          	rem	a3,a3,a4
2000b63c:	00378713          	addi	a4,a5,3
2000b640:	c1d0                	c.sw	a2,4(a1)
2000b642:	fffdc637          	lui	a2,0xfffdc
2000b646:	54f60613          	addi	a2,a2,1359 # fffdc54f <_DATA_LMA_START+0xdffcde1b>
2000b64a:	c194                	c.sw	a3,0(a1)
2000b64c:	469d                	c.li	a3,7
2000b64e:	02d76733          	rem	a4,a4,a3
2000b652:	eac50693          	addi	a3,a0,-340 # 8eac <_RAMCODE_VMA_END+0x2baa>
2000b656:	cd98                	c.sw	a4,24(a1)
2000b658:	ab188713          	addi	a4,a7,-1359 # 23ab1 <BIN_SIZE+0x152c1>
2000b65c:	02e7c833          	div	a6,a5,a4
2000b660:	02c80633          	mul	a2,a6,a2
2000b664:	963e                	c.add	a2,a5
2000b666:	02d656b3          	divu	a3,a2,a3
2000b66a:	e9450793          	addi	a5,a0,-364
2000b66e:	4515                	c.li	a0,5
2000b670:	02665733          	divu	a4,a2,t1
2000b674:	96b2                	c.add	a3,a2
2000b676:	8e99                	c.sub	a3,a4
2000b678:	ab088713          	addi	a4,a7,-1360
2000b67c:	02e65733          	divu	a4,a2,a4
2000b680:	16d00893          	li	a7,365
2000b684:	40e68733          	sub	a4,a3,a4
2000b688:	031756b3          	divu	a3,a4,a7
2000b68c:	02f757b3          	divu	a5,a4,a5
2000b690:	02675733          	divu	a4,a4,t1
2000b694:	97b2                	c.add	a5,a2
2000b696:	031688b3          	mul	a7,a3,a7
2000b69a:	8f99                	c.sub	a5,a4
2000b69c:	09900713          	li	a4,153
2000b6a0:	411787b3          	sub	a5,a5,a7
2000b6a4:	02a78633          	mul	a2,a5,a0
2000b6a8:	00178893          	addi	a7,a5,1
2000b6ac:	0609                	c.addi	a2,2
2000b6ae:	02e65633          	divu	a2,a2,a4
2000b6b2:	02e60733          	mul	a4,a2,a4
2000b6b6:	0709                	c.addi	a4,2
2000b6b8:	02a75733          	divu	a4,a4,a0
2000b6bc:	4509                	c.li	a0,2
2000b6be:	40e888b3          	sub	a7,a7,a4
2000b6c2:	4725                	c.li	a4,9
2000b6c4:	00c77363          	bgeu	a4,a2,2000b6ca <gmtime_r+0xd2>
2000b6c8:	5559                	c.li	a0,-10
2000b6ca:	19000713          	li	a4,400
2000b6ce:	02e80733          	mul	a4,a6,a4
2000b6d2:	962a                	c.add	a2,a0
2000b6d4:	00263513          	sltiu	a0,a2,2
2000b6d8:	9736                	c.add	a4,a3
2000b6da:	972a                	c.add	a4,a0
2000b6dc:	13100513          	li	a0,305
2000b6e0:	02f57563          	bgeu	a0,a5,2000b70a <gmtime_r+0x112>
2000b6e4:	ece78793          	addi	a5,a5,-306
2000b6e8:	cddc                	c.sw	a5,28(a1)
2000b6ea:	89470793          	addi	a5,a4,-1900
2000b6ee:	c9dc                	c.sw	a5,20(a1)
2000b6f0:	c990                	c.sw	a2,16(a1)
2000b6f2:	0115a623          	sw	a7,12(a1)
2000b6f6:	0205a023          	sw	zero,32(a1)
2000b6fa:	852e                	c.mv	a0,a1
2000b6fc:	8082                	c.jr	ra
2000b6fe:	96be                	c.add	a3,a5
2000b700:	000b07b7          	lui	a5,0xb0
2000b704:	a6b78793          	addi	a5,a5,-1429 # afa6b <_STACK_TOP+0xfa6b>
2000b708:	b731                	c.j	2000b614 <gmtime_r+0x1c>
2000b70a:	0036f513          	andi	a0,a3,3
2000b70e:	e519                	c.bnez	a0,2000b71c <gmtime_r+0x124>
2000b710:	06400513          	li	a0,100
2000b714:	02a6f533          	remu	a0,a3,a0
2000b718:	4805                	c.li	a6,1
2000b71a:	e519                	c.bnez	a0,2000b728 <gmtime_r+0x130>
2000b71c:	19000513          	li	a0,400
2000b720:	02a6f6b3          	remu	a3,a3,a0
2000b724:	0016b813          	seqz	a6,a3
2000b728:	03b78793          	addi	a5,a5,59
2000b72c:	97c2                	c.add	a5,a6
2000b72e:	bf6d                	c.j	2000b6e8 <gmtime_r+0xf0>

2000b730 <free>:
2000b730:	596022ef          	jal	t0,2000dcc6 <__riscv_save_0>
2000b734:	85aa                	c.mv	a1,a0
2000b736:	8abfa52b          	lwgp	a0,-1880 # 800a8 <_impure_ptr>
2000b73a:	2019                	c.jal	2000b740 <_free_r>
2000b73c:	5ae0206f          	j	2000dcea <__riscv_restore_0>

2000b740 <_free_r>:
2000b740:	c5b5                	c.beqz	a1,2000b7ac <_free_r+0x6c>
2000b742:	ffc5a703          	lw	a4,-4(a1)
2000b746:	ffc58793          	addi	a5,a1,-4
2000b74a:	00075363          	bgez	a4,2000b750 <_free_r+0x10>
2000b74e:	97ba                	c.add	a5,a4
2000b750:	8ebfa72b          	lwgp	a4,-1816 # 800e8 <__malloc_free_list>
2000b754:	85b6                	c.mv	a1,a3
2000b756:	e711                	c.bnez	a4,2000b762 <_free_r+0x22>
2000b758:	0007a223          	sw	zero,4(a5)
2000b75c:	8effc5ab          	swgp	a5,-1816 # 800e8 <__malloc_free_list>
2000b760:	8082                	c.jr	ra
2000b762:	02e7f063          	bgeu	a5,a4,2000b782 <_free_r+0x42>
2000b766:	4390                	c.lw	a2,0(a5)
2000b768:	00c786b3          	add	a3,a5,a2
2000b76c:	00d71663          	bne	a4,a3,2000b778 <_free_r+0x38>
2000b770:	4314                	c.lw	a3,0(a4)
2000b772:	4358                	c.lw	a4,4(a4)
2000b774:	96b2                	c.add	a3,a2
2000b776:	c394                	c.sw	a3,0(a5)
2000b778:	c3d8                	c.sw	a4,4(a5)
2000b77a:	8effc5ab          	swgp	a5,-1816 # 800e8 <__malloc_free_list>
2000b77e:	8082                	c.jr	ra
2000b780:	8736                	c.mv	a4,a3
2000b782:	4354                	c.lw	a3,4(a4)
2000b784:	c299                	c.beqz	a3,2000b78a <_free_r+0x4a>
2000b786:	fed7fde3          	bgeu	a5,a3,2000b780 <_free_r+0x40>
2000b78a:	4310                	c.lw	a2,0(a4)
2000b78c:	00c705b3          	add	a1,a4,a2
2000b790:	00f59f63          	bne	a1,a5,2000b7ae <_free_r+0x6e>
2000b794:	439c                	c.lw	a5,0(a5)
2000b796:	97b2                	c.add	a5,a2
2000b798:	c31c                	c.sw	a5,0(a4)
2000b79a:	00f70633          	add	a2,a4,a5
2000b79e:	00c69763          	bne	a3,a2,2000b7ac <_free_r+0x6c>
2000b7a2:	4290                	c.lw	a2,0(a3)
2000b7a4:	97b2                	c.add	a5,a2
2000b7a6:	c31c                	c.sw	a5,0(a4)
2000b7a8:	42dc                	c.lw	a5,4(a3)
2000b7aa:	c35c                	c.sw	a5,4(a4)
2000b7ac:	8082                	c.jr	ra
2000b7ae:	00b7f663          	bgeu	a5,a1,2000b7ba <_free_r+0x7a>
2000b7b2:	4731                	c.li	a4,12
2000b7b4:	8eefcdab          	swgp	a4,-1800 # 800f8 <__mculib_REENT_errno>
2000b7b8:	8082                	c.jr	ra
2000b7ba:	438c                	c.lw	a1,0(a5)
2000b7bc:	00b78633          	add	a2,a5,a1
2000b7c0:	00c69663          	bne	a3,a2,2000b7cc <_free_r+0x8c>
2000b7c4:	4290                	c.lw	a2,0(a3)
2000b7c6:	42d4                	c.lw	a3,4(a3)
2000b7c8:	962e                	c.add	a2,a1
2000b7ca:	c390                	c.sw	a2,0(a5)
2000b7cc:	c3d4                	c.sw	a3,4(a5)
2000b7ce:	bff1                	c.j	2000b7aa <_free_r+0x6a>

2000b7d0 <_malloc_r>:
2000b7d0:	4f6022ef          	jal	t0,2000dcc6 <__riscv_save_0>
2000b7d4:	00358493          	addi	s1,a1,3
2000b7d8:	98f1                	c.andi	s1,-4
2000b7da:	04a1                	c.addi	s1,8
2000b7dc:	47b1                	c.li	a5,12
2000b7de:	06f4f263          	bgeu	s1,a5,2000b842 <_malloc_r+0x72>
2000b7e2:	44b1                	c.li	s1,12
2000b7e4:	06b4e163          	bltu	s1,a1,2000b846 <_malloc_r+0x76>
2000b7e8:	8ebfa42b          	lwgp	s0,-1816 # 800e8 <__malloc_free_list>
2000b7ec:	8e9f968b          	addigp	a3,-1816 # 800e8 <__malloc_free_list>
2000b7f0:	87a2                	c.mv	a5,s0
2000b7f2:	cf89                	c.beqz	a5,2000b80c <_malloc_r+0x3c>
2000b7f4:	4398                	c.lw	a4,0(a5)
2000b7f6:	8f05                	c.sub	a4,s1
2000b7f8:	08074163          	bltz	a4,2000b87a <_malloc_r+0xaa>
2000b7fc:	462d                	c.li	a2,11
2000b7fe:	04e67a63          	bgeu	a2,a4,2000b852 <_malloc_r+0x82>
2000b802:	c398                	c.sw	a4,0(a5)
2000b804:	00e78433          	add	s0,a5,a4
2000b808:	c004                	c.sw	s1,0(s0)
2000b80a:	e821                	c.bnez	s0,2000b85a <_malloc_r+0x8a>
2000b80c:	8edf940b          	addigp	s0,-1812 # 800ec <__malloc_sbrk_start>
2000b810:	401c                	c.lw	a5,0(s0)
2000b812:	e789                	c.bnez	a5,2000b81c <_malloc_r+0x4c>
2000b814:	4501                	c.li	a0,0
2000b816:	49f010ef          	jal	ra,2000d4b4 <_sbrk>
2000b81a:	c008                	c.sw	a0,0(s0)
2000b81c:	8526                	c.mv	a0,s1
2000b81e:	597d                	c.li	s2,-1
2000b820:	495010ef          	jal	ra,2000d4b4 <_sbrk>
2000b824:	03250163          	beq	a0,s2,2000b846 <_malloc_r+0x76>
2000b828:	00350413          	addi	s0,a0,3
2000b82c:	9871                	c.andi	s0,-4
2000b82e:	00a40863          	beq	s0,a0,2000b83e <_malloc_r+0x6e>
2000b832:	40a40533          	sub	a0,s0,a0
2000b836:	47f010ef          	jal	ra,2000d4b4 <_sbrk>
2000b83a:	01250663          	beq	a0,s2,2000b846 <_malloc_r+0x76>
2000b83e:	c004                	c.sw	s1,0(s0)
2000b840:	a829                	c.j	2000b85a <_malloc_r+0x8a>
2000b842:	fa04d1e3          	bgez	s1,2000b7e4 <_malloc_r+0x14>
2000b846:	4731                	c.li	a4,12
2000b848:	4501                	c.li	a0,0
2000b84a:	8eefcdab          	swgp	a4,-1800 # 800f8 <__mculib_REENT_errno>
2000b84e:	49c0206f          	j	2000dcea <__riscv_restore_0>
2000b852:	43d8                	c.lw	a4,4(a5)
2000b854:	02f41063          	bne	s0,a5,2000b874 <_malloc_r+0xa4>
2000b858:	c298                	c.sw	a4,0(a3)
2000b85a:	00b40513          	addi	a0,s0,11
2000b85e:	00440793          	addi	a5,s0,4
2000b862:	9961                	c.andi	a0,-8
2000b864:	40f507b3          	sub	a5,a0,a5
2000b868:	d3fd                	c.beqz	a5,2000b84e <_malloc_r+0x7e>
2000b86a:	943e                	c.add	s0,a5
2000b86c:	40f007b3          	neg	a5,a5
2000b870:	c01c                	c.sw	a5,0(s0)
2000b872:	bff1                	c.j	2000b84e <_malloc_r+0x7e>
2000b874:	c058                	c.sw	a4,4(s0)
2000b876:	843e                	c.mv	s0,a5
2000b878:	b7cd                	c.j	2000b85a <_malloc_r+0x8a>
2000b87a:	843e                	c.mv	s0,a5
2000b87c:	43dc                	c.lw	a5,4(a5)
2000b87e:	bf95                	c.j	2000b7f2 <_malloc_r+0x22>

2000b880 <__print_integral>:
2000b880:	446022ef          	jal	t0,2000dcc6 <__riscv_save_0>
2000b884:	1101                	c.addi	sp,-32
2000b886:	842a                	c.mv	s0,a0
2000b888:	84ae                	c.mv	s1,a1
2000b88a:	8932                	c.mv	s2,a2
2000b88c:	c636                	c.swsp	a3,12(sp)
2000b88e:	85be                	c.mv	a1,a5
2000b890:	ca32                	c.swsp	a2,20(sp)
2000b892:	853a                	c.mv	a0,a4
2000b894:	0830                	c.addi4spn	a2,sp,24
2000b896:	294d                	c.jal	2000bd48 <__int_to_poly>
2000b898:	46b2                	c.lwsp	a3,12(sp)
2000b89a:	882a                	c.mv	a6,a0
2000b89c:	083c                	c.addi4spn	a5,sp,24
2000b89e:	0858                	c.addi4spn	a4,sp,20
2000b8a0:	864a                	c.mv	a2,s2
2000b8a2:	85a6                	c.mv	a1,s1
2000b8a4:	8522                	c.mv	a0,s0
2000b8a6:	21c9                	c.jal	2000bd68 <__print_integral_poly>
2000b8a8:	2000e7b7          	lui	a5,0x2000e
2000b8ac:	3a078793          	addi	a5,a5,928 # 2000e3a0 <__digits>
2000b8b0:	00a46563          	bltu	s0,a0,2000b8ba <__print_integral+0x3a>
2000b8b4:	6105                	c.addi16sp	sp,32
2000b8b6:	4340206f          	j	2000dcea <__riscv_restore_0>
2000b8ba:	00044703          	lbu	a4,0(s0)
2000b8be:	0405                	c.addi	s0,1
2000b8c0:	973e                	c.add	a4,a5
2000b8c2:	00070703          	lb	a4,0(a4)
2000b8c6:	fee40fa3          	sb	a4,-1(s0)
2000b8ca:	b7dd                	c.j	2000b8b0 <__print_integral+0x30>

2000b8cc <__printf_impl>:
2000b8cc:	3ca022ef          	jal	t0,2000dc96 <__riscv_save_12>
2000b8d0:	a6010113          	addi	sp,sp,-1440
2000b8d4:	6b05                	c.lui	s6,0x1
2000b8d6:	892a                	c.mv	s2,a0
2000b8d8:	842e                	c.mv	s0,a1
2000b8da:	89b2                	c.mv	s3,a2
2000b8dc:	01c10a13          	addi	s4,sp,28
2000b8e0:	800b0b13          	addi	s6,s6,-2048 # 800 <pkt_errRsp>
2000b8e4:	8e0fc9ab          	swgp	zero,-1808 # 800f0 <__printf_count>
2000b8e8:	c456                	c.swsp	s5,8(sp)
2000b8ea:	00094503          	lbu	a0,0(s2)
2000b8ee:	e509                	c.bnez	a0,2000b8f8 <__printf_impl+0x2c>
2000b8f0:	5a010113          	addi	sp,sp,1440
2000b8f4:	3de0206f          	j	2000dcd2 <__riscv_restore_12>
2000b8f8:	00190493          	addi	s1,s2,1
2000b8fc:	005555db          	beqc	a0,37,2000b906 <__printf_impl+0x3a>
2000b900:	9982                	c.jalr	s3
2000b902:	8926                	c.mv	s2,s1
2000b904:	b7dd                	c.j	2000b8ea <__printf_impl+0x1e>
2000b906:	00194783          	lbu	a5,1(s2)
2000b90a:	0057e8db          	bnec	a5,37,2000b91a <__printf_impl+0x4e>
2000b90e:	02500513          	li	a0,37
2000b912:	9982                	c.jalr	s3
2000b914:	00290493          	addi	s1,s2,2
2000b918:	b7ed                	c.j	2000b902 <__printf_impl+0x36>
2000b91a:	4681                	c.li	a3,0
2000b91c:	4701                	c.li	a4,0
2000b91e:	d002                	c.swsp	zero,32(sp)
2000b920:	0004c783          	lbu	a5,0(s1)
2000b924:	0007e7db          	bnec	a5,32,2000b932 <__printf_impl+0x66>
2000b928:	00276713          	ori	a4,a4,2
2000b92c:	0485                	c.addi	s1,1
2000b92e:	4685                	c.li	a3,1
2000b930:	bfc5                	c.j	2000b920 <__printf_impl+0x54>
2000b932:	00d7e5db          	bnec	a5,45,2000b93c <__printf_impl+0x70>
2000b936:	00476713          	ori	a4,a4,4
2000b93a:	bfcd                	c.j	2000b92c <__printf_impl+0x60>
2000b93c:	00b7e5db          	bnec	a5,43,2000b946 <__printf_impl+0x7a>
2000b940:	00876713          	ori	a4,a4,8
2000b944:	b7e5                	c.j	2000b92c <__printf_impl+0x60>
2000b946:	0037e5db          	bnec	a5,35,2000b950 <__printf_impl+0x84>
2000b94a:	01076713          	ori	a4,a4,16
2000b94e:	bff9                	c.j	2000b92c <__printf_impl+0x60>
2000b950:	0107e5db          	bnec	a5,48,2000b95a <__printf_impl+0x8e>
2000b954:	02076713          	ori	a4,a4,32
2000b958:	bfd1                	c.j	2000b92c <__printf_impl+0x60>
2000b95a:	c291                	c.beqz	a3,2000b95e <__printf_impl+0x92>
2000b95c:	d03a                	c.swsp	a4,32(sp)
2000b95e:	04a7eadb          	bnec	a5,42,2000b9b2 <__printf_impl+0xe6>
2000b962:	00042b83          	lw	s7,0(s0)
2000b966:	00440713          	addi	a4,s0,4
2000b96a:	000bd863          	bgez	s7,2000b97a <__printf_impl+0xae>
2000b96e:	5782                	c.lwsp	a5,32(sp)
2000b970:	41700bb3          	neg	s7,s7
2000b974:	0047e793          	ori	a5,a5,4
2000b978:	d03e                	c.swsp	a5,32(sp)
2000b97a:	0485                	c.addi	s1,1
2000b97c:	843a                	c.mv	s0,a4
2000b97e:	0004c783          	lbu	a5,0(s1)
2000b982:	5cfd                	c.li	s9,-1
2000b984:	06e7e8db          	bnec	a5,46,2000b9f4 <__printf_impl+0x128>
2000b988:	0014c783          	lbu	a5,1(s1)
2000b98c:	04a7dbdb          	beqc	a5,42,2000b9e2 <__printf_impl+0x116>
2000b990:	0485                	c.addi	s1,1
2000b992:	4c81                	c.li	s9,0
2000b994:	4725                	c.li	a4,9
2000b996:	4629                	c.li	a2,10
2000b998:	0004c783          	lbu	a5,0(s1)
2000b99c:	fd078793          	addi	a5,a5,-48
2000b9a0:	0ff7f693          	andi	a3,a5,255
2000b9a4:	04d76863          	bltu	a4,a3,2000b9f4 <__printf_impl+0x128>
2000b9a8:	02cc8cb3          	mul	s9,s9,a2
2000b9ac:	0485                	c.addi	s1,1
2000b9ae:	9cbe                	c.add	s9,a5
2000b9b0:	b7e5                	c.j	2000b998 <__printf_impl+0xcc>
2000b9b2:	fd078793          	addi	a5,a5,-48
2000b9b6:	0ff7f793          	andi	a5,a5,255
2000b9ba:	4725                	c.li	a4,9
2000b9bc:	4b81                	c.li	s7,0
2000b9be:	fcf760e3          	bltu	a4,a5,2000b97e <__printf_impl+0xb2>
2000b9c2:	4725                	c.li	a4,9
2000b9c4:	4629                	c.li	a2,10
2000b9c6:	a029                	c.j	2000b9d0 <__printf_impl+0x104>
2000b9c8:	02cb8bb3          	mul	s7,s7,a2
2000b9cc:	0485                	c.addi	s1,1
2000b9ce:	9bbe                	c.add	s7,a5
2000b9d0:	0004c783          	lbu	a5,0(s1)
2000b9d4:	fd078793          	addi	a5,a5,-48
2000b9d8:	0ff7f693          	andi	a3,a5,255
2000b9dc:	fed776e3          	bgeu	a4,a3,2000b9c8 <__printf_impl+0xfc>
2000b9e0:	bf79                	c.j	2000b97e <__printf_impl+0xb2>
2000b9e2:	00042c83          	lw	s9,0(s0)
2000b9e6:	00440793          	addi	a5,s0,4
2000b9ea:	000cd363          	bgez	s9,2000b9f0 <__printf_impl+0x124>
2000b9ee:	5cfd                	c.li	s9,-1
2000b9f0:	0489                	c.addi	s1,2
2000b9f2:	843e                	c.mv	s0,a5
2000b9f4:	43200793          	li	a5,1074
2000b9f8:	8666                	c.mv	a2,s9
2000b9fa:	0197d463          	bge	a5,s9,2000ba02 <__printf_impl+0x136>
2000b9fe:	43200613          	li	a2,1074
2000ba02:	0004c783          	lbu	a5,0(s1)
2000ba06:	4487efdb          	bnec	a5,104,2000ba64 <__printf_impl+0x198>
2000ba0a:	5782                	c.lwsp	a5,32(sp)
2000ba0c:	0014c703          	lbu	a4,1(s1)
2000ba10:	448764db          	bnec	a4,104,2000ba58 <__printf_impl+0x18c>
2000ba14:	0407e793          	ori	a5,a5,64
2000ba18:	00248913          	addi	s2,s1,2
2000ba1c:	d03e                	c.swsp	a5,32(sp)
2000ba1e:	00094683          	lbu	a3,0(s2)
2000ba22:	06700793          	li	a5,103
2000ba26:	08d7ee63          	bltu	a5,a3,2000bac2 <__printf_impl+0x1f6>
2000ba2a:	06500793          	li	a5,101
2000ba2e:	06f6fd63          	bgeu	a3,a5,2000baa8 <__printf_impl+0x1dc>
2000ba32:	05800793          	li	a5,88
2000ba36:	5786d35b          	beqc	a3,88,2000bb9c <__printf_impl+0x2d0>
2000ba3a:	04d7ef63          	bltu	a5,a3,2000ba98 <__printf_impl+0x1cc>
2000ba3e:	04100793          	li	a5,65
2000ba42:	4616d35b          	beqc	a3,65,2000baa8 <__printf_impl+0x1dc>
2000ba46:	00f6e763          	bltu	a3,a5,2000ba54 <__printf_impl+0x188>
2000ba4a:	fbb68793          	addi	a5,a3,-69
2000ba4e:	4709                	c.li	a4,2
2000ba50:	04f77c63          	bgeu	a4,a5,2000baa8 <__printf_impl+0x1dc>
2000ba54:	84a2                	c.mv	s1,s0
2000ba56:	ac3d                	c.j	2000bc94 <__printf_impl+0x3c8>
2000ba58:	0807e793          	ori	a5,a5,128
2000ba5c:	d03e                	c.swsp	a5,32(sp)
2000ba5e:	00148913          	addi	s2,s1,1
2000ba62:	bf75                	c.j	2000ba1e <__printf_impl+0x152>
2000ba64:	40c7eddb          	bnec	a5,108,2000ba7e <__printf_impl+0x1b2>
2000ba68:	5782                	c.lwsp	a5,32(sp)
2000ba6a:	0014c703          	lbu	a4,1(s1)
2000ba6e:	40c765db          	bnec	a4,108,2000ba78 <__printf_impl+0x1ac>
2000ba72:	2007e793          	ori	a5,a5,512
2000ba76:	b74d                	c.j	2000ba18 <__printf_impl+0x14c>
2000ba78:	1007e793          	ori	a5,a5,256
2000ba7c:	b7c5                	c.j	2000ba5c <__printf_impl+0x190>
2000ba7e:	00148913          	addi	s2,s1,1
2000ba82:	41a7e7db          	bnec	a5,122,2000ba90 <__printf_impl+0x1c4>
2000ba86:	5782                	c.lwsp	a5,32(sp)
2000ba88:	1007e793          	ori	a5,a5,256
2000ba8c:	d03e                	c.swsp	a5,32(sp)
2000ba8e:	bf41                	c.j	2000ba1e <__printf_impl+0x152>
2000ba90:	ff47dbdb          	beqc	a5,116,2000ba86 <__printf_impl+0x1ba>
2000ba94:	8926                	c.mv	s2,s1
2000ba96:	b761                	c.j	2000ba1e <__printf_impl+0x152>
2000ba98:	06300793          	li	a5,99
2000ba9c:	5036dadb          	beqc	a3,99,2000bbb0 <__printf_impl+0x2e4>
2000baa0:	04d7e063          	bltu	a5,a3,2000bae0 <__printf_impl+0x214>
2000baa4:	fa16e8db          	bnec	a3,97,2000ba54 <__printf_impl+0x188>
2000baa8:	041d                	c.addi	s0,7
2000baaa:	9861                	c.andi	s0,-8
2000baac:	0206fc13          	andi	s8,a3,32
2000bab0:	87b6                	c.mv	a5,a3
2000bab2:	4058                	c.lw	a4,4(s0)
2000bab4:	4014                	c.lw	a3,0(s0)
2000bab6:	100c                	c.addi4spn	a1,sp,32
2000bab8:	1048                	c.addi4spn	a0,sp,36
2000baba:	00840493          	addi	s1,s0,8
2000babe:	2e35                	c.jal	2000bdfa <__printf_float_impl>
2000bac0:	aa5d                	c.j	2000bc76 <__printf_impl+0x3aa>
2000bac2:	07000793          	li	a5,112
2000bac6:	4d06dbdb          	beqc	a3,112,2000bb9c <__printf_impl+0x2d0>
2000baca:	04d7e163          	bltu	a5,a3,2000bb0c <__printf_impl+0x240>
2000bace:	06e00793          	li	a5,110
2000bad2:	5ae6d6db          	beqc	a3,110,2000bc7e <__printf_impl+0x3b2>
2000bad6:	45a1                	c.li	a1,8
2000bad8:	0cd7e363          	bltu	a5,a3,2000bb9e <__printf_impl+0x2d2>
2000badc:	f696ecdb          	bnec	a3,105,2000ba54 <__printf_impl+0x188>
2000bae0:	5682                	c.lwsp	a3,32(sp)
2000bae2:	0e66f25b          	bbc	a3,6,2000bbc6 <__printf_impl+0x2fa>
2000bae6:	00040703          	lb	a4,0(s0)
2000baea:	00440493          	addi	s1,s0,4
2000baee:	41f75793          	srai	a5,a4,0x1f
2000baf2:	1007d163          	bgez	a5,2000bbf4 <__printf_impl+0x328>
2000baf6:	40e00733          	neg	a4,a4
2000bafa:	00e035b3          	snez	a1,a4
2000bafe:	40f007b3          	neg	a5,a5
2000bb02:	8f8d                	c.sub	a5,a1
2000bb04:	4006e693          	ori	a3,a3,1024
2000bb08:	d036                	c.swsp	a3,32(sp)
2000bb0a:	a0ed                	c.j	2000bbf4 <__printf_impl+0x328>
2000bb0c:	5156d5db          	beqc	a3,117,2000bc16 <__printf_impl+0x34a>
2000bb10:	4986d6db          	beqc	a3,120,2000bb9c <__printf_impl+0x2d0>
2000bb14:	f536e0db          	bnec	a3,115,2000ba54 <__printf_impl+0x188>
2000bb18:	00042a83          	lw	s5,0(s0)
2000bb1c:	85b2                	c.mv	a1,a2
2000bb1e:	8556                	c.mv	a0,s5
2000bb20:	c632                	c.swsp	a2,12(sp)
2000bb22:	071000ef          	jal	ra,2000c392 <strnlen>
2000bb26:	57fd                	c.li	a5,-1
2000bb28:	00440493          	addi	s1,s0,4
2000bb2c:	00fc8663          	beq	s9,a5,2000bb38 <__printf_impl+0x26c>
2000bb30:	4632                	c.lwsp	a2,12(sp)
2000bb32:	00a65363          	bge	a2,a0,2000bb38 <__printf_impl+0x26c>
2000bb36:	8532                	c.mv	a0,a2
2000bb38:	00aa8433          	add	s0,s5,a0
2000bb3c:	4c01                	c.li	s8,0
2000bb3e:	5782                	c.lwsp	a5,32(sp)
2000bb40:	02d00693          	li	a3,45
2000bb44:	40a7fb5b          	bbs	a5,10,2000bb5a <__printf_impl+0x28e>
2000bb48:	02b00693          	li	a3,43
2000bb4c:	4037f75b          	bbs	a5,3,2000bb5a <__printf_impl+0x28e>
2000bb50:	8cd2                	c.mv	s9,s4
2000bb52:	0017f85b          	bbc	a5,1,2000bb62 <__printf_impl+0x296>
2000bb56:	02000693          	li	a3,32
2000bb5a:	01d10c93          	addi	s9,sp,29
2000bb5e:	00d10e23          	sb	a3,28(sp)
2000bb62:	0167f6b3          	and	a3,a5,s6
2000bb66:	ca91                	c.beqz	a3,2000bb7a <__printf_impl+0x2ae>
2000bb68:	03000693          	li	a3,48
2000bb6c:	00dc8023          	sb	a3,0(s9)
2000bb70:	05800693          	li	a3,88
2000bb74:	00dc80a3          	sb	a3,1(s9)
2000bb78:	0c89                	c.addi	s9,2
2000bb7a:	5627f45b          	bbs	a5,2,2000bce2 <__printf_impl+0x416>
2000bb7e:	41540db3          	sub	s11,s0,s5
2000bb82:	4057fa5b          	bbs	a5,5,2000bb96 <__printf_impl+0x2ca>
2000bb86:	41bb8d33          	sub	s10,s7,s11
2000bb8a:	414c87b3          	sub	a5,s9,s4
2000bb8e:	40fd0d33          	sub	s10,s10,a5
2000bb92:	17a04763          	bgtz	s10,2000bd00 <__printf_impl+0x434>
2000bb96:	8d52                	c.mv	s10,s4
2000bb98:	9bd2                	c.add	s7,s4
2000bb9a:	aab5                	c.j	2000bd16 <__printf_impl+0x44a>
2000bb9c:	45c1                	c.li	a1,16
2000bb9e:	5782                	c.lwsp	a5,32(sp)
2000bba0:	0667fd5b          	bbc	a5,6,2000bc1a <__printf_impl+0x34e>
2000bba4:	00044703          	lbu	a4,0(s0)
2000bba8:	00440493          	addi	s1,s0,4
2000bbac:	4781                	c.li	a5,0
2000bbae:	a859                	c.j	2000bc44 <__printf_impl+0x378>
2000bbb0:	401c                	c.lw	a5,0(s0)
2000bbb2:	00440493          	addi	s1,s0,4
2000bbb6:	4c01                	c.li	s8,0
2000bbb8:	02510413          	addi	s0,sp,37
2000bbbc:	02f10223          	sb	a5,36(sp)
2000bbc0:	02410a93          	addi	s5,sp,36
2000bbc4:	bfad                	c.j	2000bb3e <__printf_impl+0x272>
2000bbc6:	0076f75b          	bbc	a3,7,2000bbd4 <__printf_impl+0x308>
2000bbca:	00440493          	addi	s1,s0,4
2000bbce:	00041703          	lh	a4,0(s0)
2000bbd2:	bf31                	c.j	2000baee <__printf_impl+0x222>
2000bbd4:	0086f65b          	bbc	a3,8,2000bbe0 <__printf_impl+0x314>
2000bbd8:	00440493          	addi	s1,s0,4
2000bbdc:	4018                	c.lw	a4,0(s0)
2000bbde:	bf01                	c.j	2000baee <__printf_impl+0x222>
2000bbe0:	be96fc5b          	bbc	a3,9,2000bbd8 <__printf_impl+0x30c>
2000bbe4:	041d                	c.addi	s0,7
2000bbe6:	9861                	c.andi	s0,-8
2000bbe8:	405c                	c.lw	a5,4(s0)
2000bbea:	00840493          	addi	s1,s0,8
2000bbee:	4018                	c.lw	a4,0(s0)
2000bbf0:	0007c963          	bltz	a5,2000bc02 <__printf_impl+0x336>
2000bbf4:	56fd                	c.li	a3,-1
2000bbf6:	45a9                	c.li	a1,10
2000bbf8:	4c01                	c.li	s8,0
2000bbfa:	04dc9a63          	bne	s9,a3,2000bc4e <__printf_impl+0x382>
2000bbfe:	4605                	c.li	a2,1
2000bc00:	a0b5                	c.j	2000bc6c <__printf_impl+0x3a0>
2000bc02:	ee071ae3          	bnez	a4,2000baf6 <__printf_impl+0x22a>
2000bc06:	800005b7          	lui	a1,0x80000
2000bc0a:	eeb796e3          	bne	a5,a1,2000baf6 <__printf_impl+0x22a>
2000bc0e:	4701                	c.li	a4,0
2000bc10:	800007b7          	lui	a5,0x80000
2000bc14:	bdc5                	c.j	2000bb04 <__printf_impl+0x238>
2000bc16:	45a9                	c.li	a1,10
2000bc18:	b759                	c.j	2000bb9e <__printf_impl+0x2d2>
2000bc1a:	0077f75b          	bbc	a5,7,2000bc28 <__printf_impl+0x35c>
2000bc1e:	00440493          	addi	s1,s0,4
2000bc22:	00045703          	lhu	a4,0(s0)
2000bc26:	b759                	c.j	2000bbac <__printf_impl+0x2e0>
2000bc28:	0087f65b          	bbc	a5,8,2000bc34 <__printf_impl+0x368>
2000bc2c:	00440493          	addi	s1,s0,4
2000bc30:	4018                	c.lw	a4,0(s0)
2000bc32:	bfad                	c.j	2000bbac <__printf_impl+0x2e0>
2000bc34:	be97fc5b          	bbc	a5,9,2000bc2c <__printf_impl+0x360>
2000bc38:	041d                	c.addi	s0,7
2000bc3a:	9861                	c.andi	s0,-8
2000bc3c:	4018                	c.lw	a4,0(s0)
2000bc3e:	405c                	c.lw	a5,4(s0)
2000bc40:	00840493          	addi	s1,s0,8
2000bc44:	0206fc13          	andi	s8,a3,32
2000bc48:	56fd                	c.li	a3,-1
2000bc4a:	02dc8863          	beq	s9,a3,2000bc7a <__printf_impl+0x3ae>
2000bc4e:	5682                	c.lwsp	a3,32(sp)
2000bc50:	fdf6f693          	andi	a3,a3,-33
2000bc54:	d036                	c.swsp	a3,32(sp)
2000bc56:	0105eb5b          	bnec	a1,16,2000bc6c <__printf_impl+0x3a0>
2000bc5a:	5682                	c.lwsp	a3,32(sp)
2000bc5c:	0046f85b          	bbc	a3,4,2000bc6c <__printf_impl+0x3a0>
2000bc60:	00f76533          	or	a0,a4,a5
2000bc64:	c501                	c.beqz	a0,2000bc6c <__printf_impl+0x3a0>
2000bc66:	0166e6b3          	or	a3,a3,s6
2000bc6a:	d036                	c.swsp	a3,32(sp)
2000bc6c:	86b2                	c.mv	a3,a2
2000bc6e:	5602                	c.lwsp	a2,32(sp)
2000bc70:	1048                	c.addi4spn	a0,sp,36
2000bc72:	c0fff0ef          	jal	ra,2000b880 <__print_integral>
2000bc76:	842a                	c.mv	s0,a0
2000bc78:	b7a1                	c.j	2000bbc0 <__printf_impl+0x2f4>
2000bc7a:	4605                	c.li	a2,1
2000bc7c:	bfe9                	c.j	2000bc56 <__printf_impl+0x38a>
2000bc7e:	45a2                	c.lwsp	a1,8(sp)
2000bc80:	5682                	c.lwsp	a3,32(sp)
2000bc82:	00440493          	addi	s1,s0,4
2000bc86:	8f3fa7ab          	lwgp	a5,-1808 # 800f0 <__printf_count>
2000bc8a:	4018                	c.lw	a4,0(s0)
2000bc8c:	0066f85b          	bbc	a3,6,2000bc9c <__printf_impl+0x3d0>
2000bc90:	00f70023          	sb	a5,0(a4)
2000bc94:	1040                	c.addi4spn	s0,sp,36
2000bc96:	4c01                	c.li	s8,0
2000bc98:	8aa2                	c.mv	s5,s0
2000bc9a:	b555                	c.j	2000bb3e <__printf_impl+0x272>
2000bc9c:	0076f55b          	bbc	a3,7,2000bca6 <__printf_impl+0x3da>
2000bca0:	00f71023          	sh	a5,0(a4)
2000bca4:	bfc5                	c.j	2000bc94 <__printf_impl+0x3c8>
2000bca6:	c31c                	c.sw	a5,0(a4)
2000bca8:	fe86f65b          	bbs	a3,8,2000bc94 <__printf_impl+0x3c8>
2000bcac:	be96f45b          	bbc	a3,9,2000bc94 <__printf_impl+0x3c8>
2000bcb0:	87fd                	c.srai	a5,0x1f
2000bcb2:	c35c                	c.sw	a5,4(a4)
2000bcb4:	b7c5                	c.j	2000bc94 <__printf_impl+0x3c8>
2000bcb6:	000dc503          	lbu	a0,0(s11)
2000bcba:	0d85                	c.addi	s11,1
2000bcbc:	01856533          	or	a0,a0,s8
2000bcc0:	9982                	c.jalr	s3
2000bcc2:	41bb8d33          	sub	s10,s7,s11
2000bcc6:	ff9de8e3          	bltu	s11,s9,2000bcb6 <__printf_impl+0x3ea>
2000bcca:	8bd6                	c.mv	s7,s5
2000bccc:	01741e63          	bne	s0,s7,2000bce8 <__printf_impl+0x41c>
2000bcd0:	41540433          	sub	s0,s0,s5
2000bcd4:	408d0433          	sub	s0,s10,s0
2000bcd8:	00804f63          	bgtz	s0,2000bcf6 <__printf_impl+0x42a>
2000bcdc:	0905                	c.addi	s2,1
2000bcde:	8426                	c.mv	s0,s1
2000bce0:	b129                	c.j	2000b8ea <__printf_impl+0x1e>
2000bce2:	8dd2                	c.mv	s11,s4
2000bce4:	9bd2                	c.add	s7,s4
2000bce6:	bff1                	c.j	2000bcc2 <__printf_impl+0x3f6>
2000bce8:	000bc503          	lbu	a0,0(s7)
2000bcec:	0b85                	c.addi	s7,1
2000bcee:	01856533          	or	a0,a0,s8
2000bcf2:	9982                	c.jalr	s3
2000bcf4:	bfe1                	c.j	2000bccc <__printf_impl+0x400>
2000bcf6:	02000513          	li	a0,32
2000bcfa:	9982                	c.jalr	s3
2000bcfc:	147d                	c.addi	s0,-1
2000bcfe:	bfe9                	c.j	2000bcd8 <__printf_impl+0x40c>
2000bd00:	02000513          	li	a0,32
2000bd04:	9982                	c.jalr	s3
2000bd06:	1d7d                	c.addi	s10,-1
2000bd08:	b569                	c.j	2000bb92 <__printf_impl+0x2c6>
2000bd0a:	000d4503          	lbu	a0,0(s10)
2000bd0e:	0d05                	c.addi	s10,1
2000bd10:	01856533          	or	a0,a0,s8
2000bd14:	9982                	c.jalr	s3
2000bd16:	41ab87b3          	sub	a5,s7,s10
2000bd1a:	ff9d68e3          	bltu	s10,s9,2000bd0a <__printf_impl+0x43e>
2000bd1e:	5682                	c.lwsp	a3,32(sp)
2000bd20:	0056f65b          	bbc	a3,5,2000bd2c <__printf_impl+0x460>
2000bd24:	41b78db3          	sub	s11,a5,s11
2000bd28:	01b04b63          	bgtz	s11,2000bd3e <__printf_impl+0x472>
2000bd2c:	fb5408e3          	beq	s0,s5,2000bcdc <__printf_impl+0x410>
2000bd30:	000ac503          	lbu	a0,0(s5) # 10000 <BIN_SIZE+0x1810>
2000bd34:	0a85                	c.addi	s5,1
2000bd36:	01856533          	or	a0,a0,s8
2000bd3a:	9982                	c.jalr	s3
2000bd3c:	bfc5                	c.j	2000bd2c <__printf_impl+0x460>
2000bd3e:	03000513          	li	a0,48
2000bd42:	9982                	c.jalr	s3
2000bd44:	1dfd                	c.addi	s11,-1
2000bd46:	b7cd                	c.j	2000bd28 <__printf_impl+0x45c>

2000bd48 <__int_to_poly>:
2000bd48:	87aa                	c.mv	a5,a0
2000bd4a:	4501                	c.li	a0,0
2000bd4c:	00b7e733          	or	a4,a5,a1
2000bd50:	e311                	c.bnez	a4,2000bd54 <__int_to_poly+0xc>
2000bd52:	8082                	c.jr	ra
2000bd54:	00f61023          	sh	a5,0(a2)
2000bd58:	01059713          	slli	a4,a1,0x10
2000bd5c:	83c1                	c.srli	a5,0x10
2000bd5e:	0505                	c.addi	a0,1
2000bd60:	8fd9                	c.or	a5,a4
2000bd62:	81c1                	c.srli	a1,0x10
2000bd64:	0609                	c.addi	a2,2
2000bd66:	b7dd                	c.j	2000bd4c <__int_to_poly+0x4>

2000bd68 <__print_integral_poly>:
2000bd68:	75f012ef          	jal	t0,2000dcc6 <__riscv_save_0>
2000bd6c:	88c2                	c.mv	a7,a6
2000bd6e:	84ba                	c.mv	s1,a4
2000bd70:	187d                	c.addi	a6,-1
2000bd72:	0b17875b          	lea.h	a4,a5,a7
2000bd76:	8342                	c.mv	t1,a6
2000bd78:	4401                	c.li	s0,0
2000bd7a:	8e3a                	c.mv	t3,a4
2000bd7c:	1779                	c.addi	a4,-2
2000bd7e:	02035563          	bgez	t1,2000bda8 <__print_integral_poly+0x40>
2000bd82:	05105163          	blez	a7,2000bdc4 <__print_integral_poly+0x5c>
2000bd86:	ffee5703          	lhu	a4,-2(t3)
2000bd8a:	eb1d                	c.bnez	a4,2000bdc0 <__print_integral_poly+0x58>
2000bd8c:	03005c63          	blez	a6,2000bdc4 <__print_integral_poly+0x5c>
2000bd90:	8726                	c.mv	a4,s1
2000bd92:	16fd                	c.addi	a3,-1
2000bd94:	3fd1                	c.jal	2000bd68 <__print_integral_poly>
2000bd96:	87aa                	c.mv	a5,a0
2000bd98:	0505                	c.addi	a0,1
2000bd9a:	00878023          	sb	s0,0(a5) # 80000000 <_DATA_LMA_START+0x5fff18cc>
2000bd9e:	409c                	c.lw	a5,0(s1)
2000bda0:	0785                	c.addi	a5,1
2000bda2:	c09c                	c.sw	a5,0(s1)
2000bda4:	7470106f          	j	2000dcea <__riscv_restore_0>
2000bda8:	00075e83          	lhu	t4,0(a4)
2000bdac:	0442                	c.slli	s0,0x10
2000bdae:	9476                	c.add	s0,t4
2000bdb0:	02b45eb3          	divu	t4,s0,a1
2000bdb4:	137d                	c.addi	t1,-1
2000bdb6:	02b47433          	remu	s0,s0,a1
2000bdba:	01d71023          	sh	t4,0(a4)
2000bdbe:	bf7d                	c.j	2000bd7c <__print_integral_poly+0x14>
2000bdc0:	8846                	c.mv	a6,a7
2000bdc2:	b7f9                	c.j	2000bd90 <__print_integral_poly+0x28>
2000bdc4:	c011                	c.beqz	s0,2000bdc8 <__print_integral_poly+0x60>
2000bdc6:	16fd                	c.addi	a3,-1
2000bdc8:	00d04763          	bgtz	a3,2000bdd6 <__print_integral_poly+0x6e>
2000bdcc:	0085ee5b          	bnec	a1,8,2000bde8 <__print_integral_poly+0x80>
2000bdd0:	00467c5b          	bbc	a2,4,2000bde8 <__print_integral_poly+0x80>
2000bdd4:	4685                	c.li	a3,1
2000bdd6:	87aa                	c.mv	a5,a0
2000bdd8:	40a78733          	sub	a4,a5,a0
2000bddc:	00d74b63          	blt	a4,a3,2000bdf2 <__print_integral_poly+0x8a>
2000bde0:	0006d363          	bgez	a3,2000bde6 <__print_integral_poly+0x7e>
2000bde4:	4681                	c.li	a3,0
2000bde6:	9536                	c.add	a0,a3
2000bde8:	d85d                	c.beqz	s0,2000bd9e <__print_integral_poly+0x36>
2000bdea:	00850023          	sb	s0,0(a0)
2000bdee:	0505                	c.addi	a0,1
2000bdf0:	b77d                	c.j	2000bd9e <__print_integral_poly+0x36>
2000bdf2:	0785                	c.addi	a5,1
2000bdf4:	fe078fa3          	sb	zero,-1(a5)
2000bdf8:	b7c5                	c.j	2000bdd8 <__print_integral_poly+0x70>

2000bdfa <__printf_float_impl>:
2000bdfa:	69d012ef          	jal	t0,2000dc96 <__riscv_save_12>
2000bdfe:	0df7fc13          	andi	s8,a5,223
2000be02:	7169                	c.addi16sp	sp,-304
2000be04:	8b2a                	c.mv	s6,a0
2000be06:	89ae                	c.mv	s3,a1
2000be08:	84b2                	c.mv	s1,a2
2000be0a:	8abe                	c.mv	s5,a5
2000be0c:	467c6d5b          	bnec	s8,71,2000be86 <__printf_float_impl+0x8c>
2000be10:	0005aa03          	lw	s4,0(a1) # 80000000 <_DATA_LMA_START+0x5fff18cc>
2000be14:	010a4a13          	xori	s4,s4,16
2000be18:	104a2a5b          	bfoz	s4,s4,4,4
2000be1c:	0604db63          	bgez	s1,2000be92 <__printf_float_impl+0x98>
2000be20:	4499                	c.li	s1,6
2000be22:	401c635b          	bnec	s8,65,2000be28 <__printf_float_impl+0x2e>
2000be26:	44b5                	c.li	s1,13
2000be28:	8936                	c.mv	s2,a3
2000be2a:	7947245b          	bfoz	s0,a4,30,20
2000be2e:	4c072d5b          	bfoz	s10,a4,19,0
2000be32:	00075863          	bgez	a4,2000be42 <__printf_float_impl+0x48>
2000be36:	0009a783          	lw	a5,0(s3)
2000be3a:	4007e793          	ori	a5,a5,1024
2000be3e:	00f9a023          	sw	a5,0(s3)
2000be42:	401c6a5b          	bnec	s8,65,2000be56 <__printf_float_impl+0x5c>
2000be46:	0009a783          	lw	a5,0(s3)
2000be4a:	6705                	c.lui	a4,0x1
2000be4c:	80070713          	addi	a4,a4,-2048 # 800 <pkt_errRsp>
2000be50:	8fd9                	c.or	a5,a4
2000be52:	00f9a023          	sw	a5,0(s3)
2000be56:	7ff00793          	li	a5,2047
2000be5a:	04f41763          	bne	s0,a5,2000bea8 <__printf_float_impl+0xae>
2000be5e:	0009a783          	lw	a5,0(s3)
2000be62:	01a96933          	or	s2,s2,s10
2000be66:	fdf7f793          	andi	a5,a5,-33
2000be6a:	00f9a023          	sw	a5,0(s3)
2000be6e:	02090863          	beqz	s2,2000be9e <__printf_float_impl+0xa4>
2000be72:	2000e5b7          	lui	a1,0x2000e
2000be76:	3b058593          	addi	a1,a1,944 # 2000e3b0 <__digits+0x10>
2000be7a:	855a                	c.mv	a0,s6
2000be7c:	2961                	c.jal	2000c314 <strcpy>
2000be7e:	050d                	c.addi	a0,3
2000be80:	6155                	c.addi16sp	sp,304
2000be82:	6510106f          	j	2000dcd2 <__riscv_restore_12>
2000be86:	4a01                	c.li	s4,0
2000be88:	f81c6a5b          	bnec	s8,65,2000be1c <__printf_float_impl+0x22>
2000be8c:	01f65a13          	srli	s4,a2,0x1f
2000be90:	b771                	c.j	2000be1c <__printf_float_impl+0x22>
2000be92:	f8d9                	c.bnez	s1,2000be28 <__printf_float_impl+0x2e>
2000be94:	fb9c0493          	addi	s1,s8,-71
2000be98:	0014b493          	seqz	s1,s1
2000be9c:	b771                	c.j	2000be28 <__printf_float_impl+0x2e>
2000be9e:	2000e5b7          	lui	a1,0x2000e
2000bea2:	3b458593          	addi	a1,a1,948 # 2000e3b4 <__digits+0x14>
2000bea6:	bfd1                	c.j	2000be7a <__printf_float_impl+0x80>
2000bea8:	e811                	c.bnez	s0,2000bebc <__printf_float_impl+0xc2>
2000beaa:	01a967b3          	or	a5,s2,s10
2000beae:	c0300413          	li	s0,-1021
2000beb2:	18079663          	bnez	a5,2000c03e <__printf_float_impl+0x244>
2000beb6:	03500413          	li	s0,53
2000beba:	a819                	c.j	2000bed0 <__printf_float_impl+0xd6>
2000bebc:	001007b7          	lui	a5,0x100
2000bec0:	01a7ed33          	or	s10,a5,s10
2000bec4:	c0240413          	addi	s0,s0,-1022
2000bec8:	03400793          	li	a5,52
2000becc:	1687d763          	bge	a5,s0,2000c03a <__printf_float_impl+0x240>
2000bed0:	fcb40413          	addi	s0,s0,-53
2000bed4:	00445b93          	srli	s7,s0,0x4
2000bed8:	001b9c93          	slli	s9,s7,0x1
2000bedc:	8666                	c.mv	a2,s9
2000bede:	4581                	c.li	a1,0
2000bee0:	1008                	c.addi4spn	a0,sp,32
2000bee2:	ff1fe0ef          	jal	ra,2000aed2 <memset>
2000bee6:	883d                	c.andi	s0,15
2000bee8:	1a0c                	c.addi4spn	a1,sp,304
2000beea:	9cae                	c.add	s9,a1
2000beec:	8622                	c.mv	a2,s0
2000beee:	854a                	c.mv	a0,s2
2000bef0:	85ea                	c.mv	a1,s10
2000bef2:	61a010ef          	jal	ra,2000d50c <__ashldi3>
2000bef6:	4641                	c.li	a2,16
2000bef8:	eeac9823          	sh	a0,-272(s9)
2000befc:	1014                	c.addi4spn	a3,sp,32
2000befe:	0b85                	c.addi	s7,1
2000bf00:	8e01                	c.sub	a2,s0
2000bf02:	854a                	c.mv	a0,s2
2000bf04:	85ea                	c.mv	a1,s10
2000bf06:	0b768cdb          	lea.h	s9,a3,s7
2000bf0a:	5d2010ef          	jal	ra,2000d4dc <__lshrdi3>
2000bf0e:	8666                	c.mv	a2,s9
2000bf10:	3d25                	c.jal	2000bd48 <__int_to_poly>
2000bf12:	4c81                	c.li	s9,0
2000bf14:	9baa                	c.add	s7,a0
2000bf16:	57fd                	c.li	a5,-1
2000bf18:	ce3e                	c.swsp	a5,28(sp)
2000bf1a:	4429                	c.li	s0,10
2000bf1c:	401c635b          	bnec	s8,65,2000bf22 <__printf_float_impl+0x128>
2000bf20:	4441                	c.li	s0,16
2000bf22:	885e                	c.mv	a6,s7
2000bf24:	101c                	c.addi4spn	a5,sp,32
2000bf26:	4685                	c.li	a3,1
2000bf28:	0878                	c.addi4spn	a4,sp,28
2000bf2a:	4601                	c.li	a2,0
2000bf2c:	85a2                	c.mv	a1,s0
2000bf2e:	855a                	c.mv	a0,s6
2000bf30:	3d25                	c.jal	2000bd68 <__print_integral_poly>
2000bf32:	02e00793          	li	a5,46
2000bf36:	00f50023          	sb	a5,0(a0)
2000bf3a:	001bbb93          	seqz	s7,s7
2000bf3e:	0dbafa93          	andi	s5,s5,219
2000bf42:	00150693          	addi	a3,a0,1
2000bf46:	87de                	c.mv	a5,s7
2000bf48:	401ad35b          	beqc	s5,65,2000bf4e <__printf_float_impl+0x154>
2000bf4c:	4781                	c.li	a5,0
2000bf4e:	00148713          	addi	a4,s1,1
2000bf52:	973e                	c.add	a4,a5
2000bf54:	fffc8313          	addi	t1,s9,-1
2000bf58:	001c9613          	slli	a2,s9,0x1
2000bf5c:	112c                	c.addi4spn	a1,sp,168
2000bf5e:	95b2                	c.add	a1,a2
2000bf60:	881a                	c.mv	a6,t1
2000bf62:	4781                	c.li	a5,0
2000bf64:	15f9                	c.addi	a1,-2
2000bf66:	18085763          	bgez	a6,2000c0f4 <__printf_float_impl+0x2fa>
2000bf6a:	01905863          	blez	s9,2000bf7a <__printf_float_impl+0x180>
2000bf6e:	1a0c                	c.addi4spn	a1,sp,304
2000bf70:	962e                	c.add	a2,a1
2000bf72:	f7665603          	lhu	a2,-138(a2)
2000bf76:	e211                	c.bnez	a2,2000bf7a <__printf_float_impl+0x180>
2000bf78:	8c9a                	c.mv	s9,t1
2000bf7a:	180b8763          	beqz	s7,2000c108 <__printf_float_impl+0x30e>
2000bf7e:	4672                	c.lwsp	a2,28(sp)
2000bf80:	0017bb93          	seqz	s7,a5
2000bf84:	167d                	c.addi	a2,-1
2000bf86:	ce32                	c.swsp	a2,28(sp)
2000bf88:	0685                	c.addi	a3,1
2000bf8a:	fef68fa3          	sb	a5,-1(a3)
2000bf8e:	f379                	c.bnez	a4,2000bf54 <__printf_float_impl+0x15a>
2000bf90:	567c6f5b          	bnec	s8,71,2000c10e <__printf_float_impl+0x314>
2000bf94:	47f2                	c.lwsp	a5,28(sp)
2000bf96:	fff48713          	addi	a4,s1,-1
2000bf9a:	1897dc63          	bge	a5,s1,2000c132 <__printf_float_impl+0x338>
2000bf9e:	5671                	c.li	a2,-4
2000bfa0:	18c7c963          	blt	a5,a2,2000c132 <__printf_float_impl+0x338>
2000bfa4:	40f704b3          	sub	s1,a4,a5
2000bfa8:	04600c13          	li	s8,70
2000bfac:	0489                	c.addi	s1,2
2000bfae:	9526                	c.add	a0,s1
2000bfb0:	fff54683          	lbu	a3,-1(a0)
2000bfb4:	40145713          	srai	a4,s0,0x1
2000bfb8:	fff50793          	addi	a5,a0,-1
2000bfbc:	00e6a6b3          	slt	a3,a3,a4
2000bfc0:	0016c693          	xori	a3,a3,1
2000bfc4:	863e                	c.mv	a2,a5
2000bfc6:	1ccb7163          	bgeu	s6,a2,2000c188 <__printf_float_impl+0x38e>
2000bfca:	18069d63          	bnez	a3,2000c164 <__printf_float_impl+0x36a>
2000bfce:	17fd                	c.addi	a5,-1
2000bfd0:	00178513          	addi	a0,a5,1 # 100001 <FLASH_SIZE+0x1>
2000bfd4:	00fb7763          	bgeu	s6,a5,2000bfe2 <__printf_float_impl+0x1e8>
2000bfd8:	000a0563          	beqz	s4,2000bfe2 <__printf_float_impl+0x1e8>
2000bfdc:	0007c703          	lbu	a4,0(a5)
2000bfe0:	d77d                	c.beqz	a4,2000bfce <__printf_float_impl+0x1d4>
2000bfe2:	fff54783          	lbu	a5,-1(a0)
2000bfe6:	00e7e7db          	bnec	a5,46,2000bff4 <__printf_float_impl+0x1fa>
2000bfea:	0009a783          	lw	a5,0(s3)
2000bfee:	4047f35b          	bbs	a5,4,2000bff4 <__printf_float_impl+0x1fa>
2000bff2:	157d                	c.addi	a0,-1
2000bff4:	2000e737          	lui	a4,0x2000e
2000bff8:	46bd                	c.li	a3,15
2000bffa:	3a070713          	addi	a4,a4,928 # 2000e3a0 <__digits>
2000bffe:	1cab6363          	bltu	s6,a0,2000c1c4 <__printf_float_impl+0x3ca>
2000c002:	5c5c6c5b          	bnec	s8,69,2000c1da <__printf_float_impl+0x3e0>
2000c006:	01850023          	sb	s8,0(a0)
2000c00a:	4772                	c.lwsp	a4,28(sp)
2000c00c:	02d00793          	li	a5,45
2000c010:	00074463          	bltz	a4,2000c018 <__printf_float_impl+0x21e>
2000c014:	02b00793          	li	a5,43
2000c018:	00f500a3          	sb	a5,1(a0)
2000c01c:	47f2                	c.lwsp	a5,28(sp)
2000c01e:	4689                	c.li	a3,2
2000c020:	41f7d713          	srai	a4,a5,0x1f
2000c024:	8fb9                	c.xor	a5,a4
2000c026:	40e78733          	sub	a4,a5,a4
2000c02a:	41f75793          	srai	a5,a4,0x1f
2000c02e:	4601                	c.li	a2,0
2000c030:	45a9                	c.li	a1,10
2000c032:	0509                	c.addi	a0,2
2000c034:	84dff0ef          	jal	ra,2000b880 <__print_integral>
2000c038:	b5a1                	c.j	2000be80 <__printf_float_impl+0x86>
2000c03a:	06804563          	bgtz	s0,2000c0a4 <__printf_float_impl+0x2aa>
2000c03e:	40800433          	neg	s0,s0
2000c042:	00445b93          	srli	s7,s0,0x4
2000c046:	001b9d93          	slli	s11,s7,0x1
2000c04a:	866e                	c.mv	a2,s11
2000c04c:	4581                	c.li	a1,0
2000c04e:	1128                	c.addi4spn	a0,sp,168
2000c050:	e83fe0ef          	jal	ra,2000aed2 <memset>
2000c054:	112c                	c.addi4spn	a1,sp,168
2000c056:	883d                	c.andi	s0,15
2000c058:	9dae                	c.add	s11,a1
2000c05a:	02540413          	addi	s0,s0,37
2000c05e:	876e                	c.mv	a4,s11
2000c060:	4c81                	c.li	s9,0
2000c062:	001c8793          	addi	a5,s9,1
2000c066:	8622                	c.mv	a2,s0
2000c068:	854a                	c.mv	a0,s2
2000c06a:	85ea                	c.mv	a1,s10
2000c06c:	c63a                	c.swsp	a4,12(sp)
2000c06e:	c43e                	c.swsp	a5,8(sp)
2000c070:	46c010ef          	jal	ra,2000d4dc <__lshrdi3>
2000c074:	4732                	c.lwsp	a4,12(sp)
2000c076:	1441                	c.addi	s0,-16
2000c078:	00a71023          	sh	a0,0(a4)
2000c07c:	47a2                	c.lwsp	a5,8(sp)
2000c07e:	0709                	c.addi	a4,2
2000c080:	02045063          	bgez	s0,2000c0a0 <__printf_float_impl+0x2a6>
2000c084:	0afd8ddb          	lea.h	s11,s11,a5
2000c088:	40800633          	neg	a2,s0
2000c08c:	854a                	c.mv	a0,s2
2000c08e:	85ea                	c.mv	a1,s10
2000c090:	0c89                	c.addi	s9,2
2000c092:	47a010ef          	jal	ra,2000d50c <__ashldi3>
2000c096:	9cde                	c.add	s9,s7
2000c098:	00ad9023          	sh	a0,0(s11)
2000c09c:	4b81                	c.li	s7,0
2000c09e:	bda5                	c.j	2000bf16 <__printf_float_impl+0x11c>
2000c0a0:	8cbe                	c.mv	s9,a5
2000c0a2:	b7c1                	c.j	2000c062 <__printf_float_impl+0x268>
2000c0a4:	03500613          	li	a2,53
2000c0a8:	8e01                	c.sub	a2,s0
2000c0aa:	854a                	c.mv	a0,s2
2000c0ac:	85ea                	c.mv	a1,s10
2000c0ae:	42e010ef          	jal	ra,2000d4dc <__lshrdi3>
2000c0b2:	1010                	c.addi4spn	a2,sp,32
2000c0b4:	c95ff0ef          	jal	ra,2000bd48 <__int_to_poly>
2000c0b8:	02500793          	li	a5,37
2000c0bc:	8baa                	c.mv	s7,a0
2000c0be:	40878433          	sub	s0,a5,s0
2000c0c2:	0a810d93          	addi	s11,sp,168
2000c0c6:	4c81                	c.li	s9,0
2000c0c8:	0c85                	c.addi	s9,1
2000c0ca:	00045b63          	bgez	s0,2000c0e0 <__printf_float_impl+0x2e6>
2000c0ce:	40800633          	neg	a2,s0
2000c0d2:	854a                	c.mv	a0,s2
2000c0d4:	85ea                	c.mv	a1,s10
2000c0d6:	436010ef          	jal	ra,2000d50c <__ashldi3>
2000c0da:	00ad9023          	sh	a0,0(s11)
2000c0de:	bd25                	c.j	2000bf16 <__printf_float_impl+0x11c>
2000c0e0:	8622                	c.mv	a2,s0
2000c0e2:	854a                	c.mv	a0,s2
2000c0e4:	85ea                	c.mv	a1,s10
2000c0e6:	3f6010ef          	jal	ra,2000d4dc <__lshrdi3>
2000c0ea:	1441                	c.addi	s0,-16
2000c0ec:	00ad9023          	sh	a0,0(s11)
2000c0f0:	0d89                	c.addi	s11,2
2000c0f2:	bfd9                	c.j	2000c0c8 <__printf_float_impl+0x2ce>
2000c0f4:	0005d883          	lhu	a7,0(a1)
2000c0f8:	187d                	c.addi	a6,-1
2000c0fa:	028888b3          	mul	a7,a7,s0
2000c0fe:	97c6                	c.add	a5,a7
2000c100:	00f59023          	sh	a5,0(a1)
2000c104:	83c1                	c.srli	a5,0x10
2000c106:	bdb9                	c.j	2000bf64 <__printf_float_impl+0x16a>
2000c108:	177d                	c.addi	a4,-1
2000c10a:	4b81                	c.li	s7,0
2000c10c:	bdb5                	c.j	2000bf88 <__printf_float_impl+0x18e>
2000c10e:	8726                	c.mv	a4,s1
2000c110:	e86c5e5b          	beqc	s8,70,2000bfac <__printf_float_impl+0x1b2>
2000c114:	47f2                	c.lwsp	a5,28(sp)
2000c116:	001b0613          	addi	a2,s6,1
2000c11a:	02f04463          	bgtz	a5,2000c142 <__printf_float_impl+0x348>
2000c11e:	c785                	c.beqz	a5,2000c146 <__printf_float_impl+0x34c>
2000c120:	40f507b3          	sub	a5,a0,a5
2000c124:	02d7e963          	bltu	a5,a3,2000c156 <__printf_float_impl+0x35c>
2000c128:	001b0783          	lb	a5,1(s6)
2000c12c:	00fb0023          	sb	a5,0(s6)
2000c130:	a819                	c.j	2000c146 <__printf_float_impl+0x34c>
2000c132:	04500c13          	li	s8,69
2000c136:	bff9                	c.j	2000c114 <__printf_float_impl+0x31a>
2000c138:	fff50783          	lb	a5,-1(a0)
2000c13c:	157d                	c.addi	a0,-1
2000c13e:	00f500a3          	sb	a5,1(a0)
2000c142:	fec51be3          	bne	a0,a2,2000c138 <__printf_float_impl+0x33e>
2000c146:	02e00793          	li	a5,46
2000c14a:	001b0513          	addi	a0,s6,1
2000c14e:	00fb00a3          	sb	a5,1(s6)
2000c152:	84ba                	c.mv	s1,a4
2000c154:	bda1                	c.j	2000bfac <__printf_float_impl+0x1b2>
2000c156:	0785                	c.addi	a5,1
2000c158:	fff7c603          	lbu	a2,-1(a5)
2000c15c:	0505                	c.addi	a0,1
2000c15e:	fec50fa3          	sb	a2,-1(a0)
2000c162:	b7c9                	c.j	2000c124 <__printf_float_impl+0x32a>
2000c164:	167d                	c.addi	a2,-1
2000c166:	00064703          	lbu	a4,0(a2)
2000c16a:	a4e75edb          	beqc	a4,46,2000bfc6 <__printf_float_impl+0x1cc>
2000c16e:	0705                	c.addi	a4,1
2000c170:	0ff77713          	andi	a4,a4,255
2000c174:	00875663          	bge	a4,s0,2000c180 <__printf_float_impl+0x386>
2000c178:	00e60023          	sb	a4,0(a2)
2000c17c:	4681                	c.li	a3,0
2000c17e:	b5a1                	c.j	2000bfc6 <__printf_float_impl+0x1cc>
2000c180:	8f01                	c.sub	a4,s0
2000c182:	00e60023          	sb	a4,0(a2)
2000c186:	b581                	c.j	2000bfc6 <__printf_float_impl+0x1cc>
2000c188:	873e                	c.mv	a4,a5
2000c18a:	e40682e3          	beqz	a3,2000bfce <__printf_float_impl+0x1d4>
2000c18e:	02eb6363          	bltu	s6,a4,2000c1b4 <__printf_float_impl+0x3ba>
2000c192:	4705                	c.li	a4,1
2000c194:	00eb0023          	sb	a4,0(s6)
2000c198:	4772                	c.lwsp	a4,28(sp)
2000c19a:	0705                	c.addi	a4,1
2000c19c:	ce3a                	c.swsp	a4,28(sp)
2000c19e:	426c515b          	beqc	s8,70,2000c1c0 <__printf_float_impl+0x3c6>
2000c1a2:	001b0703          	lb	a4,1(s6)
2000c1a6:	00eb0123          	sb	a4,2(s6)
2000c1aa:	02e00713          	li	a4,46
2000c1ae:	00eb00a3          	sb	a4,1(s6)
2000c1b2:	bd31                	c.j	2000bfce <__printf_float_impl+0x1d4>
2000c1b4:	fff70683          	lb	a3,-1(a4)
2000c1b8:	177d                	c.addi	a4,-1
2000c1ba:	00d700a3          	sb	a3,1(a4)
2000c1be:	bfc1                	c.j	2000c18e <__printf_float_impl+0x394>
2000c1c0:	87aa                	c.mv	a5,a0
2000c1c2:	b531                	c.j	2000bfce <__printf_float_impl+0x1d4>
2000c1c4:	000b4783          	lbu	a5,0(s6)
2000c1c8:	00f6e763          	bltu	a3,a5,2000c1d6 <__printf_float_impl+0x3dc>
2000c1cc:	97ba                	c.add	a5,a4
2000c1ce:	00078783          	lb	a5,0(a5)
2000c1d2:	00fb0023          	sb	a5,0(s6)
2000c1d6:	0b05                	c.addi	s6,1
2000c1d8:	b51d                	c.j	2000bffe <__printf_float_impl+0x204>
2000c1da:	ca1c635b          	bnec	s8,65,2000be80 <__printf_float_impl+0x86>
2000c1de:	05000793          	li	a5,80
2000c1e2:	00f50023          	sb	a5,0(a0)
2000c1e6:	4772                	c.lwsp	a4,28(sp)
2000c1e8:	02d00793          	li	a5,45
2000c1ec:	00074463          	bltz	a4,2000c1f4 <__printf_float_impl+0x3fa>
2000c1f0:	02b00793          	li	a5,43
2000c1f4:	00f500a3          	sb	a5,1(a0)
2000c1f8:	47f2                	c.lwsp	a5,28(sp)
2000c1fa:	41f7d693          	srai	a3,a5,0x1f
2000c1fe:	00f6c733          	xor	a4,a3,a5
2000c202:	8f15                	c.sub	a4,a3
2000c204:	070a                	c.slli	a4,0x2
2000c206:	41f75793          	srai	a5,a4,0x1f
2000c20a:	4685                	c.li	a3,1
2000c20c:	b50d                	c.j	2000c02e <__printf_float_impl+0x234>

2000c20e <siscanf>:
2000c20e:	7171                	c.addi16sp	sp,-176
2000c210:	d33e                	c.swsp	a5,164(sp)
2000c212:	20400793          	li	a5,516
2000c216:	c706                	c.swsp	ra,140(sp)
2000c218:	c62e                	c.swsp	a1,12(sp)
2000c21a:	cd32                	c.swsp	a2,152(sp)
2000c21c:	cf36                	c.swsp	a3,156(sp)
2000c21e:	d13a                	c.swsp	a4,160(sp)
2000c220:	d542                	c.swsp	a6,168(sp)
2000c222:	d746                	c.swsp	a7,172(sp)
2000c224:	02f11223          	sh	a5,36(sp)
2000c228:	cc2a                	c.swsp	a0,24(sp)
2000c22a:	d42a                	c.swsp	a0,40(sp)
2000c22c:	d71fe0ef          	jal	ra,2000af9c <strlen>
2000c230:	2000c7b7          	lui	a5,0x2000c
2000c234:	25e78793          	addi	a5,a5,606 # 2000c25e <__seofread>
2000c238:	dc3e                	c.swsp	a5,56(sp)
2000c23a:	57fd                	c.li	a5,-1
2000c23c:	45b2                	c.lwsp	a1,12(sp)
2000c23e:	02f11323          	sh	a5,38(sp)
2000c242:	ce2a                	c.swsp	a0,28(sp)
2000c244:	d62a                	c.swsp	a0,44(sp)
2000c246:	8abfa52b          	lwgp	a0,-1880 # 800a8 <_impure_ptr>
2000c24a:	0934                	c.addi4spn	a3,sp,152
2000c24c:	862e                	c.mv	a2,a1
2000c24e:	082c                	c.addi4spn	a1,sp,24
2000c250:	c482                	c.swsp	zero,72(sp)
2000c252:	ce82                	c.swsp	zero,92(sp)
2000c254:	ca36                	c.swsp	a3,20(sp)
2000c256:	2c61                	c.jal	2000c4ee <__ssvfiscanf_r>
2000c258:	40ba                	c.lwsp	ra,140(sp)
2000c25a:	614d                	c.addi16sp	sp,176
2000c25c:	8082                	c.jr	ra

2000c25e <__seofread>:
2000c25e:	4501                	c.li	a0,0
2000c260:	8082                	c.jr	ra
	...

2000c264 <strchr>:
2000c264:	00357713          	andi	a4,a0,3
2000c268:	00071c63          	bnez	a4,2000c280 <strchr+0x1c>
2000c26c:	4110                	c.lw	a2,0(a0)
2000c26e:	20b606db          	ffb	a3,a2,a1
2000c272:	e699                	c.bnez	a3,2000c280 <strchr+0x1c>
2000c274:	200606db          	ffb	a3,a2,zero
2000c278:	ea91                	c.bnez	a3,2000c28c <strchr+0x28>
2000c27a:	0511                	c.addi	a0,4
2000c27c:	ff1ff06f          	j	2000c26c <strchr+0x8>
2000c280:	00054783          	lbu	a5,0(a0)
2000c284:	0505                	c.addi	a0,1
2000c286:	00b78563          	beq	a5,a1,2000c290 <strchr+0x2c>
2000c28a:	fbfd                	c.bnez	a5,2000c280 <strchr+0x1c>
2000c28c:	4501                	c.li	a0,0
2000c28e:	8082                	c.jr	ra
2000c290:	157d                	c.addi	a0,-1
2000c292:	8082                	c.jr	ra
2000c294:	0001                	c.nop
	...

2000c298 <strcmp>:
2000c298:	00b56733          	or	a4,a0,a1
2000c29c:	8b0d                	c.andi	a4,3
2000c29e:	e331                	c.bnez	a4,2000c2e2 <strcmp+0x4a>
2000c2a0:	4110                	c.lw	a2,0(a0)
2000c2a2:	4194                	c.lw	a3,0(a1)
2000c2a4:	22d602db          	ffzmism	t0,a2,a3
2000c2a8:	04029a63          	bnez	t0,2000c2fc <strcmp+0x64>
2000c2ac:	4150                	c.lw	a2,4(a0)
2000c2ae:	41d4                	c.lw	a3,4(a1)
2000c2b0:	22d602db          	ffzmism	t0,a2,a3
2000c2b4:	04029463          	bnez	t0,2000c2fc <strcmp+0x64>
2000c2b8:	4510                	c.lw	a2,8(a0)
2000c2ba:	4594                	c.lw	a3,8(a1)
2000c2bc:	22d602db          	ffzmism	t0,a2,a3
2000c2c0:	02029e63          	bnez	t0,2000c2fc <strcmp+0x64>
2000c2c4:	4550                	c.lw	a2,12(a0)
2000c2c6:	45d4                	c.lw	a3,12(a1)
2000c2c8:	22d602db          	ffzmism	t0,a2,a3
2000c2cc:	02029863          	bnez	t0,2000c2fc <strcmp+0x64>
2000c2d0:	4910                	c.lw	a2,16(a0)
2000c2d2:	4994                	c.lw	a3,16(a1)
2000c2d4:	22d602db          	ffzmism	t0,a2,a3
2000c2d8:	02029263          	bnez	t0,2000c2fc <strcmp+0x64>
2000c2dc:	0551                	c.addi	a0,20
2000c2de:	05d1                	c.addi	a1,20
2000c2e0:	b7c1                	c.j	2000c2a0 <strcmp+0x8>
2000c2e2:	00054603          	lbu	a2,0(a0)
2000c2e6:	0005c683          	lbu	a3,0(a1)
2000c2ea:	0505                	c.addi	a0,1
2000c2ec:	0585                	c.addi	a1,1
2000c2ee:	00d61363          	bne	a2,a3,2000c2f4 <strcmp+0x5c>
2000c2f2:	fa65                	c.bnez	a2,2000c2e2 <strcmp+0x4a>
2000c2f4:	40d60533          	sub	a0,a2,a3
2000c2f8:	00008067          	ret
2000c2fc:	028e                	c.slli	t0,0x3
2000c2fe:	00565633          	srl	a2,a2,t0
2000c302:	0ff67613          	andi	a2,a2,255
2000c306:	0056d6b3          	srl	a3,a3,t0
2000c30a:	0ff6f693          	andi	a3,a3,255
2000c30e:	40d60533          	sub	a0,a2,a3
2000c312:	8082                	c.jr	ra

2000c314 <strcpy>:
2000c314:	00b567b3          	or	a5,a0,a1
2000c318:	8b8d                	c.andi	a5,3
2000c31a:	e3ad                	c.bnez	a5,2000c37c <strcpy+0x68>
2000c31c:	4198                	c.lw	a4,0(a1)
2000c31e:	200707db          	ffb	a5,a4,zero
2000c322:	e3a9                	c.bnez	a5,2000c364 <strcpy+0x50>
2000c324:	00a007b3          	add	a5,zero,a0
2000c328:	0591                	c.addi	a1,4
2000c32a:	0791                	c.addi	a5,4
2000c32c:	fee7ae23          	sw	a4,-4(a5)
2000c330:	4198                	c.lw	a4,0(a1)
2000c332:	200706db          	ffb	a3,a4,zero
2000c336:	daed                	c.beqz	a3,2000c328 <strcpy+0x14>
2000c338:	0005c703          	lbu	a4,0(a1)
2000c33c:	0015c683          	lbu	a3,1(a1)
2000c340:	0025c603          	lbu	a2,2(a1)
2000c344:	00e78023          	sb	a4,0(a5)
2000c348:	00070863          	beqz	a4,2000c358 <strcpy+0x44>
2000c34c:	00d780a3          	sb	a3,1(a5)
2000c350:	c681                	c.beqz	a3,2000c358 <strcpy+0x44>
2000c352:	00c78123          	sb	a2,2(a5)
2000c356:	e219                	c.bnez	a2,2000c35c <strcpy+0x48>
2000c358:	00008067          	ret
2000c35c:	000781a3          	sb	zero,3(a5)
2000c360:	00008067          	ret
2000c364:	0005c703          	lbu	a4,0(a1)
2000c368:	87aa                	c.mv	a5,a0
2000c36a:	0015c683          	lbu	a3,1(a1)
2000c36e:	0025c603          	lbu	a2,2(a1)
2000c372:	00e78023          	sb	a4,0(a5)
2000c376:	fb79                	c.bnez	a4,2000c34c <strcpy+0x38>
2000c378:	fe1ff06f          	j	2000c358 <strcpy+0x44>
2000c37c:	00a007b3          	add	a5,zero,a0
2000c380:	0005c703          	lbu	a4,0(a1)
2000c384:	0785                	c.addi	a5,1
2000c386:	fee78fa3          	sb	a4,-1(a5)
2000c38a:	0585                	c.addi	a1,1
2000c38c:	fb75                	c.bnez	a4,2000c380 <strcpy+0x6c>
2000c38e:	8082                	c.jr	ra
2000c390:	0001                	c.nop

2000c392 <strnlen>:
2000c392:	95aa                	c.add	a1,a0
2000c394:	87aa                	c.mv	a5,a0
2000c396:	00b78563          	beq	a5,a1,2000c3a0 <strnlen+0xe>
2000c39a:	0007c703          	lbu	a4,0(a5)
2000c39e:	e701                	c.bnez	a4,2000c3a6 <strnlen+0x14>
2000c3a0:	40a78533          	sub	a0,a5,a0
2000c3a4:	8082                	c.jr	ra
2000c3a6:	0785                	c.addi	a5,1
2000c3a8:	b7fd                	c.j	2000c396 <strnlen+0x4>

2000c3aa <strtoul>:
2000c3aa:	11d012ef          	jal	t0,2000dcc6 <__riscv_save_0>
2000c3ae:	4685                	c.li	a3,1
2000c3b0:	2cf000ef          	jal	ra,2000ce7e <strtol_common>
2000c3b4:	1370106f          	j	2000dcea <__riscv_restore_0>

2000c3b8 <_sungetc_r>:
2000c3b8:	10f012ef          	jal	t0,2000dcc6 <__riscv_save_0>
2000c3bc:	57fd                	c.li	a5,-1
2000c3be:	00f59663          	bne	a1,a5,2000c3ca <_sungetc_r+0x12>
2000c3c2:	54fd                	c.li	s1,-1
2000c3c4:	8526                	c.mv	a0,s1
2000c3c6:	1250106f          	j	2000dcea <__riscv_restore_0>
2000c3ca:	00c61783          	lh	a5,12(a2)
2000c3ce:	0ff5f913          	andi	s2,a1,255
2000c3d2:	fdf7f793          	andi	a5,a5,-33
2000c3d6:	00f61623          	sh	a5,12(a2)
2000c3da:	5a1c                	c.lw	a5,48(a2)
2000c3dc:	0ff5f493          	andi	s1,a1,255
2000c3e0:	4258                	c.lw	a4,4(a2)
2000c3e2:	c785                	c.beqz	a5,2000c40a <_sungetc_r+0x52>
2000c3e4:	5a5c                	c.lw	a5,52(a2)
2000c3e6:	8432                	c.mv	s0,a2
2000c3e8:	00f75c63          	bge	a4,a5,2000c400 <_sungetc_r+0x48>
2000c3ec:	401c                	c.lw	a5,0(s0)
2000c3ee:	fff78713          	addi	a4,a5,-1
2000c3f2:	c018                	c.sw	a4,0(s0)
2000c3f4:	ff278fa3          	sb	s2,-1(a5)
2000c3f8:	405c                	c.lw	a5,4(s0)
2000c3fa:	0785                	c.addi	a5,1
2000c3fc:	c05c                	c.sw	a5,4(s0)
2000c3fe:	b7d9                	c.j	2000c3c4 <_sungetc_r+0xc>
2000c400:	85b2                	c.mv	a1,a2
2000c402:	085000ef          	jal	ra,2000cc86 <__submore>
2000c406:	d17d                	c.beqz	a0,2000c3ec <_sungetc_r+0x34>
2000c408:	bf6d                	c.j	2000c3c2 <_sungetc_r+0xa>
2000c40a:	4a14                	c.lw	a3,16(a2)
2000c40c:	421c                	c.lw	a5,0(a2)
2000c40e:	ce81                	c.beqz	a3,2000c426 <_sungetc_r+0x6e>
2000c410:	00f6fb63          	bgeu	a3,a5,2000c426 <_sungetc_r+0x6e>
2000c414:	fff7c683          	lbu	a3,-1(a5)
2000c418:	00969763          	bne	a3,s1,2000c426 <_sungetc_r+0x6e>
2000c41c:	17fd                	c.addi	a5,-1
2000c41e:	0705                	c.addi	a4,1
2000c420:	c21c                	c.sw	a5,0(a2)
2000c422:	c258                	c.sw	a4,4(a2)
2000c424:	b745                	c.j	2000c3c4 <_sungetc_r+0xc>
2000c426:	de1c                	c.sw	a5,56(a2)
2000c428:	04060793          	addi	a5,a2,64
2000c42c:	da1c                	c.sw	a5,48(a2)
2000c42e:	478d                	c.li	a5,3
2000c430:	da5c                	c.sw	a5,52(a2)
2000c432:	04260793          	addi	a5,a2,66
2000c436:	c21c                	c.sw	a5,0(a2)
2000c438:	4785                	c.li	a5,1
2000c43a:	de58                	c.sw	a4,60(a2)
2000c43c:	05260123          	sb	s2,66(a2)
2000c440:	c25c                	c.sw	a5,4(a2)
2000c442:	b749                	c.j	2000c3c4 <_sungetc_r+0xc>

2000c444 <__ssrefill_r>:
2000c444:	083012ef          	jal	t0,2000dcc6 <__riscv_save_0>
2000c448:	842e                	c.mv	s0,a1
2000c44a:	598c                	c.lw	a1,48(a1)
2000c44c:	c18d                	c.beqz	a1,2000c46e <__ssrefill_r+0x2a>
2000c44e:	04040793          	addi	a5,s0,64
2000c452:	00f58463          	beq	a1,a5,2000c45a <__ssrefill_r+0x16>
2000c456:	aeaff0ef          	jal	ra,2000b740 <_free_r>
2000c45a:	5c5c                	c.lw	a5,60(s0)
2000c45c:	02042823          	sw	zero,48(s0)
2000c460:	c05c                	c.sw	a5,4(s0)
2000c462:	c791                	c.beqz	a5,2000c46e <__ssrefill_r+0x2a>
2000c464:	5c1c                	c.lw	a5,56(s0)
2000c466:	4501                	c.li	a0,0
2000c468:	c01c                	c.sw	a5,0(s0)
2000c46a:	0810106f          	j	2000dcea <__riscv_restore_0>
2000c46e:	481c                	c.lw	a5,16(s0)
2000c470:	00042223          	sw	zero,4(s0)
2000c474:	c01c                	c.sw	a5,0(s0)
2000c476:	00c41783          	lh	a5,12(s0)
2000c47a:	557d                	c.li	a0,-1
2000c47c:	0207e793          	ori	a5,a5,32
2000c480:	00f41623          	sh	a5,12(s0)
2000c484:	b7dd                	c.j	2000c46a <__ssrefill_r+0x26>

2000c486 <_sfread_r>:
2000c486:	019012ef          	jal	t0,2000dc9e <__riscv_save_10>
2000c48a:	02c684b3          	mul	s1,a3,a2
2000c48e:	cca9                	c.beqz	s1,2000c4e8 <_sfread_r+0x62>
2000c490:	8baa                	c.mv	s7,a0
2000c492:	8a2e                	c.mv	s4,a1
2000c494:	8b32                	c.mv	s6,a2
2000c496:	8ab6                	c.mv	s5,a3
2000c498:	843a                	c.mv	s0,a4
2000c49a:	8926                	c.mv	s2,s1
2000c49c:	00442983          	lw	s3,4(s0)
2000c4a0:	400c                	c.lw	a1,0(s0)
2000c4a2:	0129ef63          	bltu	s3,s2,2000c4c0 <_sfread_r+0x3a>
2000c4a6:	864a                	c.mv	a2,s2
2000c4a8:	8552                	c.mv	a0,s4
2000c4aa:	92ffe0ef          	jal	ra,2000add8 <memcpy>
2000c4ae:	405c                	c.lw	a5,4(s0)
2000c4b0:	4004                	c.lw	s1,0(s0)
2000c4b2:	412787b3          	sub	a5,a5,s2
2000c4b6:	94ca                	c.add	s1,s2
2000c4b8:	c004                	c.sw	s1,0(s0)
2000c4ba:	c05c                	c.sw	a5,4(s0)
2000c4bc:	84d6                	c.mv	s1,s5
2000c4be:	a02d                	c.j	2000c4e8 <_sfread_r+0x62>
2000c4c0:	8552                	c.mv	a0,s4
2000c4c2:	864e                	c.mv	a2,s3
2000c4c4:	915fe0ef          	jal	ra,2000add8 <memcpy>
2000c4c8:	401c                	c.lw	a5,0(s0)
2000c4ca:	85a2                	c.mv	a1,s0
2000c4cc:	97ce                	c.add	a5,s3
2000c4ce:	855e                	c.mv	a0,s7
2000c4d0:	c01c                	c.sw	a5,0(s0)
2000c4d2:	00042223          	sw	zero,4(s0)
2000c4d6:	9a4e                	c.add	s4,s3
2000c4d8:	41390933          	sub	s2,s2,s3
2000c4dc:	37a5                	c.jal	2000c444 <__ssrefill_r>
2000c4de:	dd5d                	c.beqz	a0,2000c49c <_sfread_r+0x16>
2000c4e0:	412484b3          	sub	s1,s1,s2
2000c4e4:	0364d4b3          	divu	s1,s1,s6
2000c4e8:	8526                	c.mv	a0,s1
2000c4ea:	7ec0106f          	j	2000dcd6 <__riscv_restore_10>

2000c4ee <__ssvfiscanf_r>:
2000c4ee:	7a8012ef          	jal	t0,2000dc96 <__riscv_save_12>
2000c4f2:	2000e737          	lui	a4,0x2000e
2000c4f6:	7149                	c.addi16sp	sp,-368
2000c4f8:	3b870793          	addi	a5,a4,952 # 2000e3b8 <basefix.4397>
2000c4fc:	2000dc37          	lui	s8,0x2000d
2000c500:	cc3e                	c.swsp	a5,24(sp)
2000c502:	21cc0793          	addi	a5,s8,540 # 2000d21c <_strtoul_r>
2000c506:	c63e                	c.swsp	a5,12(sp)
2000c508:	2000d7b7          	lui	a5,0x2000d
2000c50c:	fac78793          	addi	a5,a5,-84 # 2000cfac <_strtol_r>
2000c510:	8a2a                	c.mv	s4,a0
2000c512:	8d2e                	c.mv	s10,a1
2000c514:	8bb2                	c.mv	s7,a2
2000c516:	84b6                	c.mv	s1,a3
2000c518:	4b01                	c.li	s6,0
2000c51a:	4981                	c.li	s3,0
2000c51c:	4901                	c.li	s2,0
2000c51e:	4a81                	c.li	s5,0
2000c520:	c83e                	c.swsp	a5,16(sp)
2000c522:	000bc703          	lbu	a4,0(s7)
2000c526:	0b85                	c.addi	s7,1
2000c528:	de3a                	c.swsp	a4,60(sp)
2000c52a:	1e070e63          	beqz	a4,2000c726 <__ssvfiscanf_r+0x238>
2000c52e:	8affa6ab          	lwgp	a3,-1876 # 800ac <__ctype_ptr__>
2000c532:	00e68633          	add	a2,a3,a4
2000c536:	00160603          	lb	a2,1(a2)
2000c53a:	0436705b          	bbc	a2,3,2000c57a <__ssvfiscanf_r+0x8c>
2000c53e:	004d2703          	lw	a4,4(s10)
2000c542:	02e05763          	blez	a4,2000c570 <__ssvfiscanf_r+0x82>
2000c546:	000d2703          	lw	a4,0(s10)
2000c54a:	8affa6ab          	lwgp	a3,-1876 # 800ac <__ctype_ptr__>
2000c54e:	00074603          	lbu	a2,0(a4)
2000c552:	96b2                	c.add	a3,a2
2000c554:	00168683          	lb	a3,1(a3)
2000c558:	bc36f55b          	bbc	a3,3,2000c522 <__ssvfiscanf_r+0x34>
2000c55c:	004d2683          	lw	a3,4(s10)
2000c560:	0705                	c.addi	a4,1
2000c562:	16fd                	c.addi	a3,-1
2000c564:	0905                	c.addi	s2,1
2000c566:	00dd2223          	sw	a3,4(s10)
2000c56a:	00ed2023          	sw	a4,0(s10)
2000c56e:	bfc1                	c.j	2000c53e <__ssvfiscanf_r+0x50>
2000c570:	85ea                	c.mv	a1,s10
2000c572:	8552                	c.mv	a0,s4
2000c574:	3dc1                	c.jal	2000c444 <__ssrefill_r>
2000c576:	d961                	c.beqz	a0,2000c546 <__ssvfiscanf_r+0x58>
2000c578:	b76d                	c.j	2000c522 <__ssvfiscanf_r+0x34>
2000c57a:	18576adb          	bnec	a4,37,2000c70e <__ssvfiscanf_r+0x220>
2000c57e:	865e                	c.mv	a2,s7
2000c580:	4401                	c.li	s0,0
2000c582:	4c01                	c.li	s8,0
2000c584:	06300513          	li	a0,99
2000c588:	06e00893          	li	a7,110
2000c58c:	06800313          	li	t1,104
2000c590:	03900e13          	li	t3,57
2000c594:	04f00e93          	li	t4,79
2000c598:	03000f13          	li	t5,48
2000c59c:	45a9                	c.li	a1,10
2000c59e:	0b85                	c.addi	s7,1
2000c5a0:	00064703          	lbu	a4,0(a2)
2000c5a4:	5e3755db          	beqc	a4,99,2000c78e <__ssvfiscanf_r+0x2a0>
2000c5a8:	10e56363          	bltu	a0,a4,2000c6ae <__ssvfiscanf_r+0x1c0>
2000c5ac:	00ee6b63          	bltu	t3,a4,2000c5c2 <__ssvfiscanf_r+0xd4>
2000c5b0:	1be77f63          	bgeu	a4,t5,2000c76e <__ssvfiscanf_r+0x280>
2000c5b4:	14575ddb          	beqc	a4,37,2000c70e <__ssvfiscanf_r+0x220>
2000c5b8:	1aa751db          	beqc	a4,42,2000c75a <__ssvfiscanf_r+0x26c>
2000c5bc:	eb19                	c.bnez	a4,2000c5d2 <__ssvfiscanf_r+0xe4>
2000c5be:	5afd                	c.li	s5,-1
2000c5c0:	a29d                	c.j	2000c726 <__ssvfiscanf_r+0x238>
2000c5c2:	5af75d5b          	beqc	a4,79,2000c77c <__ssvfiscanf_r+0x28e>
2000c5c6:	00eeef63          	bltu	t4,a4,2000c5e4 <__ssvfiscanf_r+0xf6>
2000c5ca:	40475a5b          	beqc	a4,68,2000c5de <__ssvfiscanf_r+0xf0>
2000c5ce:	50c7565b          	beqc	a4,76,2000c6da <__ssvfiscanf_r+0x1ec>
2000c5d2:	9736                	c.add	a4,a3
2000c5d4:	00170703          	lb	a4,1(a4)
2000c5d8:	8b0d                	c.andi	a4,3
2000c5da:	0e17645b          	bnec	a4,1,2000c6c2 <__ssvfiscanf_r+0x1d4>
2000c5de:	00146413          	ori	s0,s0,1
2000c5e2:	a0c5                	c.j	2000c6c2 <__ssvfiscanf_r+0x1d4>
2000c5e4:	5387505b          	beqc	a4,88,2000c704 <__ssvfiscanf_r+0x216>
2000c5e8:	ffb7655b          	bnec	a4,91,2000c5d2 <__ssvfiscanf_r+0xe4>
2000c5ec:	85de                	c.mv	a1,s7
2000c5ee:	1888                	c.addi4spn	a0,sp,112
2000c5f0:	011000ef          	jal	ra,2000ce00 <__sccl>
2000c5f4:	04046413          	ori	s0,s0,64
2000c5f8:	8baa                	c.mv	s7,a0
2000c5fa:	4d85                	c.li	s11,1
2000c5fc:	004d2703          	lw	a4,4(s10)
2000c600:	1ce05363          	blez	a4,2000c7c6 <__ssvfiscanf_r+0x2d8>
2000c604:	40647d5b          	bbs	s0,6,2000c61e <__ssvfiscanf_r+0x130>
2000c608:	000d2703          	lw	a4,0(s10)
2000c60c:	8affa6ab          	lwgp	a3,-1876 # 800ac <__ctype_ptr__>
2000c610:	00074603          	lbu	a2,0(a4)
2000c614:	96b2                	c.add	a3,a2
2000c616:	00168683          	lb	a3,1(a3)
2000c61a:	5a36fd5b          	bbs	a3,3,2000c7d4 <__ssvfiscanf_r+0x2e6>
2000c61e:	302ddb5b          	beqc	s11,2,2000c934 <__ssvfiscanf_r+0x446>
2000c622:	003de45b          	bnec	s11,3,2000c62a <__ssvfiscanf_r+0x13c>
2000c626:	4a00006f          	j	2000cac6 <__ssvfiscanf_r+0x5d8>
2000c62a:	01047c93          	andi	s9,s0,16
2000c62e:	241ddd5b          	beqc	s11,1,2000c888 <__ssvfiscanf_r+0x39a>
2000c632:	000c1363          	bnez	s8,2000c638 <__ssvfiscanf_r+0x14a>
2000c636:	4c05                	c.li	s8,1
2000c638:	1e04775b          	bbc	s0,0,2000c826 <__ssvfiscanf_r+0x338>
2000c63c:	4621                	c.li	a2,8
2000c63e:	4581                	c.li	a1,0
2000c640:	0088                	c.addi4spn	a0,sp,64
2000c642:	891fe0ef          	jal	ra,2000aed2 <memset>
2000c646:	4401                	c.li	s0,0
2000c648:	000c9463          	bnez	s9,2000c650 <__ssvfiscanf_r+0x162>
2000c64c:	4080                	c.lw	s0,0(s1)
2000c64e:	0491                	c.addi	s1,4
2000c650:	4d81                	c.li	s11,0
2000c652:	25f1                	c.jal	2000cd1e <__locale_mb_cur_max>
2000c654:	0fb50263          	beq	a0,s11,2000c738 <__ssvfiscanf_r+0x24a>
2000c658:	000d2703          	lw	a4,0(s10)
2000c65c:	1a9c                	c.addi4spn	a5,sp,368
2000c65e:	00074683          	lbu	a3,0(a4)
2000c662:	001d8e13          	addi	t3,s11,1
2000c666:	9dbe                	c.add	s11,a5
2000c668:	ecdd8c23          	sb	a3,-296(s11)
2000c66c:	004d2683          	lw	a3,4(s10)
2000c670:	0705                	c.addi	a4,1
2000c672:	16fd                	c.addi	a3,-1
2000c674:	00dd2223          	sw	a3,4(s10)
2000c678:	00ed2023          	sw	a4,0(s10)
2000c67c:	86f2                	c.mv	a3,t3
2000c67e:	0098                	c.addi4spn	a4,sp,64
2000c680:	00b0                	c.addi4spn	a2,sp,72
2000c682:	85a2                	c.mv	a1,s0
2000c684:	8552                	c.mv	a0,s4
2000c686:	ca72                	c.swsp	t3,20(sp)
2000c688:	2d71                	c.jal	2000cd24 <_mbrtowc_r>
2000c68a:	57fd                	c.li	a5,-1
2000c68c:	0af50663          	beq	a0,a5,2000c738 <__ssvfiscanf_r+0x24a>
2000c690:	4e52                	c.lwsp	t3,20(sp)
2000c692:	16051463          	bnez	a0,2000c7fa <__ssvfiscanf_r+0x30c>
2000c696:	000c9463          	bnez	s9,2000c69e <__ssvfiscanf_r+0x1b0>
2000c69a:	00042023          	sw	zero,0(s0)
2000c69e:	9972                	c.add	s2,t3
2000c6a0:	1c7d                	c.addi	s8,-1
2000c6a2:	4d81                	c.li	s11,0
2000c6a4:	140c9f63          	bnez	s9,2000c802 <__ssvfiscanf_r+0x314>
2000c6a8:	0411                	c.addi	s0,4
2000c6aa:	8de6                	c.mv	s11,s9
2000c6ac:	aa99                	c.j	2000c802 <__ssvfiscanf_r+0x314>
2000c6ae:	4ee754db          	beqc	a4,110,2000c796 <__ssvfiscanf_r+0x2a8>
2000c6b2:	02e8e763          	bltu	a7,a4,2000c6e0 <__ssvfiscanf_r+0x1f2>
2000c6b6:	4a8759db          	beqc	a4,104,2000c768 <__ssvfiscanf_r+0x27a>
2000c6ba:	00e36663          	bltu	t1,a4,2000c6c6 <__ssvfiscanf_r+0x1d8>
2000c6be:	f0476adb          	bnec	a4,100,2000c5d2 <__ssvfiscanf_r+0xe4>
2000c6c2:	4b42                	c.lwsp	s6,16(sp)
2000c6c4:	a0d9                	c.j	2000c78a <__ssvfiscanf_r+0x29c>
2000c6c6:	4e975ddb          	beqc	a4,105,2000c7c0 <__ssvfiscanf_r+0x2d2>
2000c6ca:	f0c764db          	bnec	a4,108,2000c5d2 <__ssvfiscanf_r+0xe4>
2000c6ce:	00164703          	lbu	a4,1(a2)
2000c6d2:	48c768db          	bnec	a4,108,2000c762 <__ssvfiscanf_r+0x274>
2000c6d6:	00260b93          	addi	s7,a2,2
2000c6da:	00246413          	ori	s0,s0,2
2000c6de:	a041                	c.j	2000c75e <__ssvfiscanf_r+0x270>
2000c6e0:	07300613          	li	a2,115
2000c6e4:	4d89                	c.li	s11,2
2000c6e6:	f1375bdb          	beqc	a4,115,2000c5fc <__ssvfiscanf_r+0x10e>
2000c6ea:	00e66963          	bltu	a2,a4,2000c6fc <__ssvfiscanf_r+0x20e>
2000c6ee:	48f759db          	beqc	a4,111,2000c780 <__ssvfiscanf_r+0x292>
2000c6f2:	ef0760db          	bnec	a4,112,2000c5d2 <__ssvfiscanf_r+0xe4>
2000c6f6:	22046413          	ori	s0,s0,544
2000c6fa:	a039                	c.j	2000c708 <__ssvfiscanf_r+0x21a>
2000c6fc:	495756db          	beqc	a4,117,2000c788 <__ssvfiscanf_r+0x29a>
2000c700:	ed8769db          	bnec	a4,120,2000c5d2 <__ssvfiscanf_r+0xe4>
2000c704:	20046413          	ori	s0,s0,512
2000c708:	4b32                	c.lwsp	s6,12(sp)
2000c70a:	49c1                	c.li	s3,16
2000c70c:	a8a5                	c.j	2000c784 <__ssvfiscanf_r+0x296>
2000c70e:	004d2703          	lw	a4,4(s10)
2000c712:	00e05e63          	blez	a4,2000c72e <__ssvfiscanf_r+0x240>
2000c716:	000d2703          	lw	a4,0(s10)
2000c71a:	fffbc683          	lbu	a3,-1(s7)
2000c71e:	00074603          	lbu	a2,0(a4)
2000c722:	02d60263          	beq	a2,a3,2000c746 <__ssvfiscanf_r+0x258>
2000c726:	8556                	c.mv	a0,s5
2000c728:	6175                	c.addi16sp	sp,368
2000c72a:	5a80106f          	j	2000dcd2 <__riscv_restore_12>
2000c72e:	85ea                	c.mv	a1,s10
2000c730:	8552                	c.mv	a0,s4
2000c732:	d13ff0ef          	jal	ra,2000c444 <__ssrefill_r>
2000c736:	d165                	c.beqz	a0,2000c716 <__ssvfiscanf_r+0x228>
2000c738:	e80a83e3          	beqz	s5,2000c5be <__ssvfiscanf_r+0xd0>
2000c73c:	00cd1783          	lh	a5,12(s10)
2000c740:	be67f35b          	bbc	a5,6,2000c726 <__ssvfiscanf_r+0x238>
2000c744:	bdad                	c.j	2000c5be <__ssvfiscanf_r+0xd0>
2000c746:	004d2683          	lw	a3,4(s10)
2000c74a:	0705                	c.addi	a4,1
2000c74c:	16fd                	c.addi	a3,-1
2000c74e:	00dd2223          	sw	a3,4(s10)
2000c752:	00ed2023          	sw	a4,0(s10)
2000c756:	0905                	c.addi	s2,1
2000c758:	b3e9                	c.j	2000c522 <__ssvfiscanf_r+0x34>
2000c75a:	01046413          	ori	s0,s0,16
2000c75e:	865e                	c.mv	a2,s7
2000c760:	bd3d                	c.j	2000c59e <__ssvfiscanf_r+0xb0>
2000c762:	00146413          	ori	s0,s0,1
2000c766:	bfe5                	c.j	2000c75e <__ssvfiscanf_r+0x270>
2000c768:	00446413          	ori	s0,s0,4
2000c76c:	bfcd                	c.j	2000c75e <__ssvfiscanf_r+0x270>
2000c76e:	02bc0833          	mul	a6,s8,a1
2000c772:	fd080813          	addi	a6,a6,-48
2000c776:	01070c33          	add	s8,a4,a6
2000c77a:	b7d5                	c.j	2000c75e <__ssvfiscanf_r+0x270>
2000c77c:	00146413          	ori	s0,s0,1
2000c780:	4b32                	c.lwsp	s6,12(sp)
2000c782:	49a1                	c.li	s3,8
2000c784:	4d8d                	c.li	s11,3
2000c786:	bd9d                	c.j	2000c5fc <__ssvfiscanf_r+0x10e>
2000c788:	4b32                	c.lwsp	s6,12(sp)
2000c78a:	49a9                	c.li	s3,10
2000c78c:	bfe5                	c.j	2000c784 <__ssvfiscanf_r+0x296>
2000c78e:	04046413          	ori	s0,s0,64
2000c792:	4d81                	c.li	s11,0
2000c794:	b5a5                	c.j	2000c5fc <__ssvfiscanf_r+0x10e>
2000c796:	d844765b          	bbs	s0,4,2000c522 <__ssvfiscanf_r+0x34>
2000c79a:	00448693          	addi	a3,s1,4
2000c79e:	4098                	c.lw	a4,0(s1)
2000c7a0:	0024765b          	bbc	s0,2,2000c7ac <__ssvfiscanf_r+0x2be>
2000c7a4:	01271023          	sh	s2,0(a4)
2000c7a8:	84b6                	c.mv	s1,a3
2000c7aa:	bba5                	c.j	2000c522 <__ssvfiscanf_r+0x34>
2000c7ac:	01272023          	sw	s2,0(a4)
2000c7b0:	fe047c5b          	bbs	s0,0,2000c7a8 <__ssvfiscanf_r+0x2ba>
2000c7b4:	be147a5b          	bbc	s0,1,2000c7a8 <__ssvfiscanf_r+0x2ba>
2000c7b8:	41f95613          	srai	a2,s2,0x1f
2000c7bc:	c350                	c.sw	a2,4(a4)
2000c7be:	b7ed                	c.j	2000c7a8 <__ssvfiscanf_r+0x2ba>
2000c7c0:	4b42                	c.lwsp	s6,16(sp)
2000c7c2:	4981                	c.li	s3,0
2000c7c4:	b7c1                	c.j	2000c784 <__ssvfiscanf_r+0x296>
2000c7c6:	85ea                	c.mv	a1,s10
2000c7c8:	8552                	c.mv	a0,s4
2000c7ca:	c7bff0ef          	jal	ra,2000c444 <__ssrefill_r>
2000c7ce:	e2050be3          	beqz	a0,2000c604 <__ssvfiscanf_r+0x116>
2000c7d2:	b79d                	c.j	2000c738 <__ssvfiscanf_r+0x24a>
2000c7d4:	004d2683          	lw	a3,4(s10)
2000c7d8:	0905                	c.addi	s2,1
2000c7da:	16fd                	c.addi	a3,-1
2000c7dc:	00dd2223          	sw	a3,4(s10)
2000c7e0:	00d05663          	blez	a3,2000c7ec <__ssvfiscanf_r+0x2fe>
2000c7e4:	0705                	c.addi	a4,1
2000c7e6:	00ed2023          	sw	a4,0(s10)
2000c7ea:	bd39                	c.j	2000c608 <__ssvfiscanf_r+0x11a>
2000c7ec:	85ea                	c.mv	a1,s10
2000c7ee:	8552                	c.mv	a0,s4
2000c7f0:	c55ff0ef          	jal	ra,2000c444 <__ssrefill_r>
2000c7f4:	e0050ae3          	beqz	a0,2000c608 <__ssvfiscanf_r+0x11a>
2000c7f8:	b781                	c.j	2000c738 <__ssvfiscanf_r+0x24a>
2000c7fa:	57f9                	c.li	a5,-2
2000c7fc:	8df2                	c.mv	s11,t3
2000c7fe:	eaf510e3          	bne	a0,a5,2000c69e <__ssvfiscanf_r+0x1b0>
2000c802:	004d2703          	lw	a4,4(s10)
2000c806:	00e04d63          	bgtz	a4,2000c820 <__ssvfiscanf_r+0x332>
2000c80a:	85ea                	c.mv	a1,s10
2000c80c:	8552                	c.mv	a0,s4
2000c80e:	c37ff0ef          	jal	ra,2000c444 <__ssrefill_r>
2000c812:	c519                	c.beqz	a0,2000c820 <__ssvfiscanf_r+0x332>
2000c814:	f20d92e3          	bnez	s11,2000c738 <__ssvfiscanf_r+0x24a>
2000c818:	d00c95e3          	bnez	s9,2000c522 <__ssvfiscanf_r+0x34>
2000c81c:	0a85                	c.addi	s5,1
2000c81e:	b311                	c.j	2000c522 <__ssvfiscanf_r+0x34>
2000c820:	e20c19e3          	bnez	s8,2000c652 <__ssvfiscanf_r+0x164>
2000c824:	bfd5                	c.j	2000c818 <__ssvfiscanf_r+0x32a>
2000c826:	040c8263          	beqz	s9,2000c86a <__ssvfiscanf_r+0x37c>
2000c82a:	4401                	c.li	s0,0
2000c82c:	004d2703          	lw	a4,4(s10)
2000c830:	000d2683          	lw	a3,0(s10)
2000c834:	03875163          	bge	a4,s8,2000c856 <__ssvfiscanf_r+0x368>
2000c838:	943a                	c.add	s0,a4
2000c83a:	40ec0c33          	sub	s8,s8,a4
2000c83e:	85ea                	c.mv	a1,s10
2000c840:	9736                	c.add	a4,a3
2000c842:	8552                	c.mv	a0,s4
2000c844:	00ed2023          	sw	a4,0(s10)
2000c848:	bfdff0ef          	jal	ra,2000c444 <__ssrefill_r>
2000c84c:	d165                	c.beqz	a0,2000c82c <__ssvfiscanf_r+0x33e>
2000c84e:	ee0405e3          	beqz	s0,2000c738 <__ssvfiscanf_r+0x24a>
2000c852:	9922                	c.add	s2,s0
2000c854:	b1f9                	c.j	2000c522 <__ssvfiscanf_r+0x34>
2000c856:	41870733          	sub	a4,a4,s8
2000c85a:	01868833          	add	a6,a3,s8
2000c85e:	9462                	c.add	s0,s8
2000c860:	00ed2223          	sw	a4,4(s10)
2000c864:	010d2023          	sw	a6,0(s10)
2000c868:	b7ed                	c.j	2000c852 <__ssvfiscanf_r+0x364>
2000c86a:	408c                	c.lw	a1,0(s1)
2000c86c:	876a                	c.mv	a4,s10
2000c86e:	86e2                	c.mv	a3,s8
2000c870:	4605                	c.li	a2,1
2000c872:	8552                	c.mv	a0,s4
2000c874:	00448413          	addi	s0,s1,4
2000c878:	c0fff0ef          	jal	ra,2000c486 <_sfread_r>
2000c87c:	ea050ee3          	beqz	a0,2000c738 <__ssvfiscanf_r+0x24a>
2000c880:	992a                	c.add	s2,a0
2000c882:	0a85                	c.addi	s5,1
2000c884:	84a2                	c.mv	s1,s0
2000c886:	b971                	c.j	2000c522 <__ssvfiscanf_r+0x34>
2000c888:	000c1363          	bnez	s8,2000c88e <__ssvfiscanf_r+0x3a0>
2000c88c:	5c7d                	c.li	s8,-1
2000c88e:	0a0c9163          	bnez	s9,2000c930 <__ssvfiscanf_r+0x442>
2000c892:	4080                	c.lw	s0,0(s1)
2000c894:	00448c93          	addi	s9,s1,4
2000c898:	9c22                	c.add	s8,s0
2000c89a:	84a2                	c.mv	s1,s0
2000c89c:	000d2683          	lw	a3,0(s10)
2000c8a0:	1a9c                	c.addi4spn	a5,sp,368
2000c8a2:	0006c703          	lbu	a4,0(a3)
2000c8a6:	973e                	c.add	a4,a5
2000c8a8:	f0074703          	lbu	a4,-256(a4)
2000c8ac:	cf05                	c.beqz	a4,2000c8e4 <__ssvfiscanf_r+0x3f6>
2000c8ae:	004d2703          	lw	a4,4(s10)
2000c8b2:	0485                	c.addi	s1,1
2000c8b4:	177d                	c.addi	a4,-1
2000c8b6:	00ed2223          	sw	a4,4(s10)
2000c8ba:	00168713          	addi	a4,a3,1
2000c8be:	00ed2023          	sw	a4,0(s10)
2000c8c2:	0006c703          	lbu	a4,0(a3)
2000c8c6:	fee48fa3          	sb	a4,-1(s1)
2000c8ca:	01848d63          	beq	s1,s8,2000c8e4 <__ssvfiscanf_r+0x3f6>
2000c8ce:	004d2703          	lw	a4,4(s10)
2000c8d2:	fce045e3          	bgtz	a4,2000c89c <__ssvfiscanf_r+0x3ae>
2000c8d6:	85ea                	c.mv	a1,s10
2000c8d8:	8552                	c.mv	a0,s4
2000c8da:	b6bff0ef          	jal	ra,2000c444 <__ssrefill_r>
2000c8de:	dd5d                	c.beqz	a0,2000c89c <__ssvfiscanf_r+0x3ae>
2000c8e0:	e4940ce3          	beq	s0,s1,2000c738 <__ssvfiscanf_r+0x24a>
2000c8e4:	40848433          	sub	s0,s1,s0
2000c8e8:	e2040fe3          	beqz	s0,2000c726 <__ssvfiscanf_r+0x238>
2000c8ec:	00048023          	sb	zero,0(s1)
2000c8f0:	0a85                	c.addi	s5,1
2000c8f2:	84e6                	c.mv	s1,s9
2000c8f4:	bfb9                	c.j	2000c852 <__ssvfiscanf_r+0x364>
2000c8f6:	004d2683          	lw	a3,4(s10)
2000c8fa:	0705                	c.addi	a4,1
2000c8fc:	16fd                	c.addi	a3,-1
2000c8fe:	0405                	c.addi	s0,1
2000c900:	00dd2223          	sw	a3,4(s10)
2000c904:	00ed2023          	sw	a4,0(s10)
2000c908:	f48c05e3          	beq	s8,s0,2000c852 <__ssvfiscanf_r+0x364>
2000c90c:	00d04763          	bgtz	a3,2000c91a <__ssvfiscanf_r+0x42c>
2000c910:	85ea                	c.mv	a1,s10
2000c912:	8552                	c.mv	a0,s4
2000c914:	b31ff0ef          	jal	ra,2000c444 <__ssrefill_r>
2000c918:	fd0d                	c.bnez	a0,2000c852 <__ssvfiscanf_r+0x364>
2000c91a:	000d2703          	lw	a4,0(s10)
2000c91e:	1a9c                	c.addi4spn	a5,sp,368
2000c920:	00074683          	lbu	a3,0(a4)
2000c924:	96be                	c.add	a3,a5
2000c926:	f006c683          	lbu	a3,-256(a3)
2000c92a:	f6f1                	c.bnez	a3,2000c8f6 <__ssvfiscanf_r+0x408>
2000c92c:	f01d                	c.bnez	s0,2000c852 <__ssvfiscanf_r+0x364>
2000c92e:	bbe5                	c.j	2000c726 <__ssvfiscanf_r+0x238>
2000c930:	4401                	c.li	s0,0
2000c932:	b7e5                	c.j	2000c91a <__ssvfiscanf_r+0x42c>
2000c934:	000c1363          	bnez	s8,2000c93a <__ssvfiscanf_r+0x44c>
2000c938:	5c7d                	c.li	s8,-1
2000c93a:	00147d93          	andi	s11,s0,1
2000c93e:	8841                	c.andi	s0,16
2000c940:	0e0d8363          	beqz	s11,2000ca26 <__ssvfiscanf_r+0x538>
2000c944:	4621                	c.li	a2,8
2000c946:	4581                	c.li	a1,0
2000c948:	0088                	c.addi4spn	a0,sp,64
2000c94a:	d88fe0ef          	jal	ra,2000aed2 <memset>
2000c94e:	03c10d93          	addi	s11,sp,60
2000c952:	e401                	c.bnez	s0,2000c95a <__ssvfiscanf_r+0x46c>
2000c954:	0004ad83          	lw	s11,0(s1)
2000c958:	0491                	c.addi	s1,4
2000c95a:	4701                	c.li	a4,0
2000c95c:	000d2683          	lw	a3,0(s10)
2000c960:	0006c603          	lbu	a2,0(a3)
2000c964:	8affa6ab          	lwgp	a3,-1876 # 800ac <__ctype_ptr__>
2000c968:	96b2                	c.add	a3,a2
2000c96a:	00168683          	lb	a3,1(a3)
2000c96e:	4636f25b          	bbs	a3,3,2000c9d2 <__ssvfiscanf_r+0x4e4>
2000c972:	060c0063          	beqz	s8,2000c9d2 <__ssvfiscanf_r+0x4e4>
2000c976:	ca3a                	c.swsp	a4,20(sp)
2000c978:	265d                	c.jal	2000cd1e <__locale_mb_cur_max>
2000c97a:	4752                	c.lwsp	a4,20(sp)
2000c97c:	dae50ee3          	beq	a0,a4,2000c738 <__ssvfiscanf_r+0x24a>
2000c980:	000d2683          	lw	a3,0(s10)
2000c984:	1a9c                	c.addi4spn	a5,sp,368
2000c986:	0006c603          	lbu	a2,0(a3)
2000c98a:	00170893          	addi	a7,a4,1
2000c98e:	973e                	c.add	a4,a5
2000c990:	ecc70c23          	sb	a2,-296(a4)
2000c994:	004d2703          	lw	a4,4(s10)
2000c998:	0685                	c.addi	a3,1
2000c99a:	177d                	c.addi	a4,-1
2000c99c:	00ed2223          	sw	a4,4(s10)
2000c9a0:	00dd2023          	sw	a3,0(s10)
2000c9a4:	0098                	c.addi4spn	a4,sp,64
2000c9a6:	86c6                	c.mv	a3,a7
2000c9a8:	00b0                	c.addi4spn	a2,sp,72
2000c9aa:	85ee                	c.mv	a1,s11
2000c9ac:	8552                	c.mv	a0,s4
2000c9ae:	ca46                	c.swsp	a7,20(sp)
2000c9b0:	2e95                	c.jal	2000cd24 <_mbrtowc_r>
2000c9b2:	57fd                	c.li	a5,-1
2000c9b4:	d8f502e3          	beq	a0,a5,2000c738 <__ssvfiscanf_r+0x24a>
2000c9b8:	48d2                	c.lwsp	a7,20(sp)
2000c9ba:	e10d                	c.bnez	a0,2000c9dc <__ssvfiscanf_r+0x4ee>
2000c9bc:	000da023          	sw	zero,0(s11)
2000c9c0:	000da503          	lw	a0,0(s11)
2000c9c4:	ca46                	c.swsp	a7,20(sp)
2000c9c6:	2e25                	c.jal	2000ccfe <iswspace>
2000c9c8:	48d2                	c.lwsp	a7,20(sp)
2000c9ca:	872a                	c.mv	a4,a0
2000c9cc:	c539                	c.beqz	a0,2000ca1a <__ssvfiscanf_r+0x52c>
2000c9ce:	02089963          	bnez	a7,2000ca00 <__ssvfiscanf_r+0x512>
2000c9d2:	b40418e3          	bnez	s0,2000c522 <__ssvfiscanf_r+0x34>
2000c9d6:	000da023          	sw	zero,0(s11)
2000c9da:	b589                	c.j	2000c81c <__ssvfiscanf_r+0x32e>
2000c9dc:	57f9                	c.li	a5,-2
2000c9de:	8746                	c.mv	a4,a7
2000c9e0:	fef510e3          	bne	a0,a5,2000c9c0 <__ssvfiscanf_r+0x4d2>
2000c9e4:	004d2683          	lw	a3,4(s10)
2000c9e8:	f6d04ae3          	bgtz	a3,2000c95c <__ssvfiscanf_r+0x46e>
2000c9ec:	85ea                	c.mv	a1,s10
2000c9ee:	8552                	c.mv	a0,s4
2000c9f0:	ca3a                	c.swsp	a4,20(sp)
2000c9f2:	a53ff0ef          	jal	ra,2000c444 <__ssrefill_r>
2000c9f6:	4752                	c.lwsp	a4,20(sp)
2000c9f8:	d135                	c.beqz	a0,2000c95c <__ssvfiscanf_r+0x46e>
2000c9fa:	d2071fe3          	bnez	a4,2000c738 <__ssvfiscanf_r+0x24a>
2000c9fe:	bfd1                	c.j	2000c9d2 <__ssvfiscanf_r+0x4e4>
2000ca00:	18fd                	c.addi	a7,-1
2000ca02:	00bc                	c.addi4spn	a5,sp,72
2000ca04:	01178733          	add	a4,a5,a7
2000ca08:	00074583          	lbu	a1,0(a4)
2000ca0c:	866a                	c.mv	a2,s10
2000ca0e:	8552                	c.mv	a0,s4
2000ca10:	ca46                	c.swsp	a7,20(sp)
2000ca12:	9a7ff0ef          	jal	ra,2000c3b8 <_sungetc_r>
2000ca16:	48d2                	c.lwsp	a7,20(sp)
2000ca18:	bf5d                	c.j	2000c9ce <__ssvfiscanf_r+0x4e0>
2000ca1a:	9946                	c.add	s2,a7
2000ca1c:	1c7d                	c.addi	s8,-1
2000ca1e:	f079                	c.bnez	s0,2000c9e4 <__ssvfiscanf_r+0x4f6>
2000ca20:	0d91                	c.addi	s11,4
2000ca22:	8722                	c.mv	a4,s0
2000ca24:	b7c1                	c.j	2000c9e4 <__ssvfiscanf_r+0x4f6>
2000ca26:	e059                	c.bnez	s0,2000caac <__ssvfiscanf_r+0x5be>
2000ca28:	00448d93          	addi	s11,s1,4
2000ca2c:	4084                	c.lw	s1,0(s1)
2000ca2e:	8426                	c.mv	s0,s1
2000ca30:	9c26                	c.add	s8,s1
2000ca32:	000d2683          	lw	a3,0(s10)
2000ca36:	8affa72b          	lwgp	a4,-1876 # 800ac <__ctype_ptr__>
2000ca3a:	0006c603          	lbu	a2,0(a3)
2000ca3e:	9732                	c.add	a4,a2
2000ca40:	00170703          	lb	a4,1(a4)
2000ca44:	42377b5b          	bbs	a4,3,2000ca7a <__ssvfiscanf_r+0x58c>
2000ca48:	004d2703          	lw	a4,4(s10)
2000ca4c:	0405                	c.addi	s0,1
2000ca4e:	177d                	c.addi	a4,-1
2000ca50:	00ed2223          	sw	a4,4(s10)
2000ca54:	00168713          	addi	a4,a3,1
2000ca58:	00ed2023          	sw	a4,0(s10)
2000ca5c:	0006c703          	lbu	a4,0(a3)
2000ca60:	fee40fa3          	sb	a4,-1(s0)
2000ca64:	01840b63          	beq	s0,s8,2000ca7a <__ssvfiscanf_r+0x58c>
2000ca68:	004d2703          	lw	a4,4(s10)
2000ca6c:	fce043e3          	bgtz	a4,2000ca32 <__ssvfiscanf_r+0x544>
2000ca70:	85ea                	c.mv	a1,s10
2000ca72:	8552                	c.mv	a0,s4
2000ca74:	9d1ff0ef          	jal	ra,2000c444 <__ssrefill_r>
2000ca78:	dd4d                	c.beqz	a0,2000ca32 <__ssvfiscanf_r+0x544>
2000ca7a:	00040023          	sb	zero,0(s0)
2000ca7e:	8c05                	c.sub	s0,s1
2000ca80:	9922                	c.add	s2,s0
2000ca82:	0a85                	c.addi	s5,1
2000ca84:	84ee                	c.mv	s1,s11
2000ca86:	bc71                	c.j	2000c522 <__ssvfiscanf_r+0x34>
2000ca88:	004d2683          	lw	a3,4(s10)
2000ca8c:	0705                	c.addi	a4,1
2000ca8e:	16fd                	c.addi	a3,-1
2000ca90:	0d85                	c.addi	s11,1
2000ca92:	00dd2223          	sw	a3,4(s10)
2000ca96:	00ed2023          	sw	a4,0(s10)
2000ca9a:	03bc0463          	beq	s8,s11,2000cac2 <__ssvfiscanf_r+0x5d4>
2000ca9e:	00d04763          	bgtz	a3,2000caac <__ssvfiscanf_r+0x5be>
2000caa2:	85ea                	c.mv	a1,s10
2000caa4:	8552                	c.mv	a0,s4
2000caa6:	99fff0ef          	jal	ra,2000c444 <__ssrefill_r>
2000caaa:	ed01                	c.bnez	a0,2000cac2 <__ssvfiscanf_r+0x5d4>
2000caac:	000d2703          	lw	a4,0(s10)
2000cab0:	8affa6ab          	lwgp	a3,-1876 # 800ac <__ctype_ptr__>
2000cab4:	00074603          	lbu	a2,0(a4)
2000cab8:	96b2                	c.add	a3,a2
2000caba:	00168683          	lb	a3,1(a3)
2000cabe:	bc36f55b          	bbc	a3,3,2000ca88 <__ssvfiscanf_r+0x59a>
2000cac2:	996e                	c.add	s2,s11
2000cac4:	bcb9                	c.j	2000c522 <__ssvfiscanf_r+0x34>
2000cac6:	fffc0713          	addi	a4,s8,-1
2000caca:	02600693          	li	a3,38
2000cace:	4601                	c.li	a2,0
2000cad0:	00e6f663          	bgeu	a3,a4,2000cadc <__ssvfiscanf_r+0x5ee>
2000cad4:	fd9c0613          	addi	a2,s8,-39
2000cad8:	02700c13          	li	s8,39
2000cadc:	6305                	c.lui	t1,0x1
2000cade:	d8030713          	addi	a4,t1,-640 # d80 <app_acl_rxfifo+0xcc>
2000cae2:	8f41                	c.or	a4,s0
2000cae4:	04810d93          	addi	s11,sp,72
2000cae8:	747d                	c.lui	s0,0xfffff
2000caea:	8cee                	c.mv	s9,s11
2000caec:	03900e13          	li	t3,57
2000caf0:	05800e93          	li	t4,88
2000caf4:	47f40413          	addi	s0,s0,1151 # fffff47f <_DATA_LMA_START+0xdfff0d4b>
2000caf8:	80030313          	addi	t1,t1,-2048
2000cafc:	ca02                	c.swsp	zero,20(sp)
2000cafe:	000d2583          	lw	a1,0(s10)
2000cb02:	0005c683          	lbu	a3,0(a1)
2000cb06:	06de6363          	bltu	t3,a3,2000cb6c <__ssvfiscanf_r+0x67e>
2000cb0a:	03800513          	li	a0,56
2000cb0e:	0ea6fd63          	bgeu	a3,a0,2000cc08 <__ssvfiscanf_r+0x71a>
2000cb12:	03000513          	li	a0,48
2000cb16:	0906dcdb          	beqc	a3,48,2000cbae <__ssvfiscanf_r+0x6c0>
2000cb1a:	0ed56063          	bltu	a0,a3,2000cbfa <__ssvfiscanf_r+0x70c>
2000cb1e:	0eb6dedb          	beqc	a3,43,2000cc1a <__ssvfiscanf_r+0x72c>
2000cb22:	0ed6dcdb          	beqc	a3,45,2000cc1a <__ssvfiscanf_r+0x72c>
2000cb26:	0287715b          	bbc	a4,8,2000cb48 <__ssvfiscanf_r+0x65a>
2000cb2a:	01bcfd63          	bgeu	s9,s11,2000cb44 <__ssvfiscanf_r+0x656>
2000cb2e:	fffdc583          	lbu	a1,-1(s11)
2000cb32:	866a                	c.mv	a2,s10
2000cb34:	8552                	c.mv	a0,s4
2000cb36:	ce3a                	c.swsp	a4,28(sp)
2000cb38:	881ff0ef          	jal	ra,2000c3b8 <_sungetc_r>
2000cb3c:	fffd8413          	addi	s0,s11,-1
2000cb40:	4772                	c.lwsp	a4,28(sp)
2000cb42:	8da2                	c.mv	s11,s0
2000cb44:	bf9d81e3          	beq	s11,s9,2000c726 <__ssvfiscanf_r+0x238>
2000cb48:	ce3a                	c.swsp	a4,28(sp)
2000cb4a:	5047745b          	bbs	a4,4,2000cc52 <__ssvfiscanf_r+0x764>
2000cb4e:	86ce                	c.mv	a3,s3
2000cb50:	4601                	c.li	a2,0
2000cb52:	85e6                	c.mv	a1,s9
2000cb54:	8552                	c.mv	a0,s4
2000cb56:	000d8023          	sb	zero,0(s11)
2000cb5a:	9b02                	c.jalr	s6
2000cb5c:	4772                	c.lwsp	a4,28(sp)
2000cb5e:	00448413          	addi	s0,s1,4
2000cb62:	0e57715b          	bbc	a4,5,2000cc44 <__ssvfiscanf_r+0x756>
2000cb66:	4098                	c.lw	a4,0(s1)
2000cb68:	c308                	c.sw	a0,0(a4)
2000cb6a:	a0d5                	c.j	2000cc4e <__ssvfiscanf_r+0x760>
2000cb6c:	4386d55b          	beqc	a3,88,2000cb96 <__ssvfiscanf_r+0x6a8>
2000cb70:	00dee963          	bltu	t4,a3,2000cb82 <__ssvfiscanf_r+0x694>
2000cb74:	fbf68513          	addi	a0,a3,-65
2000cb78:	4f15                	c.li	t5,5
2000cb7a:	faaf66e3          	bltu	t5,a0,2000cb26 <__ssvfiscanf_r+0x638>
2000cb7e:	4529                	c.li	a0,10
2000cb80:	a851                	c.j	2000cc14 <__ssvfiscanf_r+0x726>
2000cb82:	06100513          	li	a0,97
2000cb86:	faa6e0e3          	bltu	a3,a0,2000cb26 <__ssvfiscanf_r+0x638>
2000cb8a:	06600513          	li	a0,102
2000cb8e:	fed578e3          	bgeu	a0,a3,2000cb7e <__ssvfiscanf_r+0x690>
2000cb92:	f986eadb          	bnec	a3,120,2000cb26 <__ssvfiscanf_r+0x638>
2000cb96:	60077513          	andi	a0,a4,1536
2000cb9a:	20000f13          	li	t5,512
2000cb9e:	f9e514e3          	bne	a0,t5,2000cb26 <__ssvfiscanf_r+0x638>
2000cba2:	dff77713          	andi	a4,a4,-513
2000cba6:	50076713          	ori	a4,a4,1280
2000cbaa:	49c1                	c.li	s3,16
2000cbac:	a829                	c.j	2000cbc6 <__ssvfiscanf_r+0x6d8>
2000cbae:	00677533          	and	a0,a4,t1
2000cbb2:	c911                	c.beqz	a0,2000cbc6 <__ssvfiscanf_r+0x6d8>
2000cbb4:	00099563          	bnez	s3,2000cbbe <__ssvfiscanf_r+0x6d0>
2000cbb8:	20076713          	ori	a4,a4,512
2000cbbc:	49a1                	c.li	s3,8
2000cbbe:	00a7785b          	bbc	a4,10,2000cbce <__ssvfiscanf_r+0x6e0>
2000cbc2:	a7f77713          	andi	a4,a4,-1409
2000cbc6:	00dd8023          	sb	a3,0(s11)
2000cbca:	0d85                	c.addi	s11,1
2000cbcc:	a809                	c.j	2000cbde <__ssvfiscanf_r+0x6f0>
2000cbce:	c7f77713          	andi	a4,a4,-897
2000cbd2:	c219                	c.beqz	a2,2000cbd8 <__ssvfiscanf_r+0x6ea>
2000cbd4:	167d                	c.addi	a2,-1
2000cbd6:	0c05                	c.addi	s8,1
2000cbd8:	47d2                	c.lwsp	a5,20(sp)
2000cbda:	0785                	c.addi	a5,1
2000cbdc:	ca3e                	c.swsp	a5,20(sp)
2000cbde:	004d2683          	lw	a3,4(s10)
2000cbe2:	16fd                	c.addi	a3,-1
2000cbe4:	00dd2223          	sw	a3,4(s10)
2000cbe8:	02d05e63          	blez	a3,2000cc24 <__ssvfiscanf_r+0x736>
2000cbec:	0585                	c.addi	a1,1
2000cbee:	00bd2023          	sw	a1,0(s10)
2000cbf2:	1c7d                	c.addi	s8,-1
2000cbf4:	f00c15e3          	bnez	s8,2000cafe <__ssvfiscanf_r+0x610>
2000cbf8:	b73d                	c.j	2000cb26 <__ssvfiscanf_r+0x638>
2000cbfa:	47e2                	c.lwsp	a5,24(sp)
2000cbfc:	0b3789db          	lea.h	s3,a5,s3
2000cc00:	00099983          	lh	s3,0(s3)
2000cc04:	8f61                	c.and	a4,s0
2000cc06:	b7c1                	c.j	2000cbc6 <__ssvfiscanf_r+0x6d8>
2000cc08:	47e2                	c.lwsp	a5,24(sp)
2000cc0a:	4521                	c.li	a0,8
2000cc0c:	0b3789db          	lea.h	s3,a5,s3
2000cc10:	00099983          	lh	s3,0(s3)
2000cc14:	ff3548e3          	blt	a0,s3,2000cc04 <__ssvfiscanf_r+0x716>
2000cc18:	b739                	c.j	2000cb26 <__ssvfiscanf_r+0x638>
2000cc1a:	b077765b          	bbc	a4,7,2000cb26 <__ssvfiscanf_r+0x638>
2000cc1e:	f7f77713          	andi	a4,a4,-129
2000cc22:	b755                	c.j	2000cbc6 <__ssvfiscanf_r+0x6d8>
2000cc24:	85ea                	c.mv	a1,s10
2000cc26:	8552                	c.mv	a0,s4
2000cc28:	d61a                	c.swsp	t1,44(sp)
2000cc2a:	d476                	c.swsp	t4,40(sp)
2000cc2c:	d272                	c.swsp	t3,36(sp)
2000cc2e:	d032                	c.swsp	a2,32(sp)
2000cc30:	ce3a                	c.swsp	a4,28(sp)
2000cc32:	813ff0ef          	jal	ra,2000c444 <__ssrefill_r>
2000cc36:	4772                	c.lwsp	a4,28(sp)
2000cc38:	5602                	c.lwsp	a2,32(sp)
2000cc3a:	5e12                	c.lwsp	t3,36(sp)
2000cc3c:	5ea2                	c.lwsp	t4,40(sp)
2000cc3e:	5332                	c.lwsp	t1,44(sp)
2000cc40:	d94d                	c.beqz	a0,2000cbf2 <__ssvfiscanf_r+0x704>
2000cc42:	b5d5                	c.j	2000cb26 <__ssvfiscanf_r+0x638>
2000cc44:	00277d5b          	bbc	a4,2,2000cc5e <__ssvfiscanf_r+0x770>
2000cc48:	4098                	c.lw	a4,0(s1)
2000cc4a:	00a71023          	sh	a0,0(a4)
2000cc4e:	0a85                	c.addi	s5,1
2000cc50:	84a2                	c.mv	s1,s0
2000cc52:	45d2                	c.lwsp	a1,20(sp)
2000cc54:	419d8cb3          	sub	s9,s11,s9
2000cc58:	00bc8db3          	add	s11,s9,a1
2000cc5c:	b59d                	c.j	2000cac2 <__ssvfiscanf_r+0x5d4>
2000cc5e:	f007745b          	bbs	a4,0,2000cb66 <__ssvfiscanf_r+0x678>
2000cc62:	b017725b          	bbc	a4,1,2000cb66 <__ssvfiscanf_r+0x678>
2000cc66:	45b2                	c.lwsp	a1,12(sp)
2000cc68:	86ce                	c.mv	a3,s3
2000cc6a:	4601                	c.li	a2,0
2000cc6c:	00bb1963          	bne	s6,a1,2000cc7e <__ssvfiscanf_r+0x790>
2000cc70:	85e6                	c.mv	a1,s9
2000cc72:	8552                	c.mv	a0,s4
2000cc74:	254d                	c.jal	2000d316 <_strtoull_r>
2000cc76:	4098                	c.lw	a4,0(s1)
2000cc78:	c308                	c.sw	a0,0(a4)
2000cc7a:	c34c                	c.sw	a1,4(a4)
2000cc7c:	bfc9                	c.j	2000cc4e <__ssvfiscanf_r+0x760>
2000cc7e:	85e6                	c.mv	a1,s9
2000cc80:	8552                	c.mv	a0,s4
2000cc82:	213d                	c.jal	2000d0b0 <_strtoll_r>
2000cc84:	bfcd                	c.j	2000cc76 <__ssvfiscanf_r+0x788>

2000cc86 <__submore>:
2000cc86:	026012ef          	jal	t0,2000dcac <__riscv_save_4>
2000cc8a:	842e                	c.mv	s0,a1
2000cc8c:	598c                	c.lw	a1,48(a1)
2000cc8e:	04040793          	addi	a5,s0,64
2000cc92:	02f59f63          	bne	a1,a5,2000ccd0 <__submore+0x4a>
2000cc96:	40000593          	li	a1,1024
2000cc9a:	b37fe0ef          	jal	ra,2000b7d0 <_malloc_r>
2000cc9e:	e501                	c.bnez	a0,2000cca6 <__submore+0x20>
2000cca0:	557d                	c.li	a0,-1
2000cca2:	03e0106f          	j	2000dce0 <__riscv_restore_4>
2000cca6:	40000793          	li	a5,1024
2000ccaa:	d85c                	c.sw	a5,52(s0)
2000ccac:	04244783          	lbu	a5,66(s0)
2000ccb0:	d808                	c.sw	a0,48(s0)
2000ccb2:	3ef50fa3          	sb	a5,1023(a0)
2000ccb6:	04144783          	lbu	a5,65(s0)
2000ccba:	3fd50513          	addi	a0,a0,1021
2000ccbe:	00f500a3          	sb	a5,1(a0)
2000ccc2:	04044783          	lbu	a5,64(s0)
2000ccc6:	00f50023          	sb	a5,0(a0)
2000ccca:	c008                	c.sw	a0,0(s0)
2000cccc:	4501                	c.li	a0,0
2000ccce:	bfd1                	c.j	2000cca2 <__submore+0x1c>
2000ccd0:	03442903          	lw	s2,52(s0)
2000ccd4:	00191993          	slli	s3,s2,0x1
2000ccd8:	864e                	c.mv	a2,s3
2000ccda:	28d9                	c.jal	2000cdb0 <_realloc_r>
2000ccdc:	84aa                	c.mv	s1,a0
2000ccde:	d169                	c.beqz	a0,2000cca0 <__submore+0x1a>
2000cce0:	01250a33          	add	s4,a0,s2
2000cce4:	85aa                	c.mv	a1,a0
2000cce6:	864a                	c.mv	a2,s2
2000cce8:	8552                	c.mv	a0,s4
2000ccea:	8eefe0ef          	jal	ra,2000add8 <memcpy>
2000ccee:	01442023          	sw	s4,0(s0)
2000ccf2:	d804                	c.sw	s1,48(s0)
2000ccf4:	03342a23          	sw	s3,52(s0)
2000ccf8:	bfd1                	c.j	2000cccc <__submore+0x46>

2000ccfa <__env_lock>:
2000ccfa:	8082                	c.jr	ra

2000ccfc <__env_unlock>:
2000ccfc:	8082                	c.jr	ra

2000ccfe <iswspace>:
2000ccfe:	0ff00793          	li	a5,255
2000cd02:	00a7e963          	bltu	a5,a0,2000cd14 <iswspace+0x16>
2000cd06:	8affa7ab          	lwgp	a5,-1876 # 800ac <__ctype_ptr__>
2000cd0a:	953e                	c.add	a0,a5
2000cd0c:	00150503          	lb	a0,1(a0)
2000cd10:	8921                	c.andi	a0,8
2000cd12:	8082                	c.jr	ra
2000cd14:	4501                	c.li	a0,0
2000cd16:	8082                	c.jr	ra

2000cd18 <__locale_charset>:
2000cd18:	855f950b          	addigp	a0,-1964 # 80054 <lc_ctype_charset>
2000cd1c:	8082                	c.jr	ra

2000cd1e <__locale_mb_cur_max>:
2000cd1e:	8b7fa52b          	lwgp	a0,-1868 # 800b4 <__mb_cur_max>
2000cd22:	8082                	c.jr	ra

2000cd24 <_mbrtowc_r>:
2000cd24:	7a3002ef          	jal	t0,2000dcc6 <__riscv_save_0>
2000cd28:	1141                	c.addi	sp,-16
2000cd2a:	892a                	c.mv	s2,a0
2000cd2c:	843a                	c.mv	s0,a4
2000cd2e:	8bbfa4ab          	lwgp	s1,-1864 # 800b8 <__mbtowc>
2000cd32:	ea05                	c.bnez	a2,2000cd62 <_mbrtowc_r+0x3e>
2000cd34:	37d5                	c.jal	2000cd18 <__locale_charset>
2000cd36:	2000e637          	lui	a2,0x2000e
2000cd3a:	87a2                	c.mv	a5,s0
2000cd3c:	872a                	c.mv	a4,a0
2000cd3e:	4685                	c.li	a3,1
2000cd40:	f7060613          	addi	a2,a2,-144 # 2000df70 <cmd_length_array+0x6c>
2000cd44:	4581                	c.li	a1,0
2000cd46:	854a                	c.mv	a0,s2
2000cd48:	9482                	c.jalr	s1
2000cd4a:	57fd                	c.li	a5,-1
2000cd4c:	00f51863          	bne	a0,a5,2000cd5c <_mbrtowc_r+0x38>
2000cd50:	00042023          	sw	zero,0(s0)
2000cd54:	08a00713          	li	a4,138
2000cd58:	8eefcdab          	swgp	a4,-1800 # 800f8 <__mculib_REENT_errno>
2000cd5c:	0141                	c.addi	sp,16
2000cd5e:	78d0006f          	j	2000dcea <__riscv_restore_0>
2000cd62:	c636                	c.swsp	a3,12(sp)
2000cd64:	c432                	c.swsp	a2,8(sp)
2000cd66:	c22e                	c.swsp	a1,4(sp)
2000cd68:	3f45                	c.jal	2000cd18 <__locale_charset>
2000cd6a:	87a2                	c.mv	a5,s0
2000cd6c:	872a                	c.mv	a4,a0
2000cd6e:	46b2                	c.lwsp	a3,12(sp)
2000cd70:	4622                	c.lwsp	a2,8(sp)
2000cd72:	4592                	c.lwsp	a1,4(sp)
2000cd74:	bfc9                	c.j	2000cd46 <_mbrtowc_r+0x22>

2000cd76 <__ascii_mbtowc>:
2000cd76:	e185                	c.bnez	a1,2000cd96 <__ascii_mbtowc+0x20>
2000cd78:	1141                	c.addi	sp,-16
2000cd7a:	006c                	c.addi4spn	a1,sp,12
2000cd7c:	4501                	c.li	a0,0
2000cd7e:	ca11                	c.beqz	a2,2000cd92 <__ascii_mbtowc+0x1c>
2000cd80:	5579                	c.li	a0,-2
2000cd82:	ca81                	c.beqz	a3,2000cd92 <__ascii_mbtowc+0x1c>
2000cd84:	00064783          	lbu	a5,0(a2)
2000cd88:	c19c                	c.sw	a5,0(a1)
2000cd8a:	00064503          	lbu	a0,0(a2)
2000cd8e:	00a03533          	snez	a0,a0
2000cd92:	0141                	c.addi	sp,16
2000cd94:	8082                	c.jr	ra
2000cd96:	4501                	c.li	a0,0
2000cd98:	ca19                	c.beqz	a2,2000cdae <__ascii_mbtowc+0x38>
2000cd9a:	5579                	c.li	a0,-2
2000cd9c:	ca89                	c.beqz	a3,2000cdae <__ascii_mbtowc+0x38>
2000cd9e:	00064783          	lbu	a5,0(a2)
2000cda2:	c19c                	c.sw	a5,0(a1)
2000cda4:	00064503          	lbu	a0,0(a2)
2000cda8:	00a03533          	snez	a0,a0
2000cdac:	8082                	c.jr	ra
2000cdae:	8082                	c.jr	ra

2000cdb0 <_realloc_r>:
2000cdb0:	717002ef          	jal	t0,2000dcc6 <__riscv_save_0>
2000cdb4:	1141                	c.addi	sp,-16
2000cdb6:	e989                	c.bnez	a1,2000cdc8 <_realloc_r+0x18>
2000cdb8:	85b2                	c.mv	a1,a2
2000cdba:	a17fe0ef          	jal	ra,2000b7d0 <_malloc_r>
2000cdbe:	842a                	c.mv	s0,a0
2000cdc0:	8522                	c.mv	a0,s0
2000cdc2:	0141                	c.addi	sp,16
2000cdc4:	7270006f          	j	2000dcea <__riscv_restore_0>
2000cdc8:	e609                	c.bnez	a2,2000cdd2 <_realloc_r+0x22>
2000cdca:	977fe0ef          	jal	ra,2000b740 <_free_r>
2000cdce:	4401                	c.li	s0,0
2000cdd0:	bfc5                	c.j	2000cdc0 <_realloc_r+0x10>
2000cdd2:	84ae                	c.mv	s1,a1
2000cdd4:	c632                	c.swsp	a2,12(sp)
2000cdd6:	892a                	c.mv	s2,a0
2000cdd8:	2d59                	c.jal	2000d46e <_malloc_usable_size_r>
2000cdda:	4632                	c.lwsp	a2,12(sp)
2000cddc:	8426                	c.mv	s0,s1
2000cdde:	fec571e3          	bgeu	a0,a2,2000cdc0 <_realloc_r+0x10>
2000cde2:	85b2                	c.mv	a1,a2
2000cde4:	854a                	c.mv	a0,s2
2000cde6:	9ebfe0ef          	jal	ra,2000b7d0 <_malloc_r>
2000cdea:	842a                	c.mv	s0,a0
2000cdec:	d971                	c.beqz	a0,2000cdc0 <_realloc_r+0x10>
2000cdee:	4632                	c.lwsp	a2,12(sp)
2000cdf0:	85a6                	c.mv	a1,s1
2000cdf2:	fe7fd0ef          	jal	ra,2000add8 <memcpy>
2000cdf6:	85a6                	c.mv	a1,s1
2000cdf8:	854a                	c.mv	a0,s2
2000cdfa:	947fe0ef          	jal	ra,2000b740 <_free_r>
2000cdfe:	b7c9                	c.j	2000cdc0 <_realloc_r+0x10>

2000ce00 <__sccl>:
2000ce00:	0005c783          	lbu	a5,0(a1)
2000ce04:	45e7d25b          	beqc	a5,94,2000ce48 <__sccl+0x48>
2000ce08:	00158713          	addi	a4,a1,1
2000ce0c:	4681                	c.li	a3,0
2000ce0e:	862a                	c.mv	a2,a0
2000ce10:	10050593          	addi	a1,a0,256
2000ce14:	00d60023          	sb	a3,0(a2)
2000ce18:	0605                	c.addi	a2,1
2000ce1a:	feb61de3          	bne	a2,a1,2000ce14 <__sccl+0x14>
2000ce1e:	0016c693          	xori	a3,a3,1
2000ce22:	fff70613          	addi	a2,a4,-1
2000ce26:	cf99                	c.beqz	a5,2000ce44 <__sccl+0x44>
2000ce28:	00f50633          	add	a2,a0,a5
2000ce2c:	00d60023          	sb	a3,0(a2)
2000ce30:	00170613          	addi	a2,a4,1
2000ce34:	00074583          	lbu	a1,0(a4)
2000ce38:	02d5d4db          	beqc	a1,45,2000ce60 <__sccl+0x60>
2000ce3c:	41d5d45b          	beqc	a1,93,2000ce44 <__sccl+0x44>
2000ce40:	e991                	c.bnez	a1,2000ce54 <__sccl+0x54>
2000ce42:	863a                	c.mv	a2,a4
2000ce44:	8532                	c.mv	a0,a2
2000ce46:	8082                	c.jr	ra
2000ce48:	00258713          	addi	a4,a1,2
2000ce4c:	0015c783          	lbu	a5,1(a1)
2000ce50:	4685                	c.li	a3,1
2000ce52:	bf75                	c.j	2000ce0e <__sccl+0xe>
2000ce54:	87ae                	c.mv	a5,a1
2000ce56:	8732                	c.mv	a4,a2
2000ce58:	bfc1                	c.j	2000ce28 <__sccl+0x28>
2000ce5a:	02d00793          	li	a5,45
2000ce5e:	bfe5                	c.j	2000ce56 <__sccl+0x56>
2000ce60:	00174583          	lbu	a1,1(a4)
2000ce64:	ffd5db5b          	beqc	a1,93,2000ce5a <__sccl+0x5a>
2000ce68:	fef5c9e3          	blt	a1,a5,2000ce5a <__sccl+0x5a>
2000ce6c:	0709                	c.addi	a4,2
2000ce6e:	0785                	c.addi	a5,1
2000ce70:	00f50633          	add	a2,a0,a5
2000ce74:	00d60023          	sb	a3,0(a2)
2000ce78:	feb7cbe3          	blt	a5,a1,2000ce6e <__sccl+0x6e>
2000ce7c:	bf55                	c.j	2000ce30 <__sccl+0x30>

2000ce7e <strtol_common>:
2000ce7e:	619002ef          	jal	t0,2000dc96 <__riscv_save_12>
2000ce82:	8b2a                	c.mv	s6,a0
2000ce84:	8bae                	c.mv	s7,a1
2000ce86:	89b2                	c.mv	s3,a2
2000ce88:	8c36                	c.mv	s8,a3
2000ce8a:	84aa                	c.mv	s1,a0
2000ce8c:	00148913          	addi	s2,s1,1
2000ce90:	fff94403          	lbu	s0,-1(s2)
2000ce94:	8522                	c.mv	a0,s0
2000ce96:	2511                	c.jal	2000d49a <nds_isspace>
2000ce98:	8d2a                	c.mv	s10,a0
2000ce9a:	e92d                	c.bnez	a0,2000cf0c <strtol_common+0x8e>
2000ce9c:	06d46adb          	bnec	s0,45,2000cf10 <strtol_common+0x92>
2000cea0:	0014c403          	lbu	s0,1(s1)
2000cea4:	00248913          	addi	s2,s1,2
2000cea8:	4d85                	c.li	s11,1
2000ceaa:	0e098d63          	beqz	s3,2000cfa4 <strtol_common+0x126>
2000ceae:	0109ee5b          	bnec	s3,16,2000ceca <strtol_common+0x4c>
2000ceb2:	01046cdb          	bnec	s0,48,2000ceca <strtol_common+0x4c>
2000ceb6:	00090783          	lb	a5,0(s2)
2000ceba:	0df7f793          	andi	a5,a5,223
2000cebe:	4d87ed5b          	bnec	a5,88,2000cf98 <strtol_common+0x11a>
2000cec2:	00194403          	lbu	s0,1(s2)
2000cec6:	49c1                	c.li	s3,16
2000cec8:	0909                	c.addi	s2,2
2000ceca:	040c0c63          	beqz	s8,2000cf22 <strtol_common+0xa4>
2000cece:	5afd                	c.li	s5,-1
2000ced0:	033ada33          	divu	s4,s5,s3
2000ced4:	033afab3          	remu	s5,s5,s3
2000ced8:	4481                	c.li	s1,0
2000ceda:	5cfd                	c.li	s9,-1
2000cedc:	8522                	c.mv	a0,s0
2000cede:	2b4d                	c.jal	2000d490 <nds_isdigit>
2000cee0:	cd29                	c.beqz	a0,2000cf3a <strtol_common+0xbc>
2000cee2:	fd040413          	addi	s0,s0,-48
2000cee6:	07345663          	bge	s0,s3,2000cf52 <strtol_common+0xd4>
2000ceea:	019d0d63          	beq	s10,s9,2000cf04 <strtol_common+0x86>
2000ceee:	5d7d                	c.li	s10,-1
2000cef0:	009a6a63          	bltu	s4,s1,2000cf04 <strtol_common+0x86>
2000cef4:	01449463          	bne	s1,s4,2000cefc <strtol_common+0x7e>
2000cef8:	008ac663          	blt	s5,s0,2000cf04 <strtol_common+0x86>
2000cefc:	4d05                	c.li	s10,1
2000cefe:	033484b3          	mul	s1,s1,s3
2000cf02:	94a2                	c.add	s1,s0
2000cf04:	0905                	c.addi	s2,1
2000cf06:	fff94403          	lbu	s0,-1(s2)
2000cf0a:	bfc9                	c.j	2000cedc <strtol_common+0x5e>
2000cf0c:	84ca                	c.mv	s1,s2
2000cf0e:	bfbd                	c.j	2000ce8c <strtol_common+0xe>
2000cf10:	4d81                	c.li	s11,0
2000cf12:	b8b46cdb          	bnec	s0,43,2000ceaa <strtol_common+0x2c>
2000cf16:	00248913          	addi	s2,s1,2
2000cf1a:	0014c403          	lbu	s0,1(s1)
2000cf1e:	8daa                	c.mv	s11,a0
2000cf20:	b769                	c.j	2000ceaa <strtol_common+0x2c>
2000cf22:	80000a37          	lui	s4,0x80000
2000cf26:	000d8763          	beqz	s11,2000cf34 <strtol_common+0xb6>
2000cf2a:	033a7ab3          	remu	s5,s4,s3
2000cf2e:	033a5a33          	divu	s4,s4,s3
2000cf32:	b75d                	c.j	2000ced8 <strtol_common+0x5a>
2000cf34:	fffa4a13          	not	s4,s4
2000cf38:	bfcd                	c.j	2000cf2a <strtol_common+0xac>
2000cf3a:	8522                	c.mv	a0,s0
2000cf3c:	2399                	c.jal	2000d482 <nds_isalpha>
2000cf3e:	c911                	c.beqz	a0,2000cf52 <strtol_common+0xd4>
2000cf40:	8522                	c.mv	a0,s0
2000cf42:	23a5                	c.jal	2000d4aa <nds_isupper>
2000cf44:	05700793          	li	a5,87
2000cf48:	c119                	c.beqz	a0,2000cf4e <strtol_common+0xd0>
2000cf4a:	03700793          	li	a5,55
2000cf4e:	8c1d                	c.sub	s0,a5
2000cf50:	bf59                	c.j	2000cee6 <strtol_common+0x68>
2000cf52:	57fd                	c.li	a5,-1
2000cf54:	02fd1563          	bne	s10,a5,2000cf7e <strtol_common+0x100>
2000cf58:	54fd                	c.li	s1,-1
2000cf5a:	000c1663          	bnez	s8,2000cf66 <strtol_common+0xe8>
2000cf5e:	800004b7          	lui	s1,0x80000
2000cf62:	000d8b63          	beqz	s11,2000cf78 <strtol_common+0xfa>
2000cf66:	02200713          	li	a4,34
2000cf6a:	8eefcdab          	swgp	a4,-1800 # 800f8 <__mculib_REENT_errno>
2000cf6e:	020b9063          	bnez	s7,2000cf8e <strtol_common+0x110>
2000cf72:	8526                	c.mv	a0,s1
2000cf74:	55f0006f          	j	2000dcd2 <__riscv_restore_12>
2000cf78:	fff4c493          	not	s1,s1
2000cf7c:	b7ed                	c.j	2000cf66 <strtol_common+0xe8>
2000cf7e:	000d8463          	beqz	s11,2000cf86 <strtol_common+0x108>
2000cf82:	409004b3          	neg	s1,s1
2000cf86:	fe0b86e3          	beqz	s7,2000cf72 <strtol_common+0xf4>
2000cf8a:	000d0463          	beqz	s10,2000cf92 <strtol_common+0x114>
2000cf8e:	fff90b13          	addi	s6,s2,-1
2000cf92:	016ba023          	sw	s6,0(s7)
2000cf96:	bff1                	c.j	2000cf72 <strtol_common+0xf4>
2000cf98:	03000413          	li	s0,48
2000cf9c:	f20997e3          	bnez	s3,2000ceca <strtol_common+0x4c>
2000cfa0:	49a1                	c.li	s3,8
2000cfa2:	b725                	c.j	2000ceca <strtol_common+0x4c>
2000cfa4:	b10459db          	beqc	s0,48,2000ceb6 <strtol_common+0x38>
2000cfa8:	49a9                	c.li	s3,10
2000cfaa:	b705                	c.j	2000ceca <strtol_common+0x4c>

2000cfac <_strtol_r>:
2000cfac:	8affaeab          	lwgp	t4,-1876 # 800ac <__ctype_ptr__>
2000cfb0:	852e                	c.mv	a0,a1
2000cfb2:	00150713          	addi	a4,a0,1
2000cfb6:	fff74783          	lbu	a5,-1(a4)
2000cfba:	00fe8833          	add	a6,t4,a5
2000cfbe:	00180803          	lb	a6,1(a6)
2000cfc2:	4838705b          	bbs	a6,3,2000d042 <_strtol_r+0x96>
2000cfc6:	08d7e0db          	bnec	a5,45,2000d046 <_strtol_r+0x9a>
2000cfca:	00154783          	lbu	a5,1(a0)
2000cfce:	00250713          	addi	a4,a0,2
2000cfd2:	4e05                	c.li	t3,1
2000cfd4:	cae9                	c.beqz	a3,2000d0a6 <_strtol_r+0xfa>
2000cfd6:	0106ee5b          	bnec	a3,16,2000cff2 <_strtol_r+0x46>
2000cfda:	0107ecdb          	bnec	a5,48,2000cff2 <_strtol_r+0x46>
2000cfde:	00070783          	lb	a5,0(a4)
2000cfe2:	0df7f793          	andi	a5,a5,223
2000cfe6:	4b87eb5b          	bnec	a5,88,2000d09c <_strtol_r+0xf0>
2000cfea:	00174783          	lbu	a5,1(a4)
2000cfee:	46c1                	c.li	a3,16
2000cff0:	0709                	c.addi	a4,2
2000cff2:	800008b7          	lui	a7,0x80000
2000cff6:	000e1463          	bnez	t3,2000cffe <_strtol_r+0x52>
2000cffa:	fff8c893          	not	a7,a7
2000cffe:	02d8f2b3          	remu	t0,a7,a3
2000d002:	4801                	c.li	a6,0
2000d004:	4501                	c.li	a0,0
2000d006:	53fd                	c.li	t2,-1
2000d008:	02d8df33          	divu	t5,a7,a3
2000d00c:	00fe8333          	add	t1,t4,a5
2000d010:	00134303          	lbu	t1,1(t1)
2000d014:	0423725b          	bbc	t1,2,2000d058 <_strtol_r+0xac>
2000d018:	fd078793          	addi	a5,a5,-48
2000d01c:	04d7db63          	bge	a5,a3,2000d072 <_strtol_r+0xc6>
2000d020:	00780d63          	beq	a6,t2,2000d03a <_strtol_r+0x8e>
2000d024:	587d                	c.li	a6,-1
2000d026:	00af6a63          	bltu	t5,a0,2000d03a <_strtol_r+0x8e>
2000d02a:	01e51463          	bne	a0,t5,2000d032 <_strtol_r+0x86>
2000d02e:	00f2c663          	blt	t0,a5,2000d03a <_strtol_r+0x8e>
2000d032:	4805                	c.li	a6,1
2000d034:	02a68533          	mul	a0,a3,a0
2000d038:	953e                	c.add	a0,a5
2000d03a:	0705                	c.addi	a4,1
2000d03c:	fff74783          	lbu	a5,-1(a4)
2000d040:	b7f1                	c.j	2000d00c <_strtol_r+0x60>
2000d042:	853a                	c.mv	a0,a4
2000d044:	b7bd                	c.j	2000cfb2 <_strtol_r+0x6>
2000d046:	00b7d4db          	beqc	a5,43,2000d04e <_strtol_r+0xa2>
2000d04a:	4e01                	c.li	t3,0
2000d04c:	b761                	c.j	2000cfd4 <_strtol_r+0x28>
2000d04e:	00250713          	addi	a4,a0,2
2000d052:	00154783          	lbu	a5,1(a0)
2000d056:	bfd5                	c.j	2000d04a <_strtol_r+0x9e>
2000d058:	00337313          	andi	t1,t1,3
2000d05c:	00030b63          	beqz	t1,2000d072 <_strtol_r+0xc6>
2000d060:	03700f93          	li	t6,55
2000d064:	0013545b          	beqc	t1,1,2000d06c <_strtol_r+0xc0>
2000d068:	05700f93          	li	t6,87
2000d06c:	41f787b3          	sub	a5,a5,t6
2000d070:	b775                	c.j	2000d01c <_strtol_r+0x70>
2000d072:	57fd                	c.li	a5,-1
2000d074:	00f81963          	bne	a6,a5,2000d086 <_strtol_r+0xda>
2000d078:	02200693          	li	a3,34
2000d07c:	8edfcdab          	swgp	a3,-1800 # 800f8 <__mculib_REENT_errno>
2000d080:	8546                	c.mv	a0,a7
2000d082:	ea09                	c.bnez	a2,2000d094 <_strtol_r+0xe8>
2000d084:	8082                	c.jr	ra
2000d086:	000e0463          	beqz	t3,2000d08e <_strtol_r+0xe2>
2000d08a:	40a00533          	neg	a0,a0
2000d08e:	c205                	c.beqz	a2,2000d0ae <_strtol_r+0x102>
2000d090:	00080463          	beqz	a6,2000d098 <_strtol_r+0xec>
2000d094:	fff70593          	addi	a1,a4,-1
2000d098:	c20c                	c.sw	a1,0(a2)
2000d09a:	8082                	c.jr	ra
2000d09c:	03000793          	li	a5,48
2000d0a0:	faa9                	c.bnez	a3,2000cff2 <_strtol_r+0x46>
2000d0a2:	46a1                	c.li	a3,8
2000d0a4:	b7b9                	c.j	2000cff2 <_strtol_r+0x46>
2000d0a6:	b307dcdb          	beqc	a5,48,2000cfde <_strtol_r+0x32>
2000d0aa:	46a9                	c.li	a3,10
2000d0ac:	b799                	c.j	2000cff2 <_strtol_r+0x46>
2000d0ae:	8082                	c.jr	ra

2000d0b0 <_strtoll_r>:
2000d0b0:	3ef002ef          	jal	t0,2000dc9e <__riscv_save_10>
2000d0b4:	8affacab          	lwgp	s9,-1876 # 800ac <__ctype_ptr__>
2000d0b8:	8b2e                	c.mv	s6,a1
2000d0ba:	8bb2                	c.mv	s7,a2
2000d0bc:	84b6                	c.mv	s1,a3
2000d0be:	87ae                	c.mv	a5,a1
2000d0c0:	00178913          	addi	s2,a5,1
2000d0c4:	fff94403          	lbu	s0,-1(s2)
2000d0c8:	008c8733          	add	a4,s9,s0
2000d0cc:	00170703          	lb	a4,1(a4)
2000d0d0:	4c37775b          	bbs	a4,3,2000d19e <_strtoll_r+0xee>
2000d0d4:	0cd467db          	bnec	s0,45,2000d1a2 <_strtoll_r+0xf2>
2000d0d8:	0017c403          	lbu	s0,1(a5)
2000d0dc:	00278913          	addi	s2,a5,2
2000d0e0:	4a85                	c.li	s5,1
2000d0e2:	12048963          	beqz	s1,2000d214 <_strtoll_r+0x164>
2000d0e6:	0104ee5b          	bnec	s1,16,2000d102 <_strtoll_r+0x52>
2000d0ea:	01046cdb          	bnec	s0,48,2000d102 <_strtoll_r+0x52>
2000d0ee:	00090783          	lb	a5,0(s2)
2000d0f2:	0df7f793          	andi	a5,a5,223
2000d0f6:	5187e95b          	bnec	a5,88,2000d208 <_strtoll_r+0x158>
2000d0fa:	00194403          	lbu	s0,1(s2)
2000d0fe:	44c1                	c.li	s1,16
2000d100:	0909                	c.addi	s2,2
2000d102:	4a01                	c.li	s4,0
2000d104:	800009b7          	lui	s3,0x80000
2000d108:	000a9563          	bnez	s5,2000d112 <_strtoll_r+0x62>
2000d10c:	5a7d                	c.li	s4,-1
2000d10e:	fff9c993          	not	s3,s3
2000d112:	41f4dc13          	srai	s8,s1,0x1f
2000d116:	8626                	c.mv	a2,s1
2000d118:	86e2                	c.mv	a3,s8
2000d11a:	8552                	c.mv	a0,s4
2000d11c:	85ce                	c.mv	a1,s3
2000d11e:	7da000ef          	jal	ra,2000d8f8 <__umoddi3>
2000d122:	8626                	c.mv	a2,s1
2000d124:	86e2                	c.mv	a3,s8
2000d126:	8d2a                	c.mv	s10,a0
2000d128:	85ce                	c.mv	a1,s3
2000d12a:	8552                	c.mv	a0,s4
2000d12c:	2901                	c.jal	2000d53c <__udivdi3>
2000d12e:	4681                	c.li	a3,0
2000d130:	882a                	c.mv	a6,a0
2000d132:	862e                	c.mv	a2,a1
2000d134:	4501                	c.li	a0,0
2000d136:	4581                	c.li	a1,0
2000d138:	58fd                	c.li	a7,-1
2000d13a:	008c87b3          	add	a5,s9,s0
2000d13e:	0017c703          	lbu	a4,1(a5)
2000d142:	0627795b          	bbc	a4,2,2000d1b4 <_strtoll_r+0x104>
2000d146:	fd040413          	addi	s0,s0,-48
2000d14a:	08945163          	bge	s0,s1,2000d1cc <_strtoll_r+0x11c>
2000d14e:	05168463          	beq	a3,a7,2000d196 <_strtoll_r+0xe6>
2000d152:	06b66b63          	bltu	a2,a1,2000d1c8 <_strtoll_r+0x118>
2000d156:	00c59463          	bne	a1,a2,2000d15e <_strtoll_r+0xae>
2000d15a:	06a86763          	bltu	a6,a0,2000d1c8 <_strtoll_r+0x118>
2000d15e:	01051763          	bne	a0,a6,2000d16c <_strtoll_r+0xbc>
2000d162:	00c59563          	bne	a1,a2,2000d16c <_strtoll_r+0xbc>
2000d166:	56fd                	c.li	a3,-1
2000d168:	028d4763          	blt	s10,s0,2000d196 <_strtoll_r+0xe6>
2000d16c:	02ac07b3          	mul	a5,s8,a0
2000d170:	02958733          	mul	a4,a1,s1
2000d174:	02a486b3          	mul	a3,s1,a0
2000d178:	00e785b3          	add	a1,a5,a4
2000d17c:	41f45793          	srai	a5,s0,0x1f
2000d180:	02a4b533          	mulhu	a0,s1,a0
2000d184:	95aa                	c.add	a1,a0
2000d186:	00d40533          	add	a0,s0,a3
2000d18a:	00853433          	sltu	s0,a0,s0
2000d18e:	97ae                	c.add	a5,a1
2000d190:	00f405b3          	add	a1,s0,a5
2000d194:	4685                	c.li	a3,1
2000d196:	0905                	c.addi	s2,1
2000d198:	fff94403          	lbu	s0,-1(s2)
2000d19c:	bf79                	c.j	2000d13a <_strtoll_r+0x8a>
2000d19e:	87ca                	c.mv	a5,s2
2000d1a0:	b705                	c.j	2000d0c0 <_strtoll_r+0x10>
2000d1a2:	00b454db          	beqc	s0,43,2000d1aa <_strtoll_r+0xfa>
2000d1a6:	4a81                	c.li	s5,0
2000d1a8:	bf2d                	c.j	2000d0e2 <_strtoll_r+0x32>
2000d1aa:	00278913          	addi	s2,a5,2
2000d1ae:	0017c403          	lbu	s0,1(a5)
2000d1b2:	bfd5                	c.j	2000d1a6 <_strtoll_r+0xf6>
2000d1b4:	8b0d                	c.andi	a4,3
2000d1b6:	cb19                	c.beqz	a4,2000d1cc <_strtoll_r+0x11c>
2000d1b8:	03700793          	li	a5,55
2000d1bc:	0017545b          	beqc	a4,1,2000d1c4 <_strtoll_r+0x114>
2000d1c0:	05700793          	li	a5,87
2000d1c4:	8c1d                	c.sub	s0,a5
2000d1c6:	b751                	c.j	2000d14a <_strtoll_r+0x9a>
2000d1c8:	56fd                	c.li	a3,-1
2000d1ca:	b7f1                	c.j	2000d196 <_strtoll_r+0xe6>
2000d1cc:	57fd                	c.li	a5,-1
2000d1ce:	00f69c63          	bne	a3,a5,2000d1e6 <_strtoll_r+0x136>
2000d1d2:	02200713          	li	a4,34
2000d1d6:	8eefcdab          	swgp	a4,-1800 # 800f8 <__mculib_REENT_errno>
2000d1da:	8552                	c.mv	a0,s4
2000d1dc:	85ce                	c.mv	a1,s3
2000d1de:	020b9063          	bnez	s7,2000d1fe <_strtoll_r+0x14e>
2000d1e2:	2f50006f          	j	2000dcd6 <__riscv_restore_10>
2000d1e6:	000a8963          	beqz	s5,2000d1f8 <_strtoll_r+0x148>
2000d1ea:	40a00533          	neg	a0,a0
2000d1ee:	00a037b3          	snez	a5,a0
2000d1f2:	40b005b3          	neg	a1,a1
2000d1f6:	8d9d                	c.sub	a1,a5
2000d1f8:	fe0b85e3          	beqz	s7,2000d1e2 <_strtoll_r+0x132>
2000d1fc:	c299                	c.beqz	a3,2000d202 <_strtoll_r+0x152>
2000d1fe:	fff90b13          	addi	s6,s2,-1
2000d202:	016ba023          	sw	s6,0(s7)
2000d206:	bff1                	c.j	2000d1e2 <_strtoll_r+0x132>
2000d208:	03000413          	li	s0,48
2000d20c:	ee049be3          	bnez	s1,2000d102 <_strtoll_r+0x52>
2000d210:	44a1                	c.li	s1,8
2000d212:	bdc5                	c.j	2000d102 <_strtoll_r+0x52>
2000d214:	ad045ddb          	beqc	s0,48,2000d0ee <_strtoll_r+0x3e>
2000d218:	44a9                	c.li	s1,10
2000d21a:	b5e5                	c.j	2000d102 <_strtoll_r+0x52>

2000d21c <_strtoul_r>:
2000d21c:	8affaeab          	lwgp	t4,-1876 # 800ac <__ctype_ptr__>
2000d220:	852e                	c.mv	a0,a1
2000d222:	00150713          	addi	a4,a0,1
2000d226:	fff74783          	lbu	a5,-1(a4)
2000d22a:	00fe8833          	add	a6,t4,a5
2000d22e:	00180803          	lb	a6,1(a6)
2000d232:	46387a5b          	bbs	a6,3,2000d2a6 <_strtoul_r+0x8a>
2000d236:	06d7eadb          	bnec	a5,45,2000d2aa <_strtoul_r+0x8e>
2000d23a:	00154783          	lbu	a5,1(a0)
2000d23e:	00250713          	addi	a4,a0,2
2000d242:	4e05                	c.li	t3,1
2000d244:	c6e1                	c.beqz	a3,2000d30c <_strtoul_r+0xf0>
2000d246:	0106ee5b          	bnec	a3,16,2000d262 <_strtoul_r+0x46>
2000d24a:	0107ecdb          	bnec	a5,48,2000d262 <_strtoul_r+0x46>
2000d24e:	00070783          	lb	a5,0(a4)
2000d252:	0df7f793          	andi	a5,a5,223
2000d256:	4b87e65b          	bnec	a5,88,2000d302 <_strtoul_r+0xe6>
2000d25a:	00174783          	lbu	a5,1(a4)
2000d25e:	46c1                	c.li	a3,16
2000d260:	0709                	c.addi	a4,2
2000d262:	557d                	c.li	a0,-1
2000d264:	02d55f33          	divu	t5,a0,a3
2000d268:	4801                	c.li	a6,0
2000d26a:	02d57333          	remu	t1,a0,a3
2000d26e:	4501                	c.li	a0,0
2000d270:	00fe88b3          	add	a7,t4,a5
2000d274:	0018c883          	lbu	a7,1(a7) # 80000001 <_DATA_LMA_START+0x5fff18cd>
2000d278:	0428f25b          	bbc	a7,2,2000d2bc <_strtoul_r+0xa0>
2000d27c:	fd078793          	addi	a5,a5,-48
2000d280:	04d7dd63          	bge	a5,a3,2000d2da <_strtoul_r+0xbe>
2000d284:	04084963          	bltz	a6,2000d2d6 <_strtoul_r+0xba>
2000d288:	587d                	c.li	a6,-1
2000d28a:	00af6a63          	bltu	t5,a0,2000d29e <_strtoul_r+0x82>
2000d28e:	01e51463          	bne	a0,t5,2000d296 <_strtoul_r+0x7a>
2000d292:	00f34663          	blt	t1,a5,2000d29e <_strtoul_r+0x82>
2000d296:	4805                	c.li	a6,1
2000d298:	02a68533          	mul	a0,a3,a0
2000d29c:	953e                	c.add	a0,a5
2000d29e:	0705                	c.addi	a4,1
2000d2a0:	fff74783          	lbu	a5,-1(a4)
2000d2a4:	b7f1                	c.j	2000d270 <_strtoul_r+0x54>
2000d2a6:	853a                	c.mv	a0,a4
2000d2a8:	bfad                	c.j	2000d222 <_strtoul_r+0x6>
2000d2aa:	00b7d4db          	beqc	a5,43,2000d2b2 <_strtoul_r+0x96>
2000d2ae:	4e01                	c.li	t3,0
2000d2b0:	bf51                	c.j	2000d244 <_strtoul_r+0x28>
2000d2b2:	00250713          	addi	a4,a0,2
2000d2b6:	00154783          	lbu	a5,1(a0)
2000d2ba:	bfd5                	c.j	2000d2ae <_strtoul_r+0x92>
2000d2bc:	0038f893          	andi	a7,a7,3
2000d2c0:	00088d63          	beqz	a7,2000d2da <_strtoul_r+0xbe>
2000d2c4:	03700f93          	li	t6,55
2000d2c8:	0018d45b          	beqc	a7,1,2000d2d0 <_strtoul_r+0xb4>
2000d2cc:	05700f93          	li	t6,87
2000d2d0:	41f787b3          	sub	a5,a5,t6
2000d2d4:	b775                	c.j	2000d280 <_strtoul_r+0x64>
2000d2d6:	587d                	c.li	a6,-1
2000d2d8:	b7d9                	c.j	2000d29e <_strtoul_r+0x82>
2000d2da:	00085963          	bgez	a6,2000d2ec <_strtoul_r+0xd0>
2000d2de:	02200693          	li	a3,34
2000d2e2:	8edfcdab          	swgp	a3,-1800 # 800f8 <__mculib_REENT_errno>
2000d2e6:	557d                	c.li	a0,-1
2000d2e8:	ea09                	c.bnez	a2,2000d2fa <_strtoul_r+0xde>
2000d2ea:	8082                	c.jr	ra
2000d2ec:	000e0463          	beqz	t3,2000d2f4 <_strtoul_r+0xd8>
2000d2f0:	40a00533          	neg	a0,a0
2000d2f4:	c205                	c.beqz	a2,2000d314 <_strtoul_r+0xf8>
2000d2f6:	00080463          	beqz	a6,2000d2fe <_strtoul_r+0xe2>
2000d2fa:	fff70593          	addi	a1,a4,-1
2000d2fe:	c20c                	c.sw	a1,0(a2)
2000d300:	8082                	c.jr	ra
2000d302:	03000793          	li	a5,48
2000d306:	feb1                	c.bnez	a3,2000d262 <_strtoul_r+0x46>
2000d308:	46a1                	c.li	a3,8
2000d30a:	bfa1                	c.j	2000d262 <_strtoul_r+0x46>
2000d30c:	b507d1db          	beqc	a5,48,2000d24e <_strtoul_r+0x32>
2000d310:	46a9                	c.li	a3,10
2000d312:	bf81                	c.j	2000d262 <_strtoul_r+0x46>
2000d314:	8082                	c.jr	ra

2000d316 <_strtoull_r>:
2000d316:	189002ef          	jal	t0,2000dc9e <__riscv_save_10>
2000d31a:	8affabab          	lwgp	s7,-1876 # 800ac <__ctype_ptr__>
2000d31e:	8a2e                	c.mv	s4,a1
2000d320:	8ab2                	c.mv	s5,a2
2000d322:	84b6                	c.mv	s1,a3
2000d324:	87ae                	c.mv	a5,a1
2000d326:	00178913          	addi	s2,a5,1
2000d32a:	fff94403          	lbu	s0,-1(s2)
2000d32e:	008b8733          	add	a4,s7,s0
2000d332:	00170703          	lb	a4,1(a4)
2000d336:	4a377c5b          	bbs	a4,3,2000d3ee <_strtoull_r+0xd8>
2000d33a:	0ad46cdb          	bnec	s0,45,2000d3f2 <_strtoull_r+0xdc>
2000d33e:	0017c403          	lbu	s0,1(a5)
2000d342:	00278913          	addi	s2,a5,2
2000d346:	4c05                	c.li	s8,1
2000d348:	10048f63          	beqz	s1,2000d466 <_strtoull_r+0x150>
2000d34c:	0104ee5b          	bnec	s1,16,2000d368 <_strtoull_r+0x52>
2000d350:	01046cdb          	bnec	s0,48,2000d368 <_strtoull_r+0x52>
2000d354:	00090783          	lb	a5,0(s2)
2000d358:	0df7f793          	andi	a5,a5,223
2000d35c:	4f87ef5b          	bnec	a5,88,2000d45a <_strtoull_r+0x144>
2000d360:	00194403          	lbu	s0,1(s2)
2000d364:	44c1                	c.li	s1,16
2000d366:	0909                	c.addi	s2,2
2000d368:	41f4dc93          	srai	s9,s1,0x1f
2000d36c:	8626                	c.mv	a2,s1
2000d36e:	86e6                	c.mv	a3,s9
2000d370:	557d                	c.li	a0,-1
2000d372:	55fd                	c.li	a1,-1
2000d374:	22e1                	c.jal	2000d53c <__udivdi3>
2000d376:	8626                	c.mv	a2,s1
2000d378:	8b2a                	c.mv	s6,a0
2000d37a:	89ae                	c.mv	s3,a1
2000d37c:	86e6                	c.mv	a3,s9
2000d37e:	557d                	c.li	a0,-1
2000d380:	55fd                	c.li	a1,-1
2000d382:	2b9d                	c.jal	2000d8f8 <__umoddi3>
2000d384:	4701                	c.li	a4,0
2000d386:	4781                	c.li	a5,0
2000d388:	4581                	c.li	a1,0
2000d38a:	008b86b3          	add	a3,s7,s0
2000d38e:	0016c683          	lbu	a3,1(a3)
2000d392:	0626f95b          	bbc	a3,2,2000d404 <_strtoull_r+0xee>
2000d396:	fd040413          	addi	s0,s0,-48
2000d39a:	08945163          	bge	s0,s1,2000d41c <_strtoull_r+0x106>
2000d39e:	06074d63          	bltz	a4,2000d418 <_strtoull_r+0x102>
2000d3a2:	06b9eb63          	bltu	s3,a1,2000d418 <_strtoull_r+0x102>
2000d3a6:	01359463          	bne	a1,s3,2000d3ae <_strtoull_r+0x98>
2000d3aa:	06fb6763          	bltu	s6,a5,2000d418 <_strtoull_r+0x102>
2000d3ae:	01679763          	bne	a5,s6,2000d3bc <_strtoull_r+0xa6>
2000d3b2:	01359563          	bne	a1,s3,2000d3bc <_strtoull_r+0xa6>
2000d3b6:	577d                	c.li	a4,-1
2000d3b8:	02854763          	blt	a0,s0,2000d3e6 <_strtoull_r+0xd0>
2000d3bc:	02fc86b3          	mul	a3,s9,a5
2000d3c0:	02958733          	mul	a4,a1,s1
2000d3c4:	00e685b3          	add	a1,a3,a4
2000d3c8:	02f486b3          	mul	a3,s1,a5
2000d3cc:	41f45713          	srai	a4,s0,0x1f
2000d3d0:	02f4b7b3          	mulhu	a5,s1,a5
2000d3d4:	95be                	c.add	a1,a5
2000d3d6:	00d407b3          	add	a5,s0,a3
2000d3da:	972e                	c.add	a4,a1
2000d3dc:	0087b433          	sltu	s0,a5,s0
2000d3e0:	00e405b3          	add	a1,s0,a4
2000d3e4:	4705                	c.li	a4,1
2000d3e6:	0905                	c.addi	s2,1
2000d3e8:	fff94403          	lbu	s0,-1(s2)
2000d3ec:	bf79                	c.j	2000d38a <_strtoull_r+0x74>
2000d3ee:	87ca                	c.mv	a5,s2
2000d3f0:	bf1d                	c.j	2000d326 <_strtoull_r+0x10>
2000d3f2:	00b454db          	beqc	s0,43,2000d3fa <_strtoull_r+0xe4>
2000d3f6:	4c01                	c.li	s8,0
2000d3f8:	bf81                	c.j	2000d348 <_strtoull_r+0x32>
2000d3fa:	00278913          	addi	s2,a5,2
2000d3fe:	0017c403          	lbu	s0,1(a5)
2000d402:	bfd5                	c.j	2000d3f6 <_strtoull_r+0xe0>
2000d404:	8a8d                	c.andi	a3,3
2000d406:	ca99                	c.beqz	a3,2000d41c <_strtoull_r+0x106>
2000d408:	03700613          	li	a2,55
2000d40c:	0016d45b          	beqc	a3,1,2000d414 <_strtoull_r+0xfe>
2000d410:	05700613          	li	a2,87
2000d414:	8c11                	c.sub	s0,a2
2000d416:	b751                	c.j	2000d39a <_strtoull_r+0x84>
2000d418:	577d                	c.li	a4,-1
2000d41a:	b7f1                	c.j	2000d3e6 <_strtoull_r+0xd0>
2000d41c:	00075d63          	bgez	a4,2000d436 <_strtoull_r+0x120>
2000d420:	02200713          	li	a4,34
2000d424:	8eefcdab          	swgp	a4,-1800 # 800f8 <__mculib_REENT_errno>
2000d428:	55fd                	c.li	a1,-1
2000d42a:	57fd                	c.li	a5,-1
2000d42c:	020a9263          	bnez	s5,2000d450 <_strtoull_r+0x13a>
2000d430:	853e                	c.mv	a0,a5
2000d432:	0a50006f          	j	2000dcd6 <__riscv_restore_10>
2000d436:	000c0a63          	beqz	s8,2000d44a <_strtoull_r+0x134>
2000d43a:	40f007b3          	neg	a5,a5
2000d43e:	00f036b3          	snez	a3,a5
2000d442:	40b00433          	neg	s0,a1
2000d446:	40d405b3          	sub	a1,s0,a3
2000d44a:	fe0a83e3          	beqz	s5,2000d430 <_strtoull_r+0x11a>
2000d44e:	c319                	c.beqz	a4,2000d454 <_strtoull_r+0x13e>
2000d450:	fff90a13          	addi	s4,s2,-1
2000d454:	014aa023          	sw	s4,0(s5)
2000d458:	bfe1                	c.j	2000d430 <_strtoull_r+0x11a>
2000d45a:	03000413          	li	s0,48
2000d45e:	f00495e3          	bnez	s1,2000d368 <_strtoull_r+0x52>
2000d462:	44a1                	c.li	s1,8
2000d464:	b711                	c.j	2000d368 <_strtoull_r+0x52>
2000d466:	af0457db          	beqc	s0,48,2000d354 <_strtoull_r+0x3e>
2000d46a:	44a9                	c.li	s1,10
2000d46c:	bdf5                	c.j	2000d368 <_strtoull_r+0x52>

2000d46e <_malloc_usable_size_r>:
2000d46e:	ffc5a783          	lw	a5,-4(a1)
2000d472:	ffc78513          	addi	a0,a5,-4
2000d476:	0007d563          	bgez	a5,2000d480 <_malloc_usable_size_r+0x12>
2000d47a:	95aa                	c.add	a1,a0
2000d47c:	419c                	c.lw	a5,0(a1)
2000d47e:	953e                	c.add	a0,a5
2000d480:	8082                	c.jr	ra

2000d482 <nds_isalpha>:
2000d482:	fdf57513          	andi	a0,a0,-33
2000d486:	fbf50513          	addi	a0,a0,-65
2000d48a:	01a53513          	sltiu	a0,a0,26
2000d48e:	8082                	c.jr	ra

2000d490 <nds_isdigit>:
2000d490:	fd050513          	addi	a0,a0,-48
2000d494:	00a53513          	sltiu	a0,a0,10
2000d498:	8082                	c.jr	ra

2000d49a <nds_isspace>:
2000d49a:	000556db          	beqc	a0,32,2000d4a6 <nds_isspace+0xc>
2000d49e:	155d                	c.addi	a0,-9
2000d4a0:	00553513          	sltiu	a0,a0,5
2000d4a4:	8082                	c.jr	ra
2000d4a6:	4505                	c.li	a0,1
2000d4a8:	8082                	c.jr	ra

2000d4aa <nds_isupper>:
2000d4aa:	fbf50513          	addi	a0,a0,-65
2000d4ae:	01a53513          	sltiu	a0,a0,26
2000d4b2:	8082                	c.jr	ra

2000d4b4 <_sbrk>:
2000d4b4:	8fffa72b          	lwgp	a4,-1796 # 800fc <heap_end.2408>
2000d4b8:	8fdf978b          	addigp	a5,-1796 # 800fc <heap_end.2408>
2000d4bc:	e701                	c.bnez	a4,2000d4c4 <_sbrk+0x10>
2000d4be:	b49f970b          	addigp	a4,-1208 # 80348 <_BSS_VMA_END>
2000d4c2:	c398                	c.sw	a4,0(a5)
2000d4c4:	4398                	c.lw	a4,0(a5)
2000d4c6:	953a                	c.add	a0,a4
2000d4c8:	00a17763          	bgeu	sp,a0,2000d4d6 <_sbrk+0x22>
2000d4cc:	4731                	c.li	a4,12
2000d4ce:	8eefcdab          	swgp	a4,-1800 # 800f8 <__mculib_REENT_errno>
2000d4d2:	557d                	c.li	a0,-1
2000d4d4:	8082                	c.jr	ra
2000d4d6:	c388                	c.sw	a0,0(a5)
2000d4d8:	853a                	c.mv	a0,a4
2000d4da:	8082                	c.jr	ra

2000d4dc <__lshrdi3>:
2000d4dc:	ce11                	c.beqz	a2,2000d4f8 <__lshrdi3+0x1c>
2000d4de:	02000793          	li	a5,32
2000d4e2:	8f91                	c.sub	a5,a2
2000d4e4:	00f05c63          	blez	a5,2000d4fc <__lshrdi3+0x20>
2000d4e8:	00c55533          	srl	a0,a0,a2
2000d4ec:	00f597b3          	sll	a5,a1,a5
2000d4f0:	00c5d633          	srl	a2,a1,a2
2000d4f4:	8d5d                	c.or	a0,a5
2000d4f6:	85b2                	c.mv	a1,a2
2000d4f8:	00008067          	ret
2000d4fc:	40f00533          	neg	a0,a5
2000d500:	4601                	c.li	a2,0
2000d502:	00a5d533          	srl	a0,a1,a0
2000d506:	85b2                	c.mv	a1,a2
2000d508:	bfc5                	c.j	2000d4f8 <__lshrdi3+0x1c>
2000d50a:	0001                	c.nop

2000d50c <__ashldi3>:
2000d50c:	ce11                	c.beqz	a2,2000d528 <__ashldi3+0x1c>
2000d50e:	02000793          	li	a5,32
2000d512:	8f91                	c.sub	a5,a2
2000d514:	00f05c63          	blez	a5,2000d52c <__ashldi3+0x20>
2000d518:	00c595b3          	sll	a1,a1,a2
2000d51c:	00f557b3          	srl	a5,a0,a5
2000d520:	00c51633          	sll	a2,a0,a2
2000d524:	8ddd                	c.or	a1,a5
2000d526:	8532                	c.mv	a0,a2
2000d528:	00008067          	ret
2000d52c:	40f005b3          	neg	a1,a5
2000d530:	4601                	c.li	a2,0
2000d532:	00b515b3          	sll	a1,a0,a1
2000d536:	8532                	c.mv	a0,a2
2000d538:	bfc5                	c.j	2000d528 <__ashldi3+0x1c>
2000d53a:	0001                	c.nop

2000d53c <__udivdi3>:
2000d53c:	87b6                	c.mv	a5,a3
2000d53e:	88b2                	c.mv	a7,a2
2000d540:	832a                	c.mv	t1,a0
2000d542:	882e                	c.mv	a6,a1
2000d544:	ead5                	c.bnez	a3,2000d5f8 <__udivdi3+0xbc>
2000d546:	0ec5fb63          	bgeu	a1,a2,2000d63c <__udivdi3+0x100>
2000d54a:	6741                	c.lui	a4,0x10
2000d54c:	1ce66263          	bltu	a2,a4,2000d710 <__udivdi3+0x1d4>
2000d550:	010007b7          	lui	a5,0x1000
2000d554:	36f66263          	bltu	a2,a5,2000d8b8 <__udivdi3+0x37c>
2000d558:	01865713          	srli	a4,a2,0x18
2000d55c:	01800793          	li	a5,24
2000d560:	2000e6b7          	lui	a3,0x2000e
2000d564:	4e068693          	addi	a3,a3,1248 # 2000e4e0 <__clz_tab>
2000d568:	9736                	c.add	a4,a3
2000d56a:	00074703          	lbu	a4,0(a4) # 10000 <BIN_SIZE+0x1810>
2000d56e:	97ba                	c.add	a5,a4
2000d570:	02000713          	li	a4,32
2000d574:	8f1d                	c.sub	a4,a5
2000d576:	cb19                	c.beqz	a4,2000d58c <__udivdi3+0x50>
2000d578:	00e59833          	sll	a6,a1,a4
2000d57c:	00f557b3          	srl	a5,a0,a5
2000d580:	00e618b3          	sll	a7,a2,a4
2000d584:	0107e833          	or	a6,a5,a6
2000d588:	00e51333          	sll	t1,a0,a4
2000d58c:	0108d613          	srli	a2,a7,0x10
2000d590:	02c85533          	divu	a0,a6,a2
2000d594:	3c08a6db          	bfoz	a3,a7,15,0
2000d598:	01035793          	srli	a5,t1,0x10
2000d59c:	02c87733          	remu	a4,a6,a2
2000d5a0:	02a685b3          	mul	a1,a3,a0
2000d5a4:	0742                	c.slli	a4,0x10
2000d5a6:	00f76833          	or	a6,a4,a5
2000d5aa:	00b87b63          	bgeu	a6,a1,2000d5c0 <__udivdi3+0x84>
2000d5ae:	9846                	c.add	a6,a7
2000d5b0:	fff50793          	addi	a5,a0,-1
2000d5b4:	01186463          	bltu	a6,a7,2000d5bc <__udivdi3+0x80>
2000d5b8:	32b86863          	bltu	a6,a1,2000d8e8 <__udivdi3+0x3ac>
2000d5bc:	00f00533          	add	a0,zero,a5
2000d5c0:	40b80833          	sub	a6,a6,a1
2000d5c4:	02c85733          	divu	a4,a6,a2
2000d5c8:	3c03235b          	bfoz	t1,t1,15,0
2000d5cc:	02c87833          	remu	a6,a6,a2
2000d5d0:	02e686b3          	mul	a3,a3,a4
2000d5d4:	0842                	c.slli	a6,0x10
2000d5d6:	00686833          	or	a6,a6,t1
2000d5da:	00d87b63          	bgeu	a6,a3,2000d5f0 <__udivdi3+0xb4>
2000d5de:	9846                	c.add	a6,a7
2000d5e0:	fff70793          	addi	a5,a4,-1
2000d5e4:	15186063          	bltu	a6,a7,2000d724 <__udivdi3+0x1e8>
2000d5e8:	ffe70713          	addi	a4,a4,-2
2000d5ec:	12d87c63          	bgeu	a6,a3,2000d724 <__udivdi3+0x1e8>
2000d5f0:	0542                	c.slli	a0,0x10
2000d5f2:	8d59                	c.or	a0,a4
2000d5f4:	4581                	c.li	a1,0
2000d5f6:	8082                	c.jr	ra
2000d5f8:	0ed5e663          	bltu	a1,a3,2000d6e4 <__udivdi3+0x1a8>
2000d5fc:	67c1                	c.lui	a5,0x10
2000d5fe:	0ef6e763          	bltu	a3,a5,2000d6ec <__udivdi3+0x1b0>
2000d602:	010007b7          	lui	a5,0x1000
2000d606:	28f6ed63          	bltu	a3,a5,2000d8a0 <__udivdi3+0x364>
2000d60a:	0186d893          	srli	a7,a3,0x18
2000d60e:	4861                	c.li	a6,24
2000d610:	2000e7b7          	lui	a5,0x2000e
2000d614:	4e078793          	addi	a5,a5,1248 # 2000e4e0 <__clz_tab>
2000d618:	97c6                	c.add	a5,a7
2000d61a:	0007c703          	lbu	a4,0(a5)
2000d61e:	02000793          	li	a5,32
2000d622:	9742                	c.add	a4,a6
2000d624:	40e78333          	sub	t1,a5,a4
2000d628:	10031263          	bnez	t1,2000d72c <__udivdi3+0x1f0>
2000d62c:	28b6ea63          	bltu	a3,a1,2000d8c0 <__udivdi3+0x384>
2000d630:	00c53533          	sltu	a0,a0,a2
2000d634:	00154513          	xori	a0,a0,1
2000d638:	4581                	c.li	a1,0
2000d63a:	8082                	c.jr	ra
2000d63c:	e601                	c.bnez	a2,2000d644 <__udivdi3+0x108>
2000d63e:	4705                	c.li	a4,1
2000d640:	02c758b3          	divu	a7,a4,a2
2000d644:	6741                	c.lui	a4,0x10
2000d646:	0ae8eb63          	bltu	a7,a4,2000d6fc <__udivdi3+0x1c0>
2000d64a:	010007b7          	lui	a5,0x1000
2000d64e:	26f8e163          	bltu	a7,a5,2000d8b0 <__udivdi3+0x374>
2000d652:	0188d713          	srli	a4,a7,0x18
2000d656:	47e1                	c.li	a5,24
2000d658:	2000e6b7          	lui	a3,0x2000e
2000d65c:	4e068693          	addi	a3,a3,1248 # 2000e4e0 <__clz_tab>
2000d660:	9736                	c.add	a4,a3
2000d662:	00074683          	lbu	a3,0(a4) # 10000 <BIN_SIZE+0x1810>
2000d666:	02000f93          	li	t6,32
2000d66a:	96be                	c.add	a3,a5
2000d66c:	40df8fb3          	sub	t6,t6,a3
2000d670:	180f9663          	bnez	t6,2000d7fc <__udivdi3+0x2c0>
2000d674:	41158733          	sub	a4,a1,a7
2000d678:	0108df13          	srli	t5,a7,0x10
2000d67c:	3c08aedb          	bfoz	t4,a7,15,0
2000d680:	00100593          	li	a1,1
2000d684:	01035793          	srli	a5,t1,0x10
2000d688:	03e75533          	divu	a0,a4,t5
2000d68c:	03e77733          	remu	a4,a4,t5
2000d690:	03d506b3          	mul	a3,a0,t4
2000d694:	0742                	c.slli	a4,0x10
2000d696:	8fd9                	c.or	a5,a4
2000d698:	00d7fc63          	bgeu	a5,a3,2000d6b0 <__udivdi3+0x174>
2000d69c:	011787b3          	add	a5,a5,a7
2000d6a0:	fff50713          	addi	a4,a0,-1
2000d6a4:	0117e463          	bltu	a5,a7,2000d6ac <__udivdi3+0x170>
2000d6a8:	24d7e463          	bltu	a5,a3,2000d8f0 <__udivdi3+0x3b4>
2000d6ac:	00e00533          	add	a0,zero,a4
2000d6b0:	8f95                	c.sub	a5,a3
2000d6b2:	03e7d633          	divu	a2,a5,t5
2000d6b6:	3c03235b          	bfoz	t1,t1,15,0
2000d6ba:	03e7f7b3          	remu	a5,a5,t5
2000d6be:	03d60eb3          	mul	t4,a2,t4
2000d6c2:	07c2                	c.slli	a5,0x10
2000d6c4:	0067e7b3          	or	a5,a5,t1
2000d6c8:	01d7fa63          	bgeu	a5,t4,2000d6dc <__udivdi3+0x1a0>
2000d6cc:	97c6                	c.add	a5,a7
2000d6ce:	fff60713          	addi	a4,a2,-1
2000d6d2:	0517eb63          	bltu	a5,a7,2000d728 <__udivdi3+0x1ec>
2000d6d6:	1679                	c.addi	a2,-2
2000d6d8:	05d7f863          	bgeu	a5,t4,2000d728 <__udivdi3+0x1ec>
2000d6dc:	0542                	c.slli	a0,0x10
2000d6de:	8d51                	c.or	a0,a2
2000d6e0:	00008067          	ret
2000d6e4:	4581                	c.li	a1,0
2000d6e6:	4501                	c.li	a0,0
2000d6e8:	00008067          	ret
2000d6ec:	0ff00793          	li	a5,255
2000d6f0:	1ad7fc63          	bgeu	a5,a3,2000d8a8 <__udivdi3+0x36c>
2000d6f4:	0086d893          	srli	a7,a3,0x8
2000d6f8:	4821                	c.li	a6,8
2000d6fa:	bf19                	c.j	2000d610 <__udivdi3+0xd4>
2000d6fc:	0ff00693          	li	a3,255
2000d700:	8746                	c.mv	a4,a7
2000d702:	f516fbe3          	bgeu	a3,a7,2000d658 <__udivdi3+0x11c>
2000d706:	0088d713          	srli	a4,a7,0x8
2000d70a:	47a1                	c.li	a5,8
2000d70c:	f4dff06f          	j	2000d658 <__udivdi3+0x11c>
2000d710:	0ff00693          	li	a3,255
2000d714:	8732                	c.mv	a4,a2
2000d716:	e4c6f5e3          	bgeu	a3,a2,2000d560 <__udivdi3+0x24>
2000d71a:	00865713          	srli	a4,a2,0x8
2000d71e:	47a1                	c.li	a5,8
2000d720:	e41ff06f          	j	2000d560 <__udivdi3+0x24>
2000d724:	873e                	c.mv	a4,a5
2000d726:	b5e9                	c.j	2000d5f0 <__udivdi3+0xb4>
2000d728:	863a                	c.mv	a2,a4
2000d72a:	bf4d                	c.j	2000d6dc <__udivdi3+0x1a0>
2000d72c:	00e657b3          	srl	a5,a2,a4
2000d730:	006696b3          	sll	a3,a3,t1
2000d734:	8edd                	c.or	a3,a5
2000d736:	00e5d8b3          	srl	a7,a1,a4
2000d73a:	0106df13          	srli	t5,a3,0x10
2000d73e:	03e8deb3          	divu	t4,a7,t5
2000d742:	3c06ae5b          	bfoz	t3,a3,15,0
2000d746:	00659833          	sll	a6,a1,t1
2000d74a:	00e55733          	srl	a4,a0,a4
2000d74e:	01076833          	or	a6,a4,a6
2000d752:	01085793          	srli	a5,a6,0x10
2000d756:	00661633          	sll	a2,a2,t1
2000d75a:	03e8f8b3          	remu	a7,a7,t5
2000d75e:	03de05b3          	mul	a1,t3,t4
2000d762:	08c2                	c.slli	a7,0x10
2000d764:	00f8e7b3          	or	a5,a7,a5
2000d768:	00b7fa63          	bgeu	a5,a1,2000d77c <__udivdi3+0x240>
2000d76c:	00d787b3          	add	a5,a5,a3
2000d770:	fffe8713          	addi	a4,t4,-1
2000d774:	16d7f063          	bgeu	a5,a3,2000d8d4 <__udivdi3+0x398>
2000d778:	00e00eb3          	add	t4,zero,a4
2000d77c:	8f8d                	c.sub	a5,a1
2000d77e:	03e7d733          	divu	a4,a5,t5
2000d782:	3c08285b          	bfoz	a6,a6,15,0
2000d786:	03e7f7b3          	remu	a5,a5,t5
2000d78a:	02ee08b3          	mul	a7,t3,a4
2000d78e:	07c2                	c.slli	a5,0x10
2000d790:	0107e5b3          	or	a1,a5,a6
2000d794:	0115fa63          	bgeu	a1,a7,2000d7a8 <__udivdi3+0x26c>
2000d798:	00d585b3          	add	a1,a1,a3
2000d79c:	fff70793          	addi	a5,a4,-1
2000d7a0:	12d5f463          	bgeu	a1,a3,2000d8c8 <__udivdi3+0x38c>
2000d7a4:	00f00733          	add	a4,zero,a5
2000d7a8:	0ec2                	c.slli	t4,0x10
2000d7aa:	6f41                	c.lui	t5,0x10
2000d7ac:	00eeeeb3          	or	t4,t4,a4
2000d7b0:	ffff0793          	addi	a5,t5,-1 # ffff <BIN_SIZE+0x180f>
2000d7b4:	00fef733          	and	a4,t4,a5
2000d7b8:	010ed813          	srli	a6,t4,0x10
2000d7bc:	8ff1                	c.and	a5,a2
2000d7be:	8241                	c.srli	a2,0x10
2000d7c0:	02f70e33          	mul	t3,a4,a5
2000d7c4:	411585b3          	sub	a1,a1,a7
2000d7c8:	02c70733          	mul	a4,a4,a2
2000d7cc:	010e5693          	srli	a3,t3,0x10
2000d7d0:	02f807b3          	mul	a5,a6,a5
2000d7d4:	02c80633          	mul	a2,a6,a2
2000d7d8:	973e                	c.add	a4,a5
2000d7da:	9736                	c.add	a4,a3
2000d7dc:	00f77463          	bgeu	a4,a5,2000d7e4 <__udivdi3+0x2a8>
2000d7e0:	01e60633          	add	a2,a2,t5
2000d7e4:	01075813          	srli	a6,a4,0x10
2000d7e8:	01060633          	add	a2,a2,a6
2000d7ec:	0ac5e663          	bltu	a1,a2,2000d898 <__udivdi3+0x35c>
2000d7f0:	08c58863          	beq	a1,a2,2000d880 <__udivdi3+0x344>
2000d7f4:	8576                	c.mv	a0,t4
2000d7f6:	4581                	c.li	a1,0
2000d7f8:	00008067          	ret
2000d7fc:	01f898b3          	sll	a7,a7,t6
2000d800:	00d5d633          	srl	a2,a1,a3
2000d804:	0108df13          	srli	t5,a7,0x10
2000d808:	03e65e33          	divu	t3,a2,t5
2000d80c:	00d557b3          	srl	a5,a0,a3
2000d810:	01f59733          	sll	a4,a1,t6
2000d814:	3c08aedb          	bfoz	t4,a7,15,0
2000d818:	8f5d                	c.or	a4,a5
2000d81a:	01075593          	srli	a1,a4,0x10
2000d81e:	01f51333          	sll	t1,a0,t6
2000d822:	03e676b3          	remu	a3,a2,t5
2000d826:	03ce87b3          	mul	a5,t4,t3
2000d82a:	06c2                	c.slli	a3,0x10
2000d82c:	8ecd                	c.or	a3,a1
2000d82e:	00f6fb63          	bgeu	a3,a5,2000d844 <__udivdi3+0x308>
2000d832:	96c6                	c.add	a3,a7
2000d834:	fffe0613          	addi	a2,t3,-1
2000d838:	0b16e663          	bltu	a3,a7,2000d8e4 <__udivdi3+0x3a8>
2000d83c:	0af6f463          	bgeu	a3,a5,2000d8e4 <__udivdi3+0x3a8>
2000d840:	1e79                	c.addi	t3,-2
2000d842:	96c6                	c.add	a3,a7
2000d844:	8e9d                	c.sub	a3,a5
2000d846:	03e6d7b3          	divu	a5,a3,t5
2000d84a:	3c07285b          	bfoz	a6,a4,15,0
2000d84e:	03e6f6b3          	remu	a3,a3,t5
2000d852:	02fe8633          	mul	a2,t4,a5
2000d856:	01069713          	slli	a4,a3,0x10
2000d85a:	01076733          	or	a4,a4,a6
2000d85e:	00c77b63          	bgeu	a4,a2,2000d874 <__udivdi3+0x338>
2000d862:	9746                	c.add	a4,a7
2000d864:	fff78693          	addi	a3,a5,-1 # ffffff <FLASH_SIZE+0xefffff>
2000d868:	07176c63          	bltu	a4,a7,2000d8e0 <__udivdi3+0x3a4>
2000d86c:	06c77a63          	bgeu	a4,a2,2000d8e0 <__udivdi3+0x3a4>
2000d870:	17f9                	c.addi	a5,-2
2000d872:	9746                	c.add	a4,a7
2000d874:	010e1593          	slli	a1,t3,0x10
2000d878:	8f11                	c.sub	a4,a2
2000d87a:	8ddd                	c.or	a1,a5
2000d87c:	e09ff06f          	j	2000d684 <__udivdi3+0x148>
2000d880:	67c1                	c.lui	a5,0x10
2000d882:	17fd                	c.addi	a5,-1
2000d884:	8f7d                	c.and	a4,a5
2000d886:	00fe7e33          	and	t3,t3,a5
2000d88a:	0742                	c.slli	a4,0x10
2000d88c:	006517b3          	sll	a5,a0,t1
2000d890:	01c70733          	add	a4,a4,t3
2000d894:	f6e7f0e3          	bgeu	a5,a4,2000d7f4 <__udivdi3+0x2b8>
2000d898:	fffe8513          	addi	a0,t4,-1
2000d89c:	4581                	c.li	a1,0
2000d89e:	8082                	c.jr	ra
2000d8a0:	0106d893          	srli	a7,a3,0x10
2000d8a4:	4841                	c.li	a6,16
2000d8a6:	b3ad                	c.j	2000d610 <__udivdi3+0xd4>
2000d8a8:	88b6                	c.mv	a7,a3
2000d8aa:	4801                	c.li	a6,0
2000d8ac:	d65ff06f          	j	2000d610 <__udivdi3+0xd4>
2000d8b0:	0108d713          	srli	a4,a7,0x10
2000d8b4:	47c1                	c.li	a5,16
2000d8b6:	b34d                	c.j	2000d658 <__udivdi3+0x11c>
2000d8b8:	01065713          	srli	a4,a2,0x10
2000d8bc:	47c1                	c.li	a5,16
2000d8be:	b14d                	c.j	2000d560 <__udivdi3+0x24>
2000d8c0:	4581                	c.li	a1,0
2000d8c2:	4505                	c.li	a0,1
2000d8c4:	00008067          	ret
2000d8c8:	ed15fee3          	bgeu	a1,a7,2000d7a4 <__udivdi3+0x268>
2000d8cc:	1779                	c.addi	a4,-2
2000d8ce:	95b6                	c.add	a1,a3
2000d8d0:	ed9ff06f          	j	2000d7a8 <__udivdi3+0x26c>
2000d8d4:	eab7f2e3          	bgeu	a5,a1,2000d778 <__udivdi3+0x23c>
2000d8d8:	1ef9                	c.addi	t4,-2
2000d8da:	97b6                	c.add	a5,a3
2000d8dc:	ea1ff06f          	j	2000d77c <__udivdi3+0x240>
2000d8e0:	87b6                	c.mv	a5,a3
2000d8e2:	bf49                	c.j	2000d874 <__udivdi3+0x338>
2000d8e4:	8e32                	c.mv	t3,a2
2000d8e6:	bfb9                	c.j	2000d844 <__udivdi3+0x308>
2000d8e8:	1579                	c.addi	a0,-2
2000d8ea:	9846                	c.add	a6,a7
2000d8ec:	cd5ff06f          	j	2000d5c0 <__udivdi3+0x84>
2000d8f0:	1579                	c.addi	a0,-2
2000d8f2:	97c6                	c.add	a5,a7
2000d8f4:	bb75                	c.j	2000d6b0 <__udivdi3+0x174>
2000d8f6:	0001                	c.nop

2000d8f8 <__umoddi3>:
2000d8f8:	87b6                	c.mv	a5,a3
2000d8fa:	8832                	c.mv	a6,a2
2000d8fc:	832a                	c.mv	t1,a0
2000d8fe:	8e2e                	c.mv	t3,a1
2000d900:	eac5                	c.bnez	a3,2000d9b0 <__umoddi3+0xb8>
2000d902:	10c5f363          	bgeu	a1,a2,2000da08 <__umoddi3+0x110>
2000d906:	6741                	c.lui	a4,0x10
2000d908:	1ae67663          	bgeu	a2,a4,2000dab4 <__umoddi3+0x1bc>
2000d90c:	0ff00693          	li	a3,255
2000d910:	8732                	c.mv	a4,a2
2000d912:	00c6f563          	bgeu	a3,a2,2000d91c <__umoddi3+0x24>
2000d916:	00865713          	srli	a4,a2,0x8
2000d91a:	47a1                	c.li	a5,8
2000d91c:	2000e6b7          	lui	a3,0x2000e
2000d920:	4e068693          	addi	a3,a3,1248 # 2000e4e0 <__clz_tab>
2000d924:	9736                	c.add	a4,a3
2000d926:	00074683          	lbu	a3,0(a4) # 10000 <BIN_SIZE+0x1810>
2000d92a:	02000893          	li	a7,32
2000d92e:	97b6                	c.add	a5,a3
2000d930:	40f888b3          	sub	a7,a7,a5
2000d934:	00088c63          	beqz	a7,2000d94c <__umoddi3+0x54>
2000d938:	011595b3          	sll	a1,a1,a7
2000d93c:	00f557b3          	srl	a5,a0,a5
2000d940:	01161833          	sll	a6,a2,a7
2000d944:	00b7ee33          	or	t3,a5,a1
2000d948:	01151333          	sll	t1,a0,a7
2000d94c:	01085613          	srli	a2,a6,0x10
2000d950:	02ce57b3          	divu	a5,t3,a2
2000d954:	3c08255b          	bfoz	a0,a6,15,0
2000d958:	01035713          	srli	a4,t1,0x10
2000d95c:	02ce76b3          	remu	a3,t3,a2
2000d960:	02f507b3          	mul	a5,a0,a5
2000d964:	06c2                	c.slli	a3,0x10
2000d966:	8f55                	c.or	a4,a3
2000d968:	00f77863          	bgeu	a4,a5,2000d978 <__umoddi3+0x80>
2000d96c:	01070733          	add	a4,a4,a6
2000d970:	01076463          	bltu	a4,a6,2000d978 <__umoddi3+0x80>
2000d974:	30f76a63          	bltu	a4,a5,2000dc88 <__umoddi3+0x390>
2000d978:	8f1d                	c.sub	a4,a5
2000d97a:	02c756b3          	divu	a3,a4,a2
2000d97e:	3c0327db          	bfoz	a5,t1,15,0
2000d982:	02c77733          	remu	a4,a4,a2
2000d986:	02d50533          	mul	a0,a0,a3
2000d98a:	0742                	c.slli	a4,0x10
2000d98c:	00e7e7b3          	or	a5,a5,a4
2000d990:	00a7f863          	bgeu	a5,a0,2000d9a0 <__umoddi3+0xa8>
2000d994:	97c2                	c.add	a5,a6
2000d996:	0107e563          	bltu	a5,a6,2000d9a0 <__umoddi3+0xa8>
2000d99a:	00a7f363          	bgeu	a5,a0,2000d9a0 <__umoddi3+0xa8>
2000d99e:	97c2                	c.add	a5,a6
2000d9a0:	40a78533          	sub	a0,a5,a0
2000d9a4:	01155533          	srl	a0,a0,a7
2000d9a8:	00000593          	li	a1,0
2000d9ac:	00008067          	ret
2000d9b0:	fed5eee3          	bltu	a1,a3,2000d9ac <__umoddi3+0xb4>
2000d9b4:	67c1                	c.lui	a5,0x10
2000d9b6:	0cf6ed63          	bltu	a3,a5,2000da90 <__umoddi3+0x198>
2000d9ba:	010007b7          	lui	a5,0x1000
2000d9be:	28f6e963          	bltu	a3,a5,2000dc50 <__umoddi3+0x358>
2000d9c2:	0186d713          	srli	a4,a3,0x18
2000d9c6:	4861                	c.li	a6,24
2000d9c8:	2000e7b7          	lui	a5,0x2000e
2000d9cc:	4e078793          	addi	a5,a5,1248 # 2000e4e0 <__clz_tab>
2000d9d0:	97ba                	c.add	a5,a4
2000d9d2:	0007ce83          	lbu	t4,0(a5)
2000d9d6:	02000313          	li	t1,32
2000d9da:	9ec2                	c.add	t4,a6
2000d9dc:	41d30333          	sub	t1,t1,t4
2000d9e0:	0e031263          	bnez	t1,2000dac4 <__umoddi3+0x1cc>
2000d9e4:	00b6e663          	bltu	a3,a1,2000d9f0 <__umoddi3+0xf8>
2000d9e8:	00a00833          	add	a6,zero,a0
2000d9ec:	00c56a63          	bltu	a0,a2,2000da00 <__umoddi3+0x108>
2000d9f0:	40c50833          	sub	a6,a0,a2
2000d9f4:	40d585b3          	sub	a1,a1,a3
2000d9f8:	010536b3          	sltu	a3,a0,a6
2000d9fc:	40d58e33          	sub	t3,a1,a3
2000da00:	8542                	c.mv	a0,a6
2000da02:	85f2                	c.mv	a1,t3
2000da04:	00008067          	ret
2000da08:	e601                	c.bnez	a2,2000da10 <__umoddi3+0x118>
2000da0a:	4705                	c.li	a4,1
2000da0c:	02c75833          	divu	a6,a4,a2
2000da10:	6741                	c.lui	a4,0x10
2000da12:	08e86763          	bltu	a6,a4,2000daa0 <__umoddi3+0x1a8>
2000da16:	010007b7          	lui	a5,0x1000
2000da1a:	24f86363          	bltu	a6,a5,2000dc60 <__umoddi3+0x368>
2000da1e:	01885713          	srli	a4,a6,0x18
2000da22:	47e1                	c.li	a5,24
2000da24:	2000e6b7          	lui	a3,0x2000e
2000da28:	4e068693          	addi	a3,a3,1248 # 2000e4e0 <__clz_tab>
2000da2c:	9736                	c.add	a4,a3
2000da2e:	00074703          	lbu	a4,0(a4) # 10000 <BIN_SIZE+0x1810>
2000da32:	02000893          	li	a7,32
2000da36:	97ba                	c.add	a5,a4
2000da38:	40f888b3          	sub	a7,a7,a5
2000da3c:	16089863          	bnez	a7,2000dbac <__umoddi3+0x2b4>
2000da40:	410585b3          	sub	a1,a1,a6
2000da44:	01085613          	srli	a2,a6,0x10
2000da48:	3c082e5b          	bfoz	t3,a6,15,0
2000da4c:	01035713          	srli	a4,t1,0x10
2000da50:	02c5d6b3          	divu	a3,a1,a2
2000da54:	02c5f5b3          	remu	a1,a1,a2
2000da58:	03c686b3          	mul	a3,a3,t3
2000da5c:	05c2                	c.slli	a1,0x10
2000da5e:	8f4d                	c.or	a4,a1
2000da60:	00d77863          	bgeu	a4,a3,2000da70 <__umoddi3+0x178>
2000da64:	9742                	c.add	a4,a6
2000da66:	01076563          	bltu	a4,a6,2000da70 <__umoddi3+0x178>
2000da6a:	00d77363          	bgeu	a4,a3,2000da70 <__umoddi3+0x178>
2000da6e:	9742                	c.add	a4,a6
2000da70:	8f15                	c.sub	a4,a3
2000da72:	02c75533          	divu	a0,a4,a2
2000da76:	3c03235b          	bfoz	t1,t1,15,0
2000da7a:	02c77733          	remu	a4,a4,a2
2000da7e:	03c50533          	mul	a0,a0,t3
2000da82:	0742                	c.slli	a4,0x10
2000da84:	006767b3          	or	a5,a4,t1
2000da88:	f0a7fce3          	bgeu	a5,a0,2000d9a0 <__umoddi3+0xa8>
2000da8c:	f09ff06f          	j	2000d994 <__umoddi3+0x9c>
2000da90:	0ff00793          	li	a5,255
2000da94:	1cd7f263          	bgeu	a5,a3,2000dc58 <__umoddi3+0x360>
2000da98:	0086d713          	srli	a4,a3,0x8
2000da9c:	4821                	c.li	a6,8
2000da9e:	b72d                	c.j	2000d9c8 <__umoddi3+0xd0>
2000daa0:	0ff00693          	li	a3,255
2000daa4:	8742                	c.mv	a4,a6
2000daa6:	f706ffe3          	bgeu	a3,a6,2000da24 <__umoddi3+0x12c>
2000daaa:	00885713          	srli	a4,a6,0x8
2000daae:	47a1                	c.li	a5,8
2000dab0:	f75ff06f          	j	2000da24 <__umoddi3+0x12c>
2000dab4:	010007b7          	lui	a5,0x1000
2000dab8:	1af66863          	bltu	a2,a5,2000dc68 <__umoddi3+0x370>
2000dabc:	01865713          	srli	a4,a2,0x18
2000dac0:	47e1                	c.li	a5,24
2000dac2:	bda9                	c.j	2000d91c <__umoddi3+0x24>
2000dac4:	01d658b3          	srl	a7,a2,t4
2000dac8:	006696b3          	sll	a3,a3,t1
2000dacc:	00d8e6b3          	or	a3,a7,a3
2000dad0:	01d5d833          	srl	a6,a1,t4
2000dad4:	0106d713          	srli	a4,a3,0x10
2000dad8:	02e858b3          	divu	a7,a6,a4
2000dadc:	3c06af5b          	bfoz	t5,a3,15,0
2000dae0:	01d557b3          	srl	a5,a0,t4
2000dae4:	006595b3          	sll	a1,a1,t1
2000dae8:	8ddd                	c.or	a1,a5
2000daea:	0105df93          	srli	t6,a1,0x10
2000daee:	006617b3          	sll	a5,a2,t1
2000daf2:	00651533          	sll	a0,a0,t1
2000daf6:	02e87833          	remu	a6,a6,a4
2000dafa:	031f0e33          	mul	t3,t5,a7
2000dafe:	0842                	c.slli	a6,0x10
2000db00:	01f86633          	or	a2,a6,t6
2000db04:	01c67a63          	bgeu	a2,t3,2000db18 <__umoddi3+0x220>
2000db08:	00d60633          	add	a2,a2,a3
2000db0c:	fff88813          	addi	a6,a7,-1
2000db10:	16d67663          	bgeu	a2,a3,2000dc7c <__umoddi3+0x384>
2000db14:	010008b3          	add	a7,zero,a6
2000db18:	41c60633          	sub	a2,a2,t3
2000db1c:	02e65833          	divu	a6,a2,a4
2000db20:	3c05a5db          	bfoz	a1,a1,15,0
2000db24:	02e67633          	remu	a2,a2,a4
2000db28:	030f0f33          	mul	t5,t5,a6
2000db2c:	01061713          	slli	a4,a2,0x10
2000db30:	8f4d                	c.or	a4,a1
2000db32:	01e77963          	bgeu	a4,t5,2000db44 <__umoddi3+0x24c>
2000db36:	9736                	c.add	a4,a3
2000db38:	fff80613          	addi	a2,a6,-1
2000db3c:	12d77a63          	bgeu	a4,a3,2000dc70 <__umoddi3+0x378>
2000db40:	00c00833          	add	a6,zero,a2
2000db44:	08c2                	c.slli	a7,0x10
2000db46:	62c1                	c.lui	t0,0x10
2000db48:	0108e8b3          	or	a7,a7,a6
2000db4c:	fff28813          	addi	a6,t0,-1 # ffff <BIN_SIZE+0x180f>
2000db50:	0108fe33          	and	t3,a7,a6
2000db54:	0107d593          	srli	a1,a5,0x10
2000db58:	0108d893          	srli	a7,a7,0x10
2000db5c:	0107f833          	and	a6,a5,a6
2000db60:	030e0fb3          	mul	t6,t3,a6
2000db64:	41e70733          	sub	a4,a4,t5
2000db68:	03088833          	mul	a6,a7,a6
2000db6c:	010fd613          	srli	a2,t6,0x10
2000db70:	02be0e33          	mul	t3,t3,a1
2000db74:	02b888b3          	mul	a7,a7,a1
2000db78:	9e42                	c.add	t3,a6
2000db7a:	9672                	c.add	a2,t3
2000db7c:	01067463          	bgeu	a2,a6,2000db84 <__umoddi3+0x28c>
2000db80:	005888b3          	add	a7,a7,t0
2000db84:	6841                	c.lui	a6,0x10
2000db86:	187d                	c.addi	a6,-1
2000db88:	01065593          	srli	a1,a2,0x10
2000db8c:	01067633          	and	a2,a2,a6
2000db90:	0642                	c.slli	a2,0x10
2000db92:	010fffb3          	and	t6,t6,a6
2000db96:	98ae                	c.add	a7,a1
2000db98:	967e                	c.add	a2,t6
2000db9a:	09176363          	bltu	a4,a7,2000dc20 <__umoddi3+0x328>
2000db9e:	0f170763          	beq	a4,a7,2000dc8c <__umoddi3+0x394>
2000dba2:	411705b3          	sub	a1,a4,a7
2000dba6:	87b2                	c.mv	a5,a2
2000dba8:	08c0006f          	j	2000dc34 <__umoddi3+0x33c>
2000dbac:	01181833          	sll	a6,a6,a7
2000dbb0:	00f5d733          	srl	a4,a1,a5
2000dbb4:	01085613          	srli	a2,a6,0x10
2000dbb8:	02c756b3          	divu	a3,a4,a2
2000dbbc:	00f557b3          	srl	a5,a0,a5
2000dbc0:	3c082e5b          	bfoz	t3,a6,15,0
2000dbc4:	011595b3          	sll	a1,a1,a7
2000dbc8:	8ddd                	c.or	a1,a5
2000dbca:	0105de93          	srli	t4,a1,0x10
2000dbce:	01151333          	sll	t1,a0,a7
2000dbd2:	02c77733          	remu	a4,a4,a2
2000dbd6:	02de07b3          	mul	a5,t3,a3
2000dbda:	01071693          	slli	a3,a4,0x10
2000dbde:	01d6e6b3          	or	a3,a3,t4
2000dbe2:	00f6f963          	bgeu	a3,a5,2000dbf4 <__umoddi3+0x2fc>
2000dbe6:	96c2                	c.add	a3,a6
2000dbe8:	0106e663          	bltu	a3,a6,2000dbf4 <__umoddi3+0x2fc>
2000dbec:	00f6f463          	bgeu	a3,a5,2000dbf4 <__umoddi3+0x2fc>
2000dbf0:	010686b3          	add	a3,a3,a6
2000dbf4:	8e9d                	c.sub	a3,a5
2000dbf6:	02c6d733          	divu	a4,a3,a2
2000dbfa:	3c05a7db          	bfoz	a5,a1,15,0
2000dbfe:	02c6f6b3          	remu	a3,a3,a2
2000dc02:	02ee0733          	mul	a4,t3,a4
2000dc06:	01069593          	slli	a1,a3,0x10
2000dc0a:	8ddd                	c.or	a1,a5
2000dc0c:	00e5f863          	bgeu	a1,a4,2000dc1c <__umoddi3+0x324>
2000dc10:	95c2                	c.add	a1,a6
2000dc12:	0105e563          	bltu	a1,a6,2000dc1c <__umoddi3+0x324>
2000dc16:	00e5f363          	bgeu	a1,a4,2000dc1c <__umoddi3+0x324>
2000dc1a:	95c2                	c.add	a1,a6
2000dc1c:	8d99                	c.sub	a1,a4
2000dc1e:	b53d                	c.j	2000da4c <__umoddi3+0x154>
2000dc20:	40f607b3          	sub	a5,a2,a5
2000dc24:	40d885b3          	sub	a1,a7,a3
2000dc28:	00f63633          	sltu	a2,a2,a5
2000dc2c:	40c585b3          	sub	a1,a1,a2
2000dc30:	40b705b3          	sub	a1,a4,a1
2000dc34:	40f507b3          	sub	a5,a0,a5
2000dc38:	00f53533          	sltu	a0,a0,a5
2000dc3c:	8d89                	c.sub	a1,a0
2000dc3e:	01d59eb3          	sll	t4,a1,t4
2000dc42:	0067d533          	srl	a0,a5,t1
2000dc46:	00aee533          	or	a0,t4,a0
2000dc4a:	0065d5b3          	srl	a1,a1,t1
2000dc4e:	8082                	c.jr	ra
2000dc50:	0106d713          	srli	a4,a3,0x10
2000dc54:	4841                	c.li	a6,16
2000dc56:	bb8d                	c.j	2000d9c8 <__umoddi3+0xd0>
2000dc58:	8736                	c.mv	a4,a3
2000dc5a:	4801                	c.li	a6,0
2000dc5c:	d6dff06f          	j	2000d9c8 <__umoddi3+0xd0>
2000dc60:	01085713          	srli	a4,a6,0x10
2000dc64:	47c1                	c.li	a5,16
2000dc66:	bb7d                	c.j	2000da24 <__umoddi3+0x12c>
2000dc68:	01065713          	srli	a4,a2,0x10
2000dc6c:	47c1                	c.li	a5,16
2000dc6e:	b17d                	c.j	2000d91c <__umoddi3+0x24>
2000dc70:	ede778e3          	bgeu	a4,t5,2000db40 <__umoddi3+0x248>
2000dc74:	1879                	c.addi	a6,-2
2000dc76:	9736                	c.add	a4,a3
2000dc78:	ecdff06f          	j	2000db44 <__umoddi3+0x24c>
2000dc7c:	e9c67ce3          	bgeu	a2,t3,2000db14 <__umoddi3+0x21c>
2000dc80:	18f9                	c.addi	a7,-2
2000dc82:	9636                	c.add	a2,a3
2000dc84:	e95ff06f          	j	2000db18 <__umoddi3+0x220>
2000dc88:	9742                	c.add	a4,a6
2000dc8a:	b1fd                	c.j	2000d978 <__umoddi3+0x80>
2000dc8c:	f8c56ae3          	bltu	a0,a2,2000dc20 <__umoddi3+0x328>
2000dc90:	87b2                	c.mv	a5,a2
2000dc92:	4581                	c.li	a1,0
2000dc94:	b745                	c.j	2000dc34 <__umoddi3+0x33c>

2000dc96 <__riscv_save_12>:
2000dc96:	7139                	c.addi16sp	sp,-64
2000dc98:	4301                	c.li	t1,0
2000dc9a:	c66e                	c.swsp	s11,12(sp)
2000dc9c:	a019                	c.j	2000dca2 <__riscv_save_10+0x4>

2000dc9e <__riscv_save_10>:
2000dc9e:	7139                	c.addi16sp	sp,-64
2000dca0:	5341                	c.li	t1,-16
2000dca2:	c86a                	c.swsp	s10,16(sp)
2000dca4:	ca66                	c.swsp	s9,20(sp)
2000dca6:	cc62                	c.swsp	s8,24(sp)
2000dca8:	ce5e                	c.swsp	s7,28(sp)
2000dcaa:	a019                	c.j	2000dcb0 <__riscv_save_4+0x4>

2000dcac <__riscv_save_4>:
2000dcac:	7139                	c.addi16sp	sp,-64
2000dcae:	5301                	c.li	t1,-32
2000dcb0:	d05a                	c.swsp	s6,32(sp)
2000dcb2:	d256                	c.swsp	s5,36(sp)
2000dcb4:	d452                	c.swsp	s4,40(sp)
2000dcb6:	d64e                	c.swsp	s3,44(sp)
2000dcb8:	d84a                	c.swsp	s2,48(sp)
2000dcba:	da26                	c.swsp	s1,52(sp)
2000dcbc:	dc22                	c.swsp	s0,56(sp)
2000dcbe:	de06                	c.swsp	ra,60(sp)
2000dcc0:	40610133          	sub	sp,sp,t1
2000dcc4:	8282                	c.jr	t0

2000dcc6 <__riscv_save_0>:
2000dcc6:	1141                	c.addi	sp,-16
2000dcc8:	c04a                	c.swsp	s2,0(sp)
2000dcca:	c226                	c.swsp	s1,4(sp)
2000dccc:	c422                	c.swsp	s0,8(sp)
2000dcce:	c606                	c.swsp	ra,12(sp)
2000dcd0:	8282                	c.jr	t0

2000dcd2 <__riscv_restore_12>:
2000dcd2:	4db2                	c.lwsp	s11,12(sp)
2000dcd4:	0141                	c.addi	sp,16

2000dcd6 <__riscv_restore_10>:
2000dcd6:	4d02                	c.lwsp	s10,0(sp)
2000dcd8:	4c92                	c.lwsp	s9,4(sp)
2000dcda:	4c22                	c.lwsp	s8,8(sp)
2000dcdc:	4bb2                	c.lwsp	s7,12(sp)
2000dcde:	0141                	c.addi	sp,16

2000dce0 <__riscv_restore_4>:
2000dce0:	4b02                	c.lwsp	s6,0(sp)
2000dce2:	4a92                	c.lwsp	s5,4(sp)
2000dce4:	4a22                	c.lwsp	s4,8(sp)
2000dce6:	49b2                	c.lwsp	s3,12(sp)
2000dce8:	0141                	c.addi	sp,16

2000dcea <__riscv_restore_0>:
2000dcea:	4902                	c.lwsp	s2,0(sp)
2000dcec:	4492                	c.lwsp	s1,4(sp)
2000dcee:	4422                	c.lwsp	s0,8(sp)
2000dcf0:	40b2                	c.lwsp	ra,12(sp)
2000dcf2:	0141                	c.addi	sp,16
2000dcf4:	8082                	c.jr	ra
