
FrL_Network_Master.elf:     file format elf32-littleriscv
FrL_Network_Master.elf
architecture: riscv:rv32, flags 0x00000112:
EXEC_P, HAS_SYMS, D_PAGED
start address 0x20000000

Program Header:
    LOAD off    0x00001000 vaddr 0x20000000 paddr 0x20000000 align 2**12
         filesz 0x0000018a memsz 0x0000018a flags r-x
    LOAD off    0x00002000 vaddr 0x00000000 paddr 0x20000190 align 2**12
         filesz 0x00000154 memsz 0x00000178 flags rwx
    LOAD off    0x00002178 vaddr 0x00000178 paddr 0x200002e8 align 2**12
         filesz 0x0000100c memsz 0x0000100c flags rw-
    LOAD off    0x00003200 vaddr 0x00001200 paddr 0x200012f8 align 2**12
         filesz 0x00004102 memsz 0x00004102 flags r-x
    LOAD off    0x00007400 vaddr 0x20005400 paddr 0x20005400 align 2**12
         filesz 0x00004238 memsz 0x00004238 flags r-x
    LOAD off    0x0000c000 vaddr 0x00080000 paddr 0x20009638 align 2**12
         filesz 0x0000004a memsz 0x00000cb0 flags rw-
0x70000000 off    0x0003c742 vaddr 0x00000000 paddr 0x00000000 align 2**0
         filesz 0x0000003b memsz 0x00000000 flags r--

Sections:
Idx Name          Size      VMA       LMA       File off  Algn
  0 .vectors      0000018a  20000000  20000000  00001000  2**2
                  CONTENTS, ALLOC, LOAD, READONLY, CODE
  1 .retention_reset 00000154  00000000  20000190  00002000  2**2
                  CONTENTS, ALLOC, LOAD, READONLY, CODE
  2 .aes_data     00000020  00000158  200002e8  00002154  2**2
                  ALLOC
  3 .retention_data 0000100c  00000178  200002e8  00002178  2**2
                  CONTENTS, ALLOC, LOAD, DATA
  4 .ram_code     00004102  00001200  200012f8  00003200  2**8
                  CONTENTS, ALLOC, LOAD, READONLY, CODE
  5 .text         000039fc  20005400  20005400  00007400  2**2
                  CONTENTS, ALLOC, LOAD, READONLY, CODE
  6 .rodata       00000730  20008dfc  20008dfc  0000adfc  2**2
                  CONTENTS, ALLOC, LOAD, READONLY, DATA
  7 .eh_frame     000000f8  20009540  20009540  0000b540  2**2
                  CONTENTS, ALLOC, LOAD, READONLY, DATA
  8 .data         0000004a  00080000  20009638  0000c000  2**2
                  CONTENTS, ALLOC, LOAD, DATA
  9 .sbss         0000002c  00080050  20009688  0000c04a  2**2
                  ALLOC
 10 .bss          00000c34  0008007c  200096b4  0000c04a  2**2
                  ALLOC
 11 .debug_info   000126e6  00000000  00000000  0000c04a  2**0
                  CONTENTS, READONLY, DEBUGGING
 12 .debug_abbrev 00000d34  00000000  00000000  0001e730  2**0
                  CONTENTS, READONLY, DEBUGGING
 13 .debug_loc    0000913c  00000000  00000000  0001f464  2**0
                  CONTENTS, READONLY, DEBUGGING
 14 .debug_aranges 000005b8  00000000  00000000  000285a0  2**3
                  CONTENTS, READONLY, DEBUGGING
 15 .debug_ranges 00002ac0  00000000  00000000  00028b58  2**3
                  CONTENTS, READONLY, DEBUGGING
 16 .debug_line   00008eb4  00000000  00000000  0002b618  2**0
                  CONTENTS, READONLY, DEBUGGING
 17 .debug_str    0000823f  00000000  00000000  000344cc  2**0
                  CONTENTS, READONLY, DEBUGGING
 18 .comment      00000037  00000000  00000000  0003c70b  2**0
                  CONTENTS, READONLY
 19 .riscv.attributes 0000003b  00000000  00000000  0003c742  2**0
                  CONTENTS, READONLY
 20 .debug_frame  0000188c  00000000  00000000  0003c780  2**2
                  CONTENTS, READONLY, DEBUGGING
SYMBOL TABLE:
20000000 l    d  .vectors	00000000 .vectors
00000000 l    d  .retention_reset	00000000 .retention_reset
00000158 l    d  .aes_data	00000000 .aes_data
00000178 l    d  .retention_data	00000000 .retention_data
00001200 l    d  .ram_code	00000000 .ram_code
20005400 l    d  .text	00000000 .text
20008dfc l    d  .rodata	00000000 .rodata
20009540 l    d  .eh_frame	00000000 .eh_frame
00080000 l    d  .data	00000000 .data
00080050 l    d  .sbss	00000000 .sbss
0008007c l    d  .bss	00000000 .bss
00000000 l    d  .debug_info	00000000 .debug_info
00000000 l    d  .debug_abbrev	00000000 .debug_abbrev
00000000 l    d  .debug_loc	00000000 .debug_loc
00000000 l    d  .debug_aranges	00000000 .debug_aranges
00000000 l    d  .debug_ranges	00000000 .debug_ranges
00000000 l    d  .debug_line	00000000 .debug_line
00000000 l    d  .debug_str	00000000 .debug_str
00000000 l    d  .comment	00000000 .comment
00000000 l    d  .riscv.attributes	00000000 .riscv.attributes
00000000 l    d  .debug_frame	00000000 .debug_frame
00000000 l    df *ABS*	00000000 ./boot/B91/cstartup_B91.o
20000028 l       .vectors	00000000 _START
20000030 l       .vectors	00000000 _SWS_USB_DIS
2000008e l       .vectors	00000000 _RETENTION_RESET_INIT
200000a6 l       .vectors	00000000 _RETENTION_RESET_BEGIN
200000b8 l       .vectors	00000000 _RETENTION_DATA_INIT
200000cc l       .vectors	00000000 _RETENTION_DATA_INIT_BEGIN
200000de l       .vectors	00000000 _RAMCODE_INIT
200000f6 l       .vectors	00000000 _RAMCODE_INIT_BEGIN
20000108 l       .vectors	00000000 _DATA_INIT
20000120 l       .vectors	00000000 _DATA_INIT_BEGIN
20000132 l       .vectors	00000000 _ZERO_BSS
20000146 l       .vectors	00000000 _ZERO_BSS_BEGIN
20000152 l       .vectors	00000000 _ZERO_AES
20000166 l       .vectors	00000000 _ZERO_AES_BEGIN
20000172 l       .vectors	00000000 _FILL_STK
20000172 l       .vectors	00000000 _MAIN_FUNC
20000188 l       .vectors	00000000 _END
00000022 l       .retention_reset	00000000 _ISTART
0000002a l       .retention_reset	00000000 _ISWS_USB_DIS
00000088 l       .retention_reset	00000000 _WAKEUP_FLASH
000000a2 l       .retention_reset	00000000 _MSPI_WAIT
000000bc l       .retention_reset	00000000 _WAIT_EFUSE_LOAD_FINISH
000000c2 l       .retention_reset	00000000 _MULTI_ADDRESS_BEGIN
000000d2 l       .retention_reset	00000000 _IDATA_INIT
000000ea l       .retention_reset	00000000 _IDATA_INIT_BEGIN
000000fc l       .retention_reset	00000000 _IZERO_BSS
00000110 l       .retention_reset	00000000 _IZERO_BSS_BEGIN
0000011c l       .retention_reset	00000000 _IZERO_AES
00000130 l       .retention_reset	00000000 _IZERO_AES_BEGIN
0000013c l       .retention_reset	00000000 _IFILL_STK
0000013c l       .retention_reset	00000000 _IMAIN_FUNC
00000152 l       .retention_reset	00000000 _IEND
00000040 l       *ABS*	00000000 irqno
00000000 l    df *ABS*	00000000 
00001200 l     F .ram_code	00000034 rf_set_power_level_index.constprop.37
00001234 l     F .ram_code	00000048 ble_rf_set_tx_dma.constprop.17
0000127c l     F .ram_code	0000005c rf_start_fsm.constprop.16
000012d8 l     F .ram_code	00000010 smemset.constprop.12
000012e8 l     F .ram_code	00000018 smemcpy
00001300 l     F .ram_code	000001b4 aes_ccmBaseTran.isra.0.constprop.13
000014b4 l     F .ram_code	000001bc aes_ccmAuthTran.constprop.11
00001670 l     F .ram_code	000000d4 aes_ll_ccm_decryption.constprop.9
200054a0 l     F .text	00000014 blc_hci_send_event
200054b8 l     F .text	00000148 blt_leg_scan_mainloop_task
00001744 l     F .ram_code	0000007c blt_ll_searchAddr_in_WhiteList
000017c0 l     F .ram_code	0000018c blt_ll_channel_conn_update
0000194c l     F .ram_code	000000d0 bls_ll_setAdvEnable
00001a1c l     F .ram_code	00000024 irq_ll_system_timer
00001a40 l     F .ram_code	00000040 blt_event_callback_func
00001a80 l     F .ram_code	0000004c trng_rand
00001acc l     F .ram_code	00000040 rf_set_rxmode
00001b0c l     F .ram_code	00000048 pm_tim_recover_32k_rc
00001b54 l     F .ram_code	00000048 pm_get_32k_rc_calib
00001b9c l     F .ram_code	0000005c pm_update_32k_rc_sleep_tick
00001bf8 l     F .ram_code	00000138 rf_set_ble_channel
00001d30 l     F .ram_code	0000001c ble_rx_dma_config
00001d4c l     F .ram_code	0000001c ble_tx_dma_config
00001d68 l     F .ram_code	00000050 blc_ll_initBasicMCU
00001db8 l     F .ram_code	00000048 ble_rf_set_rx_dma
00001e00 l     F .ram_code	000000cc blt_setScan_enter_manaul_rx
00001ecc l     F .ram_code	000001e8 irq_blc_ll_rx
000020b4 l     F .ram_code	000001a0 irq_blt_sdk_handler
20005600 l     F .text	00000048 generateRandomNum
00002254 l     F .ram_code	00000004 stimer_irq_handler
00002258 l     F .ram_code	00000004 rf_irq_handler
0000225c l     F .ram_code	00000024 delay_ms
20005648 l     F .text	00000068 pwm_kick_32k_pad.constprop.20
00002280 l     F .ram_code	0000001c delay_us
0000229c l     F .ram_code	00000044 flash_send_addr
000022e0 l     F .ram_code	0000004c flash_send_cmd
0000232c l     F .ram_code	00000168 flash_mspi_read_ram
200056b0 l     F .text	000000b2 blc_readFlashSize_autoConfigCustomFlashSector
00002494 l     F .ram_code	00000048 flash_wait_done
000024dc l     F .ram_code	000000c8 flash_mspi_write_ram.constprop.44
20005400 l     F .text	00000058 flash_page_program
20005458 l     F .text	0000002c flash_dread
000025a4 l     F .ram_code	00000060 clock_set_32k_tick
20005764 l     F .text	00000050 FL_QUEUE_GET
200057b4 l     F .text	00000058 FL_QUEUE_ADD
2000580c l     F .text	00000148 fl_rtc_timestamp_to_datetime
20005954 l     F .text	00000042 analog_read_reg32.constprop.48
00002604 l     F .ram_code	00000030 clock_get_32k_tick
00002634 l     F .ram_code	00000098 smp_quickResolvPrivateAddr
000026cc l     F .ram_code	00000070 blt_ll_searchAddr_in_ResolvingList
0000273c l     F .ram_code	0000002c ll_searchAddr_in_WhiteList_and_ResolvingList
00002768 l     F .ram_code	00000154 irq_scan_rx_primary_channel
000028bc l     F .ram_code	00000078 blc_ll_getTxFifoNumber
00002934 l     F .ram_code	00000094 cpu_stall_WakeUp_By_RF_SystemTick
000029c8 l     F .ram_code	0000003c analog_write_reg8
20005998 l     F .text	00000080 pwm_kick_32k_pad_times.constprop.19
00002a04 l     F .ram_code	00000104 rf_drv_ble_init
00002b08 l     F .ram_code	00000044 analog_read_reg8
00002b4c l     F .ram_code	00000140 clock_init.constprop.45
00002c8c l     F .ram_code	000000b4 pm_wait_bbpll_done
00002d40 l     F .ram_code	000001a4 pm_sleep_start
00002ee4 l     F .ram_code	0000046c cpu_sleep_wakeup_32k_rc_ram
20005484 l     F .text	0000001a cpu_sleep_wakeup_32k_rc
20005a1c l     F .text	00000096 gpio_set_up_down_res
20005ab4 l     F .text	000000da clock_cal_32k_rc
20005b90 l     F .text	000000d4 cpu_wakeup_no_deepretn_back_init
00003350 l     F .ram_code	0000008c clock_cal_24m_rc
000033dc l     F .ram_code	000003d0 blt_sdk_main_loop
000037ac l     F .ram_code	000000d8 dr_putchar
20005c68 l     F .text	000000a6 fl_durationADV_timeout_proccess
20005d10 l     F .text	0000013a app_system_time_sync
00003884 l     F .ram_code	00000254 sys_init.constprop.18
00003ad8 l     F .ram_code	000002b4 bls_ll_procRxPacket.constprop.14
20005e4c l     F .text	000004c0 blt_send_adv
20006310 l     F .text	00000072 FL_QUEUE_FIND
20006384 l     F .text	00000050 blt_soft_timer_delete_by_index.part.0
200063d8 l     F .text	000000b2 blt_soft_timer_delete
2000648c l     F .text	00000096 blt_soft_timer_sort
20006524 l     F .text	000000fa blt_soft_timer_process
20006620 l     F .text	00000064 blt_soft_timer_add
20006684 l     F .text	00000166 fl_input_collection_node_handle.constprop.22
20006c10 l     F .text	00000302 fl_send_collection_req
200067ec l     F .text	000002ae fl_master_ProccesRSP_cbk
20006a9c l     F .text	00000172 fl_controller_event_callback
20006f14 l     F .text	0000075e main_loop
20007674 l     F .text	00000976 user_init_normal
00000158 l     O .aes_data	00000020 aes_data_buff
0008007c l     O .bss	00000410 g_data_array
0008048c l     O .bss	00000410 g_handle_master_array
0008089c l     O .bss	00000410 g_sending_array
00080000 l     O .data	00000012 pkt_scan_req
00000178 l     O .retention_data	0000002b pkt_adv
000001a4 l     O .retention_data	00000070 tbl_bondDevice
00000214 l     O .retention_data	00000028 blc_cyrpt_para
0000023c l     O .retention_data	00000004 blc_gap_event_handler
00000240 l     O .retention_data	00000004 gAttributes
00000244 l     O .retention_data	00000048 smp_param_own
0000028c l     O .retention_data	00000050 smp_param_peer
000002dc l     O .retention_data	00000018 blc_smpMng
000002f4 l     O .retention_data	0000002c bltParam
00000320 l     O .retention_data	00000001 smp_DistributeKeyInit
00000324 l     O .retention_data	00000001 smp_DistributeKeyResp
00000328 l     O .retention_data	00000004 smp_phase_record
0000032c l     O .retention_data	00000004 gap_eventMask
00000330 l     O .retention_data	00000004 blc_hci_event_handler
00000334 l     O .retention_data	00000008 scan_priRxFifo
0000033c l     O .retention_data	00000004 hci_le_eventMask
00000340 l     O .retention_data	00000022 ll_whiteList_tbl
00000364 l     O .retention_data	00000068 bltc
000003cc l     O .retention_data	00000058 blttcon
00000424 l     O .retention_data	00000004 blc_tlkEvent_pending
00000428 l     O .retention_data	00000010 blc_tlkEvent_data
00000438 l     O .retention_data	0000000c blt_conn_phy
00000444 l     O .retention_data	00000004 blt_advExpectTime
00000448 l     O .retention_data	00000018 blta
00000460 l     O .retention_data	00000004 ll_irq_systemTick_conn_cb
00000464 l     O .retention_data	00000004 hci_tlk_module_eventMask
00000468 l     O .retention_data	00000050 blt_event_func
000004b8 l     O .retention_data	00000004 g_rnd_m_w
000004bc l     O .retention_data	00000004 g_rnd_m_z
000004c0 l     O .retention_data	00000029 pmcd
000004ec l     O .retention_data	00000004 g_pm_tick_32k_calib
000004f0 l     O .retention_data	00000001 g_pm_long_suspend
000004f4 l     O .retention_data	00000004 ll_phy_switch_cb
000004f8 l     O .retention_data	00000010 bltPHYs
00000508 l     O .retention_data	00000018 blts
00000520 l     O .retention_data	00000003 blc_adv_channel
00000524 l     O .retention_data	00000010 blt_rxfifo
00000534 l     O .retention_data	00000014 bltData
00000548 l     O .retention_data	00000004 ll_irq_rx_data_cb
0000054c l     O .retention_data	00000004 ll_irq_scan_rx_pri_chn_cb
00000550 l     O .retention_data	00000004 blc_rf_pa_cb
00000554 l     O .retention_data	00000004 ll_irq_tx_cb
00000558 l     O .retention_data	00000010 blt_txfifo
00000568 l     O .retention_data	00000004 flash_sector_mac_address
0000056c l     O .retention_data	00000004 flash_sector_calibration
00000570 l     O .retention_data	00000032 ll_resolvingList_tbl
000005a4 l     O .retention_data	00000004 pm_get_32k_tick
000005a8 l     O .retention_data	00000001 g_pm_suspend_power_cfg
000005ac l     O .retention_data	00000004 func_before_suspend
000005b0 l     O .retention_data	00000004 g_pm_tick_32k_cur
000005b4 l     O .retention_data	00000004 g_pm_tick_cur
000005bc l     O .retention_data	00000004 blt_miscParam
000005c0 l     O .retention_data	00000006 adc_vref_cfg
000005c8 l     O .retention_data	00000004 blc_main_loop_phyTest_cb
000005cc l     O .retention_data	00000004 blc_main_loop_data_cb
000005d0 l     O .retention_data	00000004 ll_leg_scan_mlp_task_cb
000005d4 l     O .retention_data	00000004 blt_p_event_callback
000005d8 l     O .retention_data	00000004 ll_push_tx_fifo_handler
000005dc l     O .retention_data	00000004 blc_main_loop_post_cb
000005e0 l     O .retention_data	00000004 ll_host_main_loop_cb
000005e4 l     O .retention_data	00000004 blc_hci_rx_handler
000005e8 l     O .retention_data	00000004 blc_hci_tx_handler
000005ec l     O .retention_data	00000004 pm_check_32k_clk_stable
000005f0 l     O .retention_data	00000001 x_freertos_on
000005f4 l     O .retention_data	00000004 ll_module_pm_cb
000005f8 l     O .retention_data	00000030 bltPm
00000628 l     O .retention_data	00000004 ll_module_adv_cb
0000062c l     O .retention_data	00000004 ll_enter_pri_chn_scan_cb
00000630 l     O .retention_data	00000004 ll_module_advSlave_cb
00000634 l     O .retention_data	00000004 tick_rc24mCal
00000638 l     O .retention_data	00000001 SENDING_STATE
0000063c l     O .retention_data	00000004 RTC_OFFSET_TIME
00000640 l     O .retention_data	00000004 pm_tim_recover
00000644 l     O .retention_data	00000004 cpu_sleep_wakeup
00000648 l     O .retention_data	00000040 adv_rx_buff
00000688 l     O .retention_data	0000002b pkt_scan_rsp
000006b3 l     O .retention_data	00000001 adv_peak_current_opt
000006b4 l     O .retention_data	00000004 ll_adv2conn_cb
000006b8 l     O .retention_data	00000004 advertise_prepare_handler
000006bc l     O .retention_data	00000001 adv_decrease_time_opt
000006c0 l     O .retention_data	00000004 flash_write_page
000006c4 l     O .retention_data	00000004 flash_read_page
000006c8 l     O .retention_data	00000024 mlDevMng
000006ec l     O .retention_data	00000004 bond_device_flash_cfg_idx
000006f0 l     O .retention_data	00000004 smp_param_current_start_addr
000006f4 l     O .retention_data	00000031 blt_timer
00000728 l     O .retention_data	0000001c smpResSignalPkt
00000744 l     O .retention_data	0000000b pkt_errRsp
00000750 l     O .retention_data	00000100 blt_buff_prepare_write
00000850 l     O .retention_data	00000009 pkt_mtu_rsp
0000085c l     O .retention_data	0000000c l2cap_buff
00001084 l     O .retention_data	00000100 blt_buff_ll_rx
00000f84 l     O .retention_data	00000100 blt_buff_att_tx
00000868 l     O .retention_data	00000010 smpOwnRand_const
00000878 l     O .retention_data	00000001 smpPkShftCnt
0000087c l     O .retention_data	00000004 func_smp_sc_pushPkt_proc
00000880 l     O .retention_data	00000010 smpOwnParingConfirm
00000890 l     O .retention_data	00000004 func_smp_sc_proc
00000894 l     O .retention_data	0000000a bltAtt
000008a0 l     O .retention_data	00000004 pAppPrepareWriteBuff
000008a4 l     O .retention_data	00000002 prepare_pkt_current_len
000008a6 l     O .retention_data	00000002 pAppPrepareWrite_max_len
000008a8 l     O .retention_data	00000004 hid_reportmap_psrc
000008ac l     O .retention_data	00000004 hid_reportmap_len
000008b0 l     O .retention_data	00000004 att_client_handler
000008b4 l     O .retention_data	00000004 att_sig_hander
000008b8 l     O .retention_data	00000004 l2cap_connUpdateRsp_cb
000008bc l     O .retention_data	0000000c bltMac
000008c8 l     O .retention_data	00000008 advData_backup
000008d0 l     O .retention_data	00000330 app_acl_txfifo
00000c00 l     O .retention_data	00000180 app_acl_rxfifo
00000d80 l     O .retention_data	00000200 scan_pri_chn_rx_fifo
00000f80 l     O .retention_data	00000001 g_plic_preempt_en
20008dfc l     O .rodata	00000015 __FUNCTION__.12950
20008e14 l     O .rodata	00000019 __FUNCTION__.12952
20008e30 l     O .rodata	00000011 __FUNCTION__.12986
20008e44 l     O .rodata	0000001d __FUNCTION__.13008
20008e64 l     O .rodata	00000013 __FUNCTION__.13037
20008e78 l     O .rodata	00000020 __FUNCTION__.13045
20008e98 l     O .rodata	00000012 __FUNCTION__.13046
20008eac l     O .rodata	00000014 __FUNCTION__.13049
20008ec0 l     O .rodata	00000014 __FUNCTION__.13130
20008ed4 l     O .rodata	0000000c __FUNCTION__.13153
20008ee0 l     O .rodata	00000014 __FUNCTION__.13203
20008ef4 l     O .rodata	0000000b __FUNCTION__.13358
20008f00 l     O .rodata	0000000c __FUNCTION__.9829
20008f0c l     O .rodata	00000020 __FUNCTION__.9839
20008fac l     O .rodata	0000000c days_in_month
00080050 l     O .sbss	00000008 G_INPUT_EXT
00080058 l     O .sbss	00000004 g_chip_version
0008005c l     O .sbss	00000004 g_pm_status_info
00080060 l     O .sbss	00000001 g_single_tong_freqoffset
00080064 l     O .sbss	00000004 mcause
00080068 l     O .sbss	00000004 mepc
0008006c l     O .sbss	00000001 previous_stt.9823
00080012 l     O .data	00000002 FmDebug
00080014 l     O .data	00000008 G_DATA_CONTAINER
0008001c l     O .data	00000008 G_HANDLE_MASTER_CONTAINER
00080024 l     O .data	00000008 G_QUEUE_SENDING
0008002c l     O .data	00000004 TXADDR
00080030 l     O .data	00000006 blt_tx_empty_packet
00080038 l     O .data	00000008 g_pm_early_wakeup_time_us
00080040 l     O .data	00000004 g_pm_r_delay_cycle
00080044 l     O .data	00000006 sys_clk
20009524 l     O .rodata	00000004 rf_rx_dma_config
20009528 l     O .rodata	00000004 rf_tx_dma_config
00000000 l    df *ABS*	00000000 memcpy.c
00000000 l    df *ABS*	00000000 printf.c
00000000 l    df *ABS*	00000000 strrchr.c
00000000 l    df *ABS*	00000000 vprintf.c
20008276 l     F .text	00000038 __vprintf_help
00080070 l     O .sbss	00000004 __vprintf_buf
00080074 l     O .sbss	00000004 __vprintf_buf_len
00000000 l    df *ABS*	00000000 printf_impl.c
00000000 l    df *ABS*	00000000 printf_impl_float.c
00000000 l    df *ABS*	00000000 strcpy.c
00000000 l    df *ABS*	00000000 strnlen.c
00000000 l    df *ABS*	00000000 libgcc2.c
00000000 l    df *ABS*	00000000 libgcc2.c
00000000 l    df *ABS*	00000000 printf_data.c
000042e4 g     F .ram_code	00000048 entry_irq55
00004cdc g     F .ram_code	00000044 entry_irq13
20008ca4 g     F .text	0000007c strcpy
00004bc4 g     F .ram_code	000000d4 entry_irq15
20008d6c g     F .text	0000002e .hidden __ashldi3
00004894 g     F .ram_code	00000044 entry_irq27
0000417c g     F .ram_code	00000048 entry_irq60
0000500c g     F .ram_code	000000d4 entry_irq1
000043bc g     F .ram_code	00000048 entry_irq52
0000444c g     F .ram_code	00000048 entry_irq50
000040ec g     F .ram_code	00000048 entry_irq62
2000822c g     F .text	0000001e printf
00080800 g       .data	00000000 __global_pointer$
20008da4 g       .text	00000000 .hidden __riscv_save_8
0000420c g     F .ram_code	00000048 entry_irq58
20008df0 g       .text	00000000 .hidden __riscv_restore_3
00001184 g       .retention_data	00000000 _RETENTION_DATA_VMA_END
20008ddc g       .text	00000000 .hidden __riscv_restore_10
20008da4 g       .text	00000000 .hidden __riscv_save_11
200082f8 g     F .text	0000004c __print_integral
00000000 g       .retention_reset	00000000 _RETENTION_RESET_VMA_START
00004da8 g     F .ram_code	00000044 entry_irq10
00004a2c g     F .ram_code	00000044 entry_irq21
00000158 g       .aes_data	00000000 _AES_VMA_START
00004498 g     F .ram_code	00000004 entry_irq48
20008df0 g       .text	00000000 .hidden __riscv_restore_2
00004e30 g     F .ram_code	00000044 entry_irq8
000046f4 g     F .ram_code	00000048 entry_irq33
00080cb0 g       .bss	00000000 _BSS_VMA_END
20008088 g     F .text	000000fa memcpy
20000190 g       *ABS*	00000000 _RETENTION_RESET_LMA_START
20008344 g     F .text	0000047a __printf_impl
00004d20 g     F .ram_code	00000044 entry_irq12
00004c98 g     F .ram_code	00000044 entry_irq14
20008d9c g       .text	00000000 .hidden __riscv_save_12
00004fc8 g     F .ram_code	00000044 entry_irq2
00004404 g     F .ram_code	00000048 entry_irq51
20008ddc g       .text	00000000 .hidden __riscv_restore_11
00004850 g     F .ram_code	00000044 entry_irq28
00004534 g     F .ram_code	00000048 entry_irq43
20008dcc g       .text	00000000 .hidden __riscv_save_1
20008df0 g       .text	00000000 .hidden __riscv_restore_0
00004a70 g     F .ram_code	00000044 entry_irq20
20008db2 g       .text	00000000 .hidden __riscv_save_7
00080050 g       .sbss	00000000 _BSS_VMA_START
000040a4 g     F .ram_code	00000048 entry_irq63
0008004a g       .data	00000000 _DATA_VMA_END
000044a0 g     F .ram_code	00000048 entry_irq46
00004784 g     F .ram_code	00000044 entry_irq31
00004b80 g     F .ram_code	00000044 entry_irq16
00100000 g       *ABS*	00000000 FLASH_SIZE
20008de6 g       .text	00000000 .hidden __riscv_restore_5
00080000 g       .data	00000000 _DATA_VMA_START
00004374 g     F .ram_code	00000048 entry_irq53
00004d64 g     F .ram_code	00000044 entry_irq11
00000154 g       .retention_reset	00000000 _RETENTION_RESET_VMA_END
20008d22 g     F .text	00000018 strnlen
20008de6 g       .text	00000000 .hidden __riscv_restore_6
2000824a g     F .text	0000002c strrchr
00004efc g     F .ram_code	00000044 entry_irq5
000049a4 g     F .ram_code	00000044 entry_irq23
000046ac g     F .ram_code	00000048 entry_irq34
20008d3c g     F .text	0000002e .hidden __lshrdi3
0000461c g     F .ram_code	00000048 entry_irq36
20008da4 g       .text	00000000 .hidden __riscv_save_9
000044ec g     F .ram_code	00000048 entry_irq44
200082ae g     F .text	0000004a vprintf
000044e8 g     F .ram_code	00000004 entry_irq45
000048d8 g     F .ram_code	00000044 entry_irq26
20008db2 g       .text	00000000 .hidden __riscv_save_4
000045c4 g     F .ram_code	00000004 entry_irq41
00004134 g     F .ram_code	00000048 entry_irq61
20000000 g       .vectors	00000000 BIN_BEGIN
20008dcc g       .text	00000000 .hidden __riscv_save_3
000045d0 g     F .ram_code	00000004 entry_irq38
00005200 g       .ram_code	00000000 __vectors
00009682 g       *ABS*	00000000 BIN_SIZE
2000950c g     O .rodata	00000010 __digits
200012f8 g       *ABS*	00000000 _RAMCODE_LMA_START
00080078 g     O .sbss	00000004 __printf_count
000041c4 g     F .ram_code	00000048 entry_irq59
20008038 g     F .text	0000004e memcmp
00004eb8 g     F .ram_code	00000044 entry_irq6
20008da4 g       .text	00000000 .hidden __riscv_save_10
20009638 g       *ABS*	00000000 _DATA_LMA_START
200087de g     F .text	00000090 __print_integral_poly
20000000 g       *ABS*	00000000 NDS_SAG_LMA_FLASH
20008de6 g       .text	00000000 .hidden __riscv_restore_4
20008ddc g       .text	00000000 .hidden __riscv_restore_8
20008db2 g       .text	00000000 .hidden __riscv_save_6
20000000  w      .vectors	00000000 _RELAX_END_
2000886e g     F .text	00000402 __printf_float_impl
20008182 g     F .text	000000aa memset
20008ddc g       .text	00000000 .hidden __riscv_restore_9
20008de6 g       .text	00000000 .hidden __riscv_restore_7
00003d8c g     F .ram_code	00000318 main
00004f84 g     F .ram_code	00000044 entry_irq3
000050e0 g     F .ram_code	00000034 trap_entry
00000178 g       .aes_data	00000000 _AES_VMA_END
000045cc g     F .ram_code	00000004 entry_irq39
00004494 g     F .ram_code	00000004 entry_irq49
000005b8 g     O .retention_data	00000004 g_pm_multi_addr
00004254 g     F .ram_code	00000048 entry_irq57
0000449c g     F .ram_code	00000004 entry_irq47
200002e8 g       *ABS*	00000000 _RETENTION_DATA_LMA_START
20000000 g     F .vectors	00000000 _RESET_ENTRY
00000178 g       .retention_data	00000000 _RETENTION_DATA_VMA_START
00004f40 g     F .ram_code	00000044 entry_irq4
000a0000 g       *ABS*	00000000 _STACK_TOP
000049e8 g     F .ram_code	00000044 entry_irq22
000047c8 g     F .ram_code	00000044 entry_irq30
0000457c g     F .ram_code	00000048 entry_irq42
00004960 g     F .ram_code	00000044 entry_irq24
20008dcc g       .text	00000000 .hidden __riscv_save_2
00005302 g       .ram_code	00000000 _RAMCODE_VMA_END
00000000  w      *ABS*	00000000 _ITB_BASE_
20008db2 g       .text	00000000 .hidden __riscv_save_5
00004ab4 g     F .ram_code	00000044 entry_irq19
20007fec g     F .text	0000004c _write
00080cb0 g       .bss	00000000 _end
00004b3c g     F .ram_code	00000044 entry_irq17
00004dec g     F .ram_code	00000044 entry_irq9
0000429c g     F .ram_code	00000048 entry_irq56
00004664 g     F .ram_code	00000048 entry_irq35
000045d4 g     F .ram_code	00000048 entry_irq37
0000432c g     F .ram_code	00000048 entry_irq54
000045c8 g     F .ram_code	00000004 entry_irq40
20008dd8 g       .text	00000000 .hidden __riscv_restore_12
00001200 g       .ram_code	00000000 _RAMCODE_VMA_START
20008dcc g       .text	00000000 .hidden __riscv_save_0
0000480c g     F .ram_code	00000044 entry_irq29
20008c70 g     F .text	00000030 strchr
20008df0 g       .text	00000000 .hidden __riscv_restore_1
00004e74 g     F .ram_code	00000044 entry_irq7
0000473c g     F .ram_code	00000048 entry_irq32
00000000 g     F .retention_reset	00000000 _IRESET_ENTRY
00004af8 g     F .ram_code	00000044 entry_irq18
200087be g     F .text	00000020 __int_to_poly
0000491c g     F .ram_code	00000044 entry_irq25



Disassembly of section .vectors:

20000000 <_RESET_ENTRY>:
20000000:	a025                	c.j	20000028 <_START>
	...
20000016:	0000                	unimp
20000018:	9682                	c.jalr	a3
2000001a:	0000                	unimp
2000001c:	0000                	unimp
2000001e:	0000                	unimp
20000020:	544c4e4b          	fnmsub.h	ft8,fs8,ft4,fa0,rmm
20000024:	0000                	unimp
20000026:	          	sllw	a4,zero,zero

20000028 <_START>:
20000028:	e0080197          	auipc	gp,0xe0080
2000002c:	7d818193          	addi	gp,gp,2008 # 80800 <__global_pointer$>

20000030 <_SWS_USB_DIS>:
20000030:	801002b7          	lui	t0,0x80100
20000034:	70028293          	addi	t0,t0,1792 # 80100700 <_DATA_LMA_START+0x600f70c8>
20000038:	04000313          	li	t1,64
2000003c:	506280a3          	sb	t1,1281(t0)
20000040:	e00a0297          	auipc	t0,0xe00a0
20000044:	fc028293          	addi	t0,t0,-64 # a0000 <_STACK_TOP>
20000048:	8116                	c.mv	sp,t0
2000004a:	e0000297          	auipc	t0,0xe0000
2000004e:	fb628293          	addi	t0,t0,-74 # 0 <_ITB_BASE_>
20000052:	80029073          	csrw	uitb,t0
20000056:	6299                	c.lui	t0,0x6
20000058:	3002a2f3          	csrrs	t0,mstatus,t0
2000005c:	00301073          	fssr	zero
20000060:	e0005297          	auipc	t0,0xe0005
20000064:	1a028293          	addi	t0,t0,416 # 5200 <__vectors>
20000068:	30529073          	csrw	mtvec,t0
2000006c:	7d016073          	csrsi	mmisc_ctl,2
20000070:	e40002b7          	lui	t0,0xe4000
20000074:	430d                	c.li	t1,3
20000076:	0062a023          	sw	t1,0(t0) # e4000000 <_DATA_LMA_START+0xc3ff69c8>
2000007a:	7ca022f3          	csrr	t0,mcache_ctl
2000007e:	0012e293          	ori	t0,t0,1
20000082:	0022e293          	ori	t0,t0,2
20000086:	7ca29073          	csrw	mcache_ctl,t0
2000008a:	0000100f          	fence.i

2000008e <_RETENTION_RESET_INIT>:
2000008e:	00000317          	auipc	t1,0x0
20000092:	10230313          	addi	t1,t1,258 # 20000190 <_RETENTION_RESET_LMA_START>
20000096:	e0000397          	auipc	t2,0xe0000
2000009a:	f6a38393          	addi	t2,t2,-150 # 0 <_ITB_BASE_>
2000009e:	e0000e17          	auipc	t3,0xe0000
200000a2:	0b6e0e13          	addi	t3,t3,182 # 154 <_RETENTION_RESET_VMA_END>

200000a6 <_RETENTION_RESET_BEGIN>:
200000a6:	01c3f963          	bgeu	t2,t3,200000b8 <_RETENTION_DATA_INIT>
200000aa:	00032283          	lw	t0,0(t1)
200000ae:	0053a023          	sw	t0,0(t2)
200000b2:	0311                	c.addi	t1,4
200000b4:	0391                	c.addi	t2,4
200000b6:	bfc5                	c.j	200000a6 <_RETENTION_RESET_BEGIN>

200000b8 <_RETENTION_DATA_INIT>:
200000b8:	00000317          	auipc	t1,0x0
200000bc:	23030313          	addi	t1,t1,560 # 200002e8 <_RETENTION_DATA_LMA_START>
200000c0:	17800393          	li	t2,376
200000c4:	e0001e17          	auipc	t3,0xe0001
200000c8:	0c0e0e13          	addi	t3,t3,192 # 1184 <_RETENTION_DATA_VMA_END>

200000cc <_RETENTION_DATA_INIT_BEGIN>:
200000cc:	01c3f963          	bgeu	t2,t3,200000de <_RAMCODE_INIT>
200000d0:	00032283          	lw	t0,0(t1)
200000d4:	0053a023          	sw	t0,0(t2)
200000d8:	0311                	c.addi	t1,4
200000da:	0391                	c.addi	t2,4
200000dc:	bfc5                	c.j	200000cc <_RETENTION_DATA_INIT_BEGIN>

200000de <_RAMCODE_INIT>:
200000de:	00001317          	auipc	t1,0x1
200000e2:	21a30313          	addi	t1,t1,538 # 200012f8 <_RAMCODE_LMA_START>
200000e6:	e0001397          	auipc	t2,0xe0001
200000ea:	11a38393          	addi	t2,t2,282 # 1200 <rf_set_power_level_index.constprop.37>
200000ee:	e0005e17          	auipc	t3,0xe0005
200000f2:	214e0e13          	addi	t3,t3,532 # 5302 <_RAMCODE_VMA_END>

200000f6 <_RAMCODE_INIT_BEGIN>:
200000f6:	01c3f963          	bgeu	t2,t3,20000108 <_DATA_INIT>
200000fa:	00032283          	lw	t0,0(t1)
200000fe:	0053a023          	sw	t0,0(t2)
20000102:	0311                	c.addi	t1,4
20000104:	0391                	c.addi	t2,4
20000106:	bfc5                	c.j	200000f6 <_RAMCODE_INIT_BEGIN>

20000108 <_DATA_INIT>:
20000108:	00009317          	auipc	t1,0x9
2000010c:	53030313          	addi	t1,t1,1328 # 20009638 <_DATA_LMA_START>
20000110:	e0080397          	auipc	t2,0xe0080
20000114:	ef038393          	addi	t2,t2,-272 # 80000 <_DATA_VMA_START>
20000118:	e0080e17          	auipc	t3,0xe0080
2000011c:	f32e0e13          	addi	t3,t3,-206 # 8004a <_DATA_VMA_END>

20000120 <_DATA_INIT_BEGIN>:
20000120:	01c3f963          	bgeu	t2,t3,20000132 <_ZERO_BSS>
20000124:	00032283          	lw	t0,0(t1)
20000128:	0053a023          	sw	t0,0(t2)
2000012c:	0311                	c.addi	t1,4
2000012e:	0391                	c.addi	t2,4
20000130:	bfc5                	c.j	20000120 <_DATA_INIT_BEGIN>

20000132 <_ZERO_BSS>:
20000132:	000002b7          	lui	t0,0x0
20000136:	e0080397          	auipc	t2,0xe0080
2000013a:	f1a38393          	addi	t2,t2,-230 # 80050 <_BSS_VMA_START>
2000013e:	e0081e17          	auipc	t3,0xe0081
20000142:	b72e0e13          	addi	t3,t3,-1166 # 80cb0 <_BSS_VMA_END>

20000146 <_ZERO_BSS_BEGIN>:
20000146:	01c3f663          	bgeu	t2,t3,20000152 <_ZERO_AES>
2000014a:	0053a023          	sw	t0,0(t2)
2000014e:	0391                	c.addi	t2,4
20000150:	bfdd                	c.j	20000146 <_ZERO_BSS_BEGIN>

20000152 <_ZERO_AES>:
20000152:	000002b7          	lui	t0,0x0
20000156:	e0000397          	auipc	t2,0xe0000
2000015a:	00238393          	addi	t2,t2,2 # 158 <_AES_VMA_START>
2000015e:	e0000e17          	auipc	t3,0xe0000
20000162:	01ae0e13          	addi	t3,t3,26 # 178 <_AES_VMA_END>

20000166 <_ZERO_AES_BEGIN>:
20000166:	01c3f663          	bgeu	t2,t3,20000172 <_FILL_STK>
2000016a:	0053a023          	sw	t0,0(t2)
2000016e:	0391                	c.addi	t2,4
20000170:	bfdd                	c.j	20000166 <_ZERO_AES_BEGIN>

20000172 <_FILL_STK>:
20000172:	0001                	c.nop
20000174:	e0004297          	auipc	t0,0xe0004
20000178:	c1828293          	addi	t0,t0,-1000 # 3d8c <main>
2000017c:	9282                	c.jalr	t0
2000017e:	0001                	c.nop
20000180:	0001                	c.nop
20000182:	0001                	c.nop
20000184:	0001                	c.nop
20000186:	0001                	c.nop

20000188 <_END>:
20000188:	a001                	c.j	20000188 <_END>

Disassembly of section .retention_reset:

00000000 <_IRESET_ENTRY>:
   0:	a00d                	c.j	22 <_ISTART>
	...

00000022 <_ISTART>:
  22:	00080197          	auipc	gp,0x80
  26:	7de18193          	addi	gp,gp,2014 # 80800 <__global_pointer$>

0000002a <_ISWS_USB_DIS>:
  2a:	801002b7          	lui	t0,0x80100
  2e:	70028293          	addi	t0,t0,1792 # 80100700 <_DATA_LMA_START+0x600f70c8>
  32:	04000313          	li	t1,64
  36:	506280a3          	sb	t1,1281(t0)
  3a:	000a0297          	auipc	t0,0xa0
  3e:	fc628293          	addi	t0,t0,-58 # a0000 <_STACK_TOP>
  42:	8116                	c.mv	sp,t0
  44:	00000297          	auipc	t0,0x0
  48:	fbc28293          	addi	t0,t0,-68 # 0 <_IRESET_ENTRY>
  4c:	80029073          	csrw	uitb,t0
  50:	6299                	c.lui	t0,0x6
  52:	3002a2f3          	csrrs	t0,mstatus,t0
  56:	00301073          	fssr	zero
  5a:	00005297          	auipc	t0,0x5
  5e:	1a628293          	addi	t0,t0,422 # 5200 <__vectors>
  62:	30529073          	csrw	mtvec,t0
  66:	7d016073          	csrsi	mmisc_ctl,2
  6a:	e40002b7          	lui	t0,0xe4000
  6e:	430d                	c.li	t1,3
  70:	0062a023          	sw	t1,0(t0) # e4000000 <_DATA_LMA_START+0xc3ff69c8>
  74:	7ca022f3          	csrr	t0,mcache_ctl
  78:	0012e293          	ori	t0,t0,1
  7c:	0022e293          	ori	t0,t0,2
  80:	7ca29073          	csrw	mcache_ctl,t0
  84:	0000100f          	fence.i

00000088 <_WAKEUP_FLASH>:
  88:	801402b7          	lui	t0,0x80140
  8c:	0ff00313          	li	t1,255
  90:	4381                	c.li	t2,0
  92:	0ab00e13          	li	t3,171
  96:	326284a3          	sb	t1,809(t0) # 80140329 <_DATA_LMA_START+0x60136cf1>
  9a:	107280a3          	sb	t2,257(t0)
  9e:	11c28023          	sb	t3,256(t0)

000000a2 <_MSPI_WAIT>:
  a2:	801402b7          	lui	t0,0x80140
  a6:	10228383          	lb	t2,258(t0) # 80140102 <_DATA_LMA_START+0x60136aca>
  aa:	4e05                	c.li	t3,1
  ac:	4ec1                	c.li	t4,16
  ae:	fe7e0ae3          	beq	t3,t2,a2 <_MSPI_WAIT>
  b2:	11d280a3          	sb	t4,257(t0)
  b6:	4281                	c.li	t0,0
  b8:	0e200313          	li	t1,226

000000bc <_WAIT_EFUSE_LOAD_FINISH>:
  bc:	0285                	c.addi	t0,1
  be:	fe537fe3          	bgeu	t1,t0,bc <_WAIT_EFUSE_LOAD_FINISH>

000000c2 <_MULTI_ADDRESS_BEGIN>:
  c2:	801402b7          	lui	t0,0x80140
  c6:	5b800313          	li	t1,1464
  ca:	00032383          	lw	t2,0(t1)
  ce:	1072a223          	sw	t2,260(t0) # 80140104 <_DATA_LMA_START+0x60136acc>

000000d2 <_IDATA_INIT>:
  d2:	20009317          	auipc	t1,0x20009
  d6:	56630313          	addi	t1,t1,1382 # 20009638 <_DATA_LMA_START>
  da:	00080397          	auipc	t2,0x80
  de:	f2638393          	addi	t2,t2,-218 # 80000 <_DATA_VMA_START>
  e2:	00080e17          	auipc	t3,0x80
  e6:	f68e0e13          	addi	t3,t3,-152 # 8004a <_DATA_VMA_END>

000000ea <_IDATA_INIT_BEGIN>:
  ea:	01c3f963          	bgeu	t2,t3,fc <_IZERO_BSS>
  ee:	00032283          	lw	t0,0(t1)
  f2:	0053a023          	sw	t0,0(t2)
  f6:	0311                	c.addi	t1,4
  f8:	0391                	c.addi	t2,4
  fa:	bfc5                	c.j	ea <_IDATA_INIT_BEGIN>

000000fc <_IZERO_BSS>:
  fc:	000002b7          	lui	t0,0x0
 100:	00080397          	auipc	t2,0x80
 104:	f5038393          	addi	t2,t2,-176 # 80050 <_BSS_VMA_START>
 108:	00081e17          	auipc	t3,0x81
 10c:	ba8e0e13          	addi	t3,t3,-1112 # 80cb0 <_BSS_VMA_END>

00000110 <_IZERO_BSS_BEGIN>:
 110:	01c3f663          	bgeu	t2,t3,11c <_IZERO_AES>
 114:	0053a023          	sw	t0,0(t2)
 118:	0391                	c.addi	t2,4
 11a:	bfdd                	c.j	110 <_IZERO_BSS_BEGIN>

0000011c <_IZERO_AES>:
 11c:	000002b7          	lui	t0,0x0
 120:	00000397          	auipc	t2,0x0
 124:	03838393          	addi	t2,t2,56 # 158 <_AES_VMA_START>
 128:	00000e17          	auipc	t3,0x0
 12c:	050e0e13          	addi	t3,t3,80 # 178 <_AES_VMA_END>

00000130 <_IZERO_AES_BEGIN>:
 130:	01c3f663          	bgeu	t2,t3,13c <_IFILL_STK>
 134:	0053a023          	sw	t0,0(t2)
 138:	0391                	c.addi	t2,4
 13a:	bfdd                	c.j	130 <_IZERO_AES_BEGIN>

0000013c <_IFILL_STK>:
 13c:	0001                	c.nop
 13e:	00004297          	auipc	t0,0x4
 142:	c4e28293          	addi	t0,t0,-946 # 3d8c <main>
 146:	9282                	c.jalr	t0
 148:	0001                	c.nop
 14a:	0001                	c.nop
 14c:	0001                	c.nop
 14e:	0001                	c.nop
 150:	0001                	c.nop

00000152 <_IEND>:
 152:	a001                	c.j	152 <_IEND>

Disassembly of section .ram_code:

00001200 <rf_set_power_level_index.constprop.37>:
    1200:	801417b7          	lui	a5,0x80141
    1204:	e3c78703          	lb	a4,-452(a5) # 80140e3c <_DATA_LMA_START+0x60137804>
    1208:	0ff77713          	andi	a4,a4,255
    120c:	04076713          	ori	a4,a4,64
    1210:	e2e78e23          	sb	a4,-452(a5)
    1214:	e2678703          	lb	a4,-474(a5)
    1218:	07f77713          	andi	a4,a4,127
    121c:	e2e78323          	sb	a4,-474(a5)
    1220:	e2778703          	lb	a4,-473(a5)
    1224:	0e077713          	andi	a4,a4,224
    1228:	01276713          	ori	a4,a4,18
    122c:	e2e783a3          	sb	a4,-473(a5)
    1230:	00008067          	ret

00001234 <ble_rf_set_tx_dma.constprop.17>:
    1234:	80100737          	lui	a4,0x80100
    1238:	50c70783          	lb	a5,1292(a4) # 8010050c <_DATA_LMA_START+0x600f6ed4>
    123c:	0ff7f793          	andi	a5,a5,255
    1240:	0057e793          	ori	a5,a5,5
    1244:	50f70623          	sb	a5,1292(a4)
    1248:	4e0709a3          	sb	zero,1267(a4)
    124c:	478d                	c.li	a5,3
    124e:	4ef70923          	sb	a5,1266(a4)
    1252:	82ffa7ab          	lwgp	a5,-2004 # 8002c <TXADDR>
    1256:	000a0737          	lui	a4,0xa0
    125a:	00e7f563          	bgeu	a5,a4,1264 <ble_rf_set_tx_dma.constprop.17+0x30>
    125e:	c0180737          	lui	a4,0xc0180
    1262:	97ba                	c.add	a5,a4
    1264:	80100737          	lui	a4,0x80100
    1268:	44f72423          	sw	a5,1096(a4) # 80100448 <_DATA_LMA_START+0x600f6e10>
    126c:	001417b7          	lui	a5,0x141
    1270:	88478793          	addi	a5,a5,-1916 # 140884 <FLASH_SIZE+0x40884>
    1274:	44f72623          	sw	a5,1100(a4)
    1278:	00008067          	ret

0000127c <rf_start_fsm.constprop.16>:
    127c:	08600793          	li	a5,134
    1280:	00f51a63          	bne	a0,a5,1294 <rf_start_fsm.constprop.16+0x18>
    1284:	100007b7          	lui	a5,0x10000
    1288:	80141737          	lui	a4,0x80141
    128c:	fff78793          	addi	a5,a5,-1 # fffffff <FLASH_SIZE+0xfefffff>
    1290:	a2f72423          	sw	a5,-1496(a4) # 80140a28 <_DATA_LMA_START+0x601373f0>
    1294:	80141737          	lui	a4,0x80141
    1298:	a0b72c23          	sw	a1,-1512(a4) # 80140a18 <_DATA_LMA_START+0x601373e0>
    129c:	a1670783          	lb	a5,-1514(a4)
    12a0:	0ff57513          	andi	a0,a0,255
    12a4:	0ff7f793          	andi	a5,a5,255
    12a8:	0047e793          	ori	a5,a5,4
    12ac:	a0f70b23          	sb	a5,-1514(a4)
    12b0:	000007b7          	lui	a5,0x0
    12b4:	a0a70023          	sb	a0,-1536(a4)
    12b8:	17878793          	addi	a5,a5,376 # 178 <_AES_VMA_END>
    12bc:	000a0737          	lui	a4,0xa0
    12c0:	00e7f663          	bgeu	a5,a4,12cc <rf_start_fsm.constprop.16+0x50>
    12c4:	c0180737          	lui	a4,0xc0180
    12c8:	00e787b3          	add	a5,a5,a4
    12cc:	80100737          	lui	a4,0x80100
    12d0:	44f72423          	sw	a5,1096(a4) # 80100448 <_DATA_LMA_START+0x600f6e10>
    12d4:	00008067          	ret

000012d8 <smemset.constprop.12>:
    12d8:	00a585b3          	add	a1,a1,a0
    12dc:	0505                	c.addi	a0,1
    12de:	fe050fa3          	sb	zero,-1(a0)
    12e2:	fea59de3          	bne	a1,a0,12dc <smemset.constprop.12+0x4>
    12e6:	8082                	c.jr	ra

000012e8 <smemcpy>:
    12e8:	ca11                	c.beqz	a2,12fc <smemcpy+0x14>
    12ea:	962e                	c.add	a2,a1
    12ec:	0585                	c.addi	a1,1
    12ee:	fff5c783          	lbu	a5,-1(a1)
    12f2:	0505                	c.addi	a0,1
    12f4:	fef50fa3          	sb	a5,-1(a0)
    12f8:	feb61ae3          	bne	a2,a1,12ec <smemcpy+0x4>
    12fc:	00008067          	ret

00001300 <aes_ccmBaseTran.isra.0.constprop.13>:
    1300:	7139                	c.addi16sp	sp,-64
    1302:	da26                	c.swsp	s1,52(sp)
    1304:	84ae                	c.mv	s1,a1
    1306:	000005b7          	lui	a1,0x0
    130a:	dc22                	c.swsp	s0,56(sp)
    130c:	d84a                	c.swsp	s2,48(sp)
    130e:	4785                	c.li	a5,1
    1310:	842a                	c.mv	s0,a0
    1312:	8932                	c.mv	s2,a2
    1314:	00110513          	addi	a0,sp,1
    1318:	4635                	c.li	a2,13
    131a:	22c58593          	addi	a1,a1,556 # 22c <blc_cyrpt_para+0x18>
    131e:	de06                	c.swsp	ra,60(sp)
    1320:	00f10023          	sb	a5,0(sp)
    1324:	fc5ff0ef          	jal	ra,12e8 <smemcpy>
    1328:	00000637          	lui	a2,0x0
    132c:	15860e93          	addi	t4,a2,344 # 158 <_AES_VMA_START>
    1330:	15860f13          	addi	t5,a2,344
    1334:	4681                	c.li	a3,0
    1336:	15860613          	addi	a2,a2,344
    133a:	4801                	c.li	a6,0
    133c:	0078                	c.addi4spn	a4,sp,12
    133e:	850a                	c.mv	a0,sp
    1340:	00011723          	sh	zero,14(sp)
    1344:	00174783          	lbu	a5,1(a4)
    1348:	00074583          	lbu	a1,0(a4)
    134c:	06a2                	c.slli	a3,0x8
    134e:	0106e6b3          	or	a3,a3,a6
    1352:	07c2                	c.slli	a5,0x10
    1354:	8fd5                	c.or	a5,a3
    1356:	01859693          	slli	a3,a1,0x18
    135a:	8fd5                	c.or	a5,a3
    135c:	c21c                	c.sw	a5,0(a2)
    135e:	0611                	c.addi	a2,4
    1360:	00a70863          	beq	a4,a0,1370 <aes_ccmBaseTran.isra.0.constprop.13+0x70>
    1364:	1771                	c.addi	a4,-4
    1366:	00374803          	lbu	a6,3(a4)
    136a:	00274683          	lbu	a3,2(a4)
    136e:	bfd9                	c.j	1344 <aes_ccmBaseTran.isra.0.constprop.13+0x44>
    1370:	801607b7          	lui	a5,0x80160
    1374:	0dd7a223          	sw	t4,196(a5) # 801600c4 <_DATA_LMA_START+0x60156a8c>
    1378:	00100693          	li	a3,1
    137c:	80160737          	lui	a4,0x80160
    1380:	0ad7a823          	sw	a3,176(a5)
    1384:	0b072783          	lw	a5,176(a4) # 801600b0 <_DATA_LMA_START+0x60156a78>
    1388:	fe07fe5b          	bbs	a5,0,1384 <aes_ccmBaseTran.isra.0.constprop.13+0x84>
    138c:	0f7d                	c.addi	t5,31
    138e:	00fe8693          	addi	a3,t4,15
    1392:	081c                	c.addi4spn	a5,sp,16
    1394:	01e005b3          	add	a1,zero,t5
    1398:	00058703          	lb	a4,0(a1)
    139c:	0785                	c.addi	a5,1
    139e:	15fd                	c.addi	a1,-1
    13a0:	fee78fa3          	sb	a4,-1(a5)
    13a4:	feb69ae3          	bne	a3,a1,1398 <aes_ccmBaseTran.isra.0.constprop.13+0x98>
    13a8:	864a                	c.mv	a2,s2
    13aa:	00490813          	addi	a6,s2,4
    13ae:	872a                	c.mv	a4,a0
    13b0:	00060783          	lb	a5,0(a2)
    13b4:	01070683          	lb	a3,16(a4)
    13b8:	0605                	c.addi	a2,1
    13ba:	8fb5                	c.xor	a5,a3
    13bc:	fef60fa3          	sb	a5,-1(a2)
    13c0:	0705                	c.addi	a4,1
    13c2:	fec817e3          	bne	a6,a2,13b0 <aes_ccmBaseTran.isra.0.constprop.13+0xb0>
    13c6:	10000793          	li	a5,256
    13ca:	00f11723          	sh	a5,14(sp)
    13ce:	00f4f793          	andi	a5,s1,15
    13d2:	8826                	c.mv	a6,s1
    13d4:	cbe1                	c.beqz	a5,14a4 <aes_ccmBaseTran.isra.0.constprop.13+0x1a4>
    13d6:	98c1                	c.andi	s1,-16
    13d8:	01048493          	addi	s1,s1,16
    13dc:	3c04a4db          	bfoz	s1,s1,15,0
    13e0:	4681                	c.li	a3,0
    13e2:	4885                	c.li	a7,1
    13e4:	4301                	c.li	t1,0
    13e6:	ffc10e13          	addi	t3,sp,-4
    13ea:	02050513          	addi	a0,a0,32
    13ee:	80160637          	lui	a2,0x80160
    13f2:	4f85                	c.li	t6,1
    13f4:	0ff8f913          	andi	s2,a7,255
    13f8:	83f6                	c.mv	t2,t4
    13fa:	0078                	c.addi4spn	a4,sp,12
    13fc:	00174783          	lbu	a5,1(a4)
    1400:	00074283          	lbu	t0,0(a4)
    1404:	06a2                	c.slli	a3,0x8
    1406:	0126e6b3          	or	a3,a3,s2
    140a:	07c2                	c.slli	a5,0x10
    140c:	8fd5                	c.or	a5,a3
    140e:	01829693          	slli	a3,t0,0x18
    1412:	8fd5                	c.or	a5,a3
    1414:	00f3a023          	sw	a5,0(t2)
    1418:	1771                	c.addi	a4,-4
    141a:	0391                	c.addi	t2,4
    141c:	01c70863          	beq	a4,t3,142c <aes_ccmBaseTran.isra.0.constprop.13+0x12c>
    1420:	00374903          	lbu	s2,3(a4)
    1424:	00274683          	lbu	a3,2(a4)
    1428:	fd5ff06f          	j	13fc <aes_ccmBaseTran.isra.0.constprop.13+0xfc>
    142c:	0dd62223          	sw	t4,196(a2) # 801600c4 <_DATA_LMA_START+0x60156a8c>
    1430:	0bf62823          	sw	t6,176(a2)
    1434:	0b062783          	lw	a5,176(a2)
    1438:	fe07fe5b          	bbs	a5,0,1434 <aes_ccmBaseTran.isra.0.constprop.13+0x134>
    143c:	0818                	c.addi4spn	a4,sp,16
    143e:	87fa                	c.mv	a5,t5
    1440:	00078683          	lb	a3,0(a5)
    1444:	0705                	c.addi	a4,1
    1446:	17fd                	c.addi	a5,-1
    1448:	fed70fa3          	sb	a3,-1(a4)
    144c:	fef59ae3          	bne	a1,a5,1440 <aes_ccmBaseTran.isra.0.constprop.13+0x140>
    1450:	006407b3          	add	a5,s0,t1
    1454:	0818                	c.addi4spn	a4,sp,16
    1456:	a829                	c.j	1470 <aes_ccmBaseTran.isra.0.constprop.13+0x170>
    1458:	00078683          	lb	a3,0(a5)
    145c:	00070283          	lb	t0,0(a4)
    1460:	0785                	c.addi	a5,1
    1462:	0056c6b3          	xor	a3,a3,t0
    1466:	0705                	c.addi	a4,1
    1468:	fed78fa3          	sb	a3,-1(a5)
    146c:	00e50663          	beq	a0,a4,1478 <aes_ccmBaseTran.isra.0.constprop.13+0x178>
    1470:	408786b3          	sub	a3,a5,s0
    1474:	ff06c2e3          	blt	a3,a6,1458 <aes_ccmBaseTran.isra.0.constprop.13+0x158>
    1478:	0885                	c.addi	a7,1
    147a:	3c08a8db          	bfoz	a7,a7,15,0
    147e:	0088d693          	srli	a3,a7,0x8
    1482:	0341                	c.addi	t1,16
    1484:	00d10723          	sb	a3,14(sp)
    1488:	011107a3          	sb	a7,15(sp)
    148c:	3c03235b          	bfoz	t1,t1,15,0
    1490:	f69362e3          	bltu	t1,s1,13f4 <aes_ccmBaseTran.isra.0.constprop.13+0xf4>
    1494:	50f2                	c.lwsp	ra,60(sp)
    1496:	5462                	c.lwsp	s0,56(sp)
    1498:	54d2                	c.lwsp	s1,52(sp)
    149a:	5942                	c.lwsp	s2,48(sp)
    149c:	4501                	c.li	a0,0
    149e:	6121                	c.addi16sp	sp,64
    14a0:	00008067          	ret
    14a4:	fc95                	c.bnez	s1,13e0 <aes_ccmBaseTran.isra.0.constprop.13+0xe0>
    14a6:	50f2                	c.lwsp	ra,60(sp)
    14a8:	5462                	c.lwsp	s0,56(sp)
    14aa:	54d2                	c.lwsp	s1,52(sp)
    14ac:	5942                	c.lwsp	s2,48(sp)
    14ae:	4501                	c.li	a0,0
    14b0:	6121                	c.addi16sp	sp,64
    14b2:	8082                	c.jr	ra

000014b4 <aes_ccmAuthTran.constprop.11>:
    14b4:	7119                	c.addi16sp	sp,-128
    14b6:	dca2                	c.swsp	s0,120(sp)
    14b8:	c22a                	c.swsp	a0,4(sp)
    14ba:	842e                	c.mv	s0,a1
    14bc:	0808                	c.addi4spn	a0,sp,16
    14be:	03000593          	li	a1,48
    14c2:	de86                	c.swsp	ra,124(sp)
    14c4:	c636                	c.swsp	a3,12(sp)
    14c6:	daa6                	c.swsp	s1,116(sp)
    14c8:	d8ca                	c.swsp	s2,112(sp)
    14ca:	84b2                	c.mv	s1,a2
    14cc:	d6ce                	c.swsp	s3,108(sp)
    14ce:	d4d2                	c.swsp	s4,104(sp)
    14d0:	d2d6                	c.swsp	s5,100(sp)
    14d2:	d0da                	c.swsp	s6,96(sp)
    14d4:	cede                	c.swsp	s7,92(sp)
    14d6:	cce2                	c.swsp	s8,88(sp)
    14d8:	cae6                	c.swsp	s9,84(sp)
    14da:	c8ea                	c.swsp	s10,80(sp)
    14dc:	c6ee                	c.swsp	s11,76(sp)
    14de:	3bed                	c.jal	12d8 <smemset.constprop.12>
    14e0:	000005b7          	lui	a1,0x0
    14e4:	04900793          	li	a5,73
    14e8:	4635                	c.li	a2,13
    14ea:	22c58593          	addi	a1,a1,556 # 22c <blc_cyrpt_para+0x18>
    14ee:	01110513          	addi	a0,sp,17
    14f2:	00f10823          	sb	a5,16(sp)
    14f6:	3bcd                	c.jal	12e8 <smemcpy>
    14f8:	10000793          	li	a5,256
    14fc:	85a6                	c.mv	a1,s1
    14fe:	4605                	c.li	a2,1
    1500:	03210513          	addi	a0,sp,50
    1504:	02f11823          	sh	a5,48(sp)
    1508:	00010f23          	sb	zero,30(sp)
    150c:	00810fa3          	sb	s0,31(sp)
    1510:	dd9ff0ef          	jal	ra,12e8 <smemcpy>
    1514:	45c1                	c.li	a1,16
    1516:	1008                	c.addi4spn	a0,sp,32
    1518:	dc1ff0ef          	jal	ra,12d8 <smemset.constprop.12>
    151c:	01040493          	addi	s1,s0,16
    1520:	00f47793          	andi	a5,s0,15
    1524:	3c04a4db          	bfoz	s1,s1,15,0
    1528:	c791                	c.beqz	a5,1534 <aes_ccmAuthTran.constprop.11+0x80>
    152a:	98c1                	c.andi	s1,-16
    152c:	01048493          	addi	s1,s1,16
    1530:	3c04a4db          	bfoz	s1,s1,15,0
    1534:	00000e37          	lui	t3,0x0
    1538:	00000937          	lui	s2,0x0
    153c:	00000cb7          	lui	s9,0x0
    1540:	04bd                	c.addi	s1,15
    1542:	158e0b93          	addi	s7,t3,344 # 158 <_AES_VMA_START>
    1546:	4b01                	c.li	s6,0
    1548:	4a81                	c.li	s5,0
    154a:	430d                	c.li	t1,3
    154c:	03010d13          	addi	s10,sp,48
    1550:	01c10c13          	addi	s8,sp,28
    1554:	17790913          	addi	s2,s2,375 # 177 <_AES_VMA_START+0x1f>
    1558:	167c8c93          	addi	s9,s9,359 # 167 <_AES_VMA_START+0xf>
    155c:	80160db7          	lui	s11,0x80160
    1560:	4985                	c.li	s3,1
    1562:	4a39                	c.li	s4,14
    1564:	1014                	c.addi4spn	a3,sp,32
    1566:	87b6                	c.mv	a5,a3
    1568:	00078703          	lb	a4,0(a5)
    156c:	ff078603          	lb	a2,-16(a5)
    1570:	0785                	c.addi	a5,1
    1572:	8f31                	c.xor	a4,a2
    1574:	fee78fa3          	sb	a4,-1(a5)
    1578:	fefd18e3          	bne	s10,a5,1568 <aes_ccmAuthTran.constprop.11+0xb4>
    157c:	855e                	c.mv	a0,s7
    157e:	1078                	c.addi4spn	a4,sp,44
    1580:	00274783          	lbu	a5,2(a4)
    1584:	00174583          	lbu	a1,1(a4)
    1588:	00374f03          	lbu	t5,3(a4)
    158c:	00074603          	lbu	a2,0(a4)
    1590:	07a2                	c.slli	a5,0x8
    1592:	05c2                	c.slli	a1,0x10
    1594:	8fcd                	c.or	a5,a1
    1596:	01e7e7b3          	or	a5,a5,t5
    159a:	0662                	c.slli	a2,0x18
    159c:	8fd1                	c.or	a5,a2
    159e:	c11c                	c.sw	a5,0(a0)
    15a0:	1771                	c.addi	a4,-4
    15a2:	0511                	c.addi	a0,4
    15a4:	fd871ee3          	bne	a4,s8,1580 <aes_ccmAuthTran.constprop.11+0xcc>
    15a8:	0d7da223          	sw	s7,196(s11) # 801600c4 <_DATA_LMA_START+0x60156a8c>
    15ac:	0b3da823          	sw	s3,176(s11)
    15b0:	0b0da783          	lw	a5,176(s11)
    15b4:	fe07fe5b          	bbs	a5,0,15b0 <aes_ccmAuthTran.constprop.11+0xfc>
    15b8:	012007b3          	add	a5,zero,s2
    15bc:	00078703          	lb	a4,0(a5)
    15c0:	0685                	c.addi	a3,1
    15c2:	17fd                	c.addi	a5,-1
    15c4:	fee68fa3          	sb	a4,-1(a3)
    15c8:	fefc9ae3          	bne	s9,a5,15bc <aes_ccmAuthTran.constprop.11+0x108>
    15cc:	fff30793          	addi	a5,t1,-1
    15d0:	3c07a7db          	bfoz	a5,a5,15,0
    15d4:	06fa7c63          	bgeu	s4,a5,164c <aes_ccmAuthTran.constprop.11+0x198>
    15d8:	4512                	c.lwsp	a0,4(sp)
    15da:	004b1593          	slli	a1,s6,0x4
    15de:	95aa                	c.add	a1,a0
    15e0:	453d                	c.li	a0,15
    15e2:	04857963          	bgeu	a0,s0,1634 <aes_ccmAuthTran.constprop.11+0x180>
    15e6:	4641                	c.li	a2,16
    15e8:	0808                	c.addi4spn	a0,sp,16
    15ea:	39fd                	c.jal	12e8 <smemcpy>
    15ec:	001b0e93          	addi	t4,s6,1
    15f0:	ff040413          	addi	s0,s0,-16
    15f4:	0ffefb13          	andi	s6,t4,255
    15f8:	3c04245b          	bfoz	s0,s0,15,0
    15fc:	010a8813          	addi	a6,s5,16
    1600:	3c082adb          	bfoz	s5,a6,15,0
    1604:	4301                	c.li	t1,0
    1606:	f554dfe3          	bge	s1,s5,1564 <aes_ccmAuthTran.constprop.11+0xb0>
    160a:	4532                	c.lwsp	a0,12(sp)
    160c:	100c                	c.addi4spn	a1,sp,32
    160e:	4611                	c.li	a2,4
    1610:	cd9ff0ef          	jal	ra,12e8 <smemcpy>
    1614:	50f6                	c.lwsp	ra,124(sp)
    1616:	5466                	c.lwsp	s0,120(sp)
    1618:	54d6                	c.lwsp	s1,116(sp)
    161a:	5946                	c.lwsp	s2,112(sp)
    161c:	59b6                	c.lwsp	s3,108(sp)
    161e:	5a26                	c.lwsp	s4,104(sp)
    1620:	5a96                	c.lwsp	s5,100(sp)
    1622:	5b06                	c.lwsp	s6,96(sp)
    1624:	4bf6                	c.lwsp	s7,92(sp)
    1626:	4c66                	c.lwsp	s8,88(sp)
    1628:	4cd6                	c.lwsp	s9,84(sp)
    162a:	4d46                	c.lwsp	s10,80(sp)
    162c:	4db6                	c.lwsp	s11,76(sp)
    162e:	4501                	c.li	a0,0
    1630:	6109                	c.addi16sp	sp,128
    1632:	8082                	c.jr	ra
    1634:	0808                	c.addi4spn	a0,sp,16
    1636:	8622                	c.mv	a2,s0
    1638:	cb1ff0ef          	jal	ra,12e8 <smemcpy>
    163c:	0808                	c.addi4spn	a0,sp,16
    163e:	45c1                	c.li	a1,16
    1640:	8d81                	c.sub	a1,s0
    1642:	9522                	c.add	a0,s0
    1644:	c95ff0ef          	jal	ra,12d8 <smemset.constprop.12>
    1648:	fb5ff06f          	j	15fc <aes_ccmAuthTran.constprop.11+0x148>
    164c:	861a                	c.mv	a2,t1
    164e:	015d05b3          	add	a1,s10,s5
    1652:	0808                	c.addi4spn	a0,sp,16
    1654:	c41a                	c.swsp	t1,8(sp)
    1656:	3949                	c.jal	12e8 <smemcpy>
    1658:	4322                	c.lwsp	t1,8(sp)
    165a:	4541                	c.li	a0,16
    165c:	406505b3          	sub	a1,a0,t1
    1660:	0808                	c.addi4spn	a0,sp,16
    1662:	951a                	c.add	a0,t1
    1664:	c75ff0ef          	jal	ra,12d8 <smemset.constprop.12>
    1668:	00000b13          	li	s6,0
    166c:	f91ff06f          	j	15fc <aes_ccmAuthTran.constprop.11+0x148>

00001670 <aes_ll_ccm_decryption.constprop.9>:
    1670:	00154783          	lbu	a5,1(a0)
    1674:	4711                	c.li	a4,4
    1676:	0cf77563          	bgeu	a4,a5,1740 <aes_ll_ccm_decryption.constprop.9+0xd0>
    167a:	1101                	c.addi	sp,-32
    167c:	17f1                	c.addi	a5,-4
    167e:	00000637          	lui	a2,0x0
    1682:	ca26                	c.swsp	s1,20(sp)
    1684:	ce06                	c.swsp	ra,28(sp)
    1686:	cc22                	c.swsp	s0,24(sp)
    1688:	01212823          	sw	s2,16(sp)
    168c:	17860613          	addi	a2,a2,376 # 178 <_AES_VMA_END>
    1690:	00050703          	lb	a4,0(a0)
    1694:	0ff7f593          	andi	a1,a5,255
    1698:	00b500a3          	sb	a1,1(a0)
    169c:	0a062803          	lw	a6,160(a2)
    16a0:	00377793          	andi	a5,a4,3
    16a4:	00160337          	lui	t1,0x160
    16a8:	00180893          	addi	a7,a6,1
    16ac:	00250493          	addi	s1,a0,2
    16b0:	0b430693          	addi	a3,t1,180 # 1600b4 <FLASH_SIZE+0x600b4>
    16b4:	00f103a3          	sb	a5,7(sp)
    16b8:	0b060713          	addi	a4,a2,176
    16bc:	f8000793          	li	a5,-128
    16c0:	80000537          	lui	a0,0x80000
    16c4:	0c430313          	addi	t1,t1,196
    16c8:	0b162023          	sw	a7,160(a2)
    16cc:	0b062a23          	sw	a6,180(a2)
    16d0:	0af60c23          	sb	a5,184(a2)
    16d4:	00274783          	lbu	a5,2(a4)
    16d8:	00174883          	lbu	a7,1(a4)
    16dc:	00374603          	lbu	a2,3(a4)
    16e0:	00074803          	lbu	a6,0(a4)
    16e4:	07a2                	c.slli	a5,0x8
    16e6:	08c2                	c.slli	a7,0x10
    16e8:	0117e7b3          	or	a5,a5,a7
    16ec:	8fd1                	c.or	a5,a2
    16ee:	0862                	c.slli	a6,0x18
    16f0:	00a6e633          	or	a2,a3,a0
    16f4:	0107e7b3          	or	a5,a5,a6
    16f8:	c21c                	c.sw	a5,0(a2)
    16fa:	0691                	c.addi	a3,4
    16fc:	1771                	c.addi	a4,-4
    16fe:	fc669be3          	bne	a3,t1,16d4 <aes_ll_ccm_decryption.constprop.9+0x64>
    1702:	00b48433          	add	s0,s1,a1
    1706:	3c05a95b          	bfoz	s2,a1,15,0
    170a:	8622                	c.mv	a2,s0
    170c:	85ca                	c.mv	a1,s2
    170e:	8526                	c.mv	a0,s1
    1710:	bf1ff0ef          	jal	ra,1300 <aes_ccmBaseTran.isra.0.constprop.13>
    1714:	0034                	c.addi4spn	a3,sp,8
    1716:	00710613          	addi	a2,sp,7
    171a:	85ca                	c.mv	a1,s2
    171c:	8526                	c.mv	a0,s1
    171e:	3b59                	c.jal	14b4 <aes_ccmAuthTran.constprop.11>
    1720:	0068                	c.addi4spn	a0,sp,12
    1722:	85a2                	c.mv	a1,s0
    1724:	4611                	c.li	a2,4
    1726:	36c9                	c.jal	12e8 <smemcpy>
    1728:	4532                	c.lwsp	a0,12(sp)
    172a:	47a2                	c.lwsp	a5,8(sp)
    172c:	40f2                	c.lwsp	ra,28(sp)
    172e:	4462                	c.lwsp	s0,24(sp)
    1730:	8d1d                	c.sub	a0,a5
    1732:	44d2                	c.lwsp	s1,20(sp)
    1734:	4942                	c.lwsp	s2,16(sp)
    1736:	00a03533          	snez	a0,a0
    173a:	6105                	c.addi16sp	sp,32
    173c:	00008067          	ret
    1740:	4505                	c.li	a0,1
    1742:	8082                	c.jr	ra

00001744 <blt_ll_searchAddr_in_WhiteList>:
    1744:	00000737          	lui	a4,0x0
    1748:	17870713          	addi	a4,a4,376 # 178 <_AES_VMA_END>
    174c:	1e874603          	lbu	a2,488(a4)
    1750:	c635                	c.beqz	a2,17bc <blt_ll_searchAddr_in_WhiteList+0x78>
    1752:	1c870893          	addi	a7,a4,456
    1756:	87c6                	c.mv	a5,a7
    1758:	4701                	c.li	a4,0
    175a:	a029                	c.j	1764 <blt_ll_searchAddr_in_WhiteList+0x20>
    175c:	0705                	c.addi	a4,1
    175e:	07a1                	c.addi	a5,8
    1760:	04c75e63          	bge	a4,a2,17bc <blt_ll_searchAddr_in_WhiteList+0x78>
    1764:	0007c683          	lbu	a3,0(a5)
    1768:	fea69ae3          	bne	a3,a0,175c <blt_ll_searchAddr_in_WhiteList+0x18>
    176c:	0017c803          	lbu	a6,1(a5)
    1770:	0005c683          	lbu	a3,0(a1)
    1774:	fed814e3          	bne	a6,a3,175c <blt_ll_searchAddr_in_WhiteList+0x18>
    1778:	0027c803          	lbu	a6,2(a5)
    177c:	0015c683          	lbu	a3,1(a1)
    1780:	fcd81ee3          	bne	a6,a3,175c <blt_ll_searchAddr_in_WhiteList+0x18>
    1784:	0037c803          	lbu	a6,3(a5)
    1788:	0025c683          	lbu	a3,2(a1)
    178c:	fcd818e3          	bne	a6,a3,175c <blt_ll_searchAddr_in_WhiteList+0x18>
    1790:	0047c803          	lbu	a6,4(a5)
    1794:	0035c683          	lbu	a3,3(a1)
    1798:	fcd812e3          	bne	a6,a3,175c <blt_ll_searchAddr_in_WhiteList+0x18>
    179c:	0057c803          	lbu	a6,5(a5)
    17a0:	0045c683          	lbu	a3,4(a1)
    17a4:	fad81ce3          	bne	a6,a3,175c <blt_ll_searchAddr_in_WhiteList+0x18>
    17a8:	0067c803          	lbu	a6,6(a5)
    17ac:	0055c683          	lbu	a3,5(a1)
    17b0:	fad816e3          	bne	a6,a3,175c <blt_ll_searchAddr_in_WhiteList+0x18>
    17b4:	0ee8855b          	lea.d	a0,a7,a4
    17b8:	00008067          	ret
    17bc:	4501                	c.li	a0,0
    17be:	8082                	c.jr	ra

000017c0 <blt_ll_channel_conn_update>:
    17c0:	1141                	c.addi	sp,-16
    17c2:	c422                	c.swsp	s0,8(sp)
    17c4:	00000437          	lui	s0,0x0
    17c8:	17840413          	addi	s0,s0,376 # 178 <_AES_VMA_END>
    17cc:	c226                	c.swsp	s1,4(sp)
    17ce:	c606                	c.swsp	ra,12(sp)
    17d0:	c04a                	c.swsp	s2,0(sp)
    17d2:	0c244783          	lbu	a5,194(s0)
    17d6:	84aa                	c.mv	s1,a0
    17d8:	08079463          	bnez	a5,1860 <blt_ll_channel_conn_update+0xa0>
    17dc:	0024c783          	lbu	a5,2(s1)
    17e0:	4705                	c.li	a4,1
    17e2:	0a17d35b          	beqc	a5,1,1888 <blt_ll_channel_conn_update+0xc8>
    17e6:	e78d                	c.bnez	a5,1810 <blt_ll_channel_conn_update+0x50>
    17e8:	00c4d683          	lhu	a3,12(s1)
    17ec:	27041783          	lh	a5,624(s0)
    17f0:	26d41923          	sh	a3,626(s0)
    17f4:	40f687b3          	sub	a5,a3,a5
    17f8:	3c07b7db          	bfos	a5,a5,15,0
    17fc:	0cf04a63          	bgtz	a5,18d0 <blt_ll_channel_conn_update+0x110>
    1800:	00000513          	li	a0,0
    1804:	40b2                	c.lwsp	ra,12(sp)
    1806:	4422                	c.lwsp	s0,8(sp)
    1808:	4492                	c.lwsp	s1,4(sp)
    180a:	4902                	c.lwsp	s2,0(sp)
    180c:	0141                	c.addi	sp,16
    180e:	8082                	c.jr	ra
    1810:	bf87e85b          	bnec	a5,24,1800 <blt_ll_channel_conn_update+0x40>
    1814:	0064c783          	lbu	a5,6(s1)
    1818:	0054c603          	lbu	a2,5(s1)
    181c:	27041683          	lh	a3,624(s0)
    1820:	07a2                	c.slli	a5,0x8
    1822:	8fd1                	c.or	a5,a2
    1824:	40d786b3          	sub	a3,a5,a3
    1828:	3c06b6db          	bfos	a3,a3,15,0
    182c:	fcd05ae3          	blez	a3,1800 <blt_ll_channel_conn_update+0x40>
    1830:	00348683          	lb	a3,3(s1)
    1834:	00448583          	lb	a1,4(s1)
    1838:	460d                	c.li	a2,3
    183a:	8eed                	c.and	a3,a1
    183c:	1ee409a3          	sb	a4,499(s0)
    1840:	0ff6f693          	andi	a3,a3,255
    1844:	24c40aa3          	sb	a2,597(s0)
    1848:	26f41923          	sh	a5,626(s0)
    184c:	4e06f05b          	bbs	a3,0,192c <blt_ll_channel_conn_update+0x16c>
    1850:	4e16f25b          	bbs	a3,1,1934 <blt_ll_channel_conn_update+0x174>
    1854:	0e26f65b          	bbc	a3,2,1940 <blt_ll_channel_conn_update+0x180>
    1858:	2cc40123          	sb	a2,706(s0)
    185c:	fa5ff06f          	j	1800 <blt_ll_channel_conn_update+0x40>
    1860:	0a042903          	lw	s2,160(s0)
    1864:	24042783          	lw	a5,576(s0)
    1868:	0af42023          	sw	a5,160(s0)
    186c:	e05ff0ef          	jal	ra,1670 <aes_ll_ccm_decryption.constprop.9>
    1870:	0b242023          	sw	s2,160(s0)
    1874:	d525                	c.beqz	a0,17dc <blt_ll_channel_conn_update+0x1c>
    1876:	4785                	c.li	a5,1
    1878:	0cf401a3          	sb	a5,195(s0)
    187c:	40b2                	c.lwsp	ra,12(sp)
    187e:	4422                	c.lwsp	s0,8(sp)
    1880:	4492                	c.lwsp	s1,4(sp)
    1882:	4902                	c.lwsp	s2,0(sp)
    1884:	0141                	c.addi	sp,16
    1886:	8082                	c.jr	ra
    1888:	0084d683          	lhu	a3,8(s1)
    188c:	27041703          	lh	a4,624(s0)
    1890:	26d41923          	sh	a3,626(s0)
    1894:	40e68733          	sub	a4,a3,a4
    1898:	3c07375b          	bfos	a4,a4,15,0
    189c:	f6e052e3          	blez	a4,1800 <blt_ll_channel_conn_update+0x40>
    18a0:	26740513          	addi	a0,s0,615
    18a4:	00348593          	addi	a1,s1,3
    18a8:	4615                	c.li	a2,5
    18aa:	1ef409a3          	sb	a5,499(s0)
    18ae:	24f40aa3          	sb	a5,597(s0)
    18b2:	3c1d                	c.jal	12e8 <smemcpy>
    18b4:	2ac42783          	lw	a5,684(s0)
    18b8:	4501                	c.li	a0,0
    18ba:	4007e793          	ori	a5,a5,1024
    18be:	2af42623          	sw	a5,684(s0)
    18c2:	40b2                	c.lwsp	ra,12(sp)
    18c4:	4422                	c.lwsp	s0,8(sp)
    18c6:	4492                	c.lwsp	s1,4(sp)
    18c8:	4902                	c.lwsp	s2,0(sp)
    18ca:	0141                	c.addi	sp,16
    18cc:	00008067          	ret
    18d0:	00a49783          	lh	a5,10(s1)
    18d4:	00348303          	lb	t1,3(s1)
    18d8:	00449883          	lh	a7,4(s1)
    18dc:	00649803          	lh	a6,6(s1)
    18e0:	00849683          	lh	a3,8(s1)
    18e4:	2b040513          	addi	a0,s0,688
    18e8:	1ee409a3          	sb	a4,499(s0)
    18ec:	85a6                	c.mv	a1,s1
    18ee:	4709                	c.li	a4,2
    18f0:	4639                	c.li	a2,14
    18f2:	24e40aa3          	sb	a4,597(s0)
    18f6:	20f41323          	sh	a5,518(s0)
    18fa:	1e640b23          	sb	t1,502(s0)
    18fe:	21141023          	sh	a7,512(s0)
    1902:	21041123          	sh	a6,514(s0)
    1906:	20d41223          	sh	a3,516(s0)
    190a:	3af9                	c.jal	12e8 <smemcpy>
    190c:	2ac42783          	lw	a5,684(s0)
    1910:	6705                	c.lui	a4,0x1
    1912:	80070713          	addi	a4,a4,-2048 # 800 <blt_buff_prepare_write+0xb0>
    1916:	8fd9                	c.or	a5,a4
    1918:	2af42623          	sw	a5,684(s0)
    191c:	40b2                	c.lwsp	ra,12(sp)
    191e:	4422                	c.lwsp	s0,8(sp)
    1920:	4492                	c.lwsp	s1,4(sp)
    1922:	4902                	c.lwsp	s2,0(sp)
    1924:	4501                	c.li	a0,0
    1926:	0141                	c.addi	sp,16
    1928:	00008067          	ret
    192c:	2ce40123          	sb	a4,706(s0)
    1930:	4501                	c.li	a0,0
    1932:	bdc9                	c.j	1804 <blt_ll_channel_conn_update+0x44>
    1934:	4789                	c.li	a5,2
    1936:	2cf40123          	sb	a5,706(s0)
    193a:	4501                	c.li	a0,0
    193c:	ec9ff06f          	j	1804 <blt_ll_channel_conn_update+0x44>
    1940:	2c140783          	lb	a5,705(s0)
    1944:	4501                	c.li	a0,0
    1946:	2cf40123          	sb	a5,706(s0)
    194a:	bd6d                	c.j	1804 <blt_ll_channel_conn_update+0x44>

0000194c <bls_ll_setAdvEnable>:
    194c:	000007b7          	lui	a5,0x0
    1950:	17878793          	addi	a5,a5,376 # 178 <_AES_VMA_END>
    1954:	18778703          	lb	a4,391(a5)
    1958:	4c17705b          	bbs	a4,1,1a18 <bls_ll_setAdvEnable+0xcc>
    195c:	0ff57613          	andi	a2,a0,255
    1960:	0785745b          	bbc	a0,24,19c8 <bls_ll_setAdvEnable+0x7c>
    1964:	80100737          	lui	a4,0x80100
    1968:	f8000693          	li	a3,-128
    196c:	50d700a3          	sb	a3,1281(a4) # 80100501 <_DATA_LMA_START+0x600f6ec9>
    1970:	80141737          	lui	a4,0x80141
    1974:	a0071e23          	sh	zero,-1508(a4) # 80140a1c <_DATA_LMA_START+0x601373e4>
    1978:	56fd                	c.li	a3,-1
    197a:	801405b7          	lui	a1,0x80140
    197e:	a2d71023          	sh	a3,-1504(a4)
    1982:	66a1                	c.lui	a3,0x8
    1984:	2005a703          	lw	a4,512(a1) # 80140200 <_DATA_LMA_START+0x60136bc8>
    1988:	d0068693          	addi	a3,a3,-768 # 7d00 <_RAMCODE_VMA_END+0x29fe>
    198c:	9736                	c.add	a4,a3
    198e:	2ce7a623          	sw	a4,716(a5)
    1992:	18d78703          	lb	a4,397(a5)
    1996:	0ff77713          	andi	a4,a4,255
    199a:	ce39                	c.beqz	a2,19f8 <bls_ll_setAdvEnable+0xac>
    199c:	00175a5b          	beqc	a4,1,19b0 <bls_ll_setAdvEnable+0x64>
    19a0:	00100713          	li	a4,1
    19a4:	18e786a3          	sb	a4,397(a5)
    19a8:	2005a703          	lw	a4,512(a1)
    19ac:	2ee7a223          	sw	a4,740(a5)
    19b0:	18778703          	lb	a4,391(a5)
    19b4:	4501                	c.li	a0,0
    19b6:	0ff77713          	andi	a4,a4,255
    19ba:	00176713          	ori	a4,a4,1
    19be:	18e783a3          	sb	a4,391(a5)
    19c2:	16c78e23          	sb	a2,380(a5)
    19c6:	8082                	c.jr	ra
    19c8:	18d78703          	lb	a4,397(a5)
    19cc:	0ff77713          	andi	a4,a4,255
    19d0:	db51                	c.beqz	a4,1964 <bls_ll_setAdvEnable+0x18>
    19d2:	18d78703          	lb	a4,397(a5)
    19d6:	0ff77713          	andi	a4,a4,255
    19da:	b817555b          	beqc	a4,1,1964 <bls_ll_setAdvEnable+0x18>
    19de:	18778703          	lb	a4,391(a5)
    19e2:	4501                	c.li	a0,0
    19e4:	0ff77713          	andi	a4,a4,255
    19e8:	00176713          	ori	a4,a4,1
    19ec:	18e783a3          	sb	a4,391(a5)
    19f0:	16c78e23          	sb	a2,380(a5)
    19f4:	00008067          	ret
    19f8:	df45                	c.beqz	a4,19b0 <bls_ll_setAdvEnable+0x64>
    19fa:	180786a3          	sb	zero,397(a5)
    19fe:	18778703          	lb	a4,391(a5)
    1a02:	4501                	c.li	a0,0
    1a04:	0ff77713          	andi	a4,a4,255
    1a08:	00176713          	ori	a4,a4,1
    1a0c:	18e783a3          	sb	a4,391(a5)
    1a10:	16c78e23          	sb	a2,380(a5)
    1a14:	00008067          	ret
    1a18:	4531                	c.li	a0,12
    1a1a:	8082                	c.jr	ra

00001a1c <irq_ll_system_timer>:
    1a1c:	000007b7          	lui	a5,0x0
    1a20:	17878793          	addi	a5,a5,376 # 178 <_AES_VMA_END>
    1a24:	18d78703          	lb	a4,397(a5)
    1a28:	0ff77713          	andi	a4,a4,255
    1a2c:	0087545b          	beqc	a4,8,1a34 <irq_ll_system_timer+0x18>
    1a30:	00008067          	ret
    1a34:	2e87a303          	lw	t1,744(a5)
    1a38:	fe030ce3          	beqz	t1,1a30 <irq_ll_system_timer+0x14>
    1a3c:	00030067          	jr	t1

00001a40 <blt_event_callback_func>:
    1a40:	000007b7          	lui	a5,0x0
    1a44:	17878793          	addi	a5,a5,376 # 178 <_AES_VMA_END>
    1a48:	2ec7a683          	lw	a3,748(a5)
    1a4c:	872a                	c.mv	a4,a0
    1a4e:	ca89                	c.beqz	a3,1a60 <blt_event_callback_func+0x20>
    1a50:	4785                	c.li	a5,1
    1a52:	00a797b3          	sll	a5,a5,a0
    1a56:	8ff5                	c.and	a5,a3
    1a58:	00079c63          	bnez	a5,1a70 <blt_event_callback_func+0x30>
    1a5c:	00008067          	ret
    1a60:	0ca787db          	lea.w	a5,a5,a0
    1a64:	2f07a303          	lw	t1,752(a5)
    1a68:	fe030ae3          	beqz	t1,1a5c <blt_event_callback_func+0x1c>
    1a6c:	00030067          	jr	t1
    1a70:	01000537          	lui	a0,0x1000
    1a74:	00e56533          	or	a0,a0,a4
    1a78:	20004317          	auipc	t1,0x20004
    1a7c:	a2830067          	jr	-1496(t1) # 200054a0 <blc_hci_send_event>

00001a80 <trng_rand>:
    1a80:	000006b7          	lui	a3,0x0
    1a84:	17868693          	addi	a3,a3,376 # 178 <_AES_VMA_END>
    1a88:	3446a783          	lw	a5,836(a3)
    1a8c:	6641                	c.lui	a2,0x10
    1a8e:	167d                	c.addi	a2,-1
    1a90:	65a5                	c.lui	a1,0x9
    1a92:	3406a703          	lw	a4,832(a3)
    1a96:	00c7f533          	and	a0,a5,a2
    1a9a:	06958593          	addi	a1,a1,105 # 9069 <_RAMCODE_VMA_END+0x3d67>
    1a9e:	83c1                	c.srli	a5,0x10
    1aa0:	c4b517ff          	maddr32	a5,a0,a1
    1aa4:	6591                	c.lui	a1,0x4
    1aa6:	8e79                	c.and	a2,a4
    1aa8:	65058593          	addi	a1,a1,1616 # 4650 <entry_irq36+0x34>
    1aac:	8341                	c.srli	a4,0x10
    1aae:	c4b6177f          	maddr32	a4,a2,a1
    1ab2:	80140637          	lui	a2,0x80140
    1ab6:	20062503          	lw	a0,512(a2) # 80140200 <_DATA_LMA_START+0x60136bc8>
    1aba:	01079613          	slli	a2,a5,0x10
    1abe:	963a                	c.add	a2,a4
    1ac0:	34e6a023          	sw	a4,832(a3)
    1ac4:	34f6a223          	sw	a5,836(a3)
    1ac8:	8d31                	c.xor	a0,a2
    1aca:	8082                	c.jr	ra

00001acc <rf_set_rxmode>:
    1acc:	801417b7          	lui	a5,0x80141
    1ad0:	04500713          	li	a4,69
    1ad4:	a0e78123          	sb	a4,-1534(a5) # 80140a02 <_DATA_LMA_START+0x601373ca>
    1ad8:	c2078703          	lb	a4,-992(a5)
    1adc:	0ff77713          	andi	a4,a4,255
    1ae0:	00876713          	ori	a4,a4,8
    1ae4:	c2e78023          	sb	a4,-992(a5)
    1ae8:	a0278703          	lb	a4,-1534(a5)
    1aec:	0ff77713          	andi	a4,a4,255
    1af0:	02076713          	ori	a4,a4,32
    1af4:	a0e78123          	sb	a4,-1534(a5)
    1af8:	82878703          	lb	a4,-2008(a5)
    1afc:	0ff77713          	andi	a4,a4,255
    1b00:	00176713          	ori	a4,a4,1
    1b04:	82e78423          	sb	a4,-2008(a5)
    1b08:	00008067          	ret

00001b0c <pm_tim_recover_32k_rc>:
    1b0c:	000007b7          	lui	a5,0x0
    1b10:	17878793          	addi	a5,a5,376 # 178 <_AES_VMA_END>
    1b14:	34c7a703          	lw	a4,844(a5)
    1b18:	3787c603          	lbu	a2,888(a5)
    1b1c:	3487a583          	lw	a1,840(a5)
    1b20:	40e50733          	sub	a4,a0,a4
    1b24:	3747a683          	lw	a3,884(a5)
    1b28:	ee01                	c.bnez	a2,1b40 <pm_tim_recover_32k_rc+0x34>
    1b2a:	02d70633          	mul	a2,a4,a3
    1b2e:	36a7a223          	sw	a0,868(a5)
    1b32:	36e7a023          	sw	a4,864(a5)
    1b36:	00465693          	srli	a3,a2,0x4
    1b3a:	95b6                	c.add	a1,a3
    1b3c:	852e                	c.mv	a0,a1
    1b3e:	8082                	c.jr	ra
    1b40:	00475613          	srli	a2,a4,0x4
    1b44:	c4d615ff          	maddr32	a1,a2,a3
    1b48:	36a7a223          	sw	a0,868(a5)
    1b4c:	36e7a023          	sw	a4,864(a5)
    1b50:	852e                	c.mv	a0,a1
    1b52:	8082                	c.jr	ra

00001b54 <pm_get_32k_rc_calib>:
    1b54:	801407b7          	lui	a5,0x80140
    1b58:	2147a703          	lw	a4,532(a5) # 80140214 <_DATA_LMA_START+0x60136bdc>
    1b5c:	df75                	c.beqz	a4,1b58 <pm_get_32k_rc_calib+0x4>
    1b5e:	2147a503          	lw	a0,532(a5)
    1b62:	000007b7          	lui	a5,0x0
    1b66:	17878793          	addi	a5,a5,376 # 178 <_AES_VMA_END>
    1b6a:	35c7a703          	lw	a4,860(a5)
    1b6e:	36a7a623          	sw	a0,876(a5)
    1b72:	0512                	c.slli	a0,0x4
    1b74:	cb11                	c.beqz	a4,1b88 <pm_get_32k_rc_calib+0x34>
    1b76:	3707c603          	lbu	a2,880(a5)
    1b7a:	4691                	c.li	a3,4
    1b7c:	8d19                	c.sub	a0,a4
    1b7e:	8e91                	c.sub	a3,a2
    1b80:	40d55533          	sra	a0,a0,a3
    1b84:	00e50533          	add	a0,a0,a4
    1b88:	34a7ae23          	sw	a0,860(a5)
    1b8c:	3507a783          	lw	a5,848(a5)
    1b90:	8511                	c.srai	a0,0x4
    1b92:	02f507b3          	mul	a5,a0,a5
    1b96:	87c9                	c.srai	a5,0x12
    1b98:	953e                	c.add	a0,a5
    1b9a:	8082                	c.jr	ra

00001b9c <pm_update_32k_rc_sleep_tick>:
    1b9c:	000007b7          	lui	a5,0x0
    1ba0:	17878793          	addi	a5,a5,376 # 178 <_AES_VMA_END>
    1ba4:	3647a703          	lw	a4,868(a5)
    1ba8:	3707c683          	lbu	a3,880(a5)
    1bac:	40e50733          	sub	a4,a0,a4
    1bb0:	36e7a423          	sw	a4,872(a5)
    1bb4:	e681                	c.bnez	a3,1bbc <pm_update_32k_rc_sleep_tick+0x20>
    1bb6:	3487a703          	lw	a4,840(a5)
    1bba:	eb19                	c.bnez	a4,1bd0 <pm_update_32k_rc_sleep_tick+0x34>
    1bbc:	0015e593          	ori	a1,a1,1
    1bc0:	36078823          	sb	zero,880(a5)
    1bc4:	34a7a623          	sw	a0,844(a5)
    1bc8:	34b7a423          	sw	a1,840(a5)
    1bcc:	00008067          	ret
    1bd0:	34c7a703          	lw	a4,844(a5)
    1bd4:	6691                	c.lui	a3,0x4
    1bd6:	40e50733          	sub	a4,a0,a4
    1bda:	6c07275b          	bfoz	a4,a4,27,0
    1bde:	e8068693          	addi	a3,a3,-384 # 3e80 <main+0xf4>
    1be2:	fee6f5e3          	bgeu	a3,a4,1bcc <pm_update_32k_rc_sleep_tick+0x30>
    1be6:	0015e593          	ori	a1,a1,1
    1bea:	36078823          	sb	zero,880(a5)
    1bee:	34a7a623          	sw	a0,844(a5)
    1bf2:	34b7a423          	sw	a1,840(a5)
    1bf6:	bfd9                	c.j	1bcc <pm_update_32k_rc_sleep_tick+0x30>

00001bf8 <rf_set_ble_channel>:
    1bf8:	80141737          	lui	a4,0x80141
    1bfc:	0ff57793          	andi	a5,a0,255
    1c00:	80f706a3          	sb	a5,-2035(a4) # 8014080d <_DATA_LMA_START+0x601371d5>
    1c04:	4729                	c.li	a4,10
    1c06:	0aa75163          	bge	a4,a0,1ca8 <rf_set_ble_channel+0xb0>
    1c0a:	02400693          	li	a3,36
    1c0e:	02a6d363          	bge	a3,a0,1c34 <rf_set_ble_channel+0x3c>
    1c12:	105553db          	beqc	a0,37,1d18 <rf_set_ble_channel+0x120>
    1c16:	0e655bdb          	beqc	a0,38,1d0c <rf_set_ble_channel+0x114>
    1c1a:	107555db          	beqc	a0,39,1d24 <rf_set_ble_channel+0x12c>
    1c1e:	fcd78693          	addi	a3,a5,-51
    1c22:	0ff6f693          	andi	a3,a3,255
    1c26:	00d76b63          	bltu	a4,a3,1c3c <rf_set_ble_channel+0x44>
    1c2a:	fc378513          	addi	a0,a5,-61
    1c2e:	1c05355b          	bfos	a0,a0,7,0
    1c32:	a029                	c.j	1c3c <rf_set_ble_channel+0x44>
    1c34:	00378513          	addi	a0,a5,3
    1c38:	1c05355b          	bfos	a0,a0,7,0
    1c3c:	6785                	c.lui	a5,0x1
    1c3e:	96078713          	addi	a4,a5,-1696 # 960 <app_acl_txfifo+0x90>
    1c42:	0475355b          	bfos	a0,a0,1,7
    1c46:	953a                	c.add	a0,a4
    1c48:	9d778713          	addi	a4,a5,-1577
    1c4c:	00151813          	slli	a6,a0,0x1
    1c50:	02000693          	li	a3,32
    1c54:	06a77c63          	bgeu	a4,a0,1ccc <rf_set_ble_channel+0xd4>
    1c58:	801417b7          	lui	a5,0x80141
    1c5c:	e4478603          	lb	a2,-444(a5) # 80140e44 <_DATA_LMA_START+0x6013780c>
    1c60:	0ff67613          	andi	a2,a2,255
    1c64:	861fa70b          	lbugp	a4,-1952 # 80060 <g_single_tong_freqoffset>
    1c68:	00166613          	ori	a2,a2,1
    1c6c:	e4c78223          	sb	a2,-444(a5)
    1c70:	e4478583          	lb	a1,-444(a5)
    1c74:	9742                	c.add	a4,a6
    1c76:	0477265b          	bfoz	a2,a4,1,7
    1c7a:	8985                	c.andi	a1,1
    1c7c:	8e4d                	c.or	a2,a1
    1c7e:	e4c78223          	sb	a2,-444(a5)
    1c82:	e4578603          	lb	a2,-443(a5)
    1c86:	3877275b          	bfoz	a4,a4,14,7
    1c8a:	0c067613          	andi	a2,a2,192
    1c8e:	8f51                	c.or	a4,a2
    1c90:	e4e782a3          	sb	a4,-443(a5)
    1c94:	e2978703          	lb	a4,-471(a5)
    1c98:	03f77713          	andi	a4,a4,63
    1c9c:	8ed9                	c.or	a3,a4
    1c9e:	0ff6f693          	andi	a3,a3,255
    1ca2:	e2d784a3          	sb	a3,-471(a5)
    1ca6:	8082                	c.jr	ra
    1ca8:	00278513          	addi	a0,a5,2
    1cac:	1c05355b          	bfos	a0,a0,7,0
    1cb0:	6785                	c.lui	a5,0x1
    1cb2:	96078713          	addi	a4,a5,-1696 # 960 <app_acl_txfifo+0x90>
    1cb6:	0475355b          	bfos	a0,a0,1,7
    1cba:	953a                	c.add	a0,a4
    1cbc:	9d778713          	addi	a4,a5,-1577
    1cc0:	00151813          	slli	a6,a0,0x1
    1cc4:	02000693          	li	a3,32
    1cc8:	f8a768e3          	bltu	a4,a0,1c58 <rf_set_ble_channel+0x60>
    1ccc:	9be78713          	addi	a4,a5,-1602
    1cd0:	04000693          	li	a3,64
    1cd4:	f8a762e3          	bltu	a4,a0,1c58 <rf_set_ble_channel+0x60>
    1cd8:	9a078713          	addi	a4,a5,-1632
    1cdc:	06000693          	li	a3,96
    1ce0:	f6a76ce3          	bltu	a4,a0,1c58 <rf_set_ble_channel+0x60>
    1ce4:	98278713          	addi	a4,a5,-1662
    1ce8:	f8000693          	li	a3,-128
    1cec:	f6a766e3          	bltu	a4,a0,1c58 <rf_set_ble_channel+0x60>
    1cf0:	96478713          	addi	a4,a5,-1692
    1cf4:	fa000693          	li	a3,-96
    1cf8:	f6a760e3          	bltu	a4,a0,1c58 <rf_set_ble_channel+0x60>
    1cfc:	94b78793          	addi	a5,a5,-1717
    1d00:	5681                	c.li	a3,-32
    1d02:	f4a7fbe3          	bgeu	a5,a0,1c58 <rf_set_ble_channel+0x60>
    1d06:	fc000693          	li	a3,-64
    1d0a:	b7b9                	c.j	1c58 <rf_set_ble_channel+0x60>
    1d0c:	6705                	c.lui	a4,0x1
    1d0e:	2f470813          	addi	a6,a4,756 # 12f4 <smemcpy+0xc>
    1d12:	fa000693          	li	a3,-96
    1d16:	b789                	c.j	1c58 <rf_set_ble_channel+0x60>
    1d18:	6705                	c.lui	a4,0x1
    1d1a:	2c470813          	addi	a6,a4,708 # 12c4 <rf_start_fsm.constprop.16+0x48>
    1d1e:	fc000693          	li	a3,-64
    1d22:	bf1d                	c.j	1c58 <rf_set_ble_channel+0x60>
    1d24:	6705                	c.lui	a4,0x1
    1d26:	36070813          	addi	a6,a4,864 # 1360 <aes_ccmBaseTran.isra.0.constprop.13+0x60>
    1d2a:	06000693          	li	a3,96
    1d2e:	b72d                	c.j	1c58 <rf_set_ble_channel+0x60>

00001d30 <ble_rx_dma_config>:
    1d30:	801006b7          	lui	a3,0x80100
    1d34:	200097b7          	lui	a5,0x20009
    1d38:	4586a703          	lw	a4,1112(a3) # 80100458 <_DATA_LMA_START+0x600f6e20>
    1d3c:	5247a783          	lw	a5,1316(a5) # 20009524 <rf_rx_dma_config>
    1d40:	8b3d                	c.andi	a4,15
    1d42:	0792                	c.slli	a5,0x4
    1d44:	8fd9                	c.or	a5,a4
    1d46:	44f6ac23          	sw	a5,1112(a3)
    1d4a:	8082                	c.jr	ra

00001d4c <ble_tx_dma_config>:
    1d4c:	801006b7          	lui	a3,0x80100
    1d50:	200097b7          	lui	a5,0x20009
    1d54:	4446a703          	lw	a4,1092(a3) # 80100444 <_DATA_LMA_START+0x600f6e0c>
    1d58:	5287a783          	lw	a5,1320(a5) # 20009528 <rf_tx_dma_config>
    1d5c:	8b3d                	c.andi	a4,15
    1d5e:	0792                	c.slli	a5,0x4
    1d60:	8fd9                	c.or	a5,a4
    1d62:	44f6a223          	sw	a5,1092(a3)
    1d66:	8082                	c.jr	ra

00001d68 <blc_ll_initBasicMCU>:
    1d68:	1141                	c.addi	sp,-16
    1d6a:	80140737          	lui	a4,0x80140
    1d6e:	c606                	c.swsp	ra,12(sp)
    1d70:	20072783          	lw	a5,512(a4) # 80140200 <_DATA_LMA_START+0x60136bc8>
    1d74:	800006b7          	lui	a3,0x80000
    1d78:	97b6                	c.add	a5,a3
    1d7a:	20f72223          	sw	a5,516(a4)
    1d7e:	20870783          	lb	a5,520(a4)
    1d82:	e40026b7          	lui	a3,0xe4002
    1d86:	0ff7f793          	andi	a5,a5,255
    1d8a:	0017e793          	ori	a5,a5,1
    1d8e:	20f70423          	sb	a5,520(a4)
    1d92:	429c                	c.lw	a5,0(a3)
    1d94:	6621                	c.lui	a2,0x8
    1d96:	8fd1                	c.or	a5,a2
    1d98:	c29c                	c.sw	a5,0(a3)
    1d9a:	e4000737          	lui	a4,0xe4000
    1d9e:	4789                	c.li	a5,2
    1da0:	df5c                	c.sw	a5,60(a4)
    1da2:	c35c                	c.sw	a5,4(a4)
    1da4:	e42007b7          	lui	a5,0xe4200
    1da8:	0007a023          	sw	zero,0(a5) # e4200000 <_DATA_LMA_START+0xc41f69c8>
    1dac:	fa1ff0ef          	jal	ra,1d4c <ble_tx_dma_config>
    1db0:	40b2                	c.lwsp	ra,12(sp)
    1db2:	0141                	c.addi	sp,16
    1db4:	f7dff06f          	j	1d30 <ble_rx_dma_config>

00001db8 <ble_rf_set_rx_dma>:
    1db8:	801007b7          	lui	a5,0x80100
    1dbc:	50c78703          	lb	a4,1292(a5) # 8010050c <_DATA_LMA_START+0x600f6ed4>
    1dc0:	0511                	c.addi	a0,4
    1dc2:	0ff77713          	andi	a4,a4,255
    1dc6:	00676713          	ori	a4,a4,6
    1dca:	50e78623          	sb	a4,1292(a5)
    1dce:	500786a3          	sb	zero,1293(a5)
    1dd2:	00141737          	lui	a4,0x141
    1dd6:	4eb78b23          	sb	a1,1270(a5)
    1dda:	88070713          	addi	a4,a4,-1920 # 140880 <FLASH_SIZE+0x40880>
    1dde:	44e7ae23          	sw	a4,1116(a5)
    1de2:	000a07b7          	lui	a5,0xa0
    1de6:	00f57563          	bgeu	a0,a5,1df0 <ble_rf_set_rx_dma+0x38>
    1dea:	c01807b7          	lui	a5,0xc0180
    1dee:	953e                	c.add	a0,a5
    1df0:	801007b7          	lui	a5,0x80100
    1df4:	46a7a023          	sw	a0,1120(a5) # 80100460 <_DATA_LMA_START+0x600f6e28>
    1df8:	577d                	c.li	a4,-1
    1dfa:	46e7a223          	sw	a4,1124(a5)
    1dfe:	8082                	c.jr	ra

00001e00 <blt_setScan_enter_manaul_rx>:
    1e00:	1141                	c.addi	sp,-16
    1e02:	c422                	c.swsp	s0,8(sp)
    1e04:	00000437          	lui	s0,0x0
    1e08:	17840413          	addi	s0,s0,376 # 178 <_AES_VMA_END>
    1e0c:	c606                	c.swsp	ra,12(sp)
    1e0e:	c226                	c.swsp	s1,4(sp)
    1e10:	4709                	c.li	a4,2
    1e12:	37c42783          	lw	a5,892(s0)
    1e16:	18e40723          	sb	a4,398(s0)
    1e1a:	cb89                	c.beqz	a5,1e2c <blt_setScan_enter_manaul_rx+0x2c>
    1e1c:	38444703          	lbu	a4,900(s0)
    1e20:	0017565b          	beqc	a4,1,1e2c <blt_setScan_enter_manaul_rx+0x2c>
    1e24:	4589                	c.li	a1,2
    1e26:	4505                	c.li	a0,1
    1e28:	000780e7          	jalr	a5
    1e2c:	801406b7          	lui	a3,0x80140
    1e30:	3a042783          	lw	a5,928(s0)
    1e34:	2006a703          	lw	a4,512(a3) # 80140200 <_DATA_LMA_START+0x60136bc8>
    1e38:	3a442603          	lw	a2,932(s0)
    1e3c:	8f1d                	c.sub	a4,a5
    1e3e:	39944783          	lbu	a5,921(s0)
    1e42:	00e67f63          	bgeu	a2,a4,1e60 <blt_setScan_enter_manaul_rx+0x60>
    1e46:	2006a703          	lw	a4,512(a3)
    1e4a:	0785                	c.addi	a5,1
    1e4c:	3ae42023          	sw	a4,928(s0)
    1e50:	0ff7f793          	andi	a5,a5,255
    1e54:	4709                	c.li	a4,2
    1e56:	06f77763          	bgeu	a4,a5,1ec4 <blt_setScan_enter_manaul_rx+0xc4>
    1e5a:	4781                	c.li	a5,0
    1e5c:	38040ca3          	sb	zero,921(s0)
    1e60:	97a2                	c.add	a5,s0
    1e62:	801414b7          	lui	s1,0x80141
    1e66:	3a87c503          	lbu	a0,936(a5)
    1e6a:	02900793          	li	a5,41
    1e6e:	a0f48b23          	sb	a5,-1514(s1) # 80140a16 <_DATA_LMA_START+0x601373de>
    1e72:	f8000793          	li	a5,-128
    1e76:	82f48423          	sb	a5,-2008(s1)
    1e7a:	1c05355b          	bfos	a0,a0,7,0
    1e7e:	04500793          	li	a5,69
    1e82:	a0f48123          	sb	a5,-1534(s1)
    1e86:	3b8d                	c.jal	1bf8 <rf_set_ble_channel>
    1e88:	d6be97b7          	lui	a5,0xd6be9
    1e8c:	98e78793          	addi	a5,a5,-1650 # d6be898e <_DATA_LMA_START+0xb6bdf356>
    1e90:	80f4a423          	sw	a5,-2040(s1)
    1e94:	005557b7          	lui	a5,0x555
    1e98:	39844583          	lbu	a1,920(s0)
    1e9c:	39c42503          	lw	a0,924(s0)
    1ea0:	55578793          	addi	a5,a5,1365 # 555555 <FLASH_SIZE+0x455555>
    1ea4:	82f4a223          	sw	a5,-2012(s1)
    1ea8:	02500793          	li	a5,37
    1eac:	82f488a3          	sb	a5,-1999(s1)
    1eb0:	f09ff0ef          	jal	ra,1db8 <ble_rf_set_rx_dma>
    1eb4:	57fd                	c.li	a5,-1
    1eb6:	a2f49023          	sh	a5,-1504(s1)
    1eba:	4422                	c.lwsp	s0,8(sp)
    1ebc:	40b2                	c.lwsp	ra,12(sp)
    1ebe:	4492                	c.lwsp	s1,4(sp)
    1ec0:	0141                	c.addi	sp,16
    1ec2:	b129                	c.j	1acc <rf_set_rxmode>
    1ec4:	38f40ca3          	sb	a5,921(s0)
    1ec8:	f99ff06f          	j	1e60 <blt_setScan_enter_manaul_rx+0x60>

00001ecc <irq_blc_ll_rx>:
    1ecc:	1141                	c.addi	sp,-16
    1ece:	c422                	c.swsp	s0,8(sp)
    1ed0:	00000437          	lui	s0,0x0
    1ed4:	17840413          	addi	s0,s0,376 # 178 <_AES_VMA_END>
    1ed8:	c606                	c.swsp	ra,12(sp)
    1eda:	c226                	c.swsp	s1,4(sp)
    1edc:	3b244703          	lbu	a4,946(s0)
    1ee0:	3b842483          	lw	s1,952(s0)
    1ee4:	3b144603          	lbu	a2,945(s0)
    1ee8:	3ac45683          	lhu	a3,940(s0)
    1eec:	00170793          	addi	a5,a4,1
    1ef0:	0ff7f793          	andi	a5,a5,255
    1ef4:	00c7f5b3          	and	a1,a5,a2
    1ef8:	8526                	c.mv	a0,s1
    1efa:	c4d5957f          	maddr32	a0,a1,a3
    1efe:	8f71                	c.and	a4,a2
    1f00:	1aa42023          	sw	a0,416(s0)
    1f04:	1a042503          	lw	a0,416(s0)
    1f08:	19340583          	lb	a1,403(s0)
    1f0c:	c4d714ff          	maddr32	s1,a4,a3
    1f10:	0ff5f593          	andi	a1,a1,255
    1f14:	3af40923          	sb	a5,946(s0)
    1f18:	ea1ff0ef          	jal	ra,1db8 <ble_rf_set_rx_dma>
    1f1c:	801417b7          	lui	a5,0x80141
    1f20:	00100713          	li	a4,1
    1f24:	a2e79023          	sh	a4,-1504(a5) # 80140a20 <_DATA_LMA_START+0x601373e8>
    1f28:	801407b7          	lui	a5,0x80140
    1f2c:	2007a583          	lw	a1,512(a5) # 80140200 <_DATA_LMA_START+0x60136bc8>
    1f30:	00048123          	sb	zero,2(s1)
    1f34:	18e40783          	lb	a5,398(s0)
    1f38:	0ff7f793          	andi	a5,a5,255
    1f3c:	1057d45b          	beqc	a5,5,2044 <irq_blc_ll_rx+0x178>
    1f40:	801417b7          	lui	a5,0x80141
    1f44:	83178783          	lb	a5,-1999(a5) # 80140831 <_DATA_LMA_START+0x601371f9>
    1f48:	0054c703          	lbu	a4,5(s1)
    1f4c:	0ff7f793          	andi	a5,a5,255
    1f50:	00e7e863          	bltu	a5,a4,1f60 <irq_blc_ll_rx+0x94>
    1f54:	00970733          	add	a4,a4,s1
    1f58:	01070783          	lb	a5,16(a4)
    1f5c:	0207fa5b          	bbc	a5,0,1f90 <irq_blc_ll_rx+0xc4>
    1f60:	25840783          	lb	a5,600(s0)
    1f64:	00178793          	addi	a5,a5,1
    1f68:	24f40c23          	sb	a5,600(s0)
    1f6c:	3b240783          	lb	a5,946(s0)
    1f70:	1a942023          	sw	s1,416(s0)
    1f74:	17fd                	c.addi	a5,-1
    1f76:	3af40923          	sb	a5,946(s0)
    1f7a:	1a042503          	lw	a0,416(s0)
    1f7e:	19340583          	lb	a1,403(s0)
    1f82:	4422                	c.lwsp	s0,8(sp)
    1f84:	40b2                	c.lwsp	ra,12(sp)
    1f86:	4492                	c.lwsp	s1,4(sp)
    1f88:	0ff5f593          	andi	a1,a1,255
    1f8c:	0141                	c.addi	sp,16
    1f8e:	b52d                	c.j	1db8 <ble_rf_set_rx_dma>
    1f90:	18d40783          	lb	a5,397(s0)
    1f94:	00000513          	li	a0,0
    1f98:	0ff7f793          	andi	a5,a5,255
    1f9c:	0647d45b          	beqc	a5,4,2004 <irq_blc_ll_rx+0x138>
    1fa0:	18d40783          	lb	a5,397(s0)
    1fa4:	0ff7f793          	andi	a5,a5,255
    1fa8:	0487ee5b          	bnec	a5,8,2004 <irq_blc_ll_rx+0x138>
    1fac:	18e40783          	lb	a5,398(s0)
    1fb0:	0ff7f793          	andi	a5,a5,255
    1fb4:	0057d85b          	beqc	a5,5,1fc4 <irq_blc_ll_rx+0xf8>
    1fb8:	18e40783          	lb	a5,398(s0)
    1fbc:	0ff7f793          	andi	a5,a5,255
    1fc0:	0437e25b          	bnec	a5,3,2004 <irq_blc_ll_rx+0x138>
    1fc4:	3d042703          	lw	a4,976(s0)
    1fc8:	4501                	c.li	a0,0
    1fca:	cf0d                	c.beqz	a4,2004 <irq_blc_ll_rx+0x138>
    1fcc:	18440783          	lb	a5,388(s0)
    1fd0:	0ff7f793          	andi	a5,a5,255
    1fd4:	0c078463          	beqz	a5,209c <irq_blc_ll_rx+0x1d0>
    1fd8:	18440783          	lb	a5,388(s0)
    1fdc:	25844683          	lbu	a3,600(s0)
    1fe0:	0ff7f793          	andi	a5,a5,255
    1fe4:	0af6ec63          	bltu	a3,a5,209c <irq_blc_ll_rx+0x1d0>
    1fe8:	2ac42783          	lw	a5,684(s0)
    1fec:	00100693          	li	a3,1
    1ff0:	0407e793          	ori	a5,a5,64
    1ff4:	18d402a3          	sb	a3,389(s0)
    1ff8:	2af42623          	sw	a5,684(s0)
    1ffc:	8526                	c.mv	a0,s1
    1ffe:	9702                	c.jalr	a4
    2000:	0ff57513          	andi	a0,a0,255
    2004:	180402a3          	sb	zero,389(s0)
    2008:	18040703          	lb	a4,384(s0)
    200c:	0054c783          	lbu	a5,5(s1)
    2010:	0ff77713          	andi	a4,a4,255
    2014:	97a6                	c.add	a5,s1
    2016:	00f7c683          	lbu	a3,15(a5)
    201a:	cf39                	c.beqz	a4,2078 <irq_blc_ll_rx+0x1ac>
    201c:	18040783          	lb	a5,384(s0)
    2020:	0ff7f793          	andi	a5,a5,255
    2024:	97b6                	c.add	a5,a3
    2026:	8385                	c.srli	a5,0x1
    2028:	18f40023          	sb	a5,384(s0)
    202c:	25840783          	lb	a5,600(s0)
    2030:	0785                	c.addi	a5,1
    2032:	24f40c23          	sb	a5,600(s0)
    2036:	d91d                	c.beqz	a0,1f6c <irq_blc_ll_rx+0xa0>
    2038:	40b2                	c.lwsp	ra,12(sp)
    203a:	4422                	c.lwsp	s0,8(sp)
    203c:	4492                	c.lwsp	s1,4(sp)
    203e:	0141                	c.addi	sp,16
    2040:	00008067          	ret
    2044:	2c144783          	lbu	a5,705(s0)
    2048:	0437d65b          	beqc	a5,3,2094 <irq_blc_ll_rx+0x1c8>
    204c:	3cf44783          	lbu	a5,975(s0)
    2050:	cb85                	c.beqz	a5,2080 <irq_blc_ll_rx+0x1b4>
    2052:	80100737          	lui	a4,0x80100
    2056:	50070683          	lb	a3,1280(a4) # 80100500 <_DATA_LMA_START+0x600f6ec8>
    205a:	50170703          	lb	a4,1281(a4)
    205e:	0ff6f693          	andi	a3,a3,255
    2062:	0ff77713          	andi	a4,a4,255
    2066:	00e68d63          	beq	a3,a4,2080 <irq_blc_ll_rx+0x1b4>
    206a:	6705                	c.lui	a4,0x1
    206c:	83470713          	addi	a4,a4,-1996 # 834 <blt_buff_prepare_write+0xe4>
    2070:	0ef707db          	lea.d	a5,a4,a5
    2074:	0792                	c.slli	a5,0x4
    2076:	a809                	c.j	2088 <irq_blc_ll_rx+0x1bc>
    2078:	18d40023          	sb	a3,384(s0)
    207c:	fb1ff06f          	j	202c <irq_blc_ll_rx+0x160>
    2080:	000087b7          	lui	a5,0x8
    2084:	34078793          	addi	a5,a5,832 # 8340 <_RAMCODE_VMA_END+0x303e>
    2088:	97ae                	c.add	a5,a1
    208a:	80140737          	lui	a4,0x80140
    208e:	20f72223          	sw	a5,516(a4) # 80140204 <_DATA_LMA_START+0x60136bcc>
    2092:	b57d                	c.j	1f40 <irq_blc_ll_rx+0x74>
    2094:	67d5                	c.lui	a5,0x15
    2096:	b4078793          	addi	a5,a5,-1216 # 14b40 <BIN_SIZE+0xb4be>
    209a:	b7fd                	c.j	2088 <irq_blc_ll_rx+0x1bc>
    209c:	3b240783          	lb	a5,946(s0)
    20a0:	3b340603          	lb	a2,947(s0)
    20a4:	3b044683          	lbu	a3,944(s0)
    20a8:	8f91                	c.sub	a5,a2
    20aa:	03f7f793          	andi	a5,a5,63
    20ae:	f4d7e7e3          	bltu	a5,a3,1ffc <irq_blc_ll_rx+0x130>
    20b2:	bf1d                	c.j	1fe8 <irq_blc_ll_rx+0x11c>

000020b4 <irq_blt_sdk_handler>:
    20b4:	1141                	c.addi	sp,-16
    20b6:	c422                	c.swsp	s0,8(sp)
    20b8:	00000437          	lui	s0,0x0
    20bc:	17840413          	addi	s0,s0,376 # 178 <_AES_VMA_END>
    20c0:	c606                	c.swsp	ra,12(sp)
    20c2:	c226                	c.swsp	s1,4(sp)
    20c4:	17e40783          	lb	a5,382(s0)
    20c8:	0ff7f793          	andi	a5,a5,255
    20cc:	efe1                	c.bnez	a5,21a4 <irq_blt_sdk_handler+0xf0>
    20ce:	801417b7          	lui	a5,0x80141
    20d2:	a2079483          	lh	s1,-1504(a5) # 80140a20 <_DATA_LMA_START+0x601373e8>
    20d6:	3c04a4db          	bfoz	s1,s1,15,0
    20da:	0204f75b          	bbc	s1,0,2108 <irq_blt_sdk_handler+0x54>
    20de:	18e40783          	lb	a5,398(s0)
    20e2:	0ff7f793          	andi	a5,a5,255
    20e6:	1627e35b          	bnec	a5,2,224c <irq_blt_sdk_handler+0x198>
    20ea:	3d442783          	lw	a5,980(s0)
    20ee:	9782                	c.jalr	a5
    20f0:	3d842703          	lw	a4,984(s0)
    20f4:	00070a63          	beqz	a4,2108 <irq_blt_sdk_handler+0x54>
    20f8:	18e40783          	lb	a5,398(s0)
    20fc:	0ff7f793          	andi	a5,a5,255
    2100:	1257ec5b          	bnec	a5,5,2238 <irq_blt_sdk_handler+0x184>
    2104:	4505                	c.li	a0,1
    2106:	9702                	c.jalr	a4
    2108:	0414f25b          	bbc	s1,1,214c <irq_blt_sdk_handler+0x98>
    210c:	3d842703          	lw	a4,984(s0)
    2110:	801417b7          	lui	a5,0x80141
    2114:	4689                	c.li	a3,2
    2116:	a2d79023          	sh	a3,-1504(a5) # 80140a20 <_DATA_LMA_START+0x601373e8>
    211a:	cb09                	c.beqz	a4,212c <irq_blt_sdk_handler+0x78>
    211c:	18e40783          	lb	a5,398(s0)
    2120:	0ff7f793          	andi	a5,a5,255
    2124:	1057e25b          	bnec	a5,5,2228 <irq_blt_sdk_handler+0x174>
    2128:	4509                	c.li	a0,2
    212a:	9702                	c.jalr	a4
    212c:	3dc42703          	lw	a4,988(s0)
    2130:	cb01                	c.beqz	a4,2140 <irq_blt_sdk_handler+0x8c>
    2132:	18240783          	lb	a5,386(s0)
    2136:	0ff7f793          	andi	a5,a5,255
    213a:	c399                	c.beqz	a5,2140 <irq_blt_sdk_handler+0x8c>
    213c:	000700e7          	jalr	a4
    2140:	18d40783          	lb	a5,397(s0)
    2144:	0ff7f793          	andi	a5,a5,255
    2148:	0887d45b          	beqc	a5,8,21d0 <irq_blt_sdk_handler+0x11c>
    214c:	4744f493          	andi	s1,s1,1140
    2150:	00048e63          	beqz	s1,216c <irq_blt_sdk_handler+0xb8>
    2154:	801417b7          	lui	a5,0x80141
    2158:	47400713          	li	a4,1140
    215c:	a2e79023          	sh	a4,-1504(a5) # 80140a20 <_DATA_LMA_START+0x601373e8>
    2160:	18e40783          	lb	a5,398(s0)
    2164:	0ff7f793          	andi	a5,a5,255
    2168:	0a57d65b          	beqc	a5,5,2214 <irq_blt_sdk_handler+0x160>
    216c:	801407b7          	lui	a5,0x80140
    2170:	20978703          	lb	a4,521(a5) # 80140209 <_DATA_LMA_START+0x60136bd1>
    2174:	42077e5b          	bbs	a4,0,21b0 <irq_blt_sdk_handler+0xfc>
    2178:	80140737          	lui	a4,0x80140
    217c:	20472783          	lw	a5,516(a4) # 80140204 <_DATA_LMA_START+0x60136bcc>
    2180:	20072603          	lw	a2,512(a4)
    2184:	400006b7          	lui	a3,0x40000
    2188:	40c787b3          	sub	a5,a5,a2
    218c:	00f6fc63          	bgeu	a3,a5,21a4 <irq_blt_sdk_handler+0xf0>
    2190:	18d40783          	lb	a5,397(s0)
    2194:	8bb9                	c.andi	a5,14
    2196:	c799                	c.beqz	a5,21a4 <irq_blt_sdk_handler+0xf0>
    2198:	20072783          	lw	a5,512(a4)
    219c:	7d078793          	addi	a5,a5,2000
    21a0:	20f72223          	sw	a5,516(a4)
    21a4:	40b2                	c.lwsp	ra,12(sp)
    21a6:	4422                	c.lwsp	s0,8(sp)
    21a8:	4492                	c.lwsp	s1,4(sp)
    21aa:	0141                	c.addi	sp,16
    21ac:	00008067          	ret
    21b0:	4705                	c.li	a4,1
    21b2:	20e784a3          	sb	a4,521(a5)
    21b6:	309d                	c.jal	1a1c <irq_ll_system_timer>
    21b8:	80140737          	lui	a4,0x80140
    21bc:	20472783          	lw	a5,516(a4) # 80140204 <_DATA_LMA_START+0x60136bcc>
    21c0:	20072603          	lw	a2,512(a4)
    21c4:	400006b7          	lui	a3,0x40000
    21c8:	8f91                	c.sub	a5,a2
    21ca:	fcf6e3e3          	bltu	a3,a5,2190 <irq_blt_sdk_handler+0xdc>
    21ce:	bfd9                	c.j	21a4 <irq_blt_sdk_handler+0xf0>
    21d0:	3e640783          	lb	a5,998(s0)
    21d4:	3e740683          	lb	a3,999(s0)
    21d8:	8f95                	c.sub	a5,a3
    21da:	8bfd                	c.andi	a5,31
    21dc:	dba5                	c.beqz	a5,214c <irq_blt_sdk_handler+0x98>
    21de:	80100637          	lui	a2,0x80100
    21e2:	50060703          	lb	a4,1280(a2) # 80100500 <_DATA_LMA_START+0x600f6ec8>
    21e6:	50160503          	lb	a0,1281(a2)
    21ea:	4585                	c.li	a1,1
    21ec:	8f09                	c.sub	a4,a0
    21ee:	8b7d                	c.andi	a4,31
    21f0:	177d                	c.addi	a4,-1
    21f2:	f4e5ede3          	bltu	a1,a4,214c <irq_blt_sdk_handler+0x98>
    21f6:	50060703          	lb	a4,1280(a2)
    21fa:	96be                	c.add	a3,a5
    21fc:	97ba                	c.add	a5,a4
    21fe:	3ed403a3          	sb	a3,999(s0)
    2202:	0ff7f793          	andi	a5,a5,255
    2206:	50f60023          	sb	a5,1280(a2)
    220a:	50160783          	lb	a5,1281(a2)
    220e:	50060783          	lb	a5,1280(a2)
    2212:	bf2d                	c.j	214c <irq_blt_sdk_handler+0x98>
    2214:	80140737          	lui	a4,0x80140
    2218:	20072783          	lw	a5,512(a4) # 80140200 <_DATA_LMA_START+0x60136bc8>
    221c:	0c878793          	addi	a5,a5,200
    2220:	20f72223          	sw	a5,516(a4)
    2224:	f49ff06f          	j	216c <irq_blt_sdk_handler+0xb8>
    2228:	18e40783          	lb	a5,398(s0)
    222c:	0ff7f793          	andi	a5,a5,255
    2230:	ae37ee5b          	bnec	a5,3,212c <irq_blt_sdk_handler+0x78>
    2234:	ef5ff06f          	j	2128 <irq_blt_sdk_handler+0x74>
    2238:	18e40783          	lb	a5,398(s0)
    223c:	0ff7f793          	andi	a5,a5,255
    2240:	ac37d25b          	beqc	a5,3,2104 <irq_blt_sdk_handler+0x50>
    2244:	b014f45b          	bbc	s1,1,214c <irq_blt_sdk_handler+0x98>
    2248:	ec5ff06f          	j	210c <irq_blt_sdk_handler+0x58>
    224c:	c81ff0ef          	jal	ra,1ecc <irq_blc_ll_rx>
    2250:	ea1ff06f          	j	20f0 <irq_blt_sdk_handler+0x3c>

00002254 <stimer_irq_handler>:
    2254:	e61ff06f          	j	20b4 <irq_blt_sdk_handler>

00002258 <rf_irq_handler>:
    2258:	e5dff06f          	j	20b4 <irq_blt_sdk_handler>

0000225c <delay_ms>:
    225c:	000047b7          	lui	a5,0x4
    2260:	e8078793          	addi	a5,a5,-384 # 3e80 <main+0xf4>
    2264:	02f50533          	mul	a0,a0,a5
    2268:	801407b7          	lui	a5,0x80140
    226c:	2007a683          	lw	a3,512(a5) # 80140200 <_DATA_LMA_START+0x60136bc8>
    2270:	80140737          	lui	a4,0x80140
    2274:	20072783          	lw	a5,512(a4) # 80140200 <_DATA_LMA_START+0x60136bc8>
    2278:	8f95                	c.sub	a5,a3
    227a:	fef57de3          	bgeu	a0,a5,2274 <delay_ms+0x18>
    227e:	8082                	c.jr	ra

00002280 <delay_us>:
    2280:	801407b7          	lui	a5,0x80140
    2284:	2007a683          	lw	a3,512(a5) # 80140200 <_DATA_LMA_START+0x60136bc8>
    2288:	00451513          	slli	a0,a0,0x4
    228c:	80140737          	lui	a4,0x80140
    2290:	20072783          	lw	a5,512(a4) # 80140200 <_DATA_LMA_START+0x60136bc8>
    2294:	8f95                	c.sub	a5,a3
    2296:	fef57de3          	bgeu	a0,a5,2290 <delay_us+0x10>
    229a:	8082                	c.jr	ra

0000229c <flash_send_addr>:
    229c:	5d05275b          	bfoz	a4,a0,23,16
    22a0:	801407b7          	lui	a5,0x80140
    22a4:	801406b7          	lui	a3,0x80140
    22a8:	10e78023          	sb	a4,256(a5) # 80140100 <_DATA_LMA_START+0x60136ac8>
    22ac:	10268783          	lb	a5,258(a3) # 80140102 <_DATA_LMA_START+0x60136aca>
    22b0:	fe07fe5b          	bbs	a5,0,22ac <flash_send_addr+0x10>
    22b4:	3c8527db          	bfoz	a5,a0,15,8
    22b8:	80140737          	lui	a4,0x80140
    22bc:	10f68023          	sb	a5,256(a3)
    22c0:	10270783          	lb	a5,258(a4) # 80140102 <_DATA_LMA_START+0x60136aca>
    22c4:	fe07fe5b          	bbs	a5,0,22c0 <flash_send_addr+0x24>
    22c8:	0ff57513          	andi	a0,a0,255
    22cc:	801406b7          	lui	a3,0x80140
    22d0:	10a70023          	sb	a0,256(a4)
    22d4:	10268783          	lb	a5,258(a3) # 80140102 <_DATA_LMA_START+0x60136aca>
    22d8:	fe07fe5b          	bbs	a5,0,22d4 <flash_send_addr+0x38>
    22dc:	00008067          	ret

000022e0 <flash_send_cmd>:
    22e0:	801407b7          	lui	a5,0x80140
    22e4:	10178703          	lb	a4,257(a5) # 80140101 <_DATA_LMA_START+0x60136ac9>
    22e8:	0ff77713          	andi	a4,a4,255
    22ec:	01076713          	ori	a4,a4,16
    22f0:	10e780a3          	sb	a4,257(a5)
    22f4:	0001                	c.nop
    22f6:	0001                	c.nop
    22f8:	0001                	c.nop
    22fa:	0001                	c.nop
    22fc:	0001                	c.nop
    22fe:	0001                	c.nop
    2300:	0001                	c.nop
    2302:	0001                	c.nop
    2304:	0001                	c.nop
    2306:	0001                	c.nop
    2308:	10178683          	lb	a3,257(a5)
    230c:	0ff57513          	andi	a0,a0,255
    2310:	0ef6f693          	andi	a3,a3,239
    2314:	10d780a3          	sb	a3,257(a5)
    2318:	80140737          	lui	a4,0x80140
    231c:	10a78023          	sb	a0,256(a5)
    2320:	10270783          	lb	a5,258(a4) # 80140102 <_DATA_LMA_START+0x60136aca>
    2324:	fe07fe5b          	bbs	a5,0,2320 <flash_send_cmd+0x40>
    2328:	00008067          	ret

0000232c <flash_mspi_read_ram>:
    232c:	1101                	c.addi	sp,-32
    232e:	cc22                	c.swsp	s0,24(sp)
    2330:	ca26                	c.swsp	s1,20(sp)
    2332:	c84a                	c.swsp	s2,16(sp)
    2334:	c64e                	c.swsp	s3,12(sp)
    2336:	c452                	c.swsp	s4,8(sp)
    2338:	c256                	c.swsp	s5,4(sp)
    233a:	ce06                	c.swsp	ra,28(sp)
    233c:	89aa                	c.mv	s3,a0
    233e:	843a                	c.mv	s0,a4
    2340:	84be                	c.mv	s1,a5
    2342:	4705                	c.li	a4,1
    2344:	e42007b7          	lui	a5,0xe4200
    2348:	8a2e                	c.mv	s4,a1
    234a:	8ab2                	c.mv	s5,a2
    234c:	8936                	c.mv	s2,a3
    234e:	80140537          	lui	a0,0x80140
    2352:	c398                	c.sw	a4,0(a5)
    2354:	10250703          	lb	a4,258(a0) # 80140102 <_DATA_LMA_START+0x60136aca>
    2358:	fe077e5b          	bbs	a4,0,2354 <flash_mspi_read_ram+0x28>
    235c:	10150783          	lb	a5,257(a0)
    2360:	80140837          	lui	a6,0x80140
    2364:	0ff7f793          	andi	a5,a5,255
    2368:	0107e793          	ori	a5,a5,16
    236c:	10f500a3          	sb	a5,257(a0)
    2370:	32880703          	lb	a4,808(a6) # 80140328 <_DATA_LMA_START+0x60136cf0>
    2374:	be377e5b          	bbc	a4,3,2370 <flash_mspi_read_ram+0x44>
    2378:	10180783          	lb	a5,257(a6)
    237c:	854e                	c.mv	a0,s3
    237e:	0fd7f793          	andi	a5,a5,253
    2382:	10f800a3          	sb	a5,257(a6)
    2386:	10180783          	lb	a5,257(a6)
    238a:	0f37f793          	andi	a5,a5,243
    238e:	10f800a3          	sb	a5,257(a6)
    2392:	37b9                	c.jal	22e0 <flash_send_cmd>
    2394:	0e0a9c63          	bnez	s5,248c <flash_mspi_read_ram+0x160>
    2398:	00000713          	li	a4,0
    239c:	801405b7          	lui	a1,0x80140
    23a0:	01277c63          	bgeu	a4,s2,23b8 <flash_mspi_read_ram+0x8c>
    23a4:	00100713          	li	a4,1
    23a8:	10058023          	sb	zero,256(a1) # 80140100 <_DATA_LMA_START+0x60136ac8>
    23ac:	10258603          	lb	a2,258(a1)
    23b0:	fe067e5b          	bbs	a2,0,23ac <flash_mspi_read_ram+0x80>
    23b4:	ff2768e3          	bltu	a4,s2,23a4 <flash_mspi_read_ram+0x78>
    23b8:	01b9ecdb          	bnec	s3,59,23d0 <flash_mspi_read_ram+0xa4>
    23bc:	80140737          	lui	a4,0x80140
    23c0:	10170783          	lb	a5,257(a4) # 80140101 <_DATA_LMA_START+0x60136ac9>
    23c4:	0f37f793          	andi	a5,a5,243
    23c8:	0047e793          	ori	a5,a5,4
    23cc:	10f700a3          	sb	a5,257(a4)
    23d0:	80140737          	lui	a4,0x80140
    23d4:	10170783          	lb	a5,257(a4) # 80140101 <_DATA_LMA_START+0x60136ac9>
    23d8:	801406b7          	lui	a3,0x80140
    23dc:	0ff7f793          	andi	a5,a5,255
    23e0:	0027e793          	ori	a5,a5,2
    23e4:	10f700a3          	sb	a5,257(a4)
    23e8:	10070023          	sb	zero,256(a4)
    23ec:	10268703          	lb	a4,258(a3) # 80140102 <_DATA_LMA_START+0x60136aca>
    23f0:	fe077e5b          	bbs	a4,0,23ec <flash_mspi_read_ram+0xc0>
    23f4:	10168703          	lb	a4,257(a3)
    23f8:	801407b7          	lui	a5,0x80140
    23fc:	0ff77713          	andi	a4,a4,255
    2400:	00176713          	ori	a4,a4,1
    2404:	10e680a3          	sb	a4,257(a3)
    2408:	10278703          	lb	a4,258(a5) # 80140102 <_DATA_LMA_START+0x60136aca>
    240c:	fe077e5b          	bbs	a4,0,2408 <flash_mspi_read_ram+0xdc>
    2410:	02048263          	beqz	s1,2434 <flash_mspi_read_ram+0x108>
    2414:	00940733          	add	a4,s0,s1
    2418:	801406b7          	lui	a3,0x80140
    241c:	10068783          	lb	a5,256(a3) # 80140100 <_DATA_LMA_START+0x60136ac8>
    2420:	00140413          	addi	s0,s0,1
    2424:	fef40fa3          	sb	a5,-1(s0)
    2428:	10268783          	lb	a5,258(a3)
    242c:	fe07fe5b          	bbs	a5,0,2428 <flash_mspi_read_ram+0xfc>
    2430:	fee416e3          	bne	s0,a4,241c <flash_mspi_read_ram+0xf0>
    2434:	801407b7          	lui	a5,0x80140
    2438:	10178703          	lb	a4,257(a5) # 80140101 <_DATA_LMA_START+0x60136ac9>
    243c:	0fe77713          	andi	a4,a4,254
    2440:	10e780a3          	sb	a4,257(a5)
    2444:	01b9e8db          	bnec	s3,59,2454 <flash_mspi_read_ram+0x128>
    2448:	10178703          	lb	a4,257(a5)
    244c:	0f377713          	andi	a4,a4,243
    2450:	10e780a3          	sb	a4,257(a5)
    2454:	80140737          	lui	a4,0x80140
    2458:	10170783          	lb	a5,257(a4) # 80140101 <_DATA_LMA_START+0x60136ac9>
    245c:	0ff7f793          	andi	a5,a5,255
    2460:	0107e793          	ori	a5,a5,16
    2464:	10f700a3          	sb	a5,257(a4)
    2468:	0001                	c.nop
    246a:	0001                	c.nop
    246c:	0001                	c.nop
    246e:	0001                	c.nop
    2470:	0001                	c.nop
    2472:	e42007b7          	lui	a5,0xe4200
    2476:	0007a023          	sw	zero,0(a5) # e4200000 <_DATA_LMA_START+0xc41f69c8>
    247a:	40f2                	c.lwsp	ra,28(sp)
    247c:	4462                	c.lwsp	s0,24(sp)
    247e:	44d2                	c.lwsp	s1,20(sp)
    2480:	4942                	c.lwsp	s2,16(sp)
    2482:	49b2                	c.lwsp	s3,12(sp)
    2484:	4a22                	c.lwsp	s4,8(sp)
    2486:	4a92                	c.lwsp	s5,4(sp)
    2488:	6105                	c.addi16sp	sp,32
    248a:	8082                	c.jr	ra
    248c:	8552                	c.mv	a0,s4
    248e:	3539                	c.jal	229c <flash_send_addr>
    2490:	f09ff06f          	j	2398 <flash_mspi_read_ram+0x6c>

00002494 <flash_wait_done>:
    2494:	1141                	c.addi	sp,-16
    2496:	4515                	c.li	a0,5
    2498:	c606                	c.swsp	ra,12(sp)
    249a:	3599                	c.jal	22e0 <flash_send_cmd>
    249c:	009896b7          	lui	a3,0x989
    24a0:	68068693          	addi	a3,a3,1664 # 989680 <FLASH_SIZE+0x889680>
    24a4:	80140737          	lui	a4,0x80140
    24a8:	10070023          	sb	zero,256(a4) # 80140100 <_DATA_LMA_START+0x60136ac8>
    24ac:	10270783          	lb	a5,258(a4)
    24b0:	fe07fe5b          	bbs	a5,0,24ac <flash_wait_done+0x18>
    24b4:	10070783          	lb	a5,256(a4)
    24b8:	0007f45b          	bbc	a5,0,24c0 <flash_wait_done+0x2c>
    24bc:	16fd                	c.addi	a3,-1
    24be:	f6ed                	c.bnez	a3,24a8 <flash_wait_done+0x14>
    24c0:	80140737          	lui	a4,0x80140
    24c4:	10170783          	lb	a5,257(a4) # 80140101 <_DATA_LMA_START+0x60136ac9>
    24c8:	0ff7f793          	andi	a5,a5,255
    24cc:	0107e793          	ori	a5,a5,16
    24d0:	10f700a3          	sb	a5,257(a4)
    24d4:	40b2                	c.lwsp	ra,12(sp)
    24d6:	0141                	c.addi	sp,16
    24d8:	00008067          	ret

000024dc <flash_mspi_write_ram.constprop.44>:
    24dc:	1141                	c.addi	sp,-16
    24de:	c422                	c.swsp	s0,8(sp)
    24e0:	c226                	c.swsp	s1,4(sp)
    24e2:	c04a                	c.swsp	s2,0(sp)
    24e4:	c606                	c.swsp	ra,12(sp)
    24e6:	e42007b7          	lui	a5,0xe4200
    24ea:	4705                	c.li	a4,1
    24ec:	84aa                	c.mv	s1,a0
    24ee:	892e                	c.mv	s2,a1
    24f0:	8432                	c.mv	s0,a2
    24f2:	801406b7          	lui	a3,0x80140
    24f6:	c398                	c.sw	a4,0(a5)
    24f8:	10268783          	lb	a5,258(a3) # 80140102 <_DATA_LMA_START+0x60136aca>
    24fc:	fe07fe5b          	bbs	a5,0,24f8 <flash_mspi_write_ram.constprop.44+0x1c>
    2500:	10168783          	lb	a5,257(a3)
    2504:	80140737          	lui	a4,0x80140
    2508:	0ff7f793          	andi	a5,a5,255
    250c:	0107e793          	ori	a5,a5,16
    2510:	10f680a3          	sb	a5,257(a3)
    2514:	32870783          	lb	a5,808(a4) # 80140328 <_DATA_LMA_START+0x60136cf0>
    2518:	be37fe5b          	bbc	a5,3,2514 <flash_mspi_write_ram.constprop.44+0x38>
    251c:	10170783          	lb	a5,257(a4)
    2520:	4519                	c.li	a0,6
    2522:	0fd7f793          	andi	a5,a5,253
    2526:	10f700a3          	sb	a5,257(a4)
    252a:	10170783          	lb	a5,257(a4)
    252e:	0f37f793          	andi	a5,a5,243
    2532:	10f700a3          	sb	a5,257(a4)
    2536:	336d                	c.jal	22e0 <flash_send_cmd>
    2538:	00200513          	li	a0,2
    253c:	da5ff0ef          	jal	ra,22e0 <flash_send_cmd>
    2540:	00900533          	add	a0,zero,s1
    2544:	d59ff0ef          	jal	ra,229c <flash_send_addr>
    2548:	c015                	c.beqz	s0,256c <flash_mspi_write_ram.constprop.44+0x90>
    254a:	85ca                	c.mv	a1,s2
    254c:	00890633          	add	a2,s2,s0
    2550:	80140737          	lui	a4,0x80140
    2554:	0005c783          	lbu	a5,0(a1)
    2558:	10f70023          	sb	a5,256(a4) # 80140100 <_DATA_LMA_START+0x60136ac8>
    255c:	10270783          	lb	a5,258(a4)
    2560:	fe07fe5b          	bbs	a5,0,255c <flash_mspi_write_ram.constprop.44+0x80>
    2564:	00158593          	addi	a1,a1,1
    2568:	feb616e3          	bne	a2,a1,2554 <flash_mspi_write_ram.constprop.44+0x78>
    256c:	80140737          	lui	a4,0x80140
    2570:	10170783          	lb	a5,257(a4) # 80140101 <_DATA_LMA_START+0x60136ac9>
    2574:	0ff7f793          	andi	a5,a5,255
    2578:	0107e793          	ori	a5,a5,16
    257c:	10f700a3          	sb	a5,257(a4)
    2580:	f15ff0ef          	jal	ra,2494 <flash_wait_done>
    2584:	0001                	c.nop
    2586:	0001                	c.nop
    2588:	0001                	c.nop
    258a:	0001                	c.nop
    258c:	0001                	c.nop
    258e:	e42007b7          	lui	a5,0xe4200
    2592:	0007a023          	sw	zero,0(a5) # e4200000 <_DATA_LMA_START+0xc41f69c8>
    2596:	40b2                	c.lwsp	ra,12(sp)
    2598:	4422                	c.lwsp	s0,8(sp)
    259a:	4492                	c.lwsp	s1,4(sp)
    259c:	4902                	c.lwsp	s2,0(sp)
    259e:	0141                	c.addi	sp,16
    25a0:	00008067          	ret

000025a4 <clock_set_32k_tick>:
    25a4:	801406b7          	lui	a3,0x80140
    25a8:	20a68703          	lb	a4,522(a3) # 8014020a <_DATA_LMA_START+0x60136bd2>
    25ac:	801407b7          	lui	a5,0x80140
    25b0:	0ff77713          	andi	a4,a4,255
    25b4:	00176713          	ori	a4,a4,1
    25b8:	20e68523          	sb	a4,522(a3)
    25bc:	20b78703          	lb	a4,523(a5) # 8014020b <_DATA_LMA_START+0x60136bd3>
    25c0:	20b78693          	addi	a3,a5,523
    25c4:	fe677c5b          	bbs	a4,6,25bc <clock_set_32k_tick+0x18>
    25c8:	20a7a623          	sw	a0,524(a5)
    25cc:	47a1                	c.li	a5,8
    25ce:	00f68023          	sb	a5,0(a3)
    25d2:	0001                	c.nop
    25d4:	0001                	c.nop
    25d6:	0001                	c.nop
    25d8:	0001                	c.nop
    25da:	0001                	c.nop
    25dc:	0001                	c.nop
    25de:	0001                	c.nop
    25e0:	0001                	c.nop
    25e2:	0001                	c.nop
    25e4:	0001                	c.nop
    25e6:	0001                	c.nop
    25e8:	0001                	c.nop
    25ea:	0001                	c.nop
    25ec:	0001                	c.nop
    25ee:	0001                	c.nop
    25f0:	00000013          	nop
    25f4:	80140737          	lui	a4,0x80140
    25f8:	20b70783          	lb	a5,523(a4) # 8014020b <_DATA_LMA_START+0x60136bd3>
    25fc:	fe37fe5b          	bbs	a5,3,25f8 <clock_set_32k_tick+0x54>
    2600:	00008067          	ret

00002604 <clock_get_32k_tick>:
    2604:	1141                	c.addi	sp,-16
    2606:	c422                	c.swsp	s0,8(sp)
    2608:	00112623          	sw	ra,12(sp)
    260c:	20003097          	auipc	ra,0x20003
    2610:	348080e7          	jalr	840(ra) # 20005954 <analog_read_reg32.constprop.48>
    2614:	00a00433          	add	s0,zero,a0
    2618:	20003097          	auipc	ra,0x20003
    261c:	33c080e7          	jalr	828(ra) # 20005954 <analog_read_reg32.constprop.48>
    2620:	40850733          	sub	a4,a0,s0
    2624:	842a                	c.mv	s0,a0
    2626:	be17695b          	bnec	a4,1,2618 <clock_get_32k_tick+0x14>
    262a:	40b2                	c.lwsp	ra,12(sp)
    262c:	4422                	c.lwsp	s0,8(sp)
    262e:	0141                	c.addi	sp,16
    2630:	00008067          	ret

00002634 <smp_quickResolvPrivateAddr>:
    2634:	30002873          	csrr	a6,mstatus
    2638:	00887813          	andi	a6,a6,8
    263c:	00080463          	beqz	a6,2644 <smp_quickResolvPrivateAddr+0x10>
    2640:	300477f3          	csrrci	a5,mstatus,8
    2644:	411c                	c.lw	a5,0(a0)
    2646:	80160637          	lui	a2,0x80160
    264a:	0af62a23          	sw	a5,180(a2) # 801600b4 <_DATA_LMA_START+0x60156a7c>
    264e:	415c                	c.lw	a5,4(a0)
    2650:	00000737          	lui	a4,0x0
    2654:	0af62c23          	sw	a5,184(a2)
    2658:	451c                	c.lw	a5,8(a0)
    265a:	15870713          	addi	a4,a4,344 # 158 <_AES_VMA_START>
    265e:	0af62e23          	sw	a5,188(a2)
    2662:	455c                	c.lw	a5,12(a0)
    2664:	0cf62023          	sw	a5,192(a2)
    2668:	0045c783          	lbu	a5,4(a1)
    266c:	0055c683          	lbu	a3,5(a1)
    2670:	0035c503          	lbu	a0,3(a1)
    2674:	06c2                	c.slli	a3,0x10
    2676:	07a2                	c.slli	a5,0x8
    2678:	8fd5                	c.or	a5,a3
    267a:	8fc9                	c.or	a5,a0
    267c:	c31c                	c.sw	a5,0(a4)
    267e:	0ce62223          	sw	a4,196(a2)
    2682:	00072223          	sw	zero,4(a4)
    2686:	00072423          	sw	zero,8(a4)
    268a:	00072623          	sw	zero,12(a4)
    268e:	4785                	c.li	a5,1
    2690:	801606b7          	lui	a3,0x80160
    2694:	0af62823          	sw	a5,176(a2)
    2698:	0b06a783          	lw	a5,176(a3) # 801600b0 <_DATA_LMA_START+0x60156a78>
    269c:	fe07fe5b          	bbs	a5,0,2698 <smp_quickResolvPrivateAddr+0x64>
    26a0:	00080463          	beqz	a6,26a8 <smp_quickResolvPrivateAddr+0x74>
    26a4:	30082873          	csrrs	a6,mstatus,a6
    26a8:	0015c503          	lbu	a0,1(a1)
    26ac:	0025c683          	lbu	a3,2(a1)
    26b0:	0005c603          	lbu	a2,0(a1)
    26b4:	06c2                	c.slli	a3,0x10
    26b6:	4b1c                	c.lw	a5,16(a4)
    26b8:	0522                	c.slli	a0,0x8
    26ba:	8d55                	c.or	a0,a3
    26bc:	8d51                	c.or	a0,a2
    26be:	5c07a7db          	bfoz	a5,a5,23,0
    26c2:	8d1d                	c.sub	a0,a5
    26c4:	00153513          	seqz	a0,a0
    26c8:	00008067          	ret

000026cc <blt_ll_searchAddr_in_ResolvingList>:
    26cc:	1101                	c.addi	sp,-32
    26ce:	ce06                	c.swsp	ra,28(sp)
    26d0:	cc22                	c.swsp	s0,24(sp)
    26d2:	ca26                	c.swsp	s1,20(sp)
    26d4:	c84a                	c.swsp	s2,16(sp)
    26d6:	c64e                	c.swsp	s3,12(sp)
    26d8:	c452                	c.swsp	s4,8(sp)
    26da:	04156f5b          	bnec	a0,1,2738 <blt_ll_searchAddr_in_ResolvingList+0x6c>
    26de:	00558783          	lb	a5,5(a1)
    26e2:	0c07f793          	andi	a5,a5,192
    26e6:	4407e95b          	bnec	a5,64,2738 <blt_ll_searchAddr_in_ResolvingList+0x6c>
    26ea:	00000937          	lui	s2,0x0
    26ee:	17890913          	addi	s2,s2,376 # 178 <_AES_VMA_END>
    26f2:	42994783          	lbu	a5,1065(s2)
    26f6:	c3a9                	c.beqz	a5,2738 <blt_ll_searchAddr_in_ResolvingList+0x6c>
    26f8:	42894783          	lbu	a5,1064(s2)
    26fc:	cf95                	c.beqz	a5,2738 <blt_ll_searchAddr_in_ResolvingList+0x6c>
    26fe:	89ae                	c.mv	s3,a1
    2700:	40090413          	addi	s0,s2,1024
    2704:	4481                	c.li	s1,0
    2706:	a039                	c.j	2714 <blt_ll_searchAddr_in_ResolvingList+0x48>
    2708:	42894783          	lbu	a5,1064(s2)
    270c:	01840413          	addi	s0,s0,24
    2710:	02f4d463          	bge	s1,a5,2738 <blt_ll_searchAddr_in_ResolvingList+0x6c>
    2714:	8522                	c.mv	a0,s0
    2716:	85ce                	c.mv	a1,s3
    2718:	0485                	c.addi	s1,1
    271a:	8a22                	c.mv	s4,s0
    271c:	f19ff0ef          	jal	ra,2634 <smp_quickResolvPrivateAddr>
    2720:	fe0504e3          	beqz	a0,2708 <blt_ll_searchAddr_in_ResolvingList+0x3c>
    2724:	40f2                	c.lwsp	ra,28(sp)
    2726:	4462                	c.lwsp	s0,24(sp)
    2728:	8552                	c.mv	a0,s4
    272a:	44d2                	c.lwsp	s1,20(sp)
    272c:	4942                	c.lwsp	s2,16(sp)
    272e:	49b2                	c.lwsp	s3,12(sp)
    2730:	4a22                	c.lwsp	s4,8(sp)
    2732:	6105                	c.addi16sp	sp,32
    2734:	00008067          	ret
    2738:	4a01                	c.li	s4,0
    273a:	b7ed                	c.j	2724 <blt_ll_searchAddr_in_ResolvingList+0x58>

0000273c <ll_searchAddr_in_WhiteList_and_ResolvingList>:
    273c:	1141                	c.addi	sp,-16
    273e:	c422                	c.swsp	s0,8(sp)
    2740:	c226                	c.swsp	s1,4(sp)
    2742:	c606                	c.swsp	ra,12(sp)
    2744:	842a                	c.mv	s0,a0
    2746:	84ae                	c.mv	s1,a1
    2748:	ffdfe0ef          	jal	ra,1744 <blt_ll_searchAddr_in_WhiteList>
    274c:	c511                	c.beqz	a0,2758 <ll_searchAddr_in_WhiteList_and_ResolvingList+0x1c>
    274e:	40b2                	c.lwsp	ra,12(sp)
    2750:	4422                	c.lwsp	s0,8(sp)
    2752:	4492                	c.lwsp	s1,4(sp)
    2754:	0141                	c.addi	sp,16
    2756:	8082                	c.jr	ra
    2758:	8522                	c.mv	a0,s0
    275a:	4422                	c.lwsp	s0,8(sp)
    275c:	40b2                	c.lwsp	ra,12(sp)
    275e:	85a6                	c.mv	a1,s1
    2760:	4492                	c.lwsp	s1,4(sp)
    2762:	0141                	c.addi	sp,16
    2764:	f69ff06f          	j	26cc <blt_ll_searchAddr_in_ResolvingList>

00002768 <irq_scan_rx_primary_channel>:
    2768:	1101                	c.addi	sp,-32
    276a:	c84a                	c.swsp	s2,16(sp)
    276c:	80141937          	lui	s2,0x80141
    2770:	ce06                	c.swsp	ra,28(sp)
    2772:	cc22                	c.swsp	s0,24(sp)
    2774:	ca26                	c.swsp	s1,20(sp)
    2776:	c64e                	c.swsp	s3,12(sp)
    2778:	84090783          	lb	a5,-1984(s2) # 80140840 <_DATA_LMA_START+0x60137208>
    277c:	0817a7db          	bfoz	a5,a5,2,1
    2780:	cf81                	c.beqz	a5,2798 <irq_scan_rx_primary_channel+0x30>
    2782:	4785                	c.li	a5,1
    2784:	a2f91023          	sh	a5,-1504(s2)
    2788:	40f2                	c.lwsp	ra,28(sp)
    278a:	4462                	c.lwsp	s0,24(sp)
    278c:	44d2                	c.lwsp	s1,20(sp)
    278e:	4942                	c.lwsp	s2,16(sp)
    2790:	49b2                	c.lwsp	s3,12(sp)
    2792:	4501                	c.li	a0,0
    2794:	6105                	c.addi16sp	sp,32
    2796:	8082                	c.jr	ra
    2798:	00000437          	lui	s0,0x0
    279c:	17840413          	addi	s0,s0,376 # 178 <_AES_VMA_END>
    27a0:	1be44683          	lbu	a3,446(s0)
    27a4:	1c042483          	lw	s1,448(s0)
    27a8:	00168713          	addi	a4,a3,1
    27ac:	0ff77713          	andi	a4,a4,255
    27b0:	188727db          	bfoz	a5,a4,6,8
    27b4:	97a6                	c.add	a5,s1
    27b6:	39844583          	lbu	a1,920(s0)
    27ba:	1886a6db          	bfoz	a3,a3,6,8
    27be:	853e                	c.mv	a0,a5
    27c0:	00d484b3          	add	s1,s1,a3
    27c4:	1ae40f23          	sb	a4,446(s0)
    27c8:	38f42e23          	sw	a5,924(s0)
    27cc:	decff0ef          	jal	ra,1db8 <ble_rf_set_rx_dma>
    27d0:	00100793          	li	a5,1
    27d4:	a2f91023          	sh	a5,-1504(s2)
    27d8:	00048123          	sb	zero,2(s1)
    27dc:	83190783          	lb	a5,-1999(s2)
    27e0:	0054c703          	lbu	a4,5(s1)
    27e4:	0ff7f793          	andi	a5,a5,255
    27e8:	0ae7ec63          	bltu	a5,a4,28a0 <irq_scan_rx_primary_channel+0x138>
    27ec:	00e487b3          	add	a5,s1,a4
    27f0:	01078683          	lb	a3,16(a5)
    27f4:	1be44783          	lbu	a5,446(s0)
    27f8:	0206f85b          	bbc	a3,0,2828 <irq_scan_rx_primary_channel+0xc0>
    27fc:	39844583          	lbu	a1,920(s0)
    2800:	17fd                	c.addi	a5,-1
    2802:	8526                	c.mv	a0,s1
    2804:	1af40f23          	sb	a5,446(s0)
    2808:	38942e23          	sw	s1,924(s0)
    280c:	dacff0ef          	jal	ra,1db8 <ble_rf_set_rx_dma>
    2810:	4785                	c.li	a5,1
    2812:	00f48023          	sb	a5,0(s1)
    2816:	40f2                	c.lwsp	ra,28(sp)
    2818:	4462                	c.lwsp	s0,24(sp)
    281a:	44d2                	c.lwsp	s1,20(sp)
    281c:	4942                	c.lwsp	s2,16(sp)
    281e:	49b2                	c.lwsp	s3,12(sp)
    2820:	4501                	c.li	a0,0
    2822:	6105                	c.addi16sp	sp,32
    2824:	00008067          	ret
    2828:	1769                	c.addi	a4,-6
    282a:	0ff77713          	andi	a4,a4,255
    282e:	46fd                	c.li	a3,31
    2830:	fce6e6e3          	bltu	a3,a4,27fc <irq_scan_rx_primary_channel+0x94>
    2834:	1bf40703          	lb	a4,447(s0)
    2838:	1bc44683          	lbu	a3,444(s0)
    283c:	40e78733          	sub	a4,a5,a4
    2840:	03f77713          	andi	a4,a4,63
    2844:	fad77ce3          	bgeu	a4,a3,27fc <irq_scan_rx_primary_channel+0x94>
    2848:	00448703          	lb	a4,4(s1)
    284c:	4905                	c.li	s2,1
    284e:	8b3d                	c.andi	a4,15
    2850:	00e91933          	sll	s2,s2,a4
    2854:	04797713          	andi	a4,s2,71
    2858:	d355                	c.beqz	a4,27fc <irq_scan_rx_primary_channel+0x94>
    285a:	0044c503          	lbu	a0,4(s1)
    285e:	39244783          	lbu	a5,914(s0)
    2862:	00755993          	srli	s3,a0,0x7
    2866:	e3a9                	c.bnez	a5,28a8 <irq_scan_rx_primary_channel+0x140>
    2868:	ba29645b          	bnec	s2,2,2810 <irq_scan_rx_primary_channel+0xa8>
    286c:	801f978b          	addigp	a5,-2048 # 80000 <_DATA_VMA_START>
    2870:	0047a703          	lw	a4,4(a5)
    2874:	1867275b          	bfoz	a4,a4,6,6
    2878:	02e99463          	bne	s3,a4,28a0 <irq_scan_rx_primary_channel+0x138>
    287c:	00c4d683          	lhu	a3,12(s1)
    2880:	0067d703          	lhu	a4,6(a5)
    2884:	00e69e63          	bne	a3,a4,28a0 <irq_scan_rx_primary_channel+0x138>
    2888:	00e4d683          	lhu	a3,14(s1)
    288c:	0087d703          	lhu	a4,8(a5)
    2890:	00e69863          	bne	a3,a4,28a0 <irq_scan_rx_primary_channel+0x138>
    2894:	0104d703          	lhu	a4,16(s1)
    2898:	00a7d783          	lhu	a5,10(a5)
    289c:	f6f70ae3          	beq	a4,a5,2810 <irq_scan_rx_primary_channel+0xa8>
    28a0:	1be44783          	lbu	a5,446(s0)
    28a4:	f59ff06f          	j	27fc <irq_scan_rx_primary_channel+0x94>
    28a8:	00648593          	addi	a1,s1,6
    28ac:	1865255b          	bfoz	a0,a0,6,6
    28b0:	e8dff0ef          	jal	ra,273c <ll_searchAddr_in_WhiteList_and_ResolvingList>
    28b4:	f955                	c.bnez	a0,2868 <irq_scan_rx_primary_channel+0x100>
    28b6:	1be44783          	lbu	a5,446(s0)
    28ba:	b789                	c.j	27fc <irq_scan_rx_primary_channel+0x94>

000028bc <blc_ll_getTxFifoNumber>:
    28bc:	300027f3          	csrr	a5,mstatus
    28c0:	8ba1                	c.andi	a5,8
    28c2:	cf9d                	c.beqz	a5,2900 <blc_ll_getTxFifoNumber+0x44>
    28c4:	30047773          	csrrci	a4,mstatus,8
    28c8:	000006b7          	lui	a3,0x0
    28cc:	80100637          	lui	a2,0x80100
    28d0:	17868693          	addi	a3,a3,376 # 178 <_AES_VMA_END>
    28d4:	50060703          	lb	a4,1280(a2) # 80100500 <_DATA_LMA_START+0x600f6ec8>
    28d8:	3e668503          	lb	a0,998(a3)
    28dc:	50160603          	lb	a2,1281(a2)
    28e0:	3e768683          	lb	a3,999(a3)
    28e4:	8f11                	c.sub	a4,a2
    28e6:	8d15                	c.sub	a0,a3
    28e8:	8b7d                	c.andi	a4,31
    28ea:	897d                	c.andi	a0,31
    28ec:	953a                	c.add	a0,a4
    28ee:	e709                	c.bnez	a4,28f8 <blc_ll_getTxFifoNumber+0x3c>
    28f0:	00150513          	addi	a0,a0,1
    28f4:	0ff57513          	andi	a0,a0,255
    28f8:	3007a7f3          	csrrs	a5,mstatus,a5
    28fc:	00008067          	ret
    2900:	00000737          	lui	a4,0x0
    2904:	801006b7          	lui	a3,0x80100
    2908:	17870713          	addi	a4,a4,376 # 178 <_AES_VMA_END>
    290c:	50068783          	lb	a5,1280(a3) # 80100500 <_DATA_LMA_START+0x600f6ec8>
    2910:	3e670503          	lb	a0,998(a4)
    2914:	50168683          	lb	a3,1281(a3)
    2918:	3e770703          	lb	a4,999(a4)
    291c:	8f95                	c.sub	a5,a3
    291e:	8d19                	c.sub	a0,a4
    2920:	8bfd                	c.andi	a5,31
    2922:	897d                	c.andi	a0,31
    2924:	953e                	c.add	a0,a5
    2926:	c399                	c.beqz	a5,292c <blc_ll_getTxFifoNumber+0x70>
    2928:	00008067          	ret
    292c:	0505                	c.addi	a0,1
    292e:	0ff57513          	andi	a0,a0,255
    2932:	8082                	c.jr	ra

00002934 <cpu_stall_WakeUp_By_RF_SystemTick>:
    2934:	300027f3          	csrr	a5,mstatus
    2938:	8ba1                	c.andi	a5,8
    293a:	c399                	c.beqz	a5,2940 <cpu_stall_WakeUp_By_RF_SystemTick+0xc>
    293c:	30047773          	csrrci	a4,mstatus,8
    2940:	e4002737          	lui	a4,0xe4002
    2944:	801418b7          	lui	a7,0x80141
    2948:	80140837          	lui	a6,0x80140
    294c:	a1c89e03          	lh	t3,-1508(a7) # 80140a1c <_DATA_LMA_START+0x601373e4>
    2950:	20880e83          	lb	t4,520(a6) # 80140208 <_DATA_LMA_START+0x60136bd0>
    2954:	00072303          	lw	t1,0(a4) # e4002000 <_DATA_LMA_START+0xc3ff89c8>
    2958:	4314                	c.lw	a3,0(a4)
    295a:	6f11                	c.lui	t5,0x4
    295c:	0026e693          	ori	a3,a3,2
    2960:	c314                	c.sw	a3,0(a4)
    2962:	4314                	c.lw	a3,0(a4)
    2964:	01e6e6b3          	or	a3,a3,t5
    2968:	00d72023          	sw	a3,0(a4)
    296c:	a0b89e23          	sh	a1,-1508(a7)
    2970:	00057c5b          	bbc	a0,0,2988 <cpu_stall_WakeUp_By_RF_SystemTick+0x54>
    2974:	20c82223          	sw	a2,516(a6)
    2978:	20880703          	lb	a4,520(a6)
    297c:	0ff77713          	andi	a4,a4,255
    2980:	00176713          	ori	a4,a4,1
    2984:	20e80423          	sb	a4,520(a6)
    2988:	10500073          	wfi
    298c:	80141837          	lui	a6,0x80141
    2990:	577d                	c.li	a4,-1
    2992:	a2e81023          	sh	a4,-1504(a6) # 80140a20 <_DATA_LMA_START+0x601373e8>
    2996:	80140537          	lui	a0,0x80140
    299a:	e4002737          	lui	a4,0xe4002
    299e:	4685                	c.li	a3,1
    29a0:	20d504a3          	sb	a3,521(a0) # 80140209 <_DATA_LMA_START+0x60136bd1>
    29a4:	75f1                	c.lui	a1,0xffffc
    29a6:	4310                	c.lw	a2,0(a4)
    29a8:	15f5                	c.addi	a1,-3
    29aa:	8e6d                	c.and	a2,a1
    29ac:	c310                	c.sw	a2,0(a4)
    29ae:	4314                	c.lw	a3,0(a4)
    29b0:	0066e6b3          	or	a3,a3,t1
    29b4:	c314                	c.sw	a3,0(a4)
    29b6:	a1c81e23          	sh	t3,-1508(a6)
    29ba:	21d50423          	sb	t4,520(a0)
    29be:	c399                	c.beqz	a5,29c4 <cpu_stall_WakeUp_By_RF_SystemTick+0x90>
    29c0:	3007a7f3          	csrrs	a5,mstatus,a5
    29c4:	4501                	c.li	a0,0
    29c6:	8082                	c.jr	ra

000029c8 <analog_write_reg8>:
    29c8:	30002673          	csrr	a2,mstatus
    29cc:	8a21                	c.andi	a2,8
    29ce:	c219                	c.beqz	a2,29d4 <analog_write_reg8+0xc>
    29d0:	300477f3          	csrrci	a5,mstatus,8
    29d4:	80140737          	lui	a4,0x80140
    29d8:	18a70023          	sb	a0,384(a4) # 80140180 <_DATA_LMA_START+0x60136b48>
    29dc:	18b70223          	sb	a1,388(a4)
    29e0:	06000693          	li	a3,96
    29e4:	801407b7          	lui	a5,0x80140
    29e8:	18d70123          	sb	a3,386(a4)
    29ec:	18278703          	lb	a4,386(a5) # 80140182 <_DATA_LMA_START+0x60136b4a>
    29f0:	fe777e5b          	bbs	a4,7,29ec <analog_write_reg8+0x24>
    29f4:	18078123          	sb	zero,386(a5)
    29f8:	00060463          	beqz	a2,2a00 <analog_write_reg8+0x38>
    29fc:	30062673          	csrrs	a2,mstatus,a2
    2a00:	00008067          	ret

00002a04 <rf_drv_ble_init>:
    2a04:	1141                	c.addi	sp,-16
    2a06:	6789                	c.lui	a5,0x2
    2a08:	c422                	c.swsp	s0,8(sp)
    2a0a:	c226                	c.swsp	s1,4(sp)
    2a0c:	80141437          	lui	s0,0x80141
    2a10:	c04a                	c.swsp	s2,0(sp)
    2a12:	c606                	c.swsp	ra,12(sp)
    2a14:	99b78793          	addi	a5,a5,-1637 # 199b <bls_ll_setAdvEnable+0x4f>
    2a18:	ecf41923          	sh	a5,-302(s0) # 80140ed2 <_DATA_LMA_START+0x6013789a>
    2a1c:	6905                	c.lui	s2,0x1
    2a1e:	47b9                	c.li	a5,14
    2a20:	c6f40da3          	sb	a5,-901(s0)
    2a24:	90e90793          	addi	a5,s2,-1778 # 90e <app_acl_txfifo+0x3e>
    2a28:	e4f41523          	sh	a5,-438(s0)
    2a2c:	080c17b7          	lui	a5,0x80c1
    2a30:	649d                	c.lui	s1,0x7
    2a32:	90e78793          	addi	a5,a5,-1778 # 80c090e <FLASH_SIZE+0x7fc090e>
    2a36:	e4f42a23          	sw	a5,-428(s0)
    2a3a:	35048793          	addi	a5,s1,848 # 7350 <_RAMCODE_VMA_END+0x204e>
    2a3e:	c6f41b23          	sh	a5,-906(s0)
    2a42:	6799                	c.lui	a5,0x6
    2a44:	58678793          	addi	a5,a5,1414 # 6586 <_RAMCODE_VMA_END+0x1284>
    2a48:	4591                	c.li	a1,4
    2a4a:	08b00513          	li	a0,139
    2a4e:	82f41d23          	sh	a5,-1990(s0)
    2a52:	3f9d                	c.jal	29c8 <analog_write_reg8>
    2a54:	06100793          	li	a5,97
    2a58:	e2f40ea3          	sb	a5,-451(s0)
    2a5c:	232017b7          	lui	a5,0x23201
    2a60:	a1678793          	addi	a5,a5,-1514 # 23200a16 <_DATA_LMA_START+0x31f73de>
    2a64:	e2f42023          	sw	a5,-480(s0)
    2a68:	f8400793          	li	a5,-124
    2a6c:	c2f40023          	sb	a5,-992(s0)
    2a70:	c2040123          	sb	zero,-990(s0)
    2a74:	4785                	c.li	a5,1
    2a76:	c4f406a3          	sb	a5,-947(s0)
    2a7a:	4779                	c.li	a4,30
    2a7c:	c4e40723          	sb	a4,-946(s0)
    2a80:	eb790913          	addi	s2,s2,-329
    2a84:	c3241b23          	sh	s2,-970(s0)
    2a88:	1c448493          	addi	s1,s1,452
    2a8c:	c2941c23          	sh	s1,-968(s0)
    2a90:	c6f409a3          	sb	a5,-909(s0)
    2a94:	03800793          	li	a5,56
    2a98:	c6f40ca3          	sb	a5,-903(s0)
    2a9c:	6795                	c.lui	a5,0x5
    2a9e:	c8040d23          	sb	zero,-870(s0)
    2aa2:	b3978793          	addi	a5,a5,-1223 # 4b39 <entry_irq18+0x41>
    2aa6:	ccf41123          	sh	a5,-830(s0)
    2aaa:	796e67b7          	lui	a5,0x796e6
    2aae:	25678793          	addi	a5,a5,598 # 796e6256 <_DATA_LMA_START+0x596dcc1e>
    2ab2:	ccf42223          	sw	a5,-828(s0)
    2ab6:	444617b7          	lui	a5,0x44461
    2aba:	81f78793          	addi	a5,a5,-2017 # 4446081f <_DATA_LMA_START+0x244571e7>
    2abe:	80f42023          	sw	a5,-2048(s0)
    2ac2:	4f500793          	li	a5,1269
    2ac6:	80f41223          	sh	a5,-2044(s0)
    2aca:	80042423          	sw	zero,-2040(s0)
    2ace:	47fd                	c.li	a5,31
    2ad0:	c4f40723          	sb	a5,-946(s0)
    2ad4:	03600793          	li	a5,54
    2ad8:	82f40823          	sb	a5,-2000(s0)
    2adc:	a0040323          	sb	zero,-1530(s0)
    2ae0:	05000793          	li	a5,80
    2ae4:	a0f40623          	sb	a5,-1524(s0)
    2ae8:	a0040723          	sb	zero,-1522(s0)
    2aec:	a0040823          	sb	zero,-1520(s0)
    2af0:	c2040783          	lb	a5,-992(s0)
    2af4:	0bf7f793          	andi	a5,a5,191
    2af8:	c2f40023          	sb	a5,-992(s0)
    2afc:	40b2                	c.lwsp	ra,12(sp)
    2afe:	4422                	c.lwsp	s0,8(sp)
    2b00:	4492                	c.lwsp	s1,4(sp)
    2b02:	4902                	c.lwsp	s2,0(sp)
    2b04:	0141                	c.addi	sp,16
    2b06:	8082                	c.jr	ra

00002b08 <analog_read_reg8>:
    2b08:	300026f3          	csrr	a3,mstatus
    2b0c:	8aa1                	c.andi	a3,8
    2b0e:	c299                	c.beqz	a3,2b14 <analog_read_reg8+0xc>
    2b10:	300477f3          	csrrci	a5,mstatus,8
    2b14:	801407b7          	lui	a5,0x80140
    2b18:	18a78023          	sb	a0,384(a5) # 80140180 <_DATA_LMA_START+0x60136b48>
    2b1c:	00100713          	li	a4,1
    2b20:	18e781a3          	sb	a4,387(a5)
    2b24:	04000613          	li	a2,64
    2b28:	80140737          	lui	a4,0x80140
    2b2c:	18c78123          	sb	a2,386(a5)
    2b30:	18270783          	lb	a5,386(a4) # 80140182 <_DATA_LMA_START+0x60136b4a>
    2b34:	fe77fe5b          	bbs	a5,7,2b30 <analog_read_reg8+0x28>
    2b38:	18470503          	lb	a0,388(a4)
    2b3c:	0ff57513          	andi	a0,a0,255
    2b40:	00068463          	beqz	a3,2b48 <analog_read_reg8+0x40>
    2b44:	3006a6f3          	csrrs	a3,mstatus,a3
    2b48:	00008067          	ret

00002b4c <clock_init.constprop.45>:
    2b4c:	1141                	c.addi	sp,-16
    2b4e:	08000513          	li	a0,128
    2b52:	c606                	c.swsp	ra,12(sp)
    2b54:	c422                	c.swsp	s0,8(sp)
    2b56:	3f4d                	c.jal	2b08 <analog_read_reg8>
    2b58:	0e057593          	andi	a1,a0,224
    2b5c:	0105e593          	ori	a1,a1,16
    2b60:	08000513          	li	a0,128
    2b64:	e65ff0ef          	jal	ra,29c8 <analog_write_reg8>
    2b68:	00900513          	li	a0,9
    2b6c:	f9dff0ef          	jal	ra,2b08 <analog_read_reg8>
    2b70:	0f357593          	andi	a1,a0,243
    2b74:	0085e593          	ori	a1,a1,8
    2b78:	4525                	c.li	a0,9
    2b7a:	35b9                	c.jal	29c8 <analog_write_reg8>
    2b7c:	0c000793          	li	a5,192
    2b80:	845f940b          	addigp	s0,-1980 # 80044 <sys_clk>
    2b84:	00f41023          	sh	a5,0(s0)
    2b88:	4711                	c.li	a4,4
    2b8a:	801407b7          	lui	a5,0x80140
    2b8e:	08100513          	li	a0,129
    2b92:	1ee78da3          	sb	a4,507(a5) # 801401fb <_DATA_LMA_START+0x60136bc3>
    2b96:	3f8d                	c.jal	2b08 <analog_read_reg8>
    2b98:	04056593          	ori	a1,a0,64
    2b9c:	0ff5f593          	andi	a1,a1,255
    2ba0:	08100513          	li	a0,129
    2ba4:	e25ff0ef          	jal	ra,29c8 <analog_write_reg8>
    2ba8:	08800513          	li	a0,136
    2bac:	f5dff0ef          	jal	ra,2b08 <analog_read_reg8>
    2bb0:	be557c5b          	bbc	a0,5,2ba8 <clock_init.constprop.45+0x5c>
    2bb4:	08100513          	li	a0,129
    2bb8:	f51ff0ef          	jal	ra,2b08 <analog_read_reg8>
    2bbc:	0bf57593          	andi	a1,a0,191
    2bc0:	08100513          	li	a0,129
    2bc4:	e05ff0ef          	jal	ra,29c8 <analog_write_reg8>
    2bc8:	80140737          	lui	a4,0x80140
    2bcc:	10270783          	lb	a5,258(a4) # 80140102 <_DATA_LMA_START+0x60136aca>
    2bd0:	fe07fe5b          	bbs	a5,0,2bcc <clock_init.constprop.45+0x80>
    2bd4:	10170683          	lb	a3,257(a4)
    2bd8:	801407b7          	lui	a5,0x80140
    2bdc:	0ff6f693          	andi	a3,a3,255
    2be0:	0106e693          	ori	a3,a3,16
    2be4:	10d700a3          	sb	a3,257(a4)
    2be8:	32878703          	lb	a4,808(a5) # 80140328 <_DATA_LMA_START+0x60136cf0>
    2bec:	be377e5b          	bbc	a4,3,2be8 <clock_init.constprop.45+0x9c>
    2bf0:	1e978703          	lb	a4,489(a5)
    2bf4:	aaaab637          	lui	a2,0xaaaab
    2bf8:	8b3d                	c.andi	a4,15
    2bfa:	04076713          	ori	a4,a4,64
    2bfe:	1ee784a3          	sb	a4,489(a5)
    2c02:	1e878703          	lb	a4,488(a5)
    2c06:	aab60613          	addi	a2,a2,-1365 # aaaaaaab <_DATA_LMA_START+0x8aaa1473>
    2c0a:	f8076713          	ori	a4,a4,-128
    2c0e:	0ff77713          	andi	a4,a4,255
    2c12:	1ee78423          	sb	a4,488(a5)
    2c16:	1e878703          	lb	a4,488(a5)
    2c1a:	f8076713          	ori	a4,a4,-128
    2c1e:	0ff77713          	andi	a4,a4,255
    2c22:	1ee78423          	sb	a4,488(a5)
    2c26:	1d878703          	lb	a4,472(a5)
    2c2a:	00045683          	lhu	a3,0(s0)
    2c2e:	0fb77713          	andi	a4,a4,251
    2c32:	1ce78c23          	sb	a4,472(a5)
    2c36:	1d878703          	lb	a4,472(a5)
    2c3a:	8289                	c.srli	a3,0x2
    2c3c:	00d402a3          	sb	a3,5(s0)
    2c40:	0fc77713          	andi	a4,a4,252
    2c44:	1ce78c23          	sb	a4,472(a5)
    2c48:	1e878703          	lb	a4,488(a5)
    2c4c:	0f077713          	andi	a4,a4,240
    2c50:	00c76713          	ori	a4,a4,12
    2c54:	1ee78423          	sb	a4,488(a5)
    2c58:	00045703          	lhu	a4,0(s0)
    2c5c:	1e878683          	lb	a3,488(a5)
    2c60:	02c73733          	mulhu	a4,a4,a2
    2c64:	08f6f693          	andi	a3,a3,143
    2c68:	0206e693          	ori	a3,a3,32
    2c6c:	1ed78423          	sb	a3,488(a5)
    2c70:	00375793          	srli	a5,a4,0x3
    2c74:	00f40123          	sb	a5,2(s0)
    2c78:	0ff7f793          	andi	a5,a5,255
    2c7c:	00f401a3          	sb	a5,3(s0)
    2c80:	00f40223          	sb	a5,4(s0)
    2c84:	40b2                	c.lwsp	ra,12(sp)
    2c86:	4422                	c.lwsp	s0,8(sp)
    2c88:	0141                	c.addi	sp,16
    2c8a:	8082                	c.jr	ra

00002c8c <pm_wait_bbpll_done>:
    2c8c:	1101                	c.addi	sp,-32
    2c8e:	08100513          	li	a0,129
    2c92:	cc22                	c.swsp	s0,24(sp)
    2c94:	ca26                	c.swsp	s1,20(sp)
    2c96:	c84a                	c.swsp	s2,16(sp)
    2c98:	ce06                	c.swsp	ra,28(sp)
    2c9a:	35bd                	c.jal	2b08 <analog_read_reg8>
    2c9c:	04056593          	ori	a1,a0,64
    2ca0:	892a                	c.mv	s2,a0
    2ca2:	0ff5f593          	andi	a1,a1,255
    2ca6:	08100513          	li	a0,129
    2caa:	0bf97913          	andi	s2,s2,191
    2cae:	4481                	c.li	s1,0
    2cb0:	4475                	c.li	s0,29
    2cb2:	3b19                	c.jal	29c8 <analog_write_reg8>
    2cb4:	000107a3          	sb	zero,15(sp)
    2cb8:	00f10783          	lb	a5,15(sp)
    2cbc:	0ff7f793          	andi	a5,a5,255
    2cc0:	02f46063          	bltu	s0,a5,2ce0 <pm_wait_bbpll_done+0x54>
    2cc4:	0001                	c.nop
    2cc6:	00f10783          	lb	a5,15(sp)
    2cca:	0785                	c.addi	a5,1
    2ccc:	0ff7f793          	andi	a5,a5,255
    2cd0:	00f107a3          	sb	a5,15(sp)
    2cd4:	00f10783          	lb	a5,15(sp)
    2cd8:	0ff7f793          	andi	a5,a5,255
    2cdc:	fef474e3          	bgeu	s0,a5,2cc4 <pm_wait_bbpll_done+0x38>
    2ce0:	08800513          	li	a0,136
    2ce4:	e25ff0ef          	jal	ra,2b08 <analog_read_reg8>
    2ce8:	4255765b          	bbs	a0,5,2d14 <pm_wait_bbpll_done+0x88>
    2cec:	cc95                	c.beqz	s1,2d28 <pm_wait_bbpll_done+0x9c>
    2cee:	0414d35b          	beqc	s1,1,2d34 <pm_wait_bbpll_done+0xa8>
    2cf2:	85ca                	c.mv	a1,s2
    2cf4:	08100513          	li	a0,129
    2cf8:	cd1ff0ef          	jal	ra,29c8 <analog_write_reg8>
    2cfc:	0024d65b          	beqc	s1,2,2d08 <pm_wait_bbpll_done+0x7c>
    2d00:	0485                	c.addi	s1,1
    2d02:	0ff4f493          	andi	s1,s1,255
    2d06:	b77d                	c.j	2cb4 <pm_wait_bbpll_done+0x28>
    2d08:	40f2                	c.lwsp	ra,28(sp)
    2d0a:	4462                	c.lwsp	s0,24(sp)
    2d0c:	44d2                	c.lwsp	s1,20(sp)
    2d0e:	4942                	c.lwsp	s2,16(sp)
    2d10:	6105                	c.addi16sp	sp,32
    2d12:	8082                	c.jr	ra
    2d14:	4462                	c.lwsp	s0,24(sp)
    2d16:	40f2                	c.lwsp	ra,28(sp)
    2d18:	44d2                	c.lwsp	s1,20(sp)
    2d1a:	85ca                	c.mv	a1,s2
    2d1c:	4942                	c.lwsp	s2,16(sp)
    2d1e:	08100513          	li	a0,129
    2d22:	6105                	c.addi16sp	sp,32
    2d24:	ca5ff06f          	j	29c8 <analog_write_reg8>
    2d28:	04600593          	li	a1,70
    2d2c:	4505                	c.li	a0,1
    2d2e:	3969                	c.jal	29c8 <analog_write_reg8>
    2d30:	fd1ff06f          	j	2d00 <pm_wait_bbpll_done+0x74>
    2d34:	04300593          	li	a1,67
    2d38:	4505                	c.li	a0,1
    2d3a:	3179                	c.jal	29c8 <analog_write_reg8>
    2d3c:	fc5ff06f          	j	2d00 <pm_wait_bbpll_done+0x74>

00002d40 <pm_sleep_start>:
    2d40:	1101                	c.addi	sp,-32
    2d42:	85bfa72b          	lwgp	a4,-1960 # 80058 <g_chip_version>
    2d46:	000006b7          	lui	a3,0x0
    2d4a:	ce06                	c.swsp	ra,28(sp)
    2d4c:	cc22                	c.swsp	s0,24(sp)
    2d4e:	0ff00793          	li	a5,255
    2d52:	5a86c583          	lbu	a1,1448(a3) # 5a8 <g_pm_suspend_power_cfg>
    2d56:	16f70f63          	beq	a4,a5,2ed4 <pm_sleep_start+0x194>
    2d5a:	07d00513          	li	a0,125
    2d5e:	31ad                	c.jal	29c8 <analog_write_reg8>
    2d60:	801406b7          	lui	a3,0x80140
    2d64:	10268783          	lb	a5,258(a3) # 80140102 <_DATA_LMA_START+0x60136aca>
    2d68:	fe07fe5b          	bbs	a5,0,2d64 <pm_sleep_start+0x24>
    2d6c:	10168783          	lb	a5,257(a3)
    2d70:	80140737          	lui	a4,0x80140
    2d74:	0ff7f793          	andi	a5,a5,255
    2d78:	0107e793          	ori	a5,a5,16
    2d7c:	10f680a3          	sb	a5,257(a3)
    2d80:	32870783          	lb	a5,808(a4) # 80140328 <_DATA_LMA_START+0x60136cf0>
    2d84:	be37fe5b          	bbc	a5,3,2d80 <pm_sleep_start+0x40>
    2d88:	10170783          	lb	a5,257(a4)
    2d8c:	80140437          	lui	s0,0x80140
    2d90:	0fd7f793          	andi	a5,a5,253
    2d94:	10f700a3          	sb	a5,257(a4)
    2d98:	10170783          	lb	a5,257(a4)
    2d9c:	0ef7f793          	andi	a5,a5,239
    2da0:	10f700a3          	sb	a5,257(a4)
    2da4:	fb900793          	li	a5,-71
    2da8:	10f70023          	sb	a5,256(a4)
    2dac:	10240783          	lb	a5,258(s0) # 80140102 <_DATA_LMA_START+0x60136aca>
    2db0:	fe07fe5b          	bbs	a5,0,2dac <pm_sleep_start+0x6c>
    2db4:	10140783          	lb	a5,257(s0)
    2db8:	452d                	c.li	a0,11
    2dba:	0ff7f793          	andi	a5,a5,255
    2dbe:	0107e793          	ori	a5,a5,16
    2dc2:	10f400a3          	sb	a5,257(s0)
    2dc6:	320404a3          	sb	zero,809(s0)
    2dca:	3b3d                	c.jal	2b08 <analog_read_reg8>
    2dcc:	0fc57593          	andi	a1,a0,252
    2dd0:	452d                	c.li	a0,11
    2dd2:	3edd                	c.jal	29c8 <analog_write_reg8>
    2dd4:	08100513          	li	a0,129
    2dd8:	d31ff0ef          	jal	ra,2b08 <analog_read_reg8>
    2ddc:	f8056593          	ori	a1,a0,-128
    2de0:	0ff5f593          	andi	a1,a1,255
    2de4:	08100513          	li	a0,129
    2de8:	be1ff0ef          	jal	ra,29c8 <analog_write_reg8>
    2dec:	f8000793          	li	a5,-128
    2df0:	1ef407a3          	sb	a5,495(s0)
    2df4:	c402                	c.swsp	zero,8(sp)
    2df6:	4722                	c.lwsp	a4,8(sp)
    2df8:	03f00793          	li	a5,63
    2dfc:	00e7ec63          	bltu	a5,a4,2e14 <pm_sleep_start+0xd4>
    2e00:	03f00713          	li	a4,63
    2e04:	0001                	c.nop
    2e06:	47a2                	c.lwsp	a5,8(sp)
    2e08:	0785                	c.addi	a5,1
    2e0a:	c43e                	c.swsp	a5,8(sp)
    2e0c:	00812783          	lw	a5,8(sp)
    2e10:	fef77ae3          	bgeu	a4,a5,2e04 <pm_sleep_start+0xc4>
    2e14:	08100513          	li	a0,129
    2e18:	cf1ff0ef          	jal	ra,2b08 <analog_read_reg8>
    2e1c:	07f57593          	andi	a1,a0,127
    2e20:	08100513          	li	a0,129
    2e24:	ba5ff0ef          	jal	ra,29c8 <analog_write_reg8>
    2e28:	00b00513          	li	a0,11
    2e2c:	cddff0ef          	jal	ra,2b08 <analog_read_reg8>
    2e30:	00356593          	ori	a1,a0,3
    2e34:	0ff5f593          	andi	a1,a1,255
    2e38:	452d                	c.li	a0,11
    2e3a:	3679                	c.jal	29c8 <analog_write_reg8>
    2e3c:	08000593          	li	a1,128
    2e40:	07d00513          	li	a0,125
    2e44:	b85ff0ef          	jal	ra,29c8 <analog_write_reg8>
    2e48:	c602                	c.swsp	zero,12(sp)
    2e4a:	4732                	c.lwsp	a4,12(sp)
    2e4c:	12b00793          	li	a5,299
    2e50:	00e7ec63          	bltu	a5,a4,2e68 <pm_sleep_start+0x128>
    2e54:	12b00713          	li	a4,299
    2e58:	0001                	c.nop
    2e5a:	47b2                	c.lwsp	a5,12(sp)
    2e5c:	0785                	c.addi	a5,1
    2e5e:	c63e                	c.swsp	a5,12(sp)
    2e60:	00c12783          	lw	a5,12(sp)
    2e64:	fef77ae3          	bgeu	a4,a5,2e58 <pm_sleep_start+0x118>
    2e68:	08800513          	li	a0,136
    2e6c:	c9dff0ef          	jal	ra,2b08 <analog_read_reg8>
    2e70:	be757c5b          	bbc	a0,7,2e68 <pm_sleep_start+0x128>
    2e74:	08800513          	li	a0,136
    2e78:	c91ff0ef          	jal	ra,2b08 <analog_read_reg8>
    2e7c:	be757c5b          	bbc	a0,7,2e74 <pm_sleep_start+0x134>
    2e80:	08800513          	li	a0,136
    2e84:	c85ff0ef          	jal	ra,2b08 <analog_read_reg8>
    2e88:	be757c5b          	bbc	a0,7,2e80 <pm_sleep_start+0x140>
    2e8c:	e01ff0ef          	jal	ra,2c8c <pm_wait_bbpll_done>
    2e90:	801407b7          	lui	a5,0x80140
    2e94:	03f00713          	li	a4,63
    2e98:	32e784a3          	sb	a4,809(a5) # 80140329 <_DATA_LMA_START+0x60136cf1>
    2e9c:	10178683          	lb	a3,257(a5)
    2ea0:	80140737          	lui	a4,0x80140
    2ea4:	0ef6f693          	andi	a3,a3,239
    2ea8:	10d780a3          	sb	a3,257(a5)
    2eac:	fab00693          	li	a3,-85
    2eb0:	10d78023          	sb	a3,256(a5)
    2eb4:	10270783          	lb	a5,258(a4) # 80140102 <_DATA_LMA_START+0x60136aca>
    2eb8:	fe07fe5b          	bbs	a5,0,2eb4 <pm_sleep_start+0x174>
    2ebc:	10170783          	lb	a5,257(a4)
    2ec0:	0ff7f793          	andi	a5,a5,255
    2ec4:	0107e793          	ori	a5,a5,16
    2ec8:	10f700a3          	sb	a5,257(a4)
    2ecc:	40f2                	c.lwsp	ra,28(sp)
    2ece:	4462                	c.lwsp	s0,24(sp)
    2ed0:	6105                	c.addi16sp	sp,32
    2ed2:	8082                	c.jr	ra
    2ed4:	0fe5f593          	andi	a1,a1,254
    2ed8:	07d00513          	li	a0,125
    2edc:	aedff0ef          	jal	ra,29c8 <analog_write_reg8>
    2ee0:	e81ff06f          	j	2d60 <pm_sleep_start+0x20>

00002ee4 <cpu_sleep_wakeup_32k_rc_ram>:
    2ee4:	7179                	c.addi16sp	sp,-48
    2ee6:	d422                	c.swsp	s0,40(sp)
    2ee8:	d226                	c.swsp	s1,36(sp)
    2eea:	ce4e                	c.swsp	s3,28(sp)
    2eec:	cc52                	c.swsp	s4,24(sp)
    2eee:	ca56                	c.swsp	s5,20(sp)
    2ef0:	c266                	c.swsp	s9,4(sp)
    2ef2:	c06a                	c.swsp	s10,0(sp)
    2ef4:	d606                	c.swsp	ra,44(sp)
    2ef6:	8d2e                	c.mv	s10,a1
    2ef8:	d04a                	c.swsp	s2,32(sp)
    2efa:	c85a                	c.swsp	s6,16(sp)
    2efc:	c65e                	c.swsp	s7,12(sp)
    2efe:	c462                	c.swsp	s8,8(sp)
    2f00:	89aa                	c.mv	s3,a0
    2f02:	8ab2                	c.mv	s5,a2
    2f04:	c51fe0ef          	jal	ra,1b54 <pm_get_32k_rc_calib>
    2f08:	801407b7          	lui	a5,0x80140
    2f0c:	00000437          	lui	s0,0x0
    2f10:	17840413          	addi	s0,s0,376 # 178 <_AES_VMA_END>
    2f14:	2007a483          	lw	s1,512(a5) # 80140200 <_DATA_LMA_START+0x60136bc8>
    2f18:	020d7a13          	andi	s4,s10,32
    2f1c:	36a42a23          	sw	a0,884(s0)
    2f20:	00a00cb3          	add	s9,zero,a0
    2f24:	020a0063          	beqz	s4,2f44 <cpu_sleep_wakeup_32k_rc_ram+0x60>
    2f28:	409a84b3          	sub	s1,s5,s1
    2f2c:	e0000737          	lui	a4,0xe0000
    2f30:	34976463          	bltu	a4,s1,3278 <cpu_sleep_wakeup_32k_rc_ram+0x394>
    2f34:	839f970b          	addigp	a4,-1992 # 80038 <g_pm_early_wakeup_time_us>
    2f38:	00671703          	lh	a4,6(a4) # e0000006 <_DATA_LMA_START+0xbfff69ce>
    2f3c:	1137275b          	bfoz	a4,a4,4,19
    2f40:	34e4e463          	bltu	s1,a4,3288 <cpu_sleep_wakeup_32k_rc_ram+0x3a4>
    2f44:	300024f3          	csrr	s1,mstatus
    2f48:	88a1                	c.andi	s1,8
    2f4a:	e88d                	c.bnez	s1,2f7c <cpu_sleep_wakeup_32k_rc_ram+0x98>
    2f4c:	43442783          	lw	a5,1076(s0)
    2f50:	cb95                	c.beqz	a5,2f84 <cpu_sleep_wakeup_32k_rc_ram+0xa0>
    2f52:	9782                	c.jalr	a5
    2f54:	e905                	c.bnez	a0,2f84 <cpu_sleep_wakeup_32k_rc_ram+0xa0>
    2f56:	4521                	c.li	a0,8
    2f58:	00048463          	beqz	s1,2f60 <cpu_sleep_wakeup_32k_rc_ram+0x7c>
    2f5c:	3004a4f3          	csrrs	s1,mstatus,s1
    2f60:	50b2                	c.lwsp	ra,44(sp)
    2f62:	5422                	c.lwsp	s0,40(sp)
    2f64:	5492                	c.lwsp	s1,36(sp)
    2f66:	5902                	c.lwsp	s2,32(sp)
    2f68:	49f2                	c.lwsp	s3,28(sp)
    2f6a:	4a62                	c.lwsp	s4,24(sp)
    2f6c:	4ad2                	c.lwsp	s5,20(sp)
    2f6e:	4b42                	c.lwsp	s6,16(sp)
    2f70:	4bb2                	c.lwsp	s7,12(sp)
    2f72:	4c22                	c.lwsp	s8,8(sp)
    2f74:	4c92                	c.lwsp	s9,4(sp)
    2f76:	4d02                	c.lwsp	s10,0(sp)
    2f78:	6145                	c.addi16sp	sp,48
    2f7a:	8082                	c.jr	ra
    2f7c:	300477f3          	csrrci	a5,mstatus,8
    2f80:	fcdff06f          	j	2f4c <cpu_sleep_wakeup_32k_rc_ram+0x68>
    2f84:	80140937          	lui	s2,0x80140
    2f88:	1e890b03          	lb	s6,488(s2) # 801401e8 <_DATA_LMA_START+0x60136bb0>
    2f8c:	00f9fc13          	andi	s8,s3,15
    2f90:	08fb7793          	andi	a5,s6,143
    2f94:	1ef90423          	sb	a5,488(s2)
    2f98:	1d890b83          	lb	s7,472(s2)
    2f9c:	0f8bf793          	andi	a5,s7,248
    2fa0:	1cf90c23          	sb	a5,472(s2)
    2fa4:	20890783          	lb	a5,520(s2)
    2fa8:	0fe7f793          	andi	a5,a5,254
    2fac:	20f90423          	sb	a5,520(s2)
    2fb0:	00100793          	li	a5,1
    2fb4:	20f90c23          	sb	a5,536(s2)
    2fb8:	20a90783          	lb	a5,522(s2)
    2fbc:	0f77f793          	andi	a5,a5,247
    2fc0:	20f90523          	sb	a5,522(s2)
    2fc4:	e40ff0ef          	jal	ra,2604 <clock_get_32k_tick>
    2fc8:	4789                	c.li	a5,2
    2fca:	20f905a3          	sb	a5,523(s2)
    2fce:	20092783          	lw	a5,512(s2)
    2fd2:	42a42c23          	sw	a0,1080(s0)
    2fd6:	85be                	c.mv	a1,a5
    2fd8:	42f42e23          	sw	a5,1084(s0)
    2fdc:	bc1fe0ef          	jal	ra,1b9c <pm_update_32k_rc_sleep_tick>
    2fe0:	0ffd7593          	andi	a1,s10,255
    2fe4:	04b00513          	li	a0,75
    2fe8:	9e1ff0ef          	jal	ra,29c8 <analog_write_reg8>
    2fec:	45fd                	c.li	a1,31
    2fee:	06400513          	li	a0,100
    2ff2:	3ad9                	c.jal	29c8 <analog_write_reg8>
    2ff4:	0ff9f593          	andi	a1,s3,255
    2ff8:	07e00513          	li	a0,126
    2ffc:	9cdff0ef          	jal	ra,29c8 <analog_write_reg8>
    3000:	040d7793          	andi	a5,s10,64
    3004:	1a0c1e63          	bnez	s8,31c0 <cpu_sleep_wakeup_32k_rc_ram+0x2dc>
    3008:	2f09d6db          	beqc	s3,48,32f4 <cpu_sleep_wakeup_32k_rc_ram+0x410>
    300c:	32078263          	beqz	a5,3330 <cpu_sleep_wakeup_32k_rc_ram+0x44c>
    3010:	06000593          	li	a1,96
    3014:	04d00513          	li	a0,77
    3018:	9b1ff0ef          	jal	ra,29c8 <analog_write_reg8>
    301c:	4585                	c.li	a1,1
    301e:	07f00513          	li	a0,127
    3022:	325d                	c.jal	29c8 <analog_write_reg8>
    3024:	839f992b          	lhgp	s2,-1992 # 80038 <g_pm_early_wakeup_time_us>
    3028:	3c09295b          	bfoz	s2,s2,15,0
    302c:	00491913          	slli	s2,s2,0x4
    3030:	0e0d7d13          	andi	s10,s10,224
    3034:	412a8933          	sub	s2,s5,s2
    3038:	1c0d0063          	beqz	s10,31f8 <cpu_sleep_wakeup_32k_rc_ram+0x314>
    303c:	0ee00593          	li	a1,238
    3040:	04c00513          	li	a0,76
    3044:	985ff0ef          	jal	ra,29c8 <analog_write_reg8>
    3048:	1d09d0db          	beqc	s3,48,3208 <cpu_sleep_wakeup_32k_rc_ram+0x324>
    304c:	841f978b          	addigp	a5,-1984 # 80040 <g_pm_r_delay_cycle>
    3050:	00279583          	lh	a1,2(a5)
    3054:	04000513          	li	a0,64
    3058:	0ff5f593          	andi	a1,a1,255
    305c:	96dff0ef          	jal	ra,29c8 <analog_write_reg8>
    3060:	34842783          	lw	a5,840(s0)
    3064:	40f907b3          	sub	a5,s2,a5
    3068:	1a0a0e63          	beqz	s4,3224 <cpu_sleep_wakeup_32k_rc_ram+0x340>
    306c:	0ff00737          	lui	a4,0xff00
    3070:	26f77663          	bgeu	a4,a5,32dc <cpu_sleep_wakeup_32k_rc_ram+0x3f8>
    3074:	00100713          	li	a4,1
    3078:	36e40c23          	sb	a4,888(s0)
    307c:	37442683          	lw	a3,884(s0)
    3080:	34c42583          	lw	a1,844(s0)
    3084:	02d7d533          	divu	a0,a5,a3
    3088:	43842703          	lw	a4,1080(s0)
    308c:	40000637          	lui	a2,0x40000
    3090:	00370793          	addi	a5,a4,3 # ff00003 <FLASH_SIZE+0xfe00003>
    3094:	0512                	c.slli	a0,0x4
    3096:	952e                	c.add	a0,a1
    3098:	8f89                	c.sub	a5,a0
    309a:	02c7f163          	bgeu	a5,a2,30bc <cpu_sleep_wakeup_32k_rc_ram+0x1d8>
    309e:	43c42783          	lw	a5,1084(s0)
    30a2:	34e42623          	sw	a4,844(s0)
    30a6:	0017e793          	ori	a5,a5,1
    30aa:	40f90533          	sub	a0,s2,a5
    30ae:	02d55533          	divu	a0,a0,a3
    30b2:	34f42423          	sw	a5,840(s0)
    30b6:	0512                	c.slli	a0,0x4
    30b8:	00e50533          	add	a0,a0,a4
    30bc:	ce8ff0ef          	jal	ra,25a4 <clock_set_32k_tick>
    30c0:	06400513          	li	a0,100
    30c4:	a45ff0ef          	jal	ra,2b08 <analog_read_reg8>
    30c8:	01f57513          	andi	a0,a0,31
    30cc:	00051a63          	bnez	a0,30e0 <cpu_sleep_wakeup_32k_rc_ram+0x1fc>
    30d0:	240c1863          	bnez	s8,3320 <cpu_sleep_wakeup_32k_rc_ram+0x43c>
    30d4:	c6dff0ef          	jal	ra,2d40 <pm_sleep_start>
    30d8:	4585                	c.li	a1,1
    30da:	07f00513          	li	a0,127
    30de:	30ed                	c.jal	29c8 <analog_write_reg8>
    30e0:	0109e8db          	bnec	s3,48,30f0 <cpu_sleep_wakeup_32k_rc_ram+0x20c>
    30e4:	801407b7          	lui	a5,0x80140
    30e8:	02000713          	li	a4,32
    30ec:	1ee787a3          	sb	a4,495(a5) # 801401ef <_DATA_LMA_START+0x60136bb7>
    30f0:	801407b7          	lui	a5,0x80140
    30f4:	20878703          	lb	a4,520(a5) # 80140208 <_DATA_LMA_START+0x60136bd0>
    30f8:	0ff77713          	andi	a4,a4,255
    30fc:	00176713          	ori	a4,a4,1
    3100:	20e78423          	sb	a4,520(a5)
    3104:	00200713          	li	a4,2
    3108:	20e78c23          	sb	a4,536(a5)
    310c:	20a78703          	lb	a4,522(a5)
    3110:	0ff77713          	andi	a4,a4,255
    3114:	00c76713          	ori	a4,a4,12
    3118:	20e78523          	sb	a4,522(a5)
    311c:	ce8ff0ef          	jal	ra,2604 <clock_get_32k_tick>
    3120:	37844783          	lbu	a5,888(s0)
    3124:	0505                	c.addi	a0,1
    3126:	18078b63          	beqz	a5,32bc <cpu_sleep_wakeup_32k_rc_ram+0x3d8>
    312a:	43842703          	lw	a4,1080(s0)
    312e:	43c42783          	lw	a5,1084(s0)
    3132:	37442683          	lw	a3,884(s0)
    3136:	40e50733          	sub	a4,a0,a4
    313a:	8311                	c.srli	a4,0x4
    313c:	c4d717ff          	maddr32	a5,a4,a3
    3140:	42f42e23          	sw	a5,1084(s0)
    3144:	34c42683          	lw	a3,844(s0)
    3148:	00178793          	addi	a5,a5,1
    314c:	40d506b3          	sub	a3,a0,a3
    3150:	36d42023          	sw	a3,864(s0)
    3154:	36a42223          	sw	a0,868(s0)
    3158:	801406b7          	lui	a3,0x80140
    315c:	80140737          	lui	a4,0x80140
    3160:	20f6a023          	sw	a5,512(a3) # 80140200 <_DATA_LMA_START+0x60136bc8>
    3164:	20b70783          	lb	a5,523(a4) # 8014020b <_DATA_LMA_START+0x60136bd3>
    3168:	be77fe5b          	bbc	a5,7,3164 <cpu_sleep_wakeup_32k_rc_ram+0x280>
    316c:	06400513          	li	a0,100
    3170:	20070c23          	sb	zero,536(a4)
    3174:	995ff0ef          	jal	ra,2b08 <analog_read_reg8>
    3178:	00a00733          	add	a4,zero,a0
    317c:	00157e5b          	bbc	a0,1,3198 <cpu_sleep_wakeup_32k_rc_ram+0x2b4>
    3180:	000a0c63          	beqz	s4,3198 <cpu_sleep_wakeup_32k_rc_ram+0x2b4>
    3184:	80140637          	lui	a2,0x80140
    3188:	400006b7          	lui	a3,0x40000
    318c:	20062783          	lw	a5,512(a2) # 80140200 <_DATA_LMA_START+0x60136bc8>
    3190:	415787b3          	sub	a5,a5,s5
    3194:	fef6ece3          	bltu	a3,a5,318c <cpu_sleep_wakeup_32k_rc_ram+0x2a8>
    3198:	801407b7          	lui	a5,0x80140
    319c:	1d778c23          	sb	s7,472(a5) # 801401d8 <_DATA_LMA_START+0x60136ba0>
    31a0:	1f678423          	sb	s6,488(a5)
    31a4:	00048463          	beqz	s1,31ac <cpu_sleep_wakeup_32k_rc_ram+0x2c8>
    31a8:	3004a4f3          	csrrs	s1,mstatus,s1
    31ac:	08000513          	li	a0,128
    31b0:	da0708e3          	beqz	a4,2f60 <cpu_sleep_wakeup_32k_rc_ram+0x7c>
    31b4:	400007b7          	lui	a5,0x40000
    31b8:	00f76533          	or	a0,a4,a5
    31bc:	da5ff06f          	j	2f60 <cpu_sleep_wakeup_32k_rc_ram+0x7c>
    31c0:	12078263          	beqz	a5,32e4 <cpu_sleep_wakeup_32k_rc_ram+0x400>
    31c4:	0d000593          	li	a1,208
    31c8:	04d00513          	li	a0,77
    31cc:	ffcff0ef          	jal	ra,29c8 <analog_write_reg8>
    31d0:	801407b7          	lui	a5,0x80140
    31d4:	1047a703          	lw	a4,260(a5) # 80140104 <_DATA_LMA_START+0x60136acc>
    31d8:	839f978b          	addigp	a5,-1992 # 80038 <g_pm_early_wakeup_time_us>
    31dc:	00279903          	lh	s2,2(a5)
    31e0:	44e42023          	sw	a4,1088(s0)
    31e4:	3c09295b          	bfoz	s2,s2,15,0
    31e8:	00491913          	slli	s2,s2,0x4
    31ec:	0e0d7d13          	andi	s10,s10,224
    31f0:	412a8933          	sub	s2,s5,s2
    31f4:	e40d14e3          	bnez	s10,303c <cpu_sleep_wakeup_32k_rc_ram+0x158>
    31f8:	0ef00593          	li	a1,239
    31fc:	04c00513          	li	a0,76
    3200:	fc8ff0ef          	jal	ra,29c8 <analog_write_reg8>
    3204:	a509e4db          	bnec	s3,48,304c <cpu_sleep_wakeup_32k_rc_ram+0x168>
    3208:	841f95ab          	lhgp	a1,-1984 # 80040 <g_pm_r_delay_cycle>
    320c:	04000513          	li	a0,64
    3210:	0ff5f593          	andi	a1,a1,255
    3214:	fb4ff0ef          	jal	ra,29c8 <analog_write_reg8>
    3218:	34842783          	lw	a5,840(s0)
    321c:	40f907b3          	sub	a5,s2,a5
    3220:	e40a16e3          	bnez	s4,306c <cpu_sleep_wakeup_32k_rc_ram+0x188>
    3224:	37844703          	lbu	a4,888(s0)
    3228:	e4071ae3          	bnez	a4,307c <cpu_sleep_wakeup_32k_rc_ram+0x198>
    322c:	00479513          	slli	a0,a5,0x4
    3230:	001cdc93          	srli	s9,s9,0x1
    3234:	37442683          	lw	a3,884(s0)
    3238:	9566                	c.add	a0,s9
    323a:	02d55533          	divu	a0,a0,a3
    323e:	34c42583          	lw	a1,844(s0)
    3242:	43842703          	lw	a4,1080(s0)
    3246:	40000637          	lui	a2,0x40000
    324a:	00370793          	addi	a5,a4,3
    324e:	952e                	c.add	a0,a1
    3250:	8f89                	c.sub	a5,a0
    3252:	e6c7f5e3          	bgeu	a5,a2,30bc <cpu_sleep_wakeup_32k_rc_ram+0x1d8>
    3256:	43c42783          	lw	a5,1084(s0)
    325a:	34e42623          	sw	a4,844(s0)
    325e:	0017e793          	ori	a5,a5,1
    3262:	40f90933          	sub	s2,s2,a5
    3266:	00491513          	slli	a0,s2,0x4
    326a:	9caa                	c.add	s9,a0
    326c:	02dcd533          	divu	a0,s9,a3
    3270:	34f42423          	sw	a5,840(s0)
    3274:	953a                	c.add	a0,a4
    3276:	b599                	c.j	30bc <cpu_sleep_wakeup_32k_rc_ram+0x1d8>
    3278:	06400513          	li	a0,100
    327c:	88dff0ef          	jal	ra,2b08 <analog_read_reg8>
    3280:	01f57513          	andi	a0,a0,31
    3284:	cddff06f          	j	2f60 <cpu_sleep_wakeup_32k_rc_ram+0x7c>
    3288:	01d00593          	li	a1,29
    328c:	06400513          	li	a0,100
    3290:	80140937          	lui	s2,0x80140
    3294:	2007a403          	lw	s0,512(a5)
    3298:	f30ff0ef          	jal	ra,29c8 <analog_write_reg8>
    329c:	0080006f          	j	32a4 <cpu_sleep_wakeup_32k_rc_ram+0x3c0>
    32a0:	cc0510e3          	bnez	a0,2f60 <cpu_sleep_wakeup_32k_rc_ram+0x7c>
    32a4:	06400513          	li	a0,100
    32a8:	861ff0ef          	jal	ra,2b08 <analog_read_reg8>
    32ac:	20092783          	lw	a5,512(s2) # 80140200 <_DATA_LMA_START+0x60136bc8>
    32b0:	8975                	c.andi	a0,29
    32b2:	8f81                	c.sub	a5,s0
    32b4:	fe97e6e3          	bltu	a5,s1,32a0 <cpu_sleep_wakeup_32k_rc_ram+0x3bc>
    32b8:	ca9ff06f          	j	2f60 <cpu_sleep_wakeup_32k_rc_ram+0x7c>
    32bc:	43842783          	lw	a5,1080(s0)
    32c0:	37442703          	lw	a4,884(s0)
    32c4:	40f507b3          	sub	a5,a0,a5
    32c8:	02e787b3          	mul	a5,a5,a4
    32cc:	43c42703          	lw	a4,1084(s0)
    32d0:	8391                	c.srli	a5,0x4
    32d2:	97ba                	c.add	a5,a4
    32d4:	42f42e23          	sw	a5,1084(s0)
    32d8:	e6dff06f          	j	3144 <cpu_sleep_wakeup_32k_rc_ram+0x260>
    32dc:	36040c23          	sb	zero,888(s0)
    32e0:	f4dff06f          	j	322c <cpu_sleep_wakeup_32k_rc_ram+0x348>
    32e4:	0d100593          	li	a1,209
    32e8:	04d00513          	li	a0,77
    32ec:	edcff0ef          	jal	ra,29c8 <analog_write_reg8>
    32f0:	ee1ff06f          	j	31d0 <cpu_sleep_wakeup_32k_rc_ram+0x2ec>
    32f4:	04079663          	bnez	a5,3340 <cpu_sleep_wakeup_32k_rc_ram+0x45c>
    32f8:	0f900593          	li	a1,249
    32fc:	04d00513          	li	a0,77
    3300:	ec8ff0ef          	jal	ra,29c8 <analog_write_reg8>
    3304:	00100593          	li	a1,1
    3308:	07f00513          	li	a0,127
    330c:	ebcff0ef          	jal	ra,29c8 <analog_write_reg8>
    3310:	839f978b          	addigp	a5,-1992 # 80038 <g_pm_early_wakeup_time_us>
    3314:	00479903          	lh	s2,4(a5)
    3318:	3c09295b          	bfoz	s2,s2,15,0
    331c:	d11ff06f          	j	302c <cpu_sleep_wakeup_32k_rc_ram+0x148>
    3320:	00000593          	li	a1,0
    3324:	07f00513          	li	a0,127
    3328:	ea0ff0ef          	jal	ra,29c8 <analog_write_reg8>
    332c:	da9ff06f          	j	30d4 <cpu_sleep_wakeup_32k_rc_ram+0x1f0>
    3330:	06100593          	li	a1,97
    3334:	04d00513          	li	a0,77
    3338:	e90ff0ef          	jal	ra,29c8 <analog_write_reg8>
    333c:	ce1ff06f          	j	301c <cpu_sleep_wakeup_32k_rc_ram+0x138>
    3340:	0f800593          	li	a1,248
    3344:	04d00513          	li	a0,77
    3348:	e80ff0ef          	jal	ra,29c8 <analog_write_reg8>
    334c:	fb9ff06f          	j	3304 <cpu_sleep_wakeup_32k_rc_ram+0x420>

00003350 <clock_cal_24m_rc>:
    3350:	1141                	c.addi	sp,-16
    3352:	08000593          	li	a1,128
    3356:	0c800513          	li	a0,200
    335a:	c606                	c.swsp	ra,12(sp)
    335c:	e6cff0ef          	jal	ra,29c8 <analog_write_reg8>
    3360:	04f00513          	li	a0,79
    3364:	fa4ff0ef          	jal	ra,2b08 <analog_read_reg8>
    3368:	f8056593          	ori	a1,a0,-128
    336c:	0ff5f593          	andi	a1,a1,255
    3370:	04f00513          	li	a0,79
    3374:	e54ff0ef          	jal	ra,29c8 <analog_write_reg8>
    3378:	00e00593          	li	a1,14
    337c:	0c700513          	li	a0,199
    3380:	e48ff0ef          	jal	ra,29c8 <analog_write_reg8>
    3384:	00f00593          	li	a1,15
    3388:	0c700513          	li	a0,199
    338c:	e3cff0ef          	jal	ra,29c8 <analog_write_reg8>
    3390:	0cf00513          	li	a0,207
    3394:	f74ff0ef          	jal	ra,2b08 <analog_read_reg8>
    3398:	be757c5b          	bbc	a0,7,3390 <clock_cal_24m_rc+0x40>
    339c:	0cb00513          	li	a0,203
    33a0:	f68ff0ef          	jal	ra,2b08 <analog_read_reg8>
    33a4:	00a005b3          	add	a1,zero,a0
    33a8:	05200513          	li	a0,82
    33ac:	e1cff0ef          	jal	ra,29c8 <analog_write_reg8>
    33b0:	04f00513          	li	a0,79
    33b4:	f54ff0ef          	jal	ra,2b08 <analog_read_reg8>
    33b8:	07f57593          	andi	a1,a0,127
    33bc:	04f00513          	li	a0,79
    33c0:	e08ff0ef          	jal	ra,29c8 <analog_write_reg8>
    33c4:	0c700513          	li	a0,199
    33c8:	00e00593          	li	a1,14
    33cc:	dfcff0ef          	jal	ra,29c8 <analog_write_reg8>
    33d0:	40b2                	c.lwsp	ra,12(sp)
    33d2:	05200513          	li	a0,82
    33d6:	0141                	c.addi	sp,16
    33d8:	f30ff06f          	j	2b08 <analog_read_reg8>

000033dc <blt_sdk_main_loop>:
    33dc:	1101                	c.addi	sp,-32
    33de:	cc22                	c.swsp	s0,24(sp)
    33e0:	00000437          	lui	s0,0x0
    33e4:	17840413          	addi	s0,s0,376 # 178 <_AES_VMA_END>
    33e8:	ce06                	c.swsp	ra,28(sp)
    33ea:	ca26                	c.swsp	s1,20(sp)
    33ec:	c84a                	c.swsp	s2,16(sp)
    33ee:	45042703          	lw	a4,1104(s0)
    33f2:	cf19                	c.beqz	a4,3410 <blt_sdk_main_loop+0x34>
    33f4:	17f40783          	lb	a5,383(s0)
    33f8:	0ff7f793          	andi	a5,a5,255
    33fc:	cb91                	c.beqz	a5,3410 <blt_sdk_main_loop+0x34>
    33fe:	9702                	c.jalr	a4
    3400:	40f2                	c.lwsp	ra,28(sp)
    3402:	4462                	c.lwsp	s0,24(sp)
    3404:	44d2                	c.lwsp	s1,20(sp)
    3406:	4942                	c.lwsp	s2,16(sp)
    3408:	4501                	c.li	a0,0
    340a:	6105                	c.addi16sp	sp,32
    340c:	00008067          	ret
    3410:	3b244703          	lbu	a4,946(s0)
    3414:	3b344783          	lbu	a5,947(s0)
    3418:	04f70a63          	beq	a4,a5,346c <blt_sdk_main_loop+0x90>
    341c:	801404b7          	lui	s1,0x80140
    3420:	14348493          	addi	s1,s1,323 # 80140143 <_DATA_LMA_START+0x60136b0b>
    3424:	00c00913          	li	s2,12
    3428:	3b140683          	lb	a3,945(s0)
    342c:	3b344783          	lbu	a5,947(s0)
    3430:	3ac45603          	lhu	a2,940(s0)
    3434:	3b842703          	lw	a4,952(s0)
    3438:	8efd                	c.and	a3,a5
    343a:	01248023          	sb	s2,0(s1)
    343e:	c4c6977f          	maddr32	a4,a3,a2
    3442:	853a                	c.mv	a0,a4
    3444:	00274703          	lbu	a4,2(a4)
    3448:	cb01                	c.beqz	a4,3458 <blt_sdk_main_loop+0x7c>
    344a:	45442703          	lw	a4,1108(s0)
    344e:	c709                	c.beqz	a4,3458 <blt_sdk_main_loop+0x7c>
    3450:	000700e7          	jalr	a4
    3454:	3b344783          	lbu	a5,947(s0)
    3458:	00178793          	addi	a5,a5,1
    345c:	0ff7f793          	andi	a5,a5,255
    3460:	3b244703          	lbu	a4,946(s0)
    3464:	3af409a3          	sb	a5,947(s0)
    3468:	fcf710e3          	bne	a4,a5,3428 <blt_sdk_main_loop+0x4c>
    346c:	1bf44703          	lbu	a4,447(s0)
    3470:	1be44783          	lbu	a5,446(s0)
    3474:	00f70863          	beq	a4,a5,3484 <blt_sdk_main_loop+0xa8>
    3478:	45842783          	lw	a5,1112(s0)
    347c:	c781                	c.beqz	a5,3484 <blt_sdk_main_loop+0xa8>
    347e:	4501                	c.li	a0,0
    3480:	000780e7          	jalr	a5
    3484:	2ac42703          	lw	a4,684(s0)
    3488:	800007b7          	lui	a5,0x80000
    348c:	1c078793          	addi	a5,a5,448 # 800001c0 <_DATA_LMA_START+0x5fff6b88>
    3490:	00e7f7b3          	and	a5,a5,a4
    3494:	14079463          	bnez	a5,35dc <blt_sdk_main_loop+0x200>
    3498:	18d40783          	lb	a5,397(s0)
    349c:	0ff7f793          	andi	a5,a5,255
    34a0:	1a87d05b          	beqc	a5,8,3640 <blt_sdk_main_loop+0x264>
    34a4:	46442783          	lw	a5,1124(s0)
    34a8:	c391                	c.beqz	a5,34ac <blt_sdk_main_loop+0xd0>
    34aa:	9782                	c.jalr	a5
    34ac:	46842783          	lw	a5,1128(s0)
    34b0:	c391                	c.beqz	a5,34b4 <blt_sdk_main_loop+0xd8>
    34b2:	9782                	c.jalr	a5
    34b4:	46c42783          	lw	a5,1132(s0)
    34b8:	c391                	c.beqz	a5,34bc <blt_sdk_main_loop+0xe0>
    34ba:	9782                	c.jalr	a5
    34bc:	47042783          	lw	a5,1136(s0)
    34c0:	c391                	c.beqz	a5,34c4 <blt_sdk_main_loop+0xe8>
    34c2:	9782                	c.jalr	a5
    34c4:	47442783          	lw	a5,1140(s0)
    34c8:	c791                	c.beqz	a5,34d4 <blt_sdk_main_loop+0xf8>
    34ca:	44644703          	lbu	a4,1094(s0)
    34ce:	e319                	c.bnez	a4,34d4 <blt_sdk_main_loop+0xf8>
    34d0:	000780e7          	jalr	a5
    34d4:	47844783          	lbu	a5,1144(s0)
    34d8:	e791                	c.bnez	a5,34e4 <blt_sdk_main_loop+0x108>
    34da:	19440783          	lb	a5,404(s0)
    34de:	0ff7f793          	andi	a5,a5,255
    34e2:	e3b9                	c.bnez	a5,3528 <blt_sdk_main_loop+0x14c>
    34e4:	18d40783          	lb	a5,397(s0)
    34e8:	0ff7f793          	andi	a5,a5,255
    34ec:	0a17d85b          	beqc	a5,1,359c <blt_sdk_main_loop+0x1c0>
    34f0:	801406b7          	lui	a3,0x80140
    34f4:	4bc42783          	lw	a5,1212(s0)
    34f8:	2006a703          	lw	a4,512(a3) # 80140200 <_DATA_LMA_START+0x60136bc8>
    34fc:	8f1d                	c.sub	a4,a5
    34fe:	393737b7          	lui	a5,0x39373
    3502:	78078793          	addi	a5,a5,1920 # 39373780 <_DATA_LMA_START+0x1936a148>
    3506:	00e7f763          	bgeu	a5,a4,3514 <blt_sdk_main_loop+0x138>
    350a:	2006a783          	lw	a5,512(a3)
    350e:	4af42e23          	sw	a5,1212(s0)
    3512:	3d3d                	c.jal	3350 <clock_cal_24m_rc>
    3514:	4785                	c.li	a5,1
    3516:	18f40a23          	sb	a5,404(s0)
    351a:	40f2                	c.lwsp	ra,28(sp)
    351c:	4462                	c.lwsp	s0,24(sp)
    351e:	44d2                	c.lwsp	s1,20(sp)
    3520:	4942                	c.lwsp	s2,16(sp)
    3522:	4501                	c.li	a0,0
    3524:	6105                	c.addi16sp	sp,32
    3526:	8082                	c.jr	ra
    3528:	47c42783          	lw	a5,1148(s0)
    352c:	dfc5                	c.beqz	a5,34e4 <blt_sdk_main_loop+0x108>
    352e:	44644783          	lbu	a5,1094(s0)
    3532:	dbcd                	c.beqz	a5,34e4 <blt_sdk_main_loop+0x108>
    3534:	18d40783          	lb	a5,397(s0)
    3538:	8ba5                	c.andi	a5,9
    353a:	d7cd                	c.beqz	a5,34e4 <blt_sdk_main_loop+0x108>
    353c:	19040783          	lb	a5,400(s0)
    3540:	0ff7f793          	andi	a5,a5,255
    3544:	f3c5                	c.bnez	a5,34e4 <blt_sdk_main_loop+0x108>
    3546:	2ac42783          	lw	a5,684(s0)
    354a:	ffc9                	c.bnez	a5,34e4 <blt_sdk_main_loop+0x108>
    354c:	48244783          	lbu	a5,1154(s0)
    3550:	fbd1                	c.bnez	a5,34e4 <blt_sdk_main_loop+0x108>
    3552:	3b344703          	lbu	a4,947(s0)
    3556:	3b244783          	lbu	a5,946(s0)
    355a:	f8f715e3          	bne	a4,a5,34e4 <blt_sdk_main_loop+0x108>
    355e:	48044783          	lbu	a5,1152(s0)
    3562:	d3c9                	c.beqz	a5,34e4 <blt_sdk_main_loop+0x108>
    3564:	e4002737          	lui	a4,0xe4002
    3568:	431c                	c.lw	a5,0(a4)
    356a:	9bf5                	c.andi	a5,-3
    356c:	c31c                	c.sw	a5,0(a4)
    356e:	19040783          	lb	a5,400(s0)
    3572:	0ff7f793          	andi	a5,a5,255
    3576:	e789                	c.bnez	a5,3580 <blt_sdk_main_loop+0x1a4>
    3578:	47c42783          	lw	a5,1148(s0)
    357c:	000780e7          	jalr	a5
    3580:	18d40783          	lb	a5,397(s0)
    3584:	0ff7f793          	andi	a5,a5,255
    3588:	b487ee5b          	bnec	a5,8,34e4 <blt_sdk_main_loop+0x108>
    358c:	e4002737          	lui	a4,0xe4002
    3590:	431c                	c.lw	a5,0(a4)
    3592:	0027e793          	ori	a5,a5,2
    3596:	c31c                	c.sw	a5,0(a4)
    3598:	f4dff06f          	j	34e4 <blt_sdk_main_loop+0x108>
    359c:	4b042703          	lw	a4,1200(s0)
    35a0:	db21                	c.beqz	a4,34f0 <blt_sdk_main_loop+0x114>
    35a2:	801407b7          	lui	a5,0x80140
    35a6:	2007a783          	lw	a5,512(a5) # 80140200 <_DATA_LMA_START+0x60136bc8>
    35aa:	2cc42683          	lw	a3,716(s0)
    35ae:	8f95                	c.sub	a5,a3
    35b0:	f407c0e3          	bltz	a5,34f0 <blt_sdk_main_loop+0x114>
    35b4:	2ac42783          	lw	a5,684(s0)
    35b8:	ff85                	c.bnez	a5,34f0 <blt_sdk_main_loop+0x114>
    35ba:	9702                	c.jalr	a4
    35bc:	18d40783          	lb	a5,397(s0)
    35c0:	0ff7f793          	andi	a5,a5,255
    35c4:	1817d45b          	beqc	a5,1,374c <blt_sdk_main_loop+0x370>
    35c8:	18d40783          	lb	a5,397(s0)
    35cc:	0ff7f793          	andi	a5,a5,255
    35d0:	1a87d85b          	beqc	a5,8,3780 <blt_sdk_main_loop+0x3a4>
    35d4:	18040823          	sb	zero,400(s0)
    35d8:	f19ff06f          	j	34f0 <blt_sdk_main_loop+0x114>
    35dc:	0277785b          	bbc	a4,7,360c <blt_sdk_main_loop+0x230>
    35e0:	f7f77713          	andi	a4,a4,-129
    35e4:	1c442683          	lw	a3,452(s0)
    35e8:	2ae42623          	sw	a4,684(s0)
    35ec:	2c144783          	lbu	a5,705(s0)
    35f0:	52b6f45b          	bbs	a3,11,3718 <blt_sdk_main_loop+0x33c>
    35f4:	45c42703          	lw	a4,1116(s0)
    35f8:	4609                	c.li	a2,2
    35fa:	004c                	c.addi4spn	a1,sp,4
    35fc:	451d                	c.li	a0,7
    35fe:	00f10223          	sb	a5,4(sp)
    3602:	00f102a3          	sb	a5,5(sp)
    3606:	9702                	c.jalr	a4
    3608:	2ac42703          	lw	a4,684(s0)
    360c:	06074c63          	bltz	a4,3684 <blt_sdk_main_loop+0x2a8>
    3610:	00877a5b          	bbc	a4,8,3624 <blt_sdk_main_loop+0x248>
    3614:	1c442783          	lw	a5,452(s0)
    3618:	4a67f85b          	bbs	a5,6,36c8 <blt_sdk_main_loop+0x2ec>
    361c:	eff77713          	andi	a4,a4,-257
    3620:	2ae42623          	sw	a4,684(s0)
    3624:	a6677a5b          	bbc	a4,6,3498 <blt_sdk_main_loop+0xbc>
    3628:	45c42783          	lw	a5,1116(s0)
    362c:	fbf77713          	andi	a4,a4,-65
    3630:	4601                	c.li	a2,0
    3632:	4581                	c.li	a1,0
    3634:	4519                	c.li	a0,6
    3636:	2ae42623          	sw	a4,684(s0)
    363a:	9782                	c.jalr	a5
    363c:	e5dff06f          	j	3498 <blt_sdk_main_loop+0xbc>
    3640:	2c644783          	lbu	a5,710(s0)
    3644:	e60780e3          	beqz	a5,34a4 <blt_sdk_main_loop+0xc8>
    3648:	19140783          	lb	a5,401(s0)
    364c:	0ff7f793          	andi	a5,a5,255
    3650:	e4079ae3          	bnez	a5,34a4 <blt_sdk_main_loop+0xc8>
    3654:	2c044783          	lbu	a5,704(s0)
    3658:	30300693          	li	a3,771
    365c:	46042703          	lw	a4,1120(s0)
    3660:	00d11223          	sh	a3,4(sp)
    3664:	004c                	c.addi4spn	a1,sp,4
    3666:	46d9                	c.li	a3,22
    3668:	6521                	c.lui	a0,0x8
    366a:	00d10323          	sb	a3,6(sp)
    366e:	00f10423          	sb	a5,8(sp)
    3672:	00f103a3          	sb	a5,7(sp)
    3676:	9702                	c.jalr	a4
    3678:	e20506e3          	beqz	a0,34a4 <blt_sdk_main_loop+0xc8>
    367c:	2c040323          	sb	zero,710(s0)
    3680:	e25ff06f          	j	34a4 <blt_sdk_main_loop+0xc8>
    3684:	7807275b          	bfoz	a4,a4,30,0
    3688:	1c442783          	lw	a5,452(s0)
    368c:	2ae42623          	sw	a4,684(s0)
    3690:	b937f05b          	bbc	a5,19,3610 <blt_sdk_main_loop+0x234>
    3694:	26c45703          	lhu	a4,620(s0)
    3698:	25e44783          	lbu	a5,606(s0)
    369c:	02000537          	lui	a0,0x2000
    36a0:	46d1                	c.li	a3,20
    36a2:	4611                	c.li	a2,4
    36a4:	00410593          	addi	a1,sp,4
    36a8:	03e50513          	addi	a0,a0,62 # 200003e <FLASH_SIZE+0x1f0003e>
    36ac:	00e112a3          	sh	a4,5(sp)
    36b0:	00d10223          	sb	a3,4(sp)
    36b4:	00f103a3          	sb	a5,7(sp)
    36b8:	20002097          	auipc	ra,0x20002
    36bc:	de8080e7          	jalr	-536(ra) # 200054a0 <blc_hci_send_event>
    36c0:	2ac42703          	lw	a4,684(s0)
    36c4:	f4dff06f          	j	3610 <blt_sdk_main_loop+0x234>
    36c8:	3be45803          	lhu	a6,958(s0)
    36cc:	3bc45683          	lhu	a3,956(s0)
    36d0:	26c45883          	lhu	a7,620(s0)
    36d4:	00e80713          	addi	a4,a6,14
    36d8:	00e68793          	addi	a5,a3,14
    36dc:	02000537          	lui	a0,0x2000
    36e0:	070e                	c.slli	a4,0x3
    36e2:	078e                	c.slli	a5,0x3
    36e4:	431d                	c.li	t1,7
    36e6:	462d                	c.li	a2,11
    36e8:	00410593          	addi	a1,sp,4
    36ec:	03e50513          	addi	a0,a0,62 # 200003e <FLASH_SIZE+0x1f0003e>
    36f0:	00e114a3          	sh	a4,9(sp)
    36f4:	00610223          	sb	t1,4(sp)
    36f8:	011112a3          	sh	a7,5(sp)
    36fc:	010113a3          	sh	a6,7(sp)
    3700:	00d115a3          	sh	a3,11(sp)
    3704:	00f116a3          	sh	a5,13(sp)
    3708:	20002097          	auipc	ra,0x20002
    370c:	d98080e7          	jalr	-616(ra) # 200054a0 <blc_hci_send_event>
    3710:	2ac42703          	lw	a4,684(s0)
    3714:	f09ff06f          	j	361c <blt_sdk_main_loop+0x240>
    3718:	26c45703          	lhu	a4,620(s0)
    371c:	02000537          	lui	a0,0x2000
    3720:	00f10423          	sb	a5,8(sp)
    3724:	00f104a3          	sb	a5,9(sp)
    3728:	4619                	c.li	a2,6
    372a:	47b1                	c.li	a5,12
    372c:	00410593          	addi	a1,sp,4
    3730:	03e50513          	addi	a0,a0,62 # 200003e <FLASH_SIZE+0x1f0003e>
    3734:	00f11223          	sh	a5,4(sp)
    3738:	00e11323          	sh	a4,6(sp)
    373c:	20002097          	auipc	ra,0x20002
    3740:	d64080e7          	jalr	-668(ra) # 200054a0 <blc_hci_send_event>
    3744:	2c144783          	lbu	a5,705(s0)
    3748:	eadff06f          	j	35f4 <blt_sdk_main_loop+0x218>
    374c:	25544783          	lbu	a5,597(s0)
    3750:	00078463          	beqz	a5,3758 <blt_sdk_main_loop+0x37c>
    3754:	24040aa3          	sb	zero,597(s0)
    3758:	39640783          	lb	a5,918(s0)
    375c:	80141737          	lui	a4,0x80141
    3760:	0257fa5b          	bbc	a5,5,3794 <blt_sdk_main_loop+0x3b8>
    3764:	a1c71783          	lh	a5,-1508(a4) # 80140a1c <_DATA_LMA_START+0x601373e4>
    3768:	4b442683          	lw	a3,1204(s0)
    376c:	3c07a7db          	bfoz	a5,a5,15,0
    3770:	0017e793          	ori	a5,a5,1
    3774:	a0f71e23          	sh	a5,-1508(a4)
    3778:	9682                	c.jalr	a3
    377a:	18040823          	sb	zero,400(s0)
    377e:	bb8d                	c.j	34f0 <blt_sdk_main_loop+0x114>
    3780:	17d40783          	lb	a5,381(s0)
    3784:	a467f85b          	bbc	a5,6,35d4 <blt_sdk_main_loop+0x1f8>
    3788:	4b842783          	lw	a5,1208(s0)
    378c:	9782                	c.jalr	a5
    378e:	18040823          	sb	zero,400(s0)
    3792:	bbb9                	c.j	34f0 <blt_sdk_main_loop+0x114>
    3794:	a1c71783          	lh	a5,-1508(a4)
    3798:	3c07a7db          	bfoz	a5,a5,15,0
    379c:	9bf9                	c.andi	a5,-2
    379e:	3c07a7db          	bfoz	a5,a5,15,0
    37a2:	a0f71e23          	sh	a5,-1508(a4)
    37a6:	18040823          	sb	zero,400(s0)
    37aa:	b399                	c.j	34f0 <blt_sdk_main_loop+0x114>

000037ac <dr_putchar>:
    37ac:	801407b7          	lui	a5,0x80140
    37b0:	30378803          	lb	a6,771(a5) # 80140303 <_DATA_LMA_START+0x60136ccb>
    37b4:	30378783          	lb	a5,771(a5)
    37b8:	1141                	c.addi	sp,-16
    37ba:	07f87813          	andi	a6,a6,127
    37be:	f807e793          	ori	a5,a5,-128
    37c2:	0ff7f793          	andi	a5,a5,255
    37c6:	01010223          	sb	a6,4(sp)
    37ca:	873e                	c.mv	a4,a5
    37cc:	4005745b          	bbs	a0,0,37d4 <dr_putchar+0x28>
    37d0:	01000733          	add	a4,zero,a6
    37d4:	00e102a3          	sb	a4,5(sp)
    37d8:	8742                	c.mv	a4,a6
    37da:	0015735b          	bbc	a0,1,37e0 <dr_putchar+0x34>
    37de:	873e                	c.mv	a4,a5
    37e0:	00e10323          	sb	a4,6(sp)
    37e4:	8742                	c.mv	a4,a6
    37e6:	0025735b          	bbc	a0,2,37ec <dr_putchar+0x40>
    37ea:	873e                	c.mv	a4,a5
    37ec:	00e103a3          	sb	a4,7(sp)
    37f0:	8742                	c.mv	a4,a6
    37f2:	0035735b          	bbc	a0,3,37f8 <dr_putchar+0x4c>
    37f6:	873e                	c.mv	a4,a5
    37f8:	00e10423          	sb	a4,8(sp)
    37fc:	8742                	c.mv	a4,a6
    37fe:	0045735b          	bbc	a0,4,3804 <dr_putchar+0x58>
    3802:	873e                	c.mv	a4,a5
    3804:	00e104a3          	sb	a4,9(sp)
    3808:	8742                	c.mv	a4,a6
    380a:	0055735b          	bbc	a0,5,3810 <dr_putchar+0x64>
    380e:	873e                	c.mv	a4,a5
    3810:	00e10523          	sb	a4,10(sp)
    3814:	8742                	c.mv	a4,a6
    3816:	0065735b          	bbc	a0,6,381c <dr_putchar+0x70>
    381a:	873e                	c.mv	a4,a5
    381c:	00e105a3          	sb	a4,11(sp)
    3820:	811d                	c.srli	a0,0x7
    3822:	8742                	c.mv	a4,a6
    3824:	c111                	c.beqz	a0,3828 <dr_putchar+0x7c>
    3826:	873e                	c.mv	a4,a5
    3828:	00e10623          	sb	a4,12(sp)
    382c:	00f106a3          	sb	a5,13(sp)
    3830:	30002373          	csrr	t1,mstatus
    3834:	00837313          	andi	t1,t1,8
    3838:	00030463          	beqz	t1,3840 <dr_putchar+0x94>
    383c:	300477f3          	csrrci	a5,mstatus,8
    3840:	801407b7          	lui	a5,0x80140
    3844:	2007a603          	lw	a2,512(a5) # 80140200 <_DATA_LMA_START+0x60136bc8>
    3848:	00510513          	addi	a0,sp,5
    384c:	00e10893          	addi	a7,sp,14
    3850:	801406b7          	lui	a3,0x80140
    3854:	08900593          	li	a1,137
    3858:	2006a783          	lw	a5,512(a3) # 80140200 <_DATA_LMA_START+0x60136bc8>
    385c:	40c78733          	sub	a4,a5,a2
    3860:	fee5fce3          	bgeu	a1,a4,3858 <dr_putchar+0xac>
    3864:	310681a3          	sb	a6,771(a3)
    3868:	01150863          	beq	a0,a7,3878 <dr_putchar+0xcc>
    386c:	00054803          	lbu	a6,0(a0)
    3870:	863e                	c.mv	a2,a5
    3872:	0505                	c.addi	a0,1
    3874:	fe5ff06f          	j	3858 <dr_putchar+0xac>
    3878:	00030463          	beqz	t1,3880 <dr_putchar+0xd4>
    387c:	30032373          	csrrs	t1,mstatus,t1
    3880:	0141                	c.addi	sp,16
    3882:	8082                	c.jr	ra

00003884 <sys_init.constprop.18>:
    3884:	1141                	c.addi	sp,-16
    3886:	ffbc07b7          	lui	a5,0xffbc0
    388a:	c606                	c.swsp	ra,12(sp)
    388c:	17fd                	c.addi	a5,-1
    388e:	80140737          	lui	a4,0x80140
    3892:	c422                	c.swsp	s0,8(sp)
    3894:	c226                	c.swsp	s1,4(sp)
    3896:	c04a                	c.swsp	s2,0(sp)
    3898:	1ef72023          	sw	a5,480(a4) # 801401e0 <_DATA_LMA_START+0x60136ba8>
    389c:	00200593          	li	a1,2
    38a0:	08c00513          	li	a0,140
    38a4:	1ef72223          	sw	a5,484(a4)
    38a8:	920ff0ef          	jal	ra,29c8 <analog_write_reg8>
    38ac:	04000593          	li	a1,64
    38b0:	00c00513          	li	a0,12
    38b4:	914ff0ef          	jal	ra,29c8 <analog_write_reg8>
    38b8:	08000593          	li	a1,128
    38bc:	07d00513          	li	a0,125
    38c0:	908ff0ef          	jal	ra,29c8 <analog_write_reg8>
    38c4:	801607b7          	lui	a5,0x80160
    38c8:	20000737          	lui	a4,0x20000
    38cc:	458d                	c.li	a1,3
    38ce:	4529                	c.li	a0,10
    38d0:	00e7a023          	sw	a4,0(a5) # 80160000 <_DATA_LMA_START+0x601569c8>
    38d4:	8f4ff0ef          	jal	ra,29c8 <analog_write_reg8>
    38d8:	04500593          	li	a1,69
    38dc:	00100513          	li	a0,1
    38e0:	8e8ff0ef          	jal	ra,29c8 <analog_write_reg8>
    38e4:	03b00593          	li	a1,59
    38e8:	00b00513          	li	a0,11
    38ec:	8dcff0ef          	jal	ra,29c8 <analog_write_reg8>
    38f0:	00600513          	li	a0,6
    38f4:	a14ff0ef          	jal	ra,2b08 <analog_read_reg8>
    38f8:	03e57593          	andi	a1,a0,62
    38fc:	00600513          	li	a0,6
    3900:	8c8ff0ef          	jal	ra,29c8 <analog_write_reg8>
    3904:	00500513          	li	a0,5
    3908:	a00ff0ef          	jal	ra,2b08 <analog_read_reg8>
    390c:	0f757593          	andi	a1,a0,247
    3910:	00500513          	li	a0,5
    3914:	8b4ff0ef          	jal	ra,29c8 <analog_write_reg8>
    3918:	801007b7          	lui	a5,0x80100
    391c:	50078623          	sb	zero,1292(a5) # 8010050c <_DATA_LMA_START+0x600f6ed4>
    3920:	7c00d073          	csrwi	milmb,1
    3924:	000807b7          	lui	a5,0x80
    3928:	00178793          	addi	a5,a5,1 # 80001 <_DATA_VMA_START+0x1>
    392c:	7c179073          	csrw	mdlmb,a5
    3930:	07f00513          	li	a0,127
    3934:	9d4ff0ef          	jal	ra,2b08 <analog_read_reg8>
    3938:	00a004b3          	add	s1,zero,a0
    393c:	03800513          	li	a0,56
    3940:	9c8ff0ef          	jal	ra,2b08 <analog_read_reg8>
    3944:	00a00433          	add	s0,zero,a0
    3948:	03900513          	li	a0,57
    394c:	9bcff0ef          	jal	ra,2b08 <analog_read_reg8>
    3950:	0c047e5b          	bbc	s0,0,3a2c <sys_init.constprop.18+0x1a8>
    3954:	892a                	c.mv	s2,a0
    3956:	0fe47593          	andi	a1,s0,254
    395a:	85df940b          	addigp	s0,-1956 # 8005c <g_pm_status_info>
    395e:	03800513          	li	a0,56
    3962:	14097b5b          	bbc	s2,0,3ab8 <sys_init.constprop.18+0x234>
    3966:	4791                	c.li	a5,4
    3968:	00f40123          	sb	a5,2(s0)
    396c:	85cff0ef          	jal	ra,29c8 <analog_write_reg8>
    3970:	0014e593          	ori	a1,s1,1
    3974:	0ff5f593          	andi	a1,a1,255
    3978:	07f00513          	li	a0,127
    397c:	84cff0ef          	jal	ra,29c8 <analog_write_reg8>
    3980:	08800513          	li	a0,136
    3984:	984ff0ef          	jal	ra,2b08 <analog_read_reg8>
    3988:	be757c5b          	bbc	a0,7,3980 <sys_init.constprop.18+0xfc>
    398c:	b00ff0ef          	jal	ra,2c8c <pm_wait_bbpll_done>
    3990:	00244783          	lbu	a5,2(s0)
    3994:	0a87d85b          	beqc	a5,8,3a44 <sys_init.constprop.18+0x1c0>
    3998:	80140737          	lui	a4,0x80140
    399c:	20a70783          	lb	a5,522(a4) # 8014020a <_DATA_LMA_START+0x60136bd2>
    39a0:	0ff7f793          	andi	a5,a5,255
    39a4:	00c7e793          	ori	a5,a5,12
    39a8:	20f70523          	sb	a5,522(a4)
    39ac:	00100793          	li	a5,1
    39b0:	20f72023          	sw	a5,512(a4)
    39b4:	20002097          	auipc	ra,0x20002
    39b8:	1dc080e7          	jalr	476(ra) # 20005b90 <cpu_wakeup_no_deepretn_back_init>
    39bc:	995ff0ef          	jal	ra,3350 <clock_cal_24m_rc>
    39c0:	80140737          	lui	a4,0x80140
    39c4:	20870783          	lb	a5,520(a4) # 80140208 <_DATA_LMA_START+0x60136bd0>
    39c8:	0ff7f793          	andi	a5,a5,255
    39cc:	0017e793          	ori	a5,a5,1
    39d0:	20f70423          	sb	a5,520(a4)
    39d4:	1fd70783          	lb	a5,509(a4)
    39d8:	00244683          	lbu	a3,2(s0)
    39dc:	0ff7f793          	andi	a5,a5,255
    39e0:	84ffcdab          	swgp	a5,-1960 # 80058 <g_chip_version>
    39e4:	0246e25b          	bnec	a3,4,3a08 <sys_init.constprop.18+0x184>
    39e8:	000007b7          	lui	a5,0x0
    39ec:	20072603          	lw	a2,512(a4)
    39f0:	6447a703          	lw	a4,1604(a5) # 644 <cpu_sleep_wakeup>
    39f4:	67d1                	c.lui	a5,0x14
    39f6:	88078793          	addi	a5,a5,-1920 # 13880 <BIN_SIZE+0xa1fe>
    39fa:	963e                	c.add	a2,a5
    39fc:	02000593          	li	a1,32
    3a00:	03000513          	li	a0,48
    3a04:	000700e7          	jalr	a4
    3a08:	04400593          	li	a1,68
    3a0c:	00c00513          	li	a0,12
    3a10:	fb9fe0ef          	jal	ra,29c8 <analog_write_reg8>
    3a14:	801417b7          	lui	a5,0x80141
    3a18:	c0000737          	lui	a4,0xc0000
    3a1c:	b0e7a223          	sw	a4,-1276(a5) # 80140b04 <_DATA_LMA_START+0x601374cc>
    3a20:	40b2                	c.lwsp	ra,12(sp)
    3a22:	4422                	c.lwsp	s0,8(sp)
    3a24:	4492                	c.lwsp	s1,4(sp)
    3a26:	4902                	c.lwsp	s2,0(sp)
    3a28:	0141                	c.addi	sp,16
    3a2a:	8082                	c.jr	ra
    3a2c:	85df940b          	addigp	s0,-1956 # 8005c <g_pm_status_info>
    3a30:	4004f65b          	bbs	s1,0,3a3c <sys_init.constprop.18+0x1b8>
    3a34:	47a1                	c.li	a5,8
    3a36:	00f40123          	sb	a5,2(s0)
    3a3a:	bf1d                	c.j	3970 <sys_init.constprop.18+0xec>
    3a3c:	47c1                	c.li	a5,16
    3a3e:	00f40123          	sb	a5,2(s0)
    3a42:	b73d                	c.j	3970 <sys_init.constprop.18+0xec>
    3a44:	06400513          	li	a0,100
    3a48:	8c0ff0ef          	jal	ra,2b08 <analog_read_reg8>
    3a4c:	00a400a3          	sb	a0,1(s0)
    3a50:	06400513          	li	a0,100
    3a54:	8b4ff0ef          	jal	ra,2b08 <analog_read_reg8>
    3a58:	8929                	c.andi	a0,10
    3a5a:	0085655b          	bnec	a0,8,3a64 <sys_init.constprop.18+0x1e0>
    3a5e:	4785                	c.li	a5,1
    3a60:	00f40023          	sb	a5,0(s0)
    3a64:	801404b7          	lui	s1,0x80140
    3a68:	20848783          	lb	a5,520(s1) # 80140208 <_DATA_LMA_START+0x60136bd0>
    3a6c:	0fe7f793          	andi	a5,a5,254
    3a70:	20f48423          	sb	a5,520(s1)
    3a74:	00200793          	li	a5,2
    3a78:	20f48c23          	sb	a5,536(s1)
    3a7c:	20a48783          	lb	a5,522(s1)
    3a80:	0ff7f793          	andi	a5,a5,255
    3a84:	00c7e793          	ori	a5,a5,12
    3a88:	20f48523          	sb	a5,522(s1)
    3a8c:	b79fe0ef          	jal	ra,2604 <clock_get_32k_tick>
    3a90:	000007b7          	lui	a5,0x0
    3a94:	6407a783          	lw	a5,1600(a5) # 640 <pm_tim_recover>
    3a98:	0505                	c.addi	a0,1
    3a9a:	9782                	c.jalr	a5
    3a9c:	80140737          	lui	a4,0x80140
    3aa0:	00150513          	addi	a0,a0,1
    3aa4:	20a4a023          	sw	a0,512(s1)
    3aa8:	20b70783          	lb	a5,523(a4) # 8014020b <_DATA_LMA_START+0x60136bd3>
    3aac:	be77fe5b          	bbc	a5,7,3aa8 <sys_init.constprop.18+0x224>
    3ab0:	20070c23          	sb	zero,536(a4)
    3ab4:	f0dff06f          	j	39c0 <sys_init.constprop.18+0x13c>
    3ab8:	00100793          	li	a5,1
    3abc:	00f40123          	sb	a5,2(s0)
    3ac0:	f09fe0ef          	jal	ra,29c8 <analog_write_reg8>
    3ac4:	00196593          	ori	a1,s2,1
    3ac8:	0ff5f593          	andi	a1,a1,255
    3acc:	03900513          	li	a0,57
    3ad0:	ef9fe0ef          	jal	ra,29c8 <analog_write_reg8>
    3ad4:	e9dff06f          	j	3970 <sys_init.constprop.18+0xec>

00003ad8 <bls_ll_procRxPacket.constprop.14>:
    3ad8:	1141                	c.addi	sp,-16
    3ada:	c422                	c.swsp	s0,8(sp)
    3adc:	00000437          	lui	s0,0x0
    3ae0:	17840413          	addi	s0,s0,376 # 178 <_AES_VMA_END>
    3ae4:	c606                	c.swsp	ra,12(sp)
    3ae6:	c226                	c.swsp	s1,4(sp)
    3ae8:	4d544703          	lbu	a4,1237(s0)
    3aec:	801406b7          	lui	a3,0x80140
    3af0:	ffa70793          	addi	a5,a4,-6
    3af4:	2006a483          	lw	s1,512(a3) # 80140200 <_DATA_LMA_START+0x60136bc8>
    3af8:	0ff7f793          	andi	a5,a5,255
    3afc:	46fd                	c.li	a3,31
    3afe:	08f6e563          	bltu	a3,a5,3b88 <bls_ll_procRxPacket.constprop.14+0xb0>
    3b02:	51040793          	addi	a5,s0,1296
    3b06:	000a0637          	lui	a2,0xa0
    3b0a:	00544683          	lbu	a3,5(s0)
    3b0e:	00c7f563          	bgeu	a5,a2,3b18 <bls_ll_procRxPacket.constprop.14+0x40>
    3b12:	c0180637          	lui	a2,0xc0180
    3b16:	97b2                	c.add	a5,a2
    3b18:	53b44603          	lbu	a2,1339(s0)
    3b1c:	801005b7          	lui	a1,0x80100
    3b20:	44f5a423          	sw	a5,1096(a1) # 80100448 <_DATA_LMA_START+0x600f6e10>
    3b24:	0c061463          	bnez	a2,3bec <bls_ll_procRxPacket.constprop.14+0x114>
    3b28:	6705                	c.lui	a4,0x1
    3b2a:	801416b7          	lui	a3,0x80141
    3b2e:	80140637          	lui	a2,0x80140
    3b32:	2bf70713          	addi	a4,a4,703 # 12bf <rf_start_fsm.constprop.16+0x43>
    3b36:	a039                	c.j	3b44 <bls_ll_procRxPacket.constprop.14+0x6c>
    3b38:	20062783          	lw	a5,512(a2) # 80140200 <_DATA_LMA_START+0x60136bc8>
    3b3c:	409787b3          	sub	a5,a5,s1
    3b40:	00f76663          	bltu	a4,a5,3b4c <bls_ll_procRxPacket.constprop.14+0x74>
    3b44:	a2069783          	lh	a5,-1504(a3) # 80140a20 <_DATA_LMA_START+0x601373e8>
    3b48:	be07f85b          	bbc	a5,0,3b38 <bls_ll_procRxPacket.constprop.14+0x60>
    3b4c:	4d544783          	lbu	a5,1237(s0)
    3b50:	04c7d85b          	beqc	a5,12,3ba0 <bls_ll_procRxPacket.constprop.14+0xc8>
    3b54:	801417b7          	lui	a5,0x80141
    3b58:	00100713          	li	a4,1
    3b5c:	a2e79023          	sh	a4,-1504(a5) # 80140a20 <_DATA_LMA_START+0x601373e8>
    3b60:	83178783          	lb	a5,-1999(a5)
    3b64:	4d544703          	lbu	a4,1237(s0)
    3b68:	0ff7f793          	andi	a5,a5,255
    3b6c:	00e7ee63          	bltu	a5,a4,3b88 <bls_ll_procRxPacket.constprop.14+0xb0>
    3b70:	00870733          	add	a4,a4,s0
    3b74:	4e070783          	lb	a5,1248(a4)
    3b78:	4007f85b          	bbs	a5,0,3b88 <bls_ll_procRxPacket.constprop.14+0xb0>
    3b7c:	4dc45703          	lhu	a4,1244(s0)
    3b80:	00645783          	lhu	a5,6(s0)
    3b84:	08f70063          	beq	a4,a5,3c04 <bls_ll_procRxPacket.constprop.14+0x12c>
    3b88:	801417b7          	lui	a5,0x80141
    3b8c:	f8000713          	li	a4,-128
    3b90:	a0e78023          	sb	a4,-1536(a5) # 80140a00 <_DATA_LMA_START+0x601373c8>
    3b94:	40b2                	c.lwsp	ra,12(sp)
    3b96:	4422                	c.lwsp	s0,8(sp)
    3b98:	4492                	c.lwsp	s1,4(sp)
    3b9a:	0141                	c.addi	sp,16
    3b9c:	00008067          	ret
    3ba0:	801417b7          	lui	a5,0x80141
    3ba4:	04e00713          	li	a4,78
    3ba8:	a0e79223          	sh	a4,-1532(a5) # 80140a04 <_DATA_LMA_START+0x601373cc>
    3bac:	6685                	c.lui	a3,0x1
    3bae:	8507a703          	lw	a4,-1968(a5)
    3bb2:	94068693          	addi	a3,a3,-1728 # 940 <app_acl_txfifo+0x70>
    3bb6:	9736                	c.add	a4,a3
    3bb8:	a0e7ac23          	sw	a4,-1512(a5)
    3bbc:	f8500693          	li	a3,-123
    3bc0:	3d842703          	lw	a4,984(s0)
    3bc4:	a0d78023          	sb	a3,-1536(a5)
    3bc8:	d751                	c.beqz	a4,3b54 <bls_ll_procRxPacket.constprop.14+0x7c>
    3bca:	4505                	c.li	a0,1
    3bcc:	9702                	c.jalr	a4
    3bce:	801417b7          	lui	a5,0x80141
    3bd2:	4705                	c.li	a4,1
    3bd4:	a2e79023          	sh	a4,-1504(a5) # 80140a20 <_DATA_LMA_START+0x601373e8>
    3bd8:	83178783          	lb	a5,-1999(a5)
    3bdc:	4d544703          	lbu	a4,1237(s0)
    3be0:	0ff7f793          	andi	a5,a5,255
    3be4:	fae7e2e3          	bltu	a5,a4,3b88 <bls_ll_procRxPacket.constprop.14+0xb0>
    3be8:	f89ff06f          	j	3b70 <bls_ll_procRxPacket.constprop.14+0x98>
    3bec:	00e68633          	add	a2,a3,a4
    3bf0:	03560613          	addi	a2,a2,53
    3bf4:	061e                	c.slli	a2,0x7
    3bf6:	962a                	c.add	a2,a0
    3bf8:	4581                	c.li	a1,0
    3bfa:	4505                	c.li	a0,1
    3bfc:	d39fe0ef          	jal	ra,2934 <cpu_stall_WakeUp_By_RF_SystemTick>
    3c00:	f29ff06f          	j	3b28 <bls_ll_procRxPacket.constprop.14+0x50>
    3c04:	4de45703          	lhu	a4,1246(s0)
    3c08:	00845783          	lhu	a5,8(s0)
    3c0c:	f6f71ee3          	bne	a4,a5,3b88 <bls_ll_procRxPacket.constprop.14+0xb0>
    3c10:	4e045703          	lhu	a4,1248(s0)
    3c14:	00a45783          	lhu	a5,10(s0)
    3c18:	f6f718e3          	bne	a4,a5,3b88 <bls_ll_procRxPacket.constprop.14+0xb0>
    3c1c:	4d440783          	lb	a5,1236(s0)
    3c20:	8bbd                	c.andi	a5,15
    3c22:	0e37d55b          	beqc	a5,3,3d0c <bls_ll_procRxPacket.constprop.14+0x234>
    3c26:	b657e15b          	bnec	a5,5,3b88 <bls_ll_procRxPacket.constprop.14+0xb0>
    3c2a:	00440783          	lb	a5,4(s0)
    3c2e:	8bbd                	c.andi	a5,15
    3c30:	1217d65b          	beqc	a5,1,3d5c <bls_ll_procRxPacket.constprop.14+0x284>
    3c34:	00440783          	lb	a5,4(s0)
    3c38:	8bbd                	c.andi	a5,15
    3c3a:	f7b9                	c.bnez	a5,3b88 <bls_ll_procRxPacket.constprop.14+0xb0>
    3c3c:	4ec45683          	lhu	a3,1260(s0)
    3c40:	801417b7          	lui	a5,0x80141
    3c44:	f8000713          	li	a4,-128
    3c48:	80140637          	lui	a2,0x80140
    3c4c:	a0e78023          	sb	a4,-1536(a5) # 80140a00 <_DATA_LMA_START+0x601373c8>
    3c50:	ffa68713          	addi	a4,a3,-6
    3c54:	6785                	c.lui	a5,0x1
    3c56:	20062603          	lw	a2,512(a2) # 80140200 <_DATA_LMA_START+0x60136bc8>
    3c5a:	3c07275b          	bfoz	a4,a4,15,0
    3c5e:	c7a78613          	addi	a2,a5,-902 # c7a <app_acl_rxfifo+0x7a>
    3c62:	f2e663e3          	bltu	a2,a4,3b88 <bls_ll_procRxPacket.constprop.14+0xb0>
    3c66:	4e944603          	lbu	a2,1257(s0)
    3c6a:	459d                	c.li	a1,7
    3c6c:	fff60713          	addi	a4,a2,-1
    3c70:	0ff77713          	andi	a4,a4,255
    3c74:	f0e5eae3          	bltu	a1,a4,3b88 <bls_ll_procRxPacket.constprop.14+0xb0>
    3c78:	f0d678e3          	bgeu	a2,a3,3b88 <bls_ll_procRxPacket.constprop.14+0xb0>
    3c7c:	4f045703          	lhu	a4,1264(s0)
    3c80:	c7678793          	addi	a5,a5,-906
    3c84:	ff670613          	addi	a2,a4,-10
    3c88:	3c06265b          	bfoz	a2,a2,15,0
    3c8c:	eec7eee3          	bltu	a5,a2,3b88 <bls_ll_procRxPacket.constprop.14+0xb0>
    3c90:	4f740783          	lb	a5,1271(s0)
    3c94:	462d                	c.li	a2,11
    3c96:	8bfd                	c.andi	a5,31
    3c98:	17ed                	c.addi	a5,-5
    3c9a:	0ff7f793          	andi	a5,a5,255
    3c9e:	eef665e3          	bltu	a2,a5,3b88 <bls_ll_procRxPacket.constprop.14+0xb0>
    3ca2:	4f244783          	lbu	a5,1266(s0)
    3ca6:	ef99                	c.bnez	a5,3cc4 <bls_ll_procRxPacket.constprop.14+0x1ec>
    3ca8:	4f344783          	lbu	a5,1267(s0)
    3cac:	ef81                	c.bnez	a5,3cc4 <bls_ll_procRxPacket.constprop.14+0x1ec>
    3cae:	4f444783          	lbu	a5,1268(s0)
    3cb2:	eb89                	c.bnez	a5,3cc4 <bls_ll_procRxPacket.constprop.14+0x1ec>
    3cb4:	4f544783          	lbu	a5,1269(s0)
    3cb8:	00079663          	bnez	a5,3cc4 <bls_ll_procRxPacket.constprop.14+0x1ec>
    3cbc:	4f644783          	lbu	a5,1270(s0)
    3cc0:	ec0784e3          	beqz	a5,3b88 <bls_ll_procRxPacket.constprop.14+0xb0>
    3cc4:	4ee45603          	lhu	a2,1262(s0)
    3cc8:	00060863          	beqz	a2,3cd8 <bls_ll_procRxPacket.constprop.14+0x200>
    3ccc:	00371793          	slli	a5,a4,0x3
    3cd0:	02d7c7b3          	div	a5,a5,a3
    3cd4:	eac7cae3          	blt	a5,a2,3b88 <bls_ll_procRxPacket.constprop.14+0xb0>
    3cd8:	2d244783          	lbu	a5,722(s0)
    3cdc:	aa27d65b          	beqc	a5,2,3b88 <bls_ll_procRxPacket.constprop.14+0xb0>
    3ce0:	00440783          	lb	a5,4(s0)
    3ce4:	00f7f793          	andi	a5,a5,15
    3ce8:	0017d65b          	beqc	a5,1,3cf4 <bls_ll_procRxPacket.constprop.14+0x21c>
    3cec:	2d340783          	lb	a5,723(s0)
    3cf0:	4817f45b          	bbs	a5,1,3d78 <bls_ll_procRxPacket.constprop.14+0x2a0>
    3cf4:	53c42783          	lw	a5,1340(s0)
    3cf8:	c791                	c.beqz	a5,3d04 <bls_ll_procRxPacket.constprop.14+0x22c>
    3cfa:	4581                	c.li	a1,0
    3cfc:	4d040513          	addi	a0,s0,1232
    3d00:	000780e7          	jalr	a5
    3d04:	4789                	c.li	a5,2
    3d06:	16f40f23          	sb	a5,382(s0)
    3d0a:	bdbd                	c.j	3b88 <bls_ll_procRxPacket.constprop.14+0xb0>
    3d0c:	00440783          	lb	a5,4(s0)
    3d10:	00f7f793          	andi	a5,a5,15
    3d14:	a617da5b          	beqc	a5,1,3b88 <bls_ll_procRxPacket.constprop.14+0xb0>
    3d18:	2d340783          	lb	a5,723(s0)
    3d1c:	0007fc5b          	bbc	a5,0,3d34 <bls_ll_procRxPacket.constprop.14+0x25c>
    3d20:	4d442503          	lw	a0,1236(s0)
    3d24:	4d640593          	addi	a1,s0,1238
    3d28:	1865255b          	bfoz	a0,a0,6,6
    3d2c:	a11fe0ef          	jal	ra,273c <ll_searchAddr_in_WhiteList_and_ResolvingList>
    3d30:	e4050ce3          	beqz	a0,3b88 <bls_ll_procRxPacket.constprop.14+0xb0>
    3d34:	51544503          	lbu	a0,1301(s0)
    3d38:	00351513          	slli	a0,a0,0x3
    3d3c:	0d650513          	addi	a0,a0,214
    3d40:	d40fe0ef          	jal	ra,2280 <delay_us>
    3d44:	45c42783          	lw	a5,1116(s0)
    3d48:	4601                	c.li	a2,0
    3d4a:	4581                	c.li	a1,0
    3d4c:	4509                	c.li	a0,2
    3d4e:	9782                	c.jalr	a5
    3d50:	19240783          	lb	a5,402(s0)
    3d54:	0ff7f793          	andi	a5,a5,255
    3d58:	d7d5                	c.beqz	a5,3d04 <bls_ll_procRxPacket.constprop.14+0x22c>
    3d5a:	b53d                	c.j	3b88 <bls_ll_procRxPacket.constprop.14+0xb0>
    3d5c:	00600613          	li	a2,6
    3d60:	00c40593          	addi	a1,s0,12
    3d64:	4d640513          	addi	a0,s0,1238
    3d68:	20004097          	auipc	ra,0x20004
    3d6c:	2d0080e7          	jalr	720(ra) # 20008038 <memcmp>
    3d70:	ec0512e3          	bnez	a0,3c34 <bls_ll_procRxPacket.constprop.14+0x15c>
    3d74:	ec9ff06f          	j	3c3c <bls_ll_procRxPacket.constprop.14+0x164>
    3d78:	4d442503          	lw	a0,1236(s0)
    3d7c:	4d640593          	addi	a1,s0,1238
    3d80:	1865255b          	bfoz	a0,a0,6,6
    3d84:	9b9fe0ef          	jal	ra,273c <ll_searchAddr_in_WhiteList_and_ResolvingList>
    3d88:	f535                	c.bnez	a0,3cf4 <bls_ll_procRxPacket.constprop.14+0x21c>
    3d8a:	bbfd                	c.j	3b88 <bls_ll_procRxPacket.constprop.14+0xb0>

00003d8c <main>:
    3d8c:	7111                	c.addi16sp	sp,-256
    3d8e:	dda2                	c.swsp	s0,248(sp)
    3d90:	200057b7          	lui	a5,0x20005
    3d94:	00000437          	lui	s0,0x0
    3d98:	df86                	c.swsp	ra,252(sp)
    3d9a:	dba6                	c.swsp	s1,244(sp)
    3d9c:	d9ca                	c.swsp	s2,240(sp)
    3d9e:	d7ce                	c.swsp	s3,236(sp)
    3da0:	d5d2                	c.swsp	s4,232(sp)
    3da2:	d3d6                	c.swsp	s5,228(sp)
    3da4:	17840413          	addi	s0,s0,376 # 178 <_AES_VMA_END>
    3da8:	48478793          	addi	a5,a5,1156 # 20005484 <cpu_sleep_wakeup_32k_rc>
    3dac:	4cf42623          	sw	a5,1228(s0)
    3db0:	000027b7          	lui	a5,0x2
    3db4:	b0c78793          	addi	a5,a5,-1268 # 1b0c <pm_tim_recover_32k_rc>
    3db8:	4cf42423          	sw	a5,1224(s0)
    3dbc:	4785                	c.li	a5,1
    3dbe:	44f40323          	sb	a5,1094(s0)
    3dc2:	34c9                	c.jal	3884 <sys_init.constprop.18>
    3dc4:	85ff890b          	lbgp	s2,-1954 # 8005e <g_pm_status_info+0x2>
    3dc8:	d85fe0ef          	jal	ra,2b4c <clock_init.constprop.45>
    3dcc:	c39fe0ef          	jal	ra,2a04 <rf_drv_ble_init>
    3dd0:	801404b7          	lui	s1,0x80140
    3dd4:	807f87b7          	lui	a5,0x807f8
    3dd8:	30f4a023          	sw	a5,768(s1) # 80140300 <_DATA_LMA_START+0x60136cc8>
    3ddc:	008007b7          	lui	a5,0x800
    3de0:	f0078793          	addi	a5,a5,-256 # 7fff00 <FLASH_SIZE+0x6fff00>
    3de4:	30f4a223          	sw	a5,772(s1)
    3de8:	00ff0ab7          	lui	s5,0xff0
    3dec:	010009b7          	lui	s3,0x1000
    3df0:	f0098993          	addi	s3,s3,-256 # ffff00 <FLASH_SIZE+0xefff00>
    3df4:	3154a423          	sw	s5,776(s1)
    3df8:	4581                	c.li	a1,0
    3dfa:	0bd00513          	li	a0,189
    3dfe:	5a7d                	c.li	s4,-1
    3e00:	3134a623          	sw	s3,780(s1)
    3e04:	bc5fe0ef          	jal	ra,29c8 <analog_write_reg8>
    3e08:	0ff00593          	li	a1,255
    3e0c:	31448923          	sb	s4,786(s1)
    3e10:	0bf00513          	li	a0,191
    3e14:	300489a3          	sb	zero,787(s1)
    3e18:	bb1fe0ef          	jal	ra,29c8 <analog_write_reg8>
    3e1c:	00000593          	li	a1,0
    3e20:	0c000513          	li	a0,192
    3e24:	31448b23          	sb	s4,790(s1)
    3e28:	ba1fe0ef          	jal	ra,29c8 <analog_write_reg8>
    3e2c:	0ff00593          	li	a1,255
    3e30:	31448d23          	sb	s4,794(s1)
    3e34:	0c200513          	li	a0,194
    3e38:	30048da3          	sb	zero,795(s1)
    3e3c:	b8dfe0ef          	jal	ra,29c8 <analog_write_reg8>
    3e40:	31448f23          	sb	s4,798(s1)
    3e44:	3354a023          	sw	s5,800(s1)
    3e48:	00897913          	andi	s2,s2,8
    3e4c:	3334a223          	sw	s3,804(s1)
    3e50:	10090063          	beqz	s2,3f50 <main+0x1c4>
    3e54:	801404b7          	lui	s1,0x80140
    3e58:	30648783          	lb	a5,774(s1) # 80140306 <_DATA_LMA_START+0x60136cce>
    3e5c:	00100593          	li	a1,1
    3e60:	f807e793          	ori	a5,a5,-128
    3e64:	0ff7f793          	andi	a5,a5,255
    3e68:	30f48323          	sb	a5,774(s1)
    3e6c:	30248783          	lb	a5,770(s1)
    3e70:	08000513          	li	a0,128
    3e74:	07f7f793          	andi	a5,a5,127
    3e78:	30f48123          	sb	a5,770(s1)
    3e7c:	20002097          	auipc	ra,0x20002
    3e80:	ba0080e7          	jalr	-1120(ra) # 20005a1c <gpio_set_up_down_res>
    3e84:	30348683          	lb	a3,771(s1)
    3e88:	200097b7          	lui	a5,0x20009
    3e8c:	39c78793          	addi	a5,a5,924 # 2000939c <days_in_month+0x3f0>
    3e90:	f806e693          	ori	a3,a3,-128
    3e94:	0ff6f693          	andi	a3,a3,255
    3e98:	01010713          	addi	a4,sp,16
    3e9c:	0cc78613          	addi	a2,a5,204
    3ea0:	30d481a3          	sb	a3,771(s1)
    3ea4:	4388                	c.lw	a0,0(a5)
    3ea6:	43cc                	c.lw	a1,4(a5)
    3ea8:	4794                	c.lw	a3,8(a5)
    3eaa:	c308                	c.sw	a0,0(a4)
    3eac:	c34c                	c.sw	a1,4(a4)
    3eae:	c714                	c.sw	a3,8(a4)
    3eb0:	07b1                	c.addi	a5,12
    3eb2:	0731                	c.addi	a4,12
    3eb4:	fec798e3          	bne	a5,a2,3ea4 <main+0x118>
    3eb8:	439c                	c.lw	a5,0(a5)
    3eba:	20009537          	lui	a0,0x20009
    3ebe:	09450513          	addi	a0,a0,148 # 20009094 <days_in_month+0xe8>
    3ec2:	c31c                	c.sw	a5,0(a4)
    3ec4:	20004097          	auipc	ra,0x20004
    3ec8:	368080e7          	jalr	872(ra) # 2000822c <printf>
    3ecc:	4881                	c.li	a7,0
    3ece:	4801                	c.li	a6,0
    3ed0:	4781                	c.li	a5,0
    3ed2:	4705                	c.li	a4,1
    3ed4:	4681                	c.li	a3,0
    3ed6:	4601                	c.li	a2,0
    3ed8:	4581                	c.li	a1,0
    3eda:	0808                	c.addi4spn	a0,sp,16
    3edc:	c202                	c.swsp	zero,4(sp)
    3ede:	c002                	c.swsp	zero,0(sp)
    3ee0:	20004097          	auipc	ra,0x20004
    3ee4:	34c080e7          	jalr	844(ra) # 2000822c <printf>
    3ee8:	20009537          	lui	a0,0x20009
    3eec:	06450513          	addi	a0,a0,100 # 20009064 <days_in_month+0xb8>
    3ef0:	20004097          	auipc	ra,0x20004
    3ef4:	33c080e7          	jalr	828(ra) # 2000822c <printf>
    3ef8:	0a090863          	beqz	s2,3fa8 <main+0x21c>
    3efc:	3f442503          	lw	a0,1012(s0)
    3f00:	0a051c63          	bnez	a0,3fb8 <main+0x22c>
    3f04:	300467f3          	csrrsi	a5,mstatus,8
    3f08:	6785                	c.lui	a5,0x1
    3f0a:	88878793          	addi	a5,a5,-1912 # 888 <smpOwnParingConfirm+0x8>
    3f0e:	3047a7f3          	csrrs	a5,mie,a5
    3f12:	849fa78b          	lbugp	a5,-1976 # 80048 <sys_clk+0x4>
    3f16:	004c5737          	lui	a4,0x4c5
    3f1a:	b4070713          	addi	a4,a4,-1216 # 4c4b40 <FLASH_SIZE+0x3c4b40>
    3f1e:	02e787b3          	mul	a5,a5,a4
    3f22:	80140737          	lui	a4,0x80140
    3f26:	801404b7          	lui	s1,0x80140
    3f2a:	4431                	c.li	s0,12
    3f2c:	14f72623          	sw	a5,332(a4) # 8014014c <_DATA_LMA_START+0x60136b14>
    3f30:	14270783          	lb	a5,322(a4)
    3f34:	f807e793          	ori	a5,a5,-128
    3f38:	0ff7f793          	andi	a5,a5,255
    3f3c:	14f70123          	sb	a5,322(a4)
    3f40:	20003097          	auipc	ra,0x20003
    3f44:	fd4080e7          	jalr	-44(ra) # 20006f14 <main_loop>
    3f48:	148481a3          	sb	s0,323(s1) # 80140143 <_DATA_LMA_START+0x60136b0b>
    3f4c:	ff5ff06f          	j	3f40 <main+0x1b4>
    3f50:	4581                	c.li	a1,0
    3f52:	4539                	c.li	a0,14
    3f54:	a75fe0ef          	jal	ra,29c8 <analog_write_reg8>
    3f58:	0c000593          	li	a1,192
    3f5c:	00f00513          	li	a0,15
    3f60:	a69fe0ef          	jal	ra,29c8 <analog_write_reg8>
    3f64:	4581                	c.li	a1,0
    3f66:	4541                	c.li	a0,16
    3f68:	a61fe0ef          	jal	ra,29c8 <analog_write_reg8>
    3f6c:	4581                	c.li	a1,0
    3f6e:	4545                	c.li	a0,17
    3f70:	a59fe0ef          	jal	ra,29c8 <analog_write_reg8>
    3f74:	4581                	c.li	a1,0
    3f76:	4549                	c.li	a0,18
    3f78:	a51fe0ef          	jal	ra,29c8 <analog_write_reg8>
    3f7c:	4581                	c.li	a1,0
    3f7e:	454d                	c.li	a0,19
    3f80:	a49fe0ef          	jal	ra,29c8 <analog_write_reg8>
    3f84:	4581                	c.li	a1,0
    3f86:	4551                	c.li	a0,20
    3f88:	a41fe0ef          	jal	ra,29c8 <analog_write_reg8>
    3f8c:	4581                	c.li	a1,0
    3f8e:	4555                	c.li	a0,21
    3f90:	a39fe0ef          	jal	ra,29c8 <analog_write_reg8>
    3f94:	4581                	c.li	a1,0
    3f96:	4559                	c.li	a0,22
    3f98:	a31fe0ef          	jal	ra,29c8 <analog_write_reg8>
    3f9c:	4581                	c.li	a1,0
    3f9e:	455d                	c.li	a0,23
    3fa0:	a29fe0ef          	jal	ra,29c8 <analog_write_reg8>
    3fa4:	eb1ff06f          	j	3e54 <main+0xc8>
    3fa8:	20001097          	auipc	ra,0x20001
    3fac:	708080e7          	jalr	1800(ra) # 200056b0 <blc_readFlashSize_autoConfigCustomFlashSector>
    3fb0:	3f442503          	lw	a0,1012(s0)
    3fb4:	08050863          	beqz	a0,4044 <main+0x2b8>
    3fb8:	44444783          	lbu	a5,1092(s0)
    3fbc:	ef85                	c.bnez	a5,3ff4 <main+0x268>
    3fbe:	54c42783          	lw	a5,1356(s0)
    3fc2:	0810                	c.addi4spn	a2,sp,16
    3fc4:	4585                	c.li	a1,1
    3fc6:	9782                	c.jalr	a5
    3fc8:	01014703          	lbu	a4,16(sp)
    3fcc:	0ff00793          	li	a5,255
    3fd0:	02f70263          	beq	a4,a5,3ff4 <main+0x268>
    3fd4:	08a00513          	li	a0,138
    3fd8:	b31fe0ef          	jal	ra,2b08 <analog_read_reg8>
    3fdc:	01010783          	lb	a5,16(sp)
    3fe0:	0c057593          	andi	a1,a0,192
    3fe4:	03f7f793          	andi	a5,a5,63
    3fe8:	08a00513          	li	a0,138
    3fec:	00f5e5b3          	or	a1,a1,a5
    3ff0:	9d9fe0ef          	jal	ra,29c8 <analog_write_reg8>
    3ff4:	44c45783          	lhu	a5,1100(s0)
    3ff8:	c802                	c.swsp	zero,16(sp)
    3ffa:	00011a23          	sh	zero,20(sp)
    3ffe:	00010b23          	sb	zero,22(sp)
    4002:	cf9d                	c.beqz	a5,4040 <main+0x2b4>
    4004:	3f442503          	lw	a0,1012(s0)
    4008:	54c42783          	lw	a5,1356(s0)
    400c:	0810                	c.addi4spn	a2,sp,16
    400e:	459d                	c.li	a1,7
    4010:	0c050513          	addi	a0,a0,192
    4014:	9782                	c.jalr	a5
    4016:	01414703          	lbu	a4,20(sp)
    401a:	0ff00793          	li	a5,255
    401e:	04f70363          	beq	a4,a5,4064 <main+0x2d8>
    4022:	01614783          	lbu	a5,22(sp)
    4026:	66c1                	c.lui	a3,0x10
    4028:	01515583          	lhu	a1,21(sp)
    402c:	16fd                	c.addi	a3,-1
    402e:	07a2                	c.slli	a5,0x8
    4030:	01514603          	lbu	a2,21(sp)
    4034:	02d58863          	beq	a1,a3,4064 <main+0x2d8>
    4038:	1c0736db          	bfos	a3,a4,7,0
    403c:	0006da63          	bgez	a3,4050 <main+0x2c4>
    4040:	ec0912e3          	bnez	s2,3f04 <main+0x178>
    4044:	20003097          	auipc	ra,0x20003
    4048:	630080e7          	jalr	1584(ra) # 20007674 <user_init_normal>
    404c:	eb9ff06f          	j	3f04 <main+0x178>
    4050:	8fd1                	c.or	a5,a2
    4052:	3e878793          	addi	a5,a5,1000
    4056:	1731                	c.addi	a4,-20
    4058:	44f41423          	sh	a5,1096(s0)
    405c:	44e41523          	sh	a4,1098(s0)
    4060:	fe1ff06f          	j	4040 <main+0x2b4>
    4064:	44744783          	lbu	a5,1095(s0)
    4068:	ffe1                	c.bnez	a5,4040 <main+0x2b4>
    406a:	6741                	c.lui	a4,0x10
    406c:	01015603          	lhu	a2,16(sp)
    4070:	177d                	c.addi	a4,-1
    4072:	01114683          	lbu	a3,17(sp)
    4076:	01014783          	lbu	a5,16(sp)
    407a:	fce603e3          	beq	a2,a4,4040 <main+0x2b4>
    407e:	97b6                	c.add	a5,a3
    4080:	39878713          	addi	a4,a5,920
    4084:	f8078793          	addi	a5,a5,-128
    4088:	44e41423          	sh	a4,1096(s0)
    408c:	3c07a7db          	bfoz	a5,a5,15,0
    4090:	0fd00713          	li	a4,253
    4094:	faf776e3          	bgeu	a4,a5,4040 <main+0x2b4>
    4098:	49700793          	li	a5,1175
    409c:	44f41423          	sh	a5,1096(s0)
    40a0:	fa1ff06f          	j	4040 <main+0x2b4>

000040a4 <entry_irq63>:
    40a4:	1141                	c.addi	sp,-16
    40a6:	c632                	c.swsp	a2,12(sp)
    40a8:	c436                	c.swsp	a3,8(sp)
    40aa:	c23a                	c.swsp	a4,4(sp)
    40ac:	c03e                	c.swsp	a5,0(sp)
    40ae:	34102773          	csrr	a4,mepc
    40b2:	300026f3          	csrr	a3,mstatus
    40b6:	7c4027f3          	csrr	a5,mxstatus
    40ba:	30046673          	csrrsi	a2,mstatus,8
    40be:	30047673          	csrrci	a2,mstatus,8
    40c2:	30069073          	csrw	mstatus,a3
    40c6:	34171073          	csrw	mepc,a4
    40ca:	7c479073          	csrw	mxstatus,a5
    40ce:	e42007b7          	lui	a5,0xe4200
    40d2:	03f00713          	li	a4,63
    40d6:	c3d8                	c.sw	a4,4(a5)
    40d8:	0ff0000f          	fence
    40dc:	4632                	c.lwsp	a2,12(sp)
    40de:	46a2                	c.lwsp	a3,8(sp)
    40e0:	4712                	c.lwsp	a4,4(sp)
    40e2:	4782                	c.lwsp	a5,0(sp)
    40e4:	01010113          	addi	sp,sp,16
    40e8:	30200073          	mret

000040ec <entry_irq62>:
    40ec:	1141                	c.addi	sp,-16
    40ee:	c632                	c.swsp	a2,12(sp)
    40f0:	c436                	c.swsp	a3,8(sp)
    40f2:	c23a                	c.swsp	a4,4(sp)
    40f4:	c03e                	c.swsp	a5,0(sp)
    40f6:	34102773          	csrr	a4,mepc
    40fa:	300026f3          	csrr	a3,mstatus
    40fe:	7c4027f3          	csrr	a5,mxstatus
    4102:	30046673          	csrrsi	a2,mstatus,8
    4106:	30047673          	csrrci	a2,mstatus,8
    410a:	30069073          	csrw	mstatus,a3
    410e:	34171073          	csrw	mepc,a4
    4112:	7c479073          	csrw	mxstatus,a5
    4116:	e42007b7          	lui	a5,0xe4200
    411a:	03e00713          	li	a4,62
    411e:	c3d8                	c.sw	a4,4(a5)
    4120:	0ff0000f          	fence
    4124:	4632                	c.lwsp	a2,12(sp)
    4126:	46a2                	c.lwsp	a3,8(sp)
    4128:	4712                	c.lwsp	a4,4(sp)
    412a:	4782                	c.lwsp	a5,0(sp)
    412c:	01010113          	addi	sp,sp,16
    4130:	30200073          	mret

00004134 <entry_irq61>:
    4134:	1141                	c.addi	sp,-16
    4136:	c632                	c.swsp	a2,12(sp)
    4138:	c436                	c.swsp	a3,8(sp)
    413a:	c23a                	c.swsp	a4,4(sp)
    413c:	c03e                	c.swsp	a5,0(sp)
    413e:	34102773          	csrr	a4,mepc
    4142:	300026f3          	csrr	a3,mstatus
    4146:	7c4027f3          	csrr	a5,mxstatus
    414a:	30046673          	csrrsi	a2,mstatus,8
    414e:	30047673          	csrrci	a2,mstatus,8
    4152:	30069073          	csrw	mstatus,a3
    4156:	34171073          	csrw	mepc,a4
    415a:	7c479073          	csrw	mxstatus,a5
    415e:	e42007b7          	lui	a5,0xe4200
    4162:	03d00713          	li	a4,61
    4166:	c3d8                	c.sw	a4,4(a5)
    4168:	0ff0000f          	fence
    416c:	4632                	c.lwsp	a2,12(sp)
    416e:	46a2                	c.lwsp	a3,8(sp)
    4170:	4712                	c.lwsp	a4,4(sp)
    4172:	4782                	c.lwsp	a5,0(sp)
    4174:	01010113          	addi	sp,sp,16
    4178:	30200073          	mret

0000417c <entry_irq60>:
    417c:	1141                	c.addi	sp,-16
    417e:	c632                	c.swsp	a2,12(sp)
    4180:	c436                	c.swsp	a3,8(sp)
    4182:	c23a                	c.swsp	a4,4(sp)
    4184:	c03e                	c.swsp	a5,0(sp)
    4186:	34102773          	csrr	a4,mepc
    418a:	300026f3          	csrr	a3,mstatus
    418e:	7c4027f3          	csrr	a5,mxstatus
    4192:	30046673          	csrrsi	a2,mstatus,8
    4196:	30047673          	csrrci	a2,mstatus,8
    419a:	30069073          	csrw	mstatus,a3
    419e:	34171073          	csrw	mepc,a4
    41a2:	7c479073          	csrw	mxstatus,a5
    41a6:	e42007b7          	lui	a5,0xe4200
    41aa:	03c00713          	li	a4,60
    41ae:	c3d8                	c.sw	a4,4(a5)
    41b0:	0ff0000f          	fence
    41b4:	4632                	c.lwsp	a2,12(sp)
    41b6:	46a2                	c.lwsp	a3,8(sp)
    41b8:	4712                	c.lwsp	a4,4(sp)
    41ba:	4782                	c.lwsp	a5,0(sp)
    41bc:	01010113          	addi	sp,sp,16
    41c0:	30200073          	mret

000041c4 <entry_irq59>:
    41c4:	1141                	c.addi	sp,-16
    41c6:	c632                	c.swsp	a2,12(sp)
    41c8:	c436                	c.swsp	a3,8(sp)
    41ca:	c23a                	c.swsp	a4,4(sp)
    41cc:	c03e                	c.swsp	a5,0(sp)
    41ce:	34102773          	csrr	a4,mepc
    41d2:	300026f3          	csrr	a3,mstatus
    41d6:	7c4027f3          	csrr	a5,mxstatus
    41da:	30046673          	csrrsi	a2,mstatus,8
    41de:	30047673          	csrrci	a2,mstatus,8
    41e2:	30069073          	csrw	mstatus,a3
    41e6:	34171073          	csrw	mepc,a4
    41ea:	7c479073          	csrw	mxstatus,a5
    41ee:	e42007b7          	lui	a5,0xe4200
    41f2:	03b00713          	li	a4,59
    41f6:	c3d8                	c.sw	a4,4(a5)
    41f8:	0ff0000f          	fence
    41fc:	4632                	c.lwsp	a2,12(sp)
    41fe:	46a2                	c.lwsp	a3,8(sp)
    4200:	4712                	c.lwsp	a4,4(sp)
    4202:	4782                	c.lwsp	a5,0(sp)
    4204:	01010113          	addi	sp,sp,16
    4208:	30200073          	mret

0000420c <entry_irq58>:
    420c:	1141                	c.addi	sp,-16
    420e:	c632                	c.swsp	a2,12(sp)
    4210:	c436                	c.swsp	a3,8(sp)
    4212:	c23a                	c.swsp	a4,4(sp)
    4214:	c03e                	c.swsp	a5,0(sp)
    4216:	34102773          	csrr	a4,mepc
    421a:	300026f3          	csrr	a3,mstatus
    421e:	7c4027f3          	csrr	a5,mxstatus
    4222:	30046673          	csrrsi	a2,mstatus,8
    4226:	30047673          	csrrci	a2,mstatus,8
    422a:	30069073          	csrw	mstatus,a3
    422e:	34171073          	csrw	mepc,a4
    4232:	7c479073          	csrw	mxstatus,a5
    4236:	e42007b7          	lui	a5,0xe4200
    423a:	03a00713          	li	a4,58
    423e:	c3d8                	c.sw	a4,4(a5)
    4240:	0ff0000f          	fence
    4244:	4632                	c.lwsp	a2,12(sp)
    4246:	46a2                	c.lwsp	a3,8(sp)
    4248:	4712                	c.lwsp	a4,4(sp)
    424a:	4782                	c.lwsp	a5,0(sp)
    424c:	01010113          	addi	sp,sp,16
    4250:	30200073          	mret

00004254 <entry_irq57>:
    4254:	1141                	c.addi	sp,-16
    4256:	c632                	c.swsp	a2,12(sp)
    4258:	c436                	c.swsp	a3,8(sp)
    425a:	c23a                	c.swsp	a4,4(sp)
    425c:	c03e                	c.swsp	a5,0(sp)
    425e:	34102773          	csrr	a4,mepc
    4262:	300026f3          	csrr	a3,mstatus
    4266:	7c4027f3          	csrr	a5,mxstatus
    426a:	30046673          	csrrsi	a2,mstatus,8
    426e:	30047673          	csrrci	a2,mstatus,8
    4272:	30069073          	csrw	mstatus,a3
    4276:	34171073          	csrw	mepc,a4
    427a:	7c479073          	csrw	mxstatus,a5
    427e:	e42007b7          	lui	a5,0xe4200
    4282:	03900713          	li	a4,57
    4286:	c3d8                	c.sw	a4,4(a5)
    4288:	0ff0000f          	fence
    428c:	4632                	c.lwsp	a2,12(sp)
    428e:	46a2                	c.lwsp	a3,8(sp)
    4290:	4712                	c.lwsp	a4,4(sp)
    4292:	4782                	c.lwsp	a5,0(sp)
    4294:	01010113          	addi	sp,sp,16
    4298:	30200073          	mret

0000429c <entry_irq56>:
    429c:	1141                	c.addi	sp,-16
    429e:	c632                	c.swsp	a2,12(sp)
    42a0:	c436                	c.swsp	a3,8(sp)
    42a2:	c23a                	c.swsp	a4,4(sp)
    42a4:	c03e                	c.swsp	a5,0(sp)
    42a6:	34102773          	csrr	a4,mepc
    42aa:	300026f3          	csrr	a3,mstatus
    42ae:	7c4027f3          	csrr	a5,mxstatus
    42b2:	30046673          	csrrsi	a2,mstatus,8
    42b6:	30047673          	csrrci	a2,mstatus,8
    42ba:	30069073          	csrw	mstatus,a3
    42be:	34171073          	csrw	mepc,a4
    42c2:	7c479073          	csrw	mxstatus,a5
    42c6:	e42007b7          	lui	a5,0xe4200
    42ca:	03800713          	li	a4,56
    42ce:	c3d8                	c.sw	a4,4(a5)
    42d0:	0ff0000f          	fence
    42d4:	4632                	c.lwsp	a2,12(sp)
    42d6:	46a2                	c.lwsp	a3,8(sp)
    42d8:	4712                	c.lwsp	a4,4(sp)
    42da:	4782                	c.lwsp	a5,0(sp)
    42dc:	01010113          	addi	sp,sp,16
    42e0:	30200073          	mret

000042e4 <entry_irq55>:
    42e4:	1141                	c.addi	sp,-16
    42e6:	c632                	c.swsp	a2,12(sp)
    42e8:	c436                	c.swsp	a3,8(sp)
    42ea:	c23a                	c.swsp	a4,4(sp)
    42ec:	c03e                	c.swsp	a5,0(sp)
    42ee:	34102773          	csrr	a4,mepc
    42f2:	300026f3          	csrr	a3,mstatus
    42f6:	7c4027f3          	csrr	a5,mxstatus
    42fa:	30046673          	csrrsi	a2,mstatus,8
    42fe:	30047673          	csrrci	a2,mstatus,8
    4302:	30069073          	csrw	mstatus,a3
    4306:	34171073          	csrw	mepc,a4
    430a:	7c479073          	csrw	mxstatus,a5
    430e:	e42007b7          	lui	a5,0xe4200
    4312:	03700713          	li	a4,55
    4316:	c3d8                	c.sw	a4,4(a5)
    4318:	0ff0000f          	fence
    431c:	4632                	c.lwsp	a2,12(sp)
    431e:	46a2                	c.lwsp	a3,8(sp)
    4320:	4712                	c.lwsp	a4,4(sp)
    4322:	4782                	c.lwsp	a5,0(sp)
    4324:	01010113          	addi	sp,sp,16
    4328:	30200073          	mret

0000432c <entry_irq54>:
    432c:	1141                	c.addi	sp,-16
    432e:	c632                	c.swsp	a2,12(sp)
    4330:	c436                	c.swsp	a3,8(sp)
    4332:	c23a                	c.swsp	a4,4(sp)
    4334:	c03e                	c.swsp	a5,0(sp)
    4336:	34102773          	csrr	a4,mepc
    433a:	300026f3          	csrr	a3,mstatus
    433e:	7c4027f3          	csrr	a5,mxstatus
    4342:	30046673          	csrrsi	a2,mstatus,8
    4346:	30047673          	csrrci	a2,mstatus,8
    434a:	30069073          	csrw	mstatus,a3
    434e:	34171073          	csrw	mepc,a4
    4352:	7c479073          	csrw	mxstatus,a5
    4356:	e42007b7          	lui	a5,0xe4200
    435a:	03600713          	li	a4,54
    435e:	c3d8                	c.sw	a4,4(a5)
    4360:	0ff0000f          	fence
    4364:	4632                	c.lwsp	a2,12(sp)
    4366:	46a2                	c.lwsp	a3,8(sp)
    4368:	4712                	c.lwsp	a4,4(sp)
    436a:	4782                	c.lwsp	a5,0(sp)
    436c:	01010113          	addi	sp,sp,16
    4370:	30200073          	mret

00004374 <entry_irq53>:
    4374:	1141                	c.addi	sp,-16
    4376:	c632                	c.swsp	a2,12(sp)
    4378:	c436                	c.swsp	a3,8(sp)
    437a:	c23a                	c.swsp	a4,4(sp)
    437c:	c03e                	c.swsp	a5,0(sp)
    437e:	34102773          	csrr	a4,mepc
    4382:	300026f3          	csrr	a3,mstatus
    4386:	7c4027f3          	csrr	a5,mxstatus
    438a:	30046673          	csrrsi	a2,mstatus,8
    438e:	30047673          	csrrci	a2,mstatus,8
    4392:	30069073          	csrw	mstatus,a3
    4396:	34171073          	csrw	mepc,a4
    439a:	7c479073          	csrw	mxstatus,a5
    439e:	e42007b7          	lui	a5,0xe4200
    43a2:	03500713          	li	a4,53
    43a6:	c3d8                	c.sw	a4,4(a5)
    43a8:	0ff0000f          	fence
    43ac:	4632                	c.lwsp	a2,12(sp)
    43ae:	46a2                	c.lwsp	a3,8(sp)
    43b0:	4712                	c.lwsp	a4,4(sp)
    43b2:	4782                	c.lwsp	a5,0(sp)
    43b4:	01010113          	addi	sp,sp,16
    43b8:	30200073          	mret

000043bc <entry_irq52>:
    43bc:	1141                	c.addi	sp,-16
    43be:	c632                	c.swsp	a2,12(sp)
    43c0:	c436                	c.swsp	a3,8(sp)
    43c2:	c23a                	c.swsp	a4,4(sp)
    43c4:	c03e                	c.swsp	a5,0(sp)
    43c6:	34102773          	csrr	a4,mepc
    43ca:	300026f3          	csrr	a3,mstatus
    43ce:	7c4027f3          	csrr	a5,mxstatus
    43d2:	30046673          	csrrsi	a2,mstatus,8
    43d6:	30047673          	csrrci	a2,mstatus,8
    43da:	30069073          	csrw	mstatus,a3
    43de:	34171073          	csrw	mepc,a4
    43e2:	7c479073          	csrw	mxstatus,a5
    43e6:	e42007b7          	lui	a5,0xe4200
    43ea:	03400713          	li	a4,52
    43ee:	c3d8                	c.sw	a4,4(a5)
    43f0:	0ff0000f          	fence
    43f4:	4632                	c.lwsp	a2,12(sp)
    43f6:	46a2                	c.lwsp	a3,8(sp)
    43f8:	4712                	c.lwsp	a4,4(sp)
    43fa:	4782                	c.lwsp	a5,0(sp)
    43fc:	01010113          	addi	sp,sp,16
    4400:	30200073          	mret

00004404 <entry_irq51>:
    4404:	1141                	c.addi	sp,-16
    4406:	c632                	c.swsp	a2,12(sp)
    4408:	c436                	c.swsp	a3,8(sp)
    440a:	c23a                	c.swsp	a4,4(sp)
    440c:	c03e                	c.swsp	a5,0(sp)
    440e:	34102773          	csrr	a4,mepc
    4412:	300026f3          	csrr	a3,mstatus
    4416:	7c4027f3          	csrr	a5,mxstatus
    441a:	30046673          	csrrsi	a2,mstatus,8
    441e:	30047673          	csrrci	a2,mstatus,8
    4422:	30069073          	csrw	mstatus,a3
    4426:	34171073          	csrw	mepc,a4
    442a:	7c479073          	csrw	mxstatus,a5
    442e:	e42007b7          	lui	a5,0xe4200
    4432:	03300713          	li	a4,51
    4436:	c3d8                	c.sw	a4,4(a5)
    4438:	0ff0000f          	fence
    443c:	4632                	c.lwsp	a2,12(sp)
    443e:	46a2                	c.lwsp	a3,8(sp)
    4440:	4712                	c.lwsp	a4,4(sp)
    4442:	4782                	c.lwsp	a5,0(sp)
    4444:	01010113          	addi	sp,sp,16
    4448:	30200073          	mret

0000444c <entry_irq50>:
    444c:	1141                	c.addi	sp,-16
    444e:	c632                	c.swsp	a2,12(sp)
    4450:	c436                	c.swsp	a3,8(sp)
    4452:	c23a                	c.swsp	a4,4(sp)
    4454:	c03e                	c.swsp	a5,0(sp)
    4456:	34102773          	csrr	a4,mepc
    445a:	300026f3          	csrr	a3,mstatus
    445e:	7c4027f3          	csrr	a5,mxstatus
    4462:	30046673          	csrrsi	a2,mstatus,8
    4466:	30047673          	csrrci	a2,mstatus,8
    446a:	30069073          	csrw	mstatus,a3
    446e:	34171073          	csrw	mepc,a4
    4472:	7c479073          	csrw	mxstatus,a5
    4476:	e42007b7          	lui	a5,0xe4200
    447a:	03200713          	li	a4,50
    447e:	c3d8                	c.sw	a4,4(a5)
    4480:	0ff0000f          	fence
    4484:	4632                	c.lwsp	a2,12(sp)
    4486:	46a2                	c.lwsp	a3,8(sp)
    4488:	4712                	c.lwsp	a4,4(sp)
    448a:	4782                	c.lwsp	a5,0(sp)
    448c:	01010113          	addi	sp,sp,16
    4490:	30200073          	mret

00004494 <entry_irq49>:
    4494:	30200073          	mret

00004498 <entry_irq48>:
    4498:	30200073          	mret

0000449c <entry_irq47>:
    449c:	30200073          	mret

000044a0 <entry_irq46>:
    44a0:	1141                	c.addi	sp,-16
    44a2:	c632                	c.swsp	a2,12(sp)
    44a4:	c436                	c.swsp	a3,8(sp)
    44a6:	c23a                	c.swsp	a4,4(sp)
    44a8:	c03e                	c.swsp	a5,0(sp)
    44aa:	34102773          	csrr	a4,mepc
    44ae:	300026f3          	csrr	a3,mstatus
    44b2:	7c4027f3          	csrr	a5,mxstatus
    44b6:	30046673          	csrrsi	a2,mstatus,8
    44ba:	30047673          	csrrci	a2,mstatus,8
    44be:	30069073          	csrw	mstatus,a3
    44c2:	34171073          	csrw	mepc,a4
    44c6:	7c479073          	csrw	mxstatus,a5
    44ca:	e42007b7          	lui	a5,0xe4200
    44ce:	02e00713          	li	a4,46
    44d2:	c3d8                	c.sw	a4,4(a5)
    44d4:	0ff0000f          	fence
    44d8:	4632                	c.lwsp	a2,12(sp)
    44da:	46a2                	c.lwsp	a3,8(sp)
    44dc:	4712                	c.lwsp	a4,4(sp)
    44de:	4782                	c.lwsp	a5,0(sp)
    44e0:	01010113          	addi	sp,sp,16
    44e4:	30200073          	mret

000044e8 <entry_irq45>:
    44e8:	30200073          	mret

000044ec <entry_irq44>:
    44ec:	1141                	c.addi	sp,-16
    44ee:	c632                	c.swsp	a2,12(sp)
    44f0:	c436                	c.swsp	a3,8(sp)
    44f2:	c23a                	c.swsp	a4,4(sp)
    44f4:	c03e                	c.swsp	a5,0(sp)
    44f6:	34102773          	csrr	a4,mepc
    44fa:	300026f3          	csrr	a3,mstatus
    44fe:	7c4027f3          	csrr	a5,mxstatus
    4502:	30046673          	csrrsi	a2,mstatus,8
    4506:	30047673          	csrrci	a2,mstatus,8
    450a:	30069073          	csrw	mstatus,a3
    450e:	34171073          	csrw	mepc,a4
    4512:	7c479073          	csrw	mxstatus,a5
    4516:	e42007b7          	lui	a5,0xe4200
    451a:	02c00713          	li	a4,44
    451e:	c3d8                	c.sw	a4,4(a5)
    4520:	0ff0000f          	fence
    4524:	4632                	c.lwsp	a2,12(sp)
    4526:	46a2                	c.lwsp	a3,8(sp)
    4528:	4712                	c.lwsp	a4,4(sp)
    452a:	4782                	c.lwsp	a5,0(sp)
    452c:	01010113          	addi	sp,sp,16
    4530:	30200073          	mret

00004534 <entry_irq43>:
    4534:	1141                	c.addi	sp,-16
    4536:	c632                	c.swsp	a2,12(sp)
    4538:	c436                	c.swsp	a3,8(sp)
    453a:	c23a                	c.swsp	a4,4(sp)
    453c:	c03e                	c.swsp	a5,0(sp)
    453e:	34102773          	csrr	a4,mepc
    4542:	300026f3          	csrr	a3,mstatus
    4546:	7c4027f3          	csrr	a5,mxstatus
    454a:	30046673          	csrrsi	a2,mstatus,8
    454e:	30047673          	csrrci	a2,mstatus,8
    4552:	30069073          	csrw	mstatus,a3
    4556:	34171073          	csrw	mepc,a4
    455a:	7c479073          	csrw	mxstatus,a5
    455e:	e42007b7          	lui	a5,0xe4200
    4562:	02b00713          	li	a4,43
    4566:	c3d8                	c.sw	a4,4(a5)
    4568:	0ff0000f          	fence
    456c:	4632                	c.lwsp	a2,12(sp)
    456e:	46a2                	c.lwsp	a3,8(sp)
    4570:	4712                	c.lwsp	a4,4(sp)
    4572:	4782                	c.lwsp	a5,0(sp)
    4574:	01010113          	addi	sp,sp,16
    4578:	30200073          	mret

0000457c <entry_irq42>:
    457c:	1141                	c.addi	sp,-16
    457e:	c632                	c.swsp	a2,12(sp)
    4580:	c436                	c.swsp	a3,8(sp)
    4582:	c23a                	c.swsp	a4,4(sp)
    4584:	c03e                	c.swsp	a5,0(sp)
    4586:	34102773          	csrr	a4,mepc
    458a:	300026f3          	csrr	a3,mstatus
    458e:	7c4027f3          	csrr	a5,mxstatus
    4592:	30046673          	csrrsi	a2,mstatus,8
    4596:	30047673          	csrrci	a2,mstatus,8
    459a:	30069073          	csrw	mstatus,a3
    459e:	34171073          	csrw	mepc,a4
    45a2:	7c479073          	csrw	mxstatus,a5
    45a6:	e42007b7          	lui	a5,0xe4200
    45aa:	02a00713          	li	a4,42
    45ae:	c3d8                	c.sw	a4,4(a5)
    45b0:	0ff0000f          	fence
    45b4:	4632                	c.lwsp	a2,12(sp)
    45b6:	46a2                	c.lwsp	a3,8(sp)
    45b8:	4712                	c.lwsp	a4,4(sp)
    45ba:	4782                	c.lwsp	a5,0(sp)
    45bc:	01010113          	addi	sp,sp,16
    45c0:	30200073          	mret

000045c4 <entry_irq41>:
    45c4:	30200073          	mret

000045c8 <entry_irq40>:
    45c8:	30200073          	mret

000045cc <entry_irq39>:
    45cc:	30200073          	mret

000045d0 <entry_irq38>:
    45d0:	30200073          	mret

000045d4 <entry_irq37>:
    45d4:	1141                	c.addi	sp,-16
    45d6:	c632                	c.swsp	a2,12(sp)
    45d8:	c436                	c.swsp	a3,8(sp)
    45da:	c23a                	c.swsp	a4,4(sp)
    45dc:	c03e                	c.swsp	a5,0(sp)
    45de:	34102773          	csrr	a4,mepc
    45e2:	300026f3          	csrr	a3,mstatus
    45e6:	7c4027f3          	csrr	a5,mxstatus
    45ea:	30046673          	csrrsi	a2,mstatus,8
    45ee:	30047673          	csrrci	a2,mstatus,8
    45f2:	30069073          	csrw	mstatus,a3
    45f6:	34171073          	csrw	mepc,a4
    45fa:	7c479073          	csrw	mxstatus,a5
    45fe:	e42007b7          	lui	a5,0xe4200
    4602:	02500713          	li	a4,37
    4606:	c3d8                	c.sw	a4,4(a5)
    4608:	0ff0000f          	fence
    460c:	4632                	c.lwsp	a2,12(sp)
    460e:	46a2                	c.lwsp	a3,8(sp)
    4610:	4712                	c.lwsp	a4,4(sp)
    4612:	4782                	c.lwsp	a5,0(sp)
    4614:	01010113          	addi	sp,sp,16
    4618:	30200073          	mret

0000461c <entry_irq36>:
    461c:	1141                	c.addi	sp,-16
    461e:	c632                	c.swsp	a2,12(sp)
    4620:	c436                	c.swsp	a3,8(sp)
    4622:	c23a                	c.swsp	a4,4(sp)
    4624:	c03e                	c.swsp	a5,0(sp)
    4626:	34102773          	csrr	a4,mepc
    462a:	300026f3          	csrr	a3,mstatus
    462e:	7c4027f3          	csrr	a5,mxstatus
    4632:	30046673          	csrrsi	a2,mstatus,8
    4636:	30047673          	csrrci	a2,mstatus,8
    463a:	30069073          	csrw	mstatus,a3
    463e:	34171073          	csrw	mepc,a4
    4642:	7c479073          	csrw	mxstatus,a5
    4646:	e42007b7          	lui	a5,0xe4200
    464a:	02400713          	li	a4,36
    464e:	c3d8                	c.sw	a4,4(a5)
    4650:	0ff0000f          	fence
    4654:	4632                	c.lwsp	a2,12(sp)
    4656:	46a2                	c.lwsp	a3,8(sp)
    4658:	4712                	c.lwsp	a4,4(sp)
    465a:	4782                	c.lwsp	a5,0(sp)
    465c:	01010113          	addi	sp,sp,16
    4660:	30200073          	mret

00004664 <entry_irq35>:
    4664:	1141                	c.addi	sp,-16
    4666:	c632                	c.swsp	a2,12(sp)
    4668:	c436                	c.swsp	a3,8(sp)
    466a:	c23a                	c.swsp	a4,4(sp)
    466c:	c03e                	c.swsp	a5,0(sp)
    466e:	34102773          	csrr	a4,mepc
    4672:	300026f3          	csrr	a3,mstatus
    4676:	7c4027f3          	csrr	a5,mxstatus
    467a:	30046673          	csrrsi	a2,mstatus,8
    467e:	30047673          	csrrci	a2,mstatus,8
    4682:	30069073          	csrw	mstatus,a3
    4686:	34171073          	csrw	mepc,a4
    468a:	7c479073          	csrw	mxstatus,a5
    468e:	e42007b7          	lui	a5,0xe4200
    4692:	02300713          	li	a4,35
    4696:	c3d8                	c.sw	a4,4(a5)
    4698:	0ff0000f          	fence
    469c:	4632                	c.lwsp	a2,12(sp)
    469e:	46a2                	c.lwsp	a3,8(sp)
    46a0:	4712                	c.lwsp	a4,4(sp)
    46a2:	4782                	c.lwsp	a5,0(sp)
    46a4:	01010113          	addi	sp,sp,16
    46a8:	30200073          	mret

000046ac <entry_irq34>:
    46ac:	1141                	c.addi	sp,-16
    46ae:	c632                	c.swsp	a2,12(sp)
    46b0:	c436                	c.swsp	a3,8(sp)
    46b2:	c23a                	c.swsp	a4,4(sp)
    46b4:	c03e                	c.swsp	a5,0(sp)
    46b6:	34102773          	csrr	a4,mepc
    46ba:	300026f3          	csrr	a3,mstatus
    46be:	7c4027f3          	csrr	a5,mxstatus
    46c2:	30046673          	csrrsi	a2,mstatus,8
    46c6:	30047673          	csrrci	a2,mstatus,8
    46ca:	30069073          	csrw	mstatus,a3
    46ce:	34171073          	csrw	mepc,a4
    46d2:	7c479073          	csrw	mxstatus,a5
    46d6:	e42007b7          	lui	a5,0xe4200
    46da:	02200713          	li	a4,34
    46de:	c3d8                	c.sw	a4,4(a5)
    46e0:	0ff0000f          	fence
    46e4:	4632                	c.lwsp	a2,12(sp)
    46e6:	46a2                	c.lwsp	a3,8(sp)
    46e8:	4712                	c.lwsp	a4,4(sp)
    46ea:	4782                	c.lwsp	a5,0(sp)
    46ec:	01010113          	addi	sp,sp,16
    46f0:	30200073          	mret

000046f4 <entry_irq33>:
    46f4:	1141                	c.addi	sp,-16
    46f6:	c632                	c.swsp	a2,12(sp)
    46f8:	c436                	c.swsp	a3,8(sp)
    46fa:	c23a                	c.swsp	a4,4(sp)
    46fc:	c03e                	c.swsp	a5,0(sp)
    46fe:	34102773          	csrr	a4,mepc
    4702:	300026f3          	csrr	a3,mstatus
    4706:	7c4027f3          	csrr	a5,mxstatus
    470a:	30046673          	csrrsi	a2,mstatus,8
    470e:	30047673          	csrrci	a2,mstatus,8
    4712:	30069073          	csrw	mstatus,a3
    4716:	34171073          	csrw	mepc,a4
    471a:	7c479073          	csrw	mxstatus,a5
    471e:	e42007b7          	lui	a5,0xe4200
    4722:	02100713          	li	a4,33
    4726:	c3d8                	c.sw	a4,4(a5)
    4728:	0ff0000f          	fence
    472c:	4632                	c.lwsp	a2,12(sp)
    472e:	46a2                	c.lwsp	a3,8(sp)
    4730:	4712                	c.lwsp	a4,4(sp)
    4732:	4782                	c.lwsp	a5,0(sp)
    4734:	01010113          	addi	sp,sp,16
    4738:	30200073          	mret

0000473c <entry_irq32>:
    473c:	1141                	c.addi	sp,-16
    473e:	c632                	c.swsp	a2,12(sp)
    4740:	c436                	c.swsp	a3,8(sp)
    4742:	c23a                	c.swsp	a4,4(sp)
    4744:	c03e                	c.swsp	a5,0(sp)
    4746:	34102773          	csrr	a4,mepc
    474a:	300026f3          	csrr	a3,mstatus
    474e:	7c4027f3          	csrr	a5,mxstatus
    4752:	30046673          	csrrsi	a2,mstatus,8
    4756:	30047673          	csrrci	a2,mstatus,8
    475a:	30069073          	csrw	mstatus,a3
    475e:	34171073          	csrw	mepc,a4
    4762:	7c479073          	csrw	mxstatus,a5
    4766:	e42007b7          	lui	a5,0xe4200
    476a:	02000713          	li	a4,32
    476e:	c3d8                	c.sw	a4,4(a5)
    4770:	0ff0000f          	fence
    4774:	4632                	c.lwsp	a2,12(sp)
    4776:	46a2                	c.lwsp	a3,8(sp)
    4778:	4712                	c.lwsp	a4,4(sp)
    477a:	4782                	c.lwsp	a5,0(sp)
    477c:	01010113          	addi	sp,sp,16
    4780:	30200073          	mret

00004784 <entry_irq31>:
    4784:	1141                	c.addi	sp,-16
    4786:	c632                	c.swsp	a2,12(sp)
    4788:	c436                	c.swsp	a3,8(sp)
    478a:	c23a                	c.swsp	a4,4(sp)
    478c:	c03e                	c.swsp	a5,0(sp)
    478e:	34102773          	csrr	a4,mepc
    4792:	300026f3          	csrr	a3,mstatus
    4796:	7c4027f3          	csrr	a5,mxstatus
    479a:	30046673          	csrrsi	a2,mstatus,8
    479e:	30047673          	csrrci	a2,mstatus,8
    47a2:	30069073          	csrw	mstatus,a3
    47a6:	34171073          	csrw	mepc,a4
    47aa:	7c479073          	csrw	mxstatus,a5
    47ae:	e42007b7          	lui	a5,0xe4200
    47b2:	477d                	c.li	a4,31
    47b4:	c3d8                	c.sw	a4,4(a5)
    47b6:	0ff0000f          	fence
    47ba:	4632                	c.lwsp	a2,12(sp)
    47bc:	46a2                	c.lwsp	a3,8(sp)
    47be:	4712                	c.lwsp	a4,4(sp)
    47c0:	4782                	c.lwsp	a5,0(sp)
    47c2:	0141                	c.addi	sp,16
    47c4:	30200073          	mret

000047c8 <entry_irq30>:
    47c8:	1141                	c.addi	sp,-16
    47ca:	c632                	c.swsp	a2,12(sp)
    47cc:	c436                	c.swsp	a3,8(sp)
    47ce:	c23a                	c.swsp	a4,4(sp)
    47d0:	c03e                	c.swsp	a5,0(sp)
    47d2:	34102773          	csrr	a4,mepc
    47d6:	300026f3          	csrr	a3,mstatus
    47da:	7c4027f3          	csrr	a5,mxstatus
    47de:	30046673          	csrrsi	a2,mstatus,8
    47e2:	30047673          	csrrci	a2,mstatus,8
    47e6:	30069073          	csrw	mstatus,a3
    47ea:	34171073          	csrw	mepc,a4
    47ee:	7c479073          	csrw	mxstatus,a5
    47f2:	e42007b7          	lui	a5,0xe4200
    47f6:	4779                	c.li	a4,30
    47f8:	c3d8                	c.sw	a4,4(a5)
    47fa:	0ff0000f          	fence
    47fe:	4632                	c.lwsp	a2,12(sp)
    4800:	46a2                	c.lwsp	a3,8(sp)
    4802:	4712                	c.lwsp	a4,4(sp)
    4804:	4782                	c.lwsp	a5,0(sp)
    4806:	0141                	c.addi	sp,16
    4808:	30200073          	mret

0000480c <entry_irq29>:
    480c:	1141                	c.addi	sp,-16
    480e:	c632                	c.swsp	a2,12(sp)
    4810:	c436                	c.swsp	a3,8(sp)
    4812:	c23a                	c.swsp	a4,4(sp)
    4814:	c03e                	c.swsp	a5,0(sp)
    4816:	34102773          	csrr	a4,mepc
    481a:	300026f3          	csrr	a3,mstatus
    481e:	7c4027f3          	csrr	a5,mxstatus
    4822:	30046673          	csrrsi	a2,mstatus,8
    4826:	30047673          	csrrci	a2,mstatus,8
    482a:	30069073          	csrw	mstatus,a3
    482e:	34171073          	csrw	mepc,a4
    4832:	7c479073          	csrw	mxstatus,a5
    4836:	e42007b7          	lui	a5,0xe4200
    483a:	4775                	c.li	a4,29
    483c:	c3d8                	c.sw	a4,4(a5)
    483e:	0ff0000f          	fence
    4842:	4632                	c.lwsp	a2,12(sp)
    4844:	46a2                	c.lwsp	a3,8(sp)
    4846:	4712                	c.lwsp	a4,4(sp)
    4848:	4782                	c.lwsp	a5,0(sp)
    484a:	0141                	c.addi	sp,16
    484c:	30200073          	mret

00004850 <entry_irq28>:
    4850:	1141                	c.addi	sp,-16
    4852:	c632                	c.swsp	a2,12(sp)
    4854:	c436                	c.swsp	a3,8(sp)
    4856:	c23a                	c.swsp	a4,4(sp)
    4858:	c03e                	c.swsp	a5,0(sp)
    485a:	34102773          	csrr	a4,mepc
    485e:	300026f3          	csrr	a3,mstatus
    4862:	7c4027f3          	csrr	a5,mxstatus
    4866:	30046673          	csrrsi	a2,mstatus,8
    486a:	30047673          	csrrci	a2,mstatus,8
    486e:	30069073          	csrw	mstatus,a3
    4872:	34171073          	csrw	mepc,a4
    4876:	7c479073          	csrw	mxstatus,a5
    487a:	e42007b7          	lui	a5,0xe4200
    487e:	4771                	c.li	a4,28
    4880:	c3d8                	c.sw	a4,4(a5)
    4882:	0ff0000f          	fence
    4886:	4632                	c.lwsp	a2,12(sp)
    4888:	46a2                	c.lwsp	a3,8(sp)
    488a:	4712                	c.lwsp	a4,4(sp)
    488c:	4782                	c.lwsp	a5,0(sp)
    488e:	0141                	c.addi	sp,16
    4890:	30200073          	mret

00004894 <entry_irq27>:
    4894:	1141                	c.addi	sp,-16
    4896:	c632                	c.swsp	a2,12(sp)
    4898:	c436                	c.swsp	a3,8(sp)
    489a:	c23a                	c.swsp	a4,4(sp)
    489c:	c03e                	c.swsp	a5,0(sp)
    489e:	34102773          	csrr	a4,mepc
    48a2:	300026f3          	csrr	a3,mstatus
    48a6:	7c4027f3          	csrr	a5,mxstatus
    48aa:	30046673          	csrrsi	a2,mstatus,8
    48ae:	30047673          	csrrci	a2,mstatus,8
    48b2:	30069073          	csrw	mstatus,a3
    48b6:	34171073          	csrw	mepc,a4
    48ba:	7c479073          	csrw	mxstatus,a5
    48be:	e42007b7          	lui	a5,0xe4200
    48c2:	476d                	c.li	a4,27
    48c4:	c3d8                	c.sw	a4,4(a5)
    48c6:	0ff0000f          	fence
    48ca:	4632                	c.lwsp	a2,12(sp)
    48cc:	46a2                	c.lwsp	a3,8(sp)
    48ce:	4712                	c.lwsp	a4,4(sp)
    48d0:	4782                	c.lwsp	a5,0(sp)
    48d2:	0141                	c.addi	sp,16
    48d4:	30200073          	mret

000048d8 <entry_irq26>:
    48d8:	1141                	c.addi	sp,-16
    48da:	c632                	c.swsp	a2,12(sp)
    48dc:	c436                	c.swsp	a3,8(sp)
    48de:	c23a                	c.swsp	a4,4(sp)
    48e0:	c03e                	c.swsp	a5,0(sp)
    48e2:	34102773          	csrr	a4,mepc
    48e6:	300026f3          	csrr	a3,mstatus
    48ea:	7c4027f3          	csrr	a5,mxstatus
    48ee:	30046673          	csrrsi	a2,mstatus,8
    48f2:	30047673          	csrrci	a2,mstatus,8
    48f6:	30069073          	csrw	mstatus,a3
    48fa:	34171073          	csrw	mepc,a4
    48fe:	7c479073          	csrw	mxstatus,a5
    4902:	e42007b7          	lui	a5,0xe4200
    4906:	4769                	c.li	a4,26
    4908:	c3d8                	c.sw	a4,4(a5)
    490a:	0ff0000f          	fence
    490e:	4632                	c.lwsp	a2,12(sp)
    4910:	46a2                	c.lwsp	a3,8(sp)
    4912:	4712                	c.lwsp	a4,4(sp)
    4914:	4782                	c.lwsp	a5,0(sp)
    4916:	0141                	c.addi	sp,16
    4918:	30200073          	mret

0000491c <entry_irq25>:
    491c:	1141                	c.addi	sp,-16
    491e:	c632                	c.swsp	a2,12(sp)
    4920:	c436                	c.swsp	a3,8(sp)
    4922:	c23a                	c.swsp	a4,4(sp)
    4924:	c03e                	c.swsp	a5,0(sp)
    4926:	34102773          	csrr	a4,mepc
    492a:	300026f3          	csrr	a3,mstatus
    492e:	7c4027f3          	csrr	a5,mxstatus
    4932:	30046673          	csrrsi	a2,mstatus,8
    4936:	30047673          	csrrci	a2,mstatus,8
    493a:	30069073          	csrw	mstatus,a3
    493e:	34171073          	csrw	mepc,a4
    4942:	7c479073          	csrw	mxstatus,a5
    4946:	e42007b7          	lui	a5,0xe4200
    494a:	4765                	c.li	a4,25
    494c:	c3d8                	c.sw	a4,4(a5)
    494e:	0ff0000f          	fence
    4952:	4632                	c.lwsp	a2,12(sp)
    4954:	46a2                	c.lwsp	a3,8(sp)
