
FrL_Network.elf:     file format elf32-littleriscv
FrL_Network.elf
architecture: riscv:rv32, flags 0x00000112:
EXEC_P, HAS_SYMS, D_PAGED
start address 0x20000000

Program Header:
    LOAD off    0x00001000 vaddr 0x20000000 paddr 0x20000000 align 2**12
         filesz 0x0000018a memsz 0x0000018a flags r-x
    LOAD off    0x00002000 vaddr 0x00000000 paddr 0x20000190 align 2**12
         filesz 0x00000158 memsz 0x00000178 flags rwx
    LOAD off    0x00002178 vaddr 0x00000178 paddr 0x200002e8 align 2**12
         filesz 0x00001114 memsz 0x00001114 flags rw-
    LOAD off    0x00003300 vaddr 0x00001300 paddr 0x20001400 align 2**12
         filesz 0x00005102 memsz 0x00005102 flags r-x
    LOAD off    0x00008508 vaddr 0x20006508 paddr 0x20006508 align 2**12
         filesz 0x0000bdf0 memsz 0x0000bdf0 flags r-x
    LOAD off    0x00015000 vaddr 0x00080000 paddr 0x200122f8 align 2**12
         filesz 0x000000ba memsz 0x00001740 flags rw-
0x70000000 off    0x00058a94 vaddr 0x00000000 paddr 0x00000000 align 2**0
         filesz 0x0000003b memsz 0x00000000 flags r--

Sections:
Idx Name          Size      VMA       LMA       File off  Algn
  0 .vectors      0000018a  20000000  20000000  00001000  2**2
                  CONTENTS, ALLOC, LOAD, READONLY, CODE
  1 .retention_reset 00000158  00000000  20000190  00002000  2**2
                  CONTENTS, ALLOC, LOAD, READONLY, CODE
  2 .aes_data     00000020  00000158  200002e8  00002158  2**2
                  ALLOC
  3 .retention_data 00001114  00000178  200002e8  00002178  2**2
                  CONTENTS, ALLOC, LOAD, DATA
  4 .ram_code     00005102  00001300  20001400  00003300  2**8
                  CONTENTS, ALLOC, LOAD, READONLY, CODE
  5 .text         0000a680  20006508  20006508  00008508  2**2
                  CONTENTS, ALLOC, LOAD, READONLY, CODE
  6 .rodata       00001664  20010b88  20010b88  00012b88  2**2
                  CONTENTS, ALLOC, LOAD, READONLY, DATA
  7 .eh_frame     000000f8  20012200  20012200  00014200  2**2
                  CONTENTS, ALLOC, LOAD, READONLY, DATA
  8 .data         000000ba  00080000  200122f8  00015000  2**2
                  CONTENTS, ALLOC, LOAD, DATA
  9 .sbss         00000034  000800c0  200123b8  000150ba  2**2
                  ALLOC
 10 .bss          0000164c  000800f4  200123ec  000150ba  2**2
                  ALLOC
 11 .debug_info   0001a8c4  00000000  00000000  000150ba  2**0
                  CONTENTS, READONLY, DEBUGGING
 12 .debug_abbrev 00000e6a  00000000  00000000  0002f97e  2**0
                  CONTENTS, READONLY, DEBUGGING
 13 .debug_loc    0000d7e4  00000000  00000000  000307e8  2**0
                  CONTENTS, READONLY, DEBUGGING
 14 .debug_aranges 00000758  00000000  00000000  0003dfd0  2**3
                  CONTENTS, READONLY, DEBUGGING
 15 .debug_ranges 00004660  00000000  00000000  0003e728  2**3
                  CONTENTS, READONLY, DEBUGGING
 16 .debug_line   0000c330  00000000  00000000  00042d88  2**0
                  CONTENTS, READONLY, DEBUGGING
 17 .debug_str    000099a5  00000000  00000000  0004f0b8  2**0
                  CONTENTS, READONLY, DEBUGGING
 18 .comment      00000037  00000000  00000000  00058a5d  2**0
                  CONTENTS, READONLY
 19 .riscv.attributes 0000003b  00000000  00000000  00058a94  2**0
                  CONTENTS, READONLY
 20 .debug_frame  000020ec  00000000  00000000  00058ad0  2**2
                  CONTENTS, READONLY, DEBUGGING
SYMBOL TABLE:
20000000 l    d  .vectors	00000000 .vectors
00000000 l    d  .retention_reset	00000000 .retention_reset
00000158 l    d  .aes_data	00000000 .aes_data
00000178 l    d  .retention_data	00000000 .retention_data
00001300 l    d  .ram_code	00000000 .ram_code
20006508 l    d  .text	00000000 .text
20010b88 l    d  .rodata	00000000 .rodata
20012200 l    d  .eh_frame	00000000 .eh_frame
00080000 l    d  .data	00000000 .data
000800c0 l    d  .sbss	00000000 .sbss
000800f4 l    d  .bss	00000000 .bss
00000000 l    d  .debug_info	00000000 .debug_info
00000000 l    d  .debug_abbrev	00000000 .debug_abbrev
00000000 l    d  .debug_loc	00000000 .debug_loc
00000000 l    d  .debug_aranges	00000000 .debug_aranges
00000000 l    d  .debug_ranges	00000000 .debug_ranges
00000000 l    d  .debug_line	00000000 .debug_line
00000000 l    d  .debug_str	00000000 .debug_str
00000000 l    d  .comment	00000000 .comment
00000000 l    d  .riscv.attributes	00000000 .riscv.attributes
00000000 l    d  .debug_frame	00000000 .debug_frame
00000000 l    df *ABS*	00000000 ./boot/B91/cstartup_B91.o
20000028 l       .vectors	00000000 _START
20000030 l       .vectors	00000000 _SWS_USB_DIS
2000008e l       .vectors	00000000 _RETENTION_RESET_INIT
200000a6 l       .vectors	00000000 _RETENTION_RESET_BEGIN
200000b8 l       .vectors	00000000 _RETENTION_DATA_INIT
200000cc l       .vectors	00000000 _RETENTION_DATA_INIT_BEGIN
200000de l       .vectors	00000000 _RAMCODE_INIT
200000f6 l       .vectors	00000000 _RAMCODE_INIT_BEGIN
20000108 l       .vectors	00000000 _DATA_INIT
20000120 l       .vectors	00000000 _DATA_INIT_BEGIN
20000132 l       .vectors	00000000 _ZERO_BSS
20000146 l       .vectors	00000000 _ZERO_BSS_BEGIN
20000152 l       .vectors	00000000 _ZERO_AES
20000166 l       .vectors	00000000 _ZERO_AES_BEGIN
20000172 l       .vectors	00000000 _FILL_STK
20000172 l       .vectors	00000000 _MAIN_FUNC
20000188 l       .vectors	00000000 _END
00000022 l       .retention_reset	00000000 _ISTART
0000002a l       .retention_reset	00000000 _ISWS_USB_DIS
00000088 l       .retention_reset	00000000 _WAKEUP_FLASH
000000a2 l       .retention_reset	00000000 _MSPI_WAIT
000000bc l       .retention_reset	00000000 _WAIT_EFUSE_LOAD_FINISH
000000c2 l       .retention_reset	00000000 _MULTI_ADDRESS_BEGIN
000000d6 l       .retention_reset	00000000 _IDATA_INIT
000000ee l       .retention_reset	00000000 _IDATA_INIT_BEGIN
00000100 l       .retention_reset	00000000 _IZERO_BSS
00000114 l       .retention_reset	00000000 _IZERO_BSS_BEGIN
00000120 l       .retention_reset	00000000 _IZERO_AES
00000134 l       .retention_reset	00000000 _IZERO_AES_BEGIN
00000140 l       .retention_reset	00000000 _IFILL_STK
00000140 l       .retention_reset	00000000 _IMAIN_FUNC
00000156 l       .retention_reset	00000000 _IEND
00000040 l       *ABS*	00000000 irqno
00000000 l    df *ABS*	00000000 
200065d8 l     F .text	00000090 aes_set_key_data.constprop.57
00001300 l     F .ram_code	00000034 rf_set_power_level_index.constprop.45
00001334 l     F .ram_code	00000024 blt_reset_conn_phy_param.constprop.17
2000666c l     F .text	00000030 blt_ll_unknown_rsp.constprop.16
00001358 l     F .ram_code	00000010 smemset.constprop.15
200066a0 l     F .text	0000006c blc_gatt_requestServiceAccess.constprop.4
20006710 l     F .text	00000014 blc_gap_send_event
20006728 l     F .text	0000008a att_Find_end_group
200067b4 l     F .text	0000009e l2cap_att_search
00001368 l     F .ram_code	00000018 smemcpy
00001380 l     F .ram_code	000001bc aes_ccmAuthTran.constprop.14
0000153c l     F .ram_code	000001b4 aes_ccmBaseTran.isra.0.constprop.13
000016f0 l     F .ram_code	000000d4 aes_ll_ccm_decryption.constprop.12
20006854 l     F .text	00000076 aes_ll_encryption
200068cc l     F .text	000000e6 blt_smp_alg_c1.constprop.1
200069b4 l     F .text	00000052 blc_smp_procParingEnd
20006a08 l     F .text	00000014 blc_hci_send_event
20006a20 l     F .text	00000148 blt_leg_scan_mainloop_task
20006b68 l     F .text	00000080 blc_ll_addScanningInAdvState
00003718 l     F .ram_code	00000154 irq_scan_rx_primary_channel
00002b2c l     F .ram_code	000000cc blt_setScan_enter_manaul_rx
000017c4 l     F .ram_code	0000007c blt_ll_searchAddr_in_WhiteList
20006bec l     F .text	00000066 bls_ll_send_read_remote_feature_event.part.5
00001840 l     F .ram_code	00000090 blt_terminate_proc
000018d0 l     F .ram_code	00000084 blt_terminate_pending_proc
00001954 l     F .ram_code	000000ac bls_ll_setNewConnection_timing
00001a00 l     F .ram_code	00000138 blt_brx_timing_update
00001b38 l     F .ram_code	00000044 blt_brx_timing_update_init
00001b7c l     F .ram_code	00000078 blt_set_fsmTimeout_intLevel
00001bf4 l     F .ram_code	00000194 blt_ll_channel_conn_update
00001d88 l     F .ram_code	00000050 bls_ll_procUpdateReq
00001dd8 l     F .ram_code	000001b4 irq_blc_slave_rx_data
00001f8c l     F .ram_code	00000060 irq_blc_slave_tx
00001fec l     F .ram_code	000000e4 blt_push_fifo_hw
000020d0 l     F .ram_code	00000048 blc_calc_remapping_table
00002118 l     F .ram_code	000000a4 blt_ll_channelTable_calc
000021bc l     F .ram_code	0000011c connUpdate_mapUpdate_proc
000022d8 l     F .ram_code	00000150 blt_brx_post
00002428 l     F .ram_code	000000f8 blt_ll_connect_common
20006c54 l     F .text	00000226 blt_connect
00002520 l     F .ram_code	000000d0 bls_ll_setAdvEnable
000025f0 l     F .ram_code	00000024 irq_ll_system_timer
20006e7c l     F .text	000000a4 blt_ll_exchangeDataLength
20006f24 l     F .text	0000019e blt_slave_main_loop_post
00002614 l     F .ram_code	00000040 blt_event_callback_func
00002654 l     F .ram_code	0000004c trng_rand
200070c4 l     F .text	000000a2 trng_init
000026a0 l     F .ram_code	00000040 rf_set_rxmode
000026e0 l     F .ram_code	00000048 pm_tim_recover_32k_rc
00002728 l     F .ram_code	00000048 pm_get_32k_rc_calib
00002770 l     F .ram_code	0000005c pm_update_32k_rc_sleep_tick
000027cc l     F .ram_code	00000138 rf_set_ble_channel
00002904 l     F .ram_code	000000b0 blt_ll_start_common
000029b4 l     F .ram_code	00000060 rf_start_fsm
00002a14 l     F .ram_code	0000001c ble_rx_dma_config
00002a30 l     F .ram_code	0000001c ble_tx_dma_config
00002a4c l     F .ram_code	00000050 blc_ll_initBasicMCU
00002a9c l     F .ram_code	00000048 ble_rf_set_tx_dma
00002ae4 l     F .ram_code	00000048 ble_rf_set_rx_dma
00002bf8 l     F .ram_code	00000114 blt_brx_start
00002d0c l     F .ram_code	0000015c irq_slave_system_timer
00002e68 l     F .ram_code	000001e8 irq_blc_ll_rx
00003050 l     F .ram_code	000001b0 irq_blt_sdk_handler
20007168 l     F .text	00000048 generateRandomNum
200071b0 l     F .text	0000003c blt_soft_timer_find
00003200 l     F .ram_code	00000004 stimer_irq_handler
00003204 l     F .ram_code	00000004 rf_irq_handler
200071ec l     F .text	00000130 fl_queueREQcRSP_sort
2000731c l     F .text	00000146 _scan_external_input
20007464 l     F .text	00000026 gpio_get_level
2000748c l     F .text	0000001a fl_durationADV_timeout_proccess
00003208 l     F .ram_code	00000024 delay_ms
200074a8 l     F .text	00000068 pwm_kick_32k_pad.constprop.22
0000322c l     F .ram_code	0000001c delay_us
00003248 l     F .ram_code	00000044 flash_send_addr
0000328c l     F .ram_code	0000004c flash_send_cmd
000032d8 l     F .ram_code	00000168 flash_mspi_read_ram
20007510 l     F .text	000000b2 blc_readFlashSize_autoConfigCustomFlashSector
00003440 l     F .ram_code	00000048 flash_wait_done
00003488 l     F .ram_code	000000cc flash_mspi_write_ram.constprop.67
20006508 l     F .text	00000058 flash_page_program
20006560 l     F .text	0000002c flash_dread
200075c4 l     F .text	0000004c fl_db_rtc_load
2000658c l     F .text	00000030 flash_erase_sector
20007614 l     F .text	00000074 fl_db_rtc_save
00003554 l     F .ram_code	00000060 clock_set_32k_tick
2000768c l     F .text	00000048 FL_QUEUE_GET.part.0
200076d4 l     F .text	00000058 FL_QUEUE_ADD
2000772c l     F .text	00000158 fl_rtc_timestamp_to_datetime
20007884 l     F .text	00000042 analog_read_reg32.constprop.65
000035b4 l     F .ram_code	00000030 clock_get_32k_tick
200078c8 l     F .text	00000082 fl_rtc_getWithMilliStep
2000794c l     F .text	0000002a fl_rtc_get
20007978 l     F .text	00000062 fl_rtc_set
000035e4 l     F .ram_code	00000098 smp_quickResolvPrivateAddr
0000367c l     F .ram_code	00000070 blt_ll_searchAddr_in_ResolvingList
000036ec l     F .ram_code	0000002c ll_searchAddr_in_WhiteList_and_ResolvingList
200079dc l     F .text	000001be bls_ll_pushTxFifo
20007b9c l     F .text	00000096 bls_ll_pushEncPkt
0000386c l     F .ram_code	00000060 blt_ll_getRealTxFifoNumber
000038cc l     F .ram_code	00000078 blc_ll_getTxFifoNumber
00003944 l     F .ram_code	00000094 cpu_stall_WakeUp_By_RF_SystemTick
000039d8 l     F .ram_code	0000003c analog_write_reg8
20007c34 l     F .text	00000080 pwm_kick_32k_pad_times.constprop.21
00003a14 l     F .ram_code	00000104 rf_drv_ble_init
00003b18 l     F .ram_code	00000044 analog_read_reg8
00003b5c l     F .ram_code	00000140 clock_init.constprop.54
00003c9c l     F .ram_code	000000b4 pm_wait_bbpll_done
00003d50 l     F .ram_code	000001a4 pm_sleep_start
00003ef4 l     F .ram_code	0000046c cpu_sleep_wakeup_32k_rc_ram
200065bc l     F .text	0000001a cpu_sleep_wakeup_32k_rc
20007cb8 l     F .text	000000da clock_cal_32k_rc
20007d94 l     F .text	000000d4 cpu_wakeup_no_deepretn_back_init
00004360 l     F .ram_code	0000008c clock_cal_24m_rc
000043ec l     F .ram_code	000003cc blt_sdk_main_loop
000047b8 l     F .ram_code	000000d8 dr_putchar
20007e6c l     F .text	00000050 _set_plog.constprop.62
00004890 l     F .ram_code	000002c4 bls_ll_procRxPacket.constprop.18
20007ec0 l     F .text	000004dc blt_send_adv
2000839c l     F .text	0000006e smp_write_flash_page
2000840c l     F .text	00000072 FL_QUEUE_FIND
20008480 l     F .text	0000007e _isOnline_check
20008500 l     F .text	00000608 tbs_power_meter_printf
20008b0c l     F .text	0000014a TEST_Buttons_RST
00004b54 l     F .ram_code	000000b4 gpio_irq_handler
20008c58 l     F .text	00000102 fl_db_slaveprofile_save
20008d5c l     F .text	0000045a _nwk_slave_backup
200091b8 l     F .text	000000d8 fl_db_slaveprofile_load
20009294 l     F .text	000000ee fl_adv_sendFIFO_add
20009384 l     F .text	000000b6 app_system_time_sync
00004c08 l     F .ram_code	00000254 sys_init.constprop.20
2000943c l     F .text	00000362 bls_smp_pairing_success.part.3
200097a0 l     F .text	00000856 blt_slave_main_loop_data
20009ff8 l     F .text	00000050 blt_soft_timer_delete_by_index.part.1
2000a04c l     F .text	000000b0 blt_soft_timer_delete.constprop.44
2000a0fc l     F .text	000000a2 blt_soft_timer_sort
2000a1a0 l     F .text	000000fa blt_soft_timer_process
2000a29c l     F .text	000000bc blt_soft_timer_add
2000a358 l     F .text	00000266 _nwk_slave_syncFromPack
2000a5c0 l     F .text	000001ba fl_queue_REQnRSP_TimeoutStart
2000a77c l     F .text	0000003a fl_packet_parse
2000a7b8 l     F .text	00000056 FL_QUEUE_CLEAR
2000a810 l     F .text	00001750 blc_l2cap_packet_receive
2000bf60 l     F .text	0000037a fl_nwk_slave_reconnect
2000c2dc l     F .text	00000186 fl_nwk_joinnwk_timeout
2000dba8 l     F .text	000002b2 fl_controller_event_callback
2000c464 l     F .text	00001742 user_init_normal
2000de5c l     F .text	00001f0c main_loop
00000158 l     O .aes_data	00000020 aes_data_buff
000800f4 l     O .bss	00000010 FL_NWK_USE_KEY
00080104 l     O .bss	0000002f G_INFORMATION
00080134 l     O .bss	00000122 G_IN_POLLING
00080258 l     O .bss	00000064 G_QUEUE_REQ_CALL_RSP
000802bc l     O .bss	00000a40 g_data_array
00080cfc l     O .bss	00000520 g_handle_array
0008121c l     O .bss	00000290 g_pack_array
000814ac l     O .bss	00000290 g_sending_array
00080000 l     O .data	00000010 FL_NWK_PB_KEY
00080010 l     O .data	00000019 G_ADV_SETTINGS
0008002c l     O .data	0000000c G_DATA_CONTAINER
00080038 l     O .data	0000000c G_HANDLE_CONTAINER
00080044 l     O .data	00000026 G_POWER_METER
0008006c l     O .data	0000000c G_QUEUE_SENDING
00080078 l     O .data	0000000c G_REPEAT_CONTAINER
00080084 l     O .data	00000012 pkt_scan_req
00000178 l     O .retention_data	0000000c blt_conn_phy
00000184 l     O .retention_data	00000010 bltPHYs
00000194 l     O .retention_data	00000004 ll_push_tx_fifo_handler
00000198 l     O .retention_data	00000070 tbl_bondDevice
00000208 l     O .retention_data	00000028 blc_cyrpt_para
00000230 l     O .retention_data	00000004 blc_gap_event_handler
00000234 l     O .retention_data	00000004 gAttributes
00000238 l     O .retention_data	00000048 smp_param_own
00000280 l     O .retention_data	00000050 smp_param_peer
000002d0 l     O .retention_data	00000018 blc_smpMng
000002e8 l     O .retention_data	0000002c bltParam
00000314 l     O .retention_data	00000001 smp_DistributeKeyInit
00000318 l     O .retention_data	00000001 smp_DistributeKeyResp
0000031c l     O .retention_data	00000004 smp_phase_record
00000320 l     O .retention_data	00000004 gap_eventMask
00000324 l     O .retention_data	00000004 blc_hci_event_handler
00000328 l     O .retention_data	00000008 scan_priRxFifo
00000330 l     O .retention_data	00000004 hci_le_eventMask
00000334 l     O .retention_data	00000004 ll_irq_scan_rx_pri_chn_cb
00000338 l     O .retention_data	00000004 ll_leg_scan_mlp_task_cb
0000033c l     O .retention_data	00000004 ll_enter_pri_chn_scan_cb
00000340 l     O .retention_data	0000000c bltMac
0000034c l     O .retention_data	00000200 scan_pri_chn_rx_fifo
0000054c l     O .retention_data	00000018 blts
00000564 l     O .retention_data	00000022 ll_whiteList_tbl
00000588 l     O .retention_data	00000068 bltc
000005f0 l     O .retention_data	00000004 blc_tlkEvent_pending
000005f4 l     O .retention_data	00000014 bltData
00000608 l     O .retention_data	00000058 blttcon
00000660 l     O .retention_data	00000004 pFunc_ll_SetAdv_Enable
00000664 l     O .retention_data	00000030 bltPm
00000694 l     O .retention_data	00000010 blt_txfifo
000006a4 l     O .retention_data	00000004 pkt_slave_terminate
000006a8 l     O .retention_data	00000010 bls_timing
000006b8 l     O .retention_data	00000004 CONN_SHORT_TOLERANCE_TIME
000006bc l     O .retention_data	00000004 blt_miscParam
000006c0 l     O .retention_data	00000010 blc_tlkEvent_data
000006d0 l     O .retention_data	00000018 blt_buff_conn
000006e8 l     O .retention_data	00000004 blt_bb
000006ec l     O .retention_data	00000001 blt_smp_empty_pkt_entry
000006ed l     O .retention_data	00000001 g_num_used_chans
000006f0 l     O .retention_data	00000004 ll_conn_phy_update_cb
000006f4 l     O .retention_data	00000004 blc_rf_pa_cb
000006f8 l     O .retention_data	00000004 lmp_tick
000006fc l     O .retention_data	00000004 lmp_timeout
00000700 l     O .retention_data	00000001 bls_peer_start_enc_flag
00000704 l     O .retention_data	00000001 blt_ll_version_ind_rsp_flag
00000708 l     O .retention_data	00000004 blc_rcvd_connReq_tick
0000070c l     O .retention_data	00000004 blt_pconn
00000710 l     O .retention_data	00000004 ll_connComplete_handler
00000714 l     O .retention_data	00000004 ble_first_rx_tick_last
00000718 l     O .retention_data	00000004 ble_first_rx_tick_pre
0000071c l     O .retention_data	00000004 ble_actual_conn_interval_tick
00000720 l     O .retention_data	00000004 blt_advExpectTime
00000724 l     O .retention_data	00000018 blta
0000073c l     O .retention_data	00000004 ll_irq_systemTick_conn_cb
00000740 l     O .retention_data	00000004 blt_dleSendTime_tick
00000744 l     O .retention_data	00000004 ll_connTerminate_handler
00000748 l     O .retention_data	00000004 blt_p_event_callback
0000074c l     O .retention_data	00000004 hci_eventMask
00000750 l     O .retention_data	00000004 hci_tlk_module_eventMask
00000754 l     O .retention_data	00000050 blt_event_func
000007a4 l     O .retention_data	00000004 g_rnd_m_w
000007a8 l     O .retention_data	00000004 g_rnd_m_z
000007ac l     O .retention_data	00000029 pmcd
000007d8 l     O .retention_data	00000004 g_pm_tick_32k_calib
000007dc l     O .retention_data	00000001 g_pm_long_suspend
000007e0 l     O .retention_data	00000004 ll_chn_index_calc_cb
000007e4 l     O .retention_data	00000004 ll_conn_phy_swicth_cb
000007e8 l     O .retention_data	00000004 ll_phy_switch_cb
000007ec l     O .retention_data	00000003 blc_adv_channel
000007f0 l     O .retention_data	00000004 tx_stl_auto_mode_high_freq
000007f4 l     O .retention_data	00000004 tx_stl_auto_mode
000007f8 l     O .retention_data	00000004 ll_module_advSlave_cb
000007fc l     O .retention_data	00000001 x_freertos_on
00000800 l     O .retention_data	00000010 blt_rxfifo
00000810 l     O .retention_data	00000004 ll_irq_rx_data_cb
00000814 l     O .retention_data	00000004 ll_irq_tx_cb
00000818 l     O .retention_data	00000079 blt_timer
00000894 l     O .retention_data	00000004 flash_sector_mac_address
00000898 l     O .retention_data	00000004 flash_sector_calibration
0000089c l     O .retention_data	00000004 RTC_OFFSET_TIME
000008a0 l     O .retention_data	00000032 ll_resolvingList_tbl
000008d4 l     O .retention_data	00000008 enc_skds
000008dc l     O .retention_data	00000004 enc_ivs
000008e0 l     O .retention_data	00000004 pm_get_32k_tick
000008e4 l     O .retention_data	00000001 g_pm_suspend_power_cfg
000008e8 l     O .retention_data	00000004 func_before_suspend
000008ec l     O .retention_data	00000004 g_pm_tick_32k_cur
000008f0 l     O .retention_data	00000004 g_pm_tick_cur
000008f8 l     O .retention_data	00000006 adc_vref_cfg
00000900 l     O .retention_data	00000004 blc_main_loop_phyTest_cb
00000904 l     O .retention_data	00000004 blc_main_loop_data_cb
00000908 l     O .retention_data	00000004 blc_main_loop_post_cb
0000090c l     O .retention_data	00000004 ll_host_main_loop_cb
00000910 l     O .retention_data	00000004 blc_hci_rx_handler
00000914 l     O .retention_data	00000004 blc_hci_tx_handler
00000918 l     O .retention_data	00000004 pm_check_32k_clk_stable
0000091c l     O .retention_data	00000004 ll_module_pm_cb
00000920 l     O .retention_data	00000004 ll_module_adv_cb
00000924 l     O .retention_data	00000004 tick_rc24mCal
00000928 l     O .retention_data	00000040 adv_rx_buff
00000968 l     O .retention_data	0000002b pkt_adv
00000994 l     O .retention_data	0000002b pkt_scan_rsp
000009bf l     O .retention_data	00000001 adv_peak_current_opt
000009c0 l     O .retention_data	00000004 ll_adv2conn_cb
000009c4 l     O .retention_data	00000004 advertise_prepare_handler
000009c8 l     O .retention_data	00000001 adv_decrease_time_opt
000009cc l     O .retention_data	00000004 flash_write_page
000009d0 l     O .retention_data	00000004 flash_read_page
000009d4 l     O .retention_data	00000004 pm_tim_recover
000009d8 l     O .retention_data	00000004 cpu_sleep_wakeup
000009dc l     O .retention_data	00000024 mlDevMng
00000a00 l     O .retention_data	00000004 bond_device_flash_cfg_idx
00000a04 l     O .retention_data	00000004 smp_param_current_start_addr
00000a08 l     O .retention_data	00000001 restart_encryption
00000a0c l     O .retention_data	00000008 enc_skdm
00000a14 l     O .retention_data	00000004 enc_ivm
00000a18 l     O .retention_data	00000004 blt_ltk_request
00000a1c l     O .retention_data	00000004 ll_encryption_done_cb
00000a20 l     O .retention_data	00000004 LL_FEATURE_MASK_0
00000a24 l     O .retention_data	00000004 LL_FEATURE_MASK_1
00000a28 l     O .retention_data	00000004 blc_l2cap_handler
00000a2c l     O .retention_data	00000010 enc_ltk
00000a3c l     O .retention_data	0000001c smpResSignalPkt
00000a58 l     O .retention_data	0000000b pkt_errRsp
00000a64 l     O .retention_data	00000100 blt_buff_prepare_write
00000b64 l     O .retention_data	00000009 pkt_mtu_rsp
00000b70 l     O .retention_data	0000000c l2cap_buff
0000118c l     O .retention_data	00000100 blt_buff_ll_rx
0000108c l     O .retention_data	00000100 blt_buff_att_tx
00000b7c l     O .retention_data	00000010 smpOwnRand_const
00000b8c l     O .retention_data	00000001 smpPkShftCnt
00000b90 l     O .retention_data	00000004 func_smp_sc_pushPkt_proc
00000b94 l     O .retention_data	00000010 smpOwnParingConfirm
00000ba4 l     O .retention_data	00000004 func_smp_sc_proc
00000ba8 l     O .retention_data	0000000a bltAtt
00000bb4 l     O .retention_data	00000004 pAppPrepareWriteBuff
00000bb8 l     O .retention_data	00000002 prepare_pkt_current_len
00000bba l     O .retention_data	00000002 pAppPrepareWrite_max_len
00000bbc l     O .retention_data	00000004 hid_reportmap_psrc
00000bc0 l     O .retention_data	00000004 hid_reportmap_len
00000bc4 l     O .retention_data	00000004 att_client_handler
00000bc8 l     O .retention_data	00000004 att_sig_hander
00000bcc l     O .retention_data	00000004 l2cap_connUpdateRsp_cb
00000bd0 l     O .retention_data	00000330 app_acl_txfifo
00000f00 l     O .retention_data	00000180 app_acl_rxfifo
00001080 l     O .retention_data	00000008 advData_backup
00001088 l     O .retention_data	00000001 g_plic_preempt_en
20010d20 l     O .rodata	0000001b SLAVE_PROFILE_DEFAULT
20010dd8 l     O .rodata	00000017 __FUNCTION__.10023
20010df0 l     O .rodata	0000000b __FUNCTION__.10054
20010dfc l     O .rodata	00000017 __FUNCTION__.10248
20010e14 l     O .rodata	0000001e __FUNCTION__.10259
20010e34 l     O .rodata	00000011 __FUNCTION__.10273
20010e48 l     O .rodata	0000000e __FUNCTION__.10282
20010e58 l     O .rodata	00000019 __FUNCTION__.10289
20010e74 l     O .rodata	00000011 __FUNCTION__.10380
20010e88 l     O .rodata	00000013 __FUNCTION__.12926
20010e9c l     O .rodata	00000011 __FUNCTION__.12956
20010eb0 l     O .rodata	00000015 __FUNCTION__.13053
20010ec8 l     O .rodata	00000011 __FUNCTION__.13076
20010edc l     O .rodata	00000010 __FUNCTION__.13315
20010eec l     O .rodata	00000012 __FUNCTION__.13336
20010f00 l     O .rodata	00000017 __FUNCTION__.13381
20010f18 l     O .rodata	00000011 __FUNCTION__.13415
20010f2c l     O .rodata	00000011 __FUNCTION__.13424
20010f40 l     O .rodata	0000001d __FUNCTION__.13446
20010f60 l     O .rodata	00000012 __FUNCTION__.13462
20010f74 l     O .rodata	00000014 __FUNCTION__.13468
20010f88 l     O .rodata	0000000c __FUNCTION__.13487
20010f94 l     O .rodata	00000014 __FUNCTION__.13578
20010fa8 l     O .rodata	00000018 __FUNCTION__.13588
20010fc0 l     O .rodata	00000020 __FUNCTION__.13619
20010fe0 l     O .rodata	0000001a __FUNCTION__.13716
20010ffc l     O .rodata	0000000b __FUNCTION__.13753
20011008 l     O .rodata	00000018 __FUNCTION__.13930
20011020 l     O .rodata	00000017 __FUNCTION__.13983
20011038 l     O .rodata	00000017 __FUNCTION__.14005
20011050 l     O .rodata	00000011 __FUNCTION__.14032
20011064 l     O .rodata	0000000c __FUNCTION__.9910
20011070 l     O .rodata	0000000c __FUNCTION__.9930
2001107c l     O .rodata	00000018 __FUNCTION__.9941
20011094 l     O .rodata	00000018 __FUNCTION__.9965
200110ac l     O .rodata	00000018 __FUNCTION__.9988
200110c4 l     O .rodata	00000010 __FUNCTION__.9991
200113c0 l     O .rodata	00000010 att_access_err_enc
200113d0 l     O .rodata	00000010 att_access_err_no_enc
20011430 l     O .rodata	0000001a cmd_length_array
2001144c l     O .rodata	0000000c days_in_month
20011704 l     O .rodata	00000064 gen_method_legacy
20011768 l     O .rodata	00000064 gen_method_sc
000800c0 l     O .sbss	00000004 FL_NWK_COLLECTION_MODE
000800c4 l     O .sbss	00000001 F_SENDING_STATE
000800c5 l     O .sbss	00000001 NWK_DEBUG_STT
000800c6 l     O .sbss	00000001 NWK_REPEAT_MODE
000800c8 l     O .sbss	00000005 ORIGINAL_MASTER_TIME
000800d0 l     O .sbss	00000004 g_chip_version
000800d4 l     O .sbss	00000004 g_pm_status_info
000800d8 l     O .sbss	00000001 g_single_tong_freqoffset
000800dc l     O .sbss	00000004 mcause
000800e0 l     O .sbss	00000004 mepc
000800e4 l     O .sbss	00000004 pre_crc32.13319
00080096 l     O .data	00000002 FmDebug
00080098 l     O .data	00000001 NWK_REPEAT_LEVEL
0008009c l     O .data	00000004 TXADDR
000800a0 l     O .data	00000006 blt_tx_empty_packet
000800a8 l     O .data	00000008 g_pm_early_wakeup_time_us
000800b0 l     O .data	00000004 g_pm_r_delay_cycle
000800b4 l     O .data	00000006 sys_clk
200121e4 l     O .rodata	00000004 rf_rx_dma_config
200121e8 l     O .rodata	00000004 rf_tx_dma_config
00000000 l    df *ABS*	00000000 memcpy.c
00000000 l    df *ABS*	00000000 printf.c
00000000 l    df *ABS*	00000000 strrchr.c
00000000 l    df *ABS*	00000000 vprintf.c
2000fff6 l     F .text	0000003a __vprintf_help
000800e8 l     O .sbss	00000004 __vprintf_buf
000800ec l     O .sbss	00000004 __vprintf_buf_len
00000000 l    df *ABS*	00000000 printf_impl.c
00000000 l    df *ABS*	00000000 printf_impl_float.c
00000000 l    df *ABS*	00000000 strcpy.c
00000000 l    df *ABS*	00000000 strnlen.c
00000000 l    df *ABS*	00000000 libgcc2.c
00000000 l    df *ABS*	00000000 libgcc2.c
00000000 l    df *ABS*	00000000 printf_data.c
000053d0 g     F .ram_code	00000048 entry_irq55
00005e58 g     F .ram_code	00000044 entry_irq13
20010a30 g     F .text	0000007c strcpy
00005d40 g     F .ram_code	000000d4 entry_irq15
20010af8 g     F .text	0000002e .hidden __ashldi3
00005980 g     F .ram_code	00000044 entry_irq27
00005268 g     F .ram_code	00000048 entry_irq60
00006188 g     F .ram_code	000000d4 entry_irq1
000054a8 g     F .ram_code	00000048 entry_irq52
00005538 g     F .ram_code	00000048 entry_irq50
000051d8 g     F .ram_code	00000048 entry_irq62
2000ffac g     F .text	0000001e printf
00080800 g       .data	00000000 __global_pointer$
20010b30 g       .text	00000000 .hidden __riscv_save_8
000052f8 g     F .ram_code	00000048 entry_irq58
20010b7c g       .text	00000000 .hidden __riscv_restore_3
0000128c g       .retention_data	00000000 _RETENTION_DATA_VMA_END
20010b68 g       .text	00000000 .hidden __riscv_restore_10
20010b30 g       .text	00000000 .hidden __riscv_save_11
2001007c g     F .text	0000004c __print_integral
00000000 g       .retention_reset	00000000 _RETENTION_RESET_VMA_START
00005f24 g     F .ram_code	00000044 entry_irq10
00005ba8 g     F .ram_code	00000044 entry_irq21
00000158 g       .aes_data	00000000 _AES_VMA_START
00005584 g     F .ram_code	00000004 entry_irq48
20010b7c g       .text	00000000 .hidden __riscv_restore_2
00005fac g     F .ram_code	00000044 entry_irq8
000057e0 g     F .ram_code	00000048 entry_irq33
00081740 g       .bss	00000000 _BSS_VMA_END
2000fe08 g     F .text	000000fa memcpy
20000190 g       *ABS*	00000000 _RETENTION_RESET_LMA_START
200100c8 g     F .text	0000047c __printf_impl
00005e9c g     F .ram_code	00000044 entry_irq12
00005e14 g     F .ram_code	00000044 entry_irq14
20010b28 g       .text	00000000 .hidden __riscv_save_12
00006144 g     F .ram_code	00000044 entry_irq2
000054f0 g     F .ram_code	00000048 entry_irq51
20010b68 g       .text	00000000 .hidden __riscv_restore_11
0000593c g     F .ram_code	00000044 entry_irq28
00005620 g     F .ram_code	00000048 entry_irq43
20010b58 g       .text	00000000 .hidden __riscv_save_1
20010b7c g       .text	00000000 .hidden __riscv_restore_0
00005bec g     F .ram_code	00000044 entry_irq20
20010b3e g       .text	00000000 .hidden __riscv_save_7
000800c0 g       .sbss	00000000 _BSS_VMA_START
00005190 g     F .ram_code	00000048 entry_irq63
000800ba g       .data	00000000 _DATA_VMA_END
0000558c g     F .ram_code	00000048 entry_irq46
00005870 g     F .ram_code	00000044 entry_irq31
00005cfc g     F .ram_code	00000044 entry_irq16
00100000 g       *ABS*	00000000 FLASH_SIZE
20010b72 g       .text	00000000 .hidden __riscv_restore_5
00080000 g       .data	00000000 _DATA_VMA_START
00005460 g     F .ram_code	00000048 entry_irq53
00005ee0 g     F .ram_code	00000044 entry_irq11
00000158 g       .retention_reset	00000000 _RETENTION_RESET_VMA_END
20010aae g     F .text	00000018 strnlen
20010b72 g       .text	00000000 .hidden __riscv_restore_6
2000ffca g     F .text	0000002c strrchr
00006078 g     F .ram_code	00000044 entry_irq5
00005b20 g     F .ram_code	00000044 entry_irq23
00005798 g     F .ram_code	00000048 entry_irq34
20010ac8 g     F .text	0000002e .hidden __lshrdi3
00005708 g     F .ram_code	00000048 entry_irq36
20010b30 g       .text	00000000 .hidden __riscv_save_9
000055d8 g     F .ram_code	00000048 entry_irq44
20010030 g     F .text	0000004c vprintf
000055d4 g     F .ram_code	00000004 entry_irq45
000059c4 g     F .ram_code	00000044 entry_irq26
20010b3e g       .text	00000000 .hidden __riscv_save_4
000056b0 g     F .ram_code	00000004 entry_irq41
00005220 g     F .ram_code	00000048 entry_irq61
20000000 g       .vectors	00000000 BIN_BEGIN
20010b58 g       .text	00000000 .hidden __riscv_save_3
000056bc g     F .ram_code	00000004 entry_irq38
00006300 g       .ram_code	00000000 __vectors
000123b2 g       *ABS*	00000000 BIN_SIZE
200121cc g     O .rodata	00000010 __digits
20001400 g       *ABS*	00000000 _RAMCODE_LMA_START
000800f0 g     O .sbss	00000004 __printf_count
000052b0 g     F .ram_code	00000048 entry_irq59
2000fdb8 g     F .text	0000004e memcmp
00006034 g     F .ram_code	00000044 entry_irq6
20010b30 g       .text	00000000 .hidden __riscv_save_10
200122f8 g       *ABS*	00000000 _DATA_LMA_START
20010564 g     F .text	00000090 __print_integral_poly
20000000 g       *ABS*	00000000 NDS_SAG_LMA_FLASH
20010b72 g       .text	00000000 .hidden __riscv_restore_4
20010b68 g       .text	00000000 .hidden __riscv_restore_8
20010b3e g       .text	00000000 .hidden __riscv_save_6
20000000  w      .vectors	00000000 _RELAX_END_
200105f4 g     F .text	00000408 __printf_float_impl
2000ff02 g     F .text	000000aa memset
20010b68 g       .text	00000000 .hidden __riscv_restore_9
20010b72 g       .text	00000000 .hidden __riscv_restore_7
00004e5c g     F .ram_code	00000334 main
00006100 g     F .ram_code	00000044 entry_irq3
0000625c g     F .ram_code	00000034 trap_entry
00000178 g       .aes_data	00000000 _AES_VMA_END
000056b8 g     F .ram_code	00000004 entry_irq39
00005580 g     F .ram_code	00000004 entry_irq49
000008f4 g     O .retention_data	00000004 g_pm_multi_addr
00005340 g     F .ram_code	00000048 entry_irq57
00005588 g     F .ram_code	00000004 entry_irq47
200002e8 g       *ABS*	00000000 _RETENTION_DATA_LMA_START
20000000 g     F .vectors	00000000 _RESET_ENTRY
00000178 g       .retention_data	00000000 _RETENTION_DATA_VMA_START
000060bc g     F .ram_code	00000044 entry_irq4
000a0000 g       *ABS*	00000000 _STACK_TOP
00005b64 g     F .ram_code	00000044 entry_irq22
000058b4 g     F .ram_code	00000044 entry_irq30
00005668 g     F .ram_code	00000048 entry_irq42
00005adc g     F .ram_code	00000044 entry_irq24
20010b58 g       .text	00000000 .hidden __riscv_save_2
00006402 g       .ram_code	00000000 _RAMCODE_VMA_END
00000000  w      *ABS*	00000000 _ITB_BASE_
20010b3e g       .text	00000000 .hidden __riscv_save_5
00005c30 g     F .ram_code	00000044 entry_irq19
2000fd6c g     F .text	0000004c _write
00081740 g       .bss	00000000 _end
00005cb8 g     F .ram_code	00000044 entry_irq17
00005f68 g     F .ram_code	00000044 entry_irq9
00005388 g     F .ram_code	00000048 entry_irq56
00005750 g     F .ram_code	00000048 entry_irq35
000056c0 g     F .ram_code	00000048 entry_irq37
00005418 g     F .ram_code	00000048 entry_irq54
000056b4 g     F .ram_code	00000004 entry_irq40
20010b64 g       .text	00000000 .hidden __riscv_restore_12
00001300 g       .ram_code	00000000 _RAMCODE_VMA_START
20010b58 g       .text	00000000 .hidden __riscv_save_0
000058f8 g     F .ram_code	00000044 entry_irq29
200109fc g     F .text	00000030 strchr
20010b7c g       .text	00000000 .hidden __riscv_restore_1
00005ff0 g     F .ram_code	00000044 entry_irq7
00005828 g     F .ram_code	00000048 entry_irq32
00000000 g     F .retention_reset	00000000 _IRESET_ENTRY
00005c74 g     F .ram_code	00000044 entry_irq18
20010544 g     F .text	00000020 __int_to_poly
00005a08 g     F .ram_code	000000d4 entry_irq25



Disassembly of section .vectors:

20000000 <_RESET_ENTRY>:
20000000:	a025                	c.j	20000028 <_START>
	...
20000016:	0000                	unimp
20000018:	23b2                	c.fldsp	ft7,264(sp)
2000001a:	0001                	c.nop
2000001c:	0000                	unimp
2000001e:	0000                	unimp
20000020:	544c4e4b          	fnmsub.h	ft8,fs8,ft4,fa0,rmm
20000024:	0000                	unimp
20000026:	          	sllw	a4,zero,zero

20000028 <_START>:
20000028:	e0080197          	auipc	gp,0xe0080
2000002c:	7d818193          	addi	gp,gp,2008 # 80800 <__global_pointer$>

20000030 <_SWS_USB_DIS>:
20000030:	801002b7          	lui	t0,0x80100
20000034:	70028293          	addi	t0,t0,1792 # 80100700 <_DATA_LMA_START+0x600ee408>
20000038:	04000313          	li	t1,64
2000003c:	506280a3          	sb	t1,1281(t0)
20000040:	e00a0297          	auipc	t0,0xe00a0
20000044:	fc028293          	addi	t0,t0,-64 # a0000 <_STACK_TOP>
20000048:	8116                	c.mv	sp,t0
2000004a:	e0000297          	auipc	t0,0xe0000
2000004e:	fb628293          	addi	t0,t0,-74 # 0 <_ITB_BASE_>
20000052:	80029073          	csrw	uitb,t0
20000056:	6299                	c.lui	t0,0x6
20000058:	3002a2f3          	csrrs	t0,mstatus,t0
2000005c:	00301073          	fssr	zero
20000060:	e0006297          	auipc	t0,0xe0006
20000064:	2a028293          	addi	t0,t0,672 # 6300 <__vectors>
20000068:	30529073          	csrw	mtvec,t0
2000006c:	7d016073          	csrsi	mmisc_ctl,2
20000070:	e40002b7          	lui	t0,0xe4000
20000074:	430d                	c.li	t1,3
20000076:	0062a023          	sw	t1,0(t0) # e4000000 <_DATA_LMA_START+0xc3fedd08>
2000007a:	7ca022f3          	csrr	t0,mcache_ctl
2000007e:	0012e293          	ori	t0,t0,1
20000082:	0022e293          	ori	t0,t0,2
20000086:	7ca29073          	csrw	mcache_ctl,t0
2000008a:	0000100f          	fence.i

2000008e <_RETENTION_RESET_INIT>:
2000008e:	00000317          	auipc	t1,0x0
20000092:	10230313          	addi	t1,t1,258 # 20000190 <_RETENTION_RESET_LMA_START>
20000096:	e0000397          	auipc	t2,0xe0000
2000009a:	f6a38393          	addi	t2,t2,-150 # 0 <_ITB_BASE_>
2000009e:	e0000e17          	auipc	t3,0xe0000
200000a2:	0bae0e13          	addi	t3,t3,186 # 158 <_RETENTION_RESET_VMA_END>

200000a6 <_RETENTION_RESET_BEGIN>:
200000a6:	01c3f963          	bgeu	t2,t3,200000b8 <_RETENTION_DATA_INIT>
200000aa:	00032283          	lw	t0,0(t1)
200000ae:	0053a023          	sw	t0,0(t2)
200000b2:	0311                	c.addi	t1,4
200000b4:	0391                	c.addi	t2,4
200000b6:	bfc5                	c.j	200000a6 <_RETENTION_RESET_BEGIN>

200000b8 <_RETENTION_DATA_INIT>:
200000b8:	00000317          	auipc	t1,0x0
200000bc:	23030313          	addi	t1,t1,560 # 200002e8 <_RETENTION_DATA_LMA_START>
200000c0:	17800393          	li	t2,376
200000c4:	e0001e17          	auipc	t3,0xe0001
200000c8:	1c8e0e13          	addi	t3,t3,456 # 128c <_RETENTION_DATA_VMA_END>

200000cc <_RETENTION_DATA_INIT_BEGIN>:
200000cc:	01c3f963          	bgeu	t2,t3,200000de <_RAMCODE_INIT>
200000d0:	00032283          	lw	t0,0(t1)
200000d4:	0053a023          	sw	t0,0(t2)
200000d8:	0311                	c.addi	t1,4
200000da:	0391                	c.addi	t2,4
200000dc:	bfc5                	c.j	200000cc <_RETENTION_DATA_INIT_BEGIN>

200000de <_RAMCODE_INIT>:
200000de:	00001317          	auipc	t1,0x1
200000e2:	32230313          	addi	t1,t1,802 # 20001400 <_RAMCODE_LMA_START>
200000e6:	e0001397          	auipc	t2,0xe0001
200000ea:	21a38393          	addi	t2,t2,538 # 1300 <rf_set_power_level_index.constprop.45>
200000ee:	e0006e17          	auipc	t3,0xe0006
200000f2:	314e0e13          	addi	t3,t3,788 # 6402 <_RAMCODE_VMA_END>

200000f6 <_RAMCODE_INIT_BEGIN>:
200000f6:	01c3f963          	bgeu	t2,t3,20000108 <_DATA_INIT>
200000fa:	00032283          	lw	t0,0(t1)
200000fe:	0053a023          	sw	t0,0(t2)
20000102:	0311                	c.addi	t1,4
20000104:	0391                	c.addi	t2,4
20000106:	bfc5                	c.j	200000f6 <_RAMCODE_INIT_BEGIN>

20000108 <_DATA_INIT>:
20000108:	00012317          	auipc	t1,0x12
2000010c:	1f030313          	addi	t1,t1,496 # 200122f8 <_DATA_LMA_START>
20000110:	e0080397          	auipc	t2,0xe0080
20000114:	ef038393          	addi	t2,t2,-272 # 80000 <_DATA_VMA_START>
20000118:	e0080e17          	auipc	t3,0xe0080
2000011c:	fa2e0e13          	addi	t3,t3,-94 # 800ba <_DATA_VMA_END>

20000120 <_DATA_INIT_BEGIN>:
20000120:	01c3f963          	bgeu	t2,t3,20000132 <_ZERO_BSS>
20000124:	00032283          	lw	t0,0(t1)
20000128:	0053a023          	sw	t0,0(t2)
2000012c:	0311                	c.addi	t1,4
2000012e:	0391                	c.addi	t2,4
20000130:	bfc5                	c.j	20000120 <_DATA_INIT_BEGIN>

20000132 <_ZERO_BSS>:
20000132:	000002b7          	lui	t0,0x0
20000136:	e0080397          	auipc	t2,0xe0080
2000013a:	f8a38393          	addi	t2,t2,-118 # 800c0 <_BSS_VMA_START>
2000013e:	e0081e17          	auipc	t3,0xe0081
20000142:	602e0e13          	addi	t3,t3,1538 # 81740 <_BSS_VMA_END>

20000146 <_ZERO_BSS_BEGIN>:
20000146:	01c3f663          	bgeu	t2,t3,20000152 <_ZERO_AES>
2000014a:	0053a023          	sw	t0,0(t2)
2000014e:	0391                	c.addi	t2,4
20000150:	bfdd                	c.j	20000146 <_ZERO_BSS_BEGIN>

20000152 <_ZERO_AES>:
20000152:	000002b7          	lui	t0,0x0
20000156:	e0000397          	auipc	t2,0xe0000
2000015a:	00238393          	addi	t2,t2,2 # 158 <_RETENTION_RESET_VMA_END>
2000015e:	e0000e17          	auipc	t3,0xe0000
20000162:	01ae0e13          	addi	t3,t3,26 # 178 <_AES_VMA_END>

20000166 <_ZERO_AES_BEGIN>:
20000166:	01c3f663          	bgeu	t2,t3,20000172 <_FILL_STK>
2000016a:	0053a023          	sw	t0,0(t2)
2000016e:	0391                	c.addi	t2,4
20000170:	bfdd                	c.j	20000166 <_ZERO_AES_BEGIN>

20000172 <_FILL_STK>:
20000172:	0001                	c.nop
20000174:	e0005297          	auipc	t0,0xe0005
20000178:	ce828293          	addi	t0,t0,-792 # 4e5c <main>
2000017c:	9282                	c.jalr	t0
2000017e:	0001                	c.nop
20000180:	0001                	c.nop
20000182:	0001                	c.nop
20000184:	0001                	c.nop
20000186:	0001                	c.nop

20000188 <_END>:
20000188:	a001                	c.j	20000188 <_END>

Disassembly of section .retention_reset:

00000000 <_IRESET_ENTRY>:
   0:	a00d                	c.j	22 <_ISTART>
	...

00000022 <_ISTART>:
  22:	00080197          	auipc	gp,0x80
  26:	7de18193          	addi	gp,gp,2014 # 80800 <__global_pointer$>

0000002a <_ISWS_USB_DIS>:
  2a:	801002b7          	lui	t0,0x80100
  2e:	70028293          	addi	t0,t0,1792 # 80100700 <_DATA_LMA_START+0x600ee408>
  32:	04000313          	li	t1,64
  36:	506280a3          	sb	t1,1281(t0)
  3a:	000a0297          	auipc	t0,0xa0
  3e:	fc628293          	addi	t0,t0,-58 # a0000 <_STACK_TOP>
  42:	8116                	c.mv	sp,t0
  44:	00000297          	auipc	t0,0x0
  48:	fbc28293          	addi	t0,t0,-68 # 0 <_IRESET_ENTRY>
  4c:	80029073          	csrw	uitb,t0
  50:	6299                	c.lui	t0,0x6
  52:	3002a2f3          	csrrs	t0,mstatus,t0
  56:	00301073          	fssr	zero
  5a:	00006297          	auipc	t0,0x6
  5e:	2a628293          	addi	t0,t0,678 # 6300 <__vectors>
  62:	30529073          	csrw	mtvec,t0
  66:	7d016073          	csrsi	mmisc_ctl,2
  6a:	e40002b7          	lui	t0,0xe4000
  6e:	430d                	c.li	t1,3
  70:	0062a023          	sw	t1,0(t0) # e4000000 <_DATA_LMA_START+0xc3fedd08>
  74:	7ca022f3          	csrr	t0,mcache_ctl
  78:	0012e293          	ori	t0,t0,1
  7c:	0022e293          	ori	t0,t0,2
  80:	7ca29073          	csrw	mcache_ctl,t0
  84:	0000100f          	fence.i

00000088 <_WAKEUP_FLASH>:
  88:	801402b7          	lui	t0,0x80140
  8c:	0ff00313          	li	t1,255
  90:	4381                	c.li	t2,0
  92:	0ab00e13          	li	t3,171
  96:	326284a3          	sb	t1,809(t0) # 80140329 <_DATA_LMA_START+0x6012e031>
  9a:	107280a3          	sb	t2,257(t0)
  9e:	11c28023          	sb	t3,256(t0)

000000a2 <_MSPI_WAIT>:
  a2:	801402b7          	lui	t0,0x80140
  a6:	10228383          	lb	t2,258(t0) # 80140102 <_DATA_LMA_START+0x6012de0a>
  aa:	4e05                	c.li	t3,1
  ac:	4ec1                	c.li	t4,16
  ae:	fe7e0ae3          	beq	t3,t2,a2 <_MSPI_WAIT>
  b2:	11d280a3          	sb	t4,257(t0)
  b6:	4281                	c.li	t0,0
  b8:	0e200313          	li	t1,226

000000bc <_WAIT_EFUSE_LOAD_FINISH>:
  bc:	0285                	c.addi	t0,1
  be:	fe537fe3          	bgeu	t1,t0,bc <_WAIT_EFUSE_LOAD_FINISH>

000000c2 <_MULTI_ADDRESS_BEGIN>:
  c2:	801402b7          	lui	t0,0x80140
  c6:	00001317          	auipc	t1,0x1
  ca:	82e30313          	addi	t1,t1,-2002 # 8f4 <g_pm_multi_addr>
  ce:	00032383          	lw	t2,0(t1)
  d2:	1072a223          	sw	t2,260(t0) # 80140104 <_DATA_LMA_START+0x6012de0c>

000000d6 <_IDATA_INIT>:
  d6:	20012317          	auipc	t1,0x20012
  da:	22230313          	addi	t1,t1,546 # 200122f8 <_DATA_LMA_START>
  de:	00080397          	auipc	t2,0x80
  e2:	f2238393          	addi	t2,t2,-222 # 80000 <_DATA_VMA_START>
  e6:	00080e17          	auipc	t3,0x80
  ea:	fd4e0e13          	addi	t3,t3,-44 # 800ba <_DATA_VMA_END>

000000ee <_IDATA_INIT_BEGIN>:
  ee:	01c3f963          	bgeu	t2,t3,100 <_IZERO_BSS>
  f2:	00032283          	lw	t0,0(t1)
  f6:	0053a023          	sw	t0,0(t2)
  fa:	0311                	c.addi	t1,4
  fc:	0391                	c.addi	t2,4
  fe:	bfc5                	c.j	ee <_IDATA_INIT_BEGIN>

00000100 <_IZERO_BSS>:
 100:	000002b7          	lui	t0,0x0
 104:	00080397          	auipc	t2,0x80
 108:	fbc38393          	addi	t2,t2,-68 # 800c0 <_BSS_VMA_START>
 10c:	00081e17          	auipc	t3,0x81
 110:	634e0e13          	addi	t3,t3,1588 # 81740 <_BSS_VMA_END>

00000114 <_IZERO_BSS_BEGIN>:
 114:	01c3f663          	bgeu	t2,t3,120 <_IZERO_AES>
 118:	0053a023          	sw	t0,0(t2)
 11c:	0391                	c.addi	t2,4
 11e:	bfdd                	c.j	114 <_IZERO_BSS_BEGIN>

00000120 <_IZERO_AES>:
 120:	000002b7          	lui	t0,0x0
 124:	00000397          	auipc	t2,0x0
 128:	03438393          	addi	t2,t2,52 # 158 <_RETENTION_RESET_VMA_END>
 12c:	00000e17          	auipc	t3,0x0
 130:	04ce0e13          	addi	t3,t3,76 # 178 <_AES_VMA_END>

00000134 <_IZERO_AES_BEGIN>:
 134:	01c3f663          	bgeu	t2,t3,140 <_IFILL_STK>
 138:	0053a023          	sw	t0,0(t2)
 13c:	0391                	c.addi	t2,4
 13e:	bfdd                	c.j	134 <_IZERO_AES_BEGIN>

00000140 <_IFILL_STK>:
 140:	0001                	c.nop
 142:	00005297          	auipc	t0,0x5
 146:	d1a28293          	addi	t0,t0,-742 # 4e5c <main>
 14a:	9282                	c.jalr	t0
 14c:	0001                	c.nop
 14e:	0001                	c.nop
 150:	0001                	c.nop
 152:	0001                	c.nop
 154:	0001                	c.nop

00000156 <_IEND>:
 156:	a001                	c.j	156 <_IEND>

Disassembly of section .ram_code:

00001300 <rf_set_power_level_index.constprop.45>:
    1300:	801417b7          	lui	a5,0x80141
    1304:	e3c78703          	lb	a4,-452(a5) # 80140e3c <_DATA_LMA_START+0x6012eb44>
    1308:	0bf77713          	andi	a4,a4,191
    130c:	e2e78e23          	sb	a4,-452(a5)
    1310:	e2678703          	lb	a4,-474(a5)
    1314:	f8076713          	ori	a4,a4,-128
    1318:	0ff77713          	andi	a4,a4,255
    131c:	e2e78323          	sb	a4,-474(a5)
    1320:	e2778703          	lb	a4,-473(a5)
    1324:	01f76713          	ori	a4,a4,31
    1328:	0ff77713          	andi	a4,a4,255
    132c:	e2e783a3          	sb	a4,-473(a5)
    1330:	00008067          	ret

00001334 <blt_reset_conn_phy_param.constprop.17>:
    1334:	000007b7          	lui	a5,0x0
    1338:	17878793          	addi	a5,a5,376 # 178 <_AES_VMA_END>
    133c:	4685                	c.li	a3,1
    133e:	00f7c703          	lbu	a4,15(a5)
    1342:	00d780a3          	sb	a3,1(a5)
    1346:	e319                	c.bnez	a4,134c <blt_reset_conn_phy_param.constprop.17+0x18>
    1348:	00800713          	li	a4,8
    134c:	00e781a3          	sb	a4,3(a5)
    1350:	0007a223          	sw	zero,4(a5)
    1354:	4501                	c.li	a0,0
    1356:	8082                	c.jr	ra

00001358 <smemset.constprop.15>:
    1358:	00a585b3          	add	a1,a1,a0
    135c:	0505                	c.addi	a0,1
    135e:	fe050fa3          	sb	zero,-1(a0)
    1362:	fea59de3          	bne	a1,a0,135c <smemset.constprop.15+0x4>
    1366:	8082                	c.jr	ra

00001368 <smemcpy>:
    1368:	ca11                	c.beqz	a2,137c <smemcpy+0x14>
    136a:	962e                	c.add	a2,a1
    136c:	0585                	c.addi	a1,1
    136e:	fff5c783          	lbu	a5,-1(a1)
    1372:	0505                	c.addi	a0,1
    1374:	fef50fa3          	sb	a5,-1(a0)
    1378:	feb61ae3          	bne	a2,a1,136c <smemcpy+0x4>
    137c:	00008067          	ret

00001380 <aes_ccmAuthTran.constprop.14>:
    1380:	7119                	c.addi16sp	sp,-128
    1382:	dca2                	c.swsp	s0,120(sp)
    1384:	c22a                	c.swsp	a0,4(sp)
    1386:	842e                	c.mv	s0,a1
    1388:	0808                	c.addi4spn	a0,sp,16
    138a:	03000593          	li	a1,48
    138e:	de86                	c.swsp	ra,124(sp)
    1390:	c636                	c.swsp	a3,12(sp)
    1392:	daa6                	c.swsp	s1,116(sp)
    1394:	d8ca                	c.swsp	s2,112(sp)
    1396:	84b2                	c.mv	s1,a2
    1398:	d6ce                	c.swsp	s3,108(sp)
    139a:	d4d2                	c.swsp	s4,104(sp)
    139c:	d2d6                	c.swsp	s5,100(sp)
    139e:	d0da                	c.swsp	s6,96(sp)
    13a0:	cede                	c.swsp	s7,92(sp)
    13a2:	cce2                	c.swsp	s8,88(sp)
    13a4:	cae6                	c.swsp	s9,84(sp)
    13a6:	c8ea                	c.swsp	s10,80(sp)
    13a8:	c6ee                	c.swsp	s11,76(sp)
    13aa:	377d                	c.jal	1358 <smemset.constprop.15>
    13ac:	000005b7          	lui	a1,0x0
    13b0:	04900793          	li	a5,73
    13b4:	4635                	c.li	a2,13
    13b6:	22058593          	addi	a1,a1,544 # 220 <blc_cyrpt_para+0x18>
    13ba:	01110513          	addi	a0,sp,17
    13be:	00f10823          	sb	a5,16(sp)
    13c2:	375d                	c.jal	1368 <smemcpy>
    13c4:	10000793          	li	a5,256
    13c8:	85a6                	c.mv	a1,s1
    13ca:	4605                	c.li	a2,1
    13cc:	03210513          	addi	a0,sp,50
    13d0:	02f11823          	sh	a5,48(sp)
    13d4:	00010f23          	sb	zero,30(sp)
    13d8:	00810fa3          	sb	s0,31(sp)
    13dc:	f8dff0ef          	jal	ra,1368 <smemcpy>
    13e0:	45c1                	c.li	a1,16
    13e2:	1008                	c.addi4spn	a0,sp,32
    13e4:	f75ff0ef          	jal	ra,1358 <smemset.constprop.15>
    13e8:	01040493          	addi	s1,s0,16
    13ec:	00f47793          	andi	a5,s0,15
    13f0:	3c04a4db          	bfoz	s1,s1,15,0
    13f4:	c791                	c.beqz	a5,1400 <aes_ccmAuthTran.constprop.14+0x80>
    13f6:	98c1                	c.andi	s1,-16
    13f8:	01048493          	addi	s1,s1,16
    13fc:	3c04a4db          	bfoz	s1,s1,15,0
    1400:	00000e37          	lui	t3,0x0
    1404:	00000937          	lui	s2,0x0
    1408:	00000cb7          	lui	s9,0x0
    140c:	04bd                	c.addi	s1,15
    140e:	158e0b93          	addi	s7,t3,344 # 158 <_RETENTION_RESET_VMA_END>
    1412:	4b01                	c.li	s6,0
    1414:	4a81                	c.li	s5,0
    1416:	430d                	c.li	t1,3
    1418:	03010d13          	addi	s10,sp,48
    141c:	01c10c13          	addi	s8,sp,28
    1420:	17790913          	addi	s2,s2,375 # 177 <_RETENTION_RESET_VMA_END+0x1f>
    1424:	167c8c93          	addi	s9,s9,359 # 167 <_RETENTION_RESET_VMA_END+0xf>
    1428:	80160db7          	lui	s11,0x80160
    142c:	4985                	c.li	s3,1
    142e:	4a39                	c.li	s4,14
    1430:	1014                	c.addi4spn	a3,sp,32
    1432:	87b6                	c.mv	a5,a3
    1434:	00078703          	lb	a4,0(a5)
    1438:	ff078603          	lb	a2,-16(a5)
    143c:	0785                	c.addi	a5,1
    143e:	8f31                	c.xor	a4,a2
    1440:	fee78fa3          	sb	a4,-1(a5)
    1444:	fefd18e3          	bne	s10,a5,1434 <aes_ccmAuthTran.constprop.14+0xb4>
    1448:	855e                	c.mv	a0,s7
    144a:	1078                	c.addi4spn	a4,sp,44
    144c:	00274783          	lbu	a5,2(a4)
    1450:	00174583          	lbu	a1,1(a4)
    1454:	00374f03          	lbu	t5,3(a4)
    1458:	00074603          	lbu	a2,0(a4)
    145c:	07a2                	c.slli	a5,0x8
    145e:	05c2                	c.slli	a1,0x10
    1460:	8fcd                	c.or	a5,a1
    1462:	01e7e7b3          	or	a5,a5,t5
    1466:	0662                	c.slli	a2,0x18
    1468:	8fd1                	c.or	a5,a2
    146a:	c11c                	c.sw	a5,0(a0)
    146c:	1771                	c.addi	a4,-4
    146e:	0511                	c.addi	a0,4
    1470:	fd871ee3          	bne	a4,s8,144c <aes_ccmAuthTran.constprop.14+0xcc>
    1474:	0d7da223          	sw	s7,196(s11) # 801600c4 <_DATA_LMA_START+0x6014ddcc>
    1478:	0b3da823          	sw	s3,176(s11)
    147c:	0b0da783          	lw	a5,176(s11)
    1480:	fe07fe5b          	bbs	a5,0,147c <aes_ccmAuthTran.constprop.14+0xfc>
    1484:	012007b3          	add	a5,zero,s2
    1488:	00078703          	lb	a4,0(a5)
    148c:	0685                	c.addi	a3,1
    148e:	17fd                	c.addi	a5,-1
    1490:	fee68fa3          	sb	a4,-1(a3)
    1494:	fefc9ae3          	bne	s9,a5,1488 <aes_ccmAuthTran.constprop.14+0x108>
    1498:	fff30793          	addi	a5,t1,-1
    149c:	3c07a7db          	bfoz	a5,a5,15,0
    14a0:	06fa7c63          	bgeu	s4,a5,1518 <aes_ccmAuthTran.constprop.14+0x198>
    14a4:	4512                	c.lwsp	a0,4(sp)
    14a6:	004b1593          	slli	a1,s6,0x4
    14aa:	95aa                	c.add	a1,a0
    14ac:	453d                	c.li	a0,15
    14ae:	04857963          	bgeu	a0,s0,1500 <aes_ccmAuthTran.constprop.14+0x180>
    14b2:	4641                	c.li	a2,16
    14b4:	0808                	c.addi4spn	a0,sp,16
    14b6:	3d4d                	c.jal	1368 <smemcpy>
    14b8:	001b0e93          	addi	t4,s6,1
    14bc:	ff040413          	addi	s0,s0,-16
    14c0:	0ffefb13          	andi	s6,t4,255
    14c4:	3c04245b          	bfoz	s0,s0,15,0
    14c8:	010a8813          	addi	a6,s5,16
    14cc:	3c082adb          	bfoz	s5,a6,15,0
    14d0:	4301                	c.li	t1,0
    14d2:	f554dfe3          	bge	s1,s5,1430 <aes_ccmAuthTran.constprop.14+0xb0>
    14d6:	4532                	c.lwsp	a0,12(sp)
    14d8:	100c                	c.addi4spn	a1,sp,32
    14da:	4611                	c.li	a2,4
    14dc:	e8dff0ef          	jal	ra,1368 <smemcpy>
    14e0:	50f6                	c.lwsp	ra,124(sp)
    14e2:	5466                	c.lwsp	s0,120(sp)
    14e4:	54d6                	c.lwsp	s1,116(sp)
    14e6:	5946                	c.lwsp	s2,112(sp)
    14e8:	59b6                	c.lwsp	s3,108(sp)
    14ea:	5a26                	c.lwsp	s4,104(sp)
    14ec:	5a96                	c.lwsp	s5,100(sp)
    14ee:	5b06                	c.lwsp	s6,96(sp)
    14f0:	4bf6                	c.lwsp	s7,92(sp)
    14f2:	4c66                	c.lwsp	s8,88(sp)
    14f4:	4cd6                	c.lwsp	s9,84(sp)
    14f6:	4d46                	c.lwsp	s10,80(sp)
    14f8:	4db6                	c.lwsp	s11,76(sp)
    14fa:	4501                	c.li	a0,0
    14fc:	6109                	c.addi16sp	sp,128
    14fe:	8082                	c.jr	ra
    1500:	0808                	c.addi4spn	a0,sp,16
    1502:	8622                	c.mv	a2,s0
    1504:	e65ff0ef          	jal	ra,1368 <smemcpy>
    1508:	0808                	c.addi4spn	a0,sp,16
    150a:	45c1                	c.li	a1,16
    150c:	8d81                	c.sub	a1,s0
    150e:	9522                	c.add	a0,s0
    1510:	e49ff0ef          	jal	ra,1358 <smemset.constprop.15>
    1514:	fb5ff06f          	j	14c8 <aes_ccmAuthTran.constprop.14+0x148>
    1518:	861a                	c.mv	a2,t1
    151a:	015d05b3          	add	a1,s10,s5
    151e:	0808                	c.addi4spn	a0,sp,16
    1520:	c41a                	c.swsp	t1,8(sp)
    1522:	3599                	c.jal	1368 <smemcpy>
    1524:	4322                	c.lwsp	t1,8(sp)
    1526:	4541                	c.li	a0,16
    1528:	406505b3          	sub	a1,a0,t1
    152c:	0808                	c.addi4spn	a0,sp,16
    152e:	951a                	c.add	a0,t1
    1530:	e29ff0ef          	jal	ra,1358 <smemset.constprop.15>
    1534:	00000b13          	li	s6,0
    1538:	f91ff06f          	j	14c8 <aes_ccmAuthTran.constprop.14+0x148>

0000153c <aes_ccmBaseTran.isra.0.constprop.13>:
    153c:	7139                	c.addi16sp	sp,-64
    153e:	da26                	c.swsp	s1,52(sp)
    1540:	84ae                	c.mv	s1,a1
    1542:	000005b7          	lui	a1,0x0
    1546:	dc22                	c.swsp	s0,56(sp)
    1548:	d84a                	c.swsp	s2,48(sp)
    154a:	4785                	c.li	a5,1
    154c:	842a                	c.mv	s0,a0
    154e:	8932                	c.mv	s2,a2
    1550:	00110513          	addi	a0,sp,1
    1554:	4635                	c.li	a2,13
    1556:	22058593          	addi	a1,a1,544 # 220 <blc_cyrpt_para+0x18>
    155a:	de06                	c.swsp	ra,60(sp)
    155c:	00f10023          	sb	a5,0(sp)
    1560:	e09ff0ef          	jal	ra,1368 <smemcpy>
    1564:	00000637          	lui	a2,0x0
    1568:	15860e93          	addi	t4,a2,344 # 158 <_RETENTION_RESET_VMA_END>
    156c:	15860f13          	addi	t5,a2,344
    1570:	4681                	c.li	a3,0
    1572:	15860613          	addi	a2,a2,344
    1576:	4801                	c.li	a6,0
    1578:	0078                	c.addi4spn	a4,sp,12
    157a:	850a                	c.mv	a0,sp
    157c:	00011723          	sh	zero,14(sp)
    1580:	00174783          	lbu	a5,1(a4)
    1584:	00074583          	lbu	a1,0(a4)
    1588:	06a2                	c.slli	a3,0x8
    158a:	0106e6b3          	or	a3,a3,a6
    158e:	07c2                	c.slli	a5,0x10
    1590:	8fd5                	c.or	a5,a3
    1592:	01859693          	slli	a3,a1,0x18
    1596:	8fd5                	c.or	a5,a3
    1598:	c21c                	c.sw	a5,0(a2)
    159a:	0611                	c.addi	a2,4
    159c:	00a70863          	beq	a4,a0,15ac <aes_ccmBaseTran.isra.0.constprop.13+0x70>
    15a0:	1771                	c.addi	a4,-4
    15a2:	00374803          	lbu	a6,3(a4)
    15a6:	00274683          	lbu	a3,2(a4)
    15aa:	bfd9                	c.j	1580 <aes_ccmBaseTran.isra.0.constprop.13+0x44>
    15ac:	801607b7          	lui	a5,0x80160
    15b0:	0dd7a223          	sw	t4,196(a5) # 801600c4 <_DATA_LMA_START+0x6014ddcc>
    15b4:	00100693          	li	a3,1
    15b8:	80160737          	lui	a4,0x80160
    15bc:	0ad7a823          	sw	a3,176(a5)
    15c0:	0b072783          	lw	a5,176(a4) # 801600b0 <_DATA_LMA_START+0x6014ddb8>
    15c4:	fe07fe5b          	bbs	a5,0,15c0 <aes_ccmBaseTran.isra.0.constprop.13+0x84>
    15c8:	0f7d                	c.addi	t5,31
    15ca:	00fe8693          	addi	a3,t4,15
    15ce:	081c                	c.addi4spn	a5,sp,16
    15d0:	01e005b3          	add	a1,zero,t5
    15d4:	00058703          	lb	a4,0(a1)
    15d8:	0785                	c.addi	a5,1
    15da:	15fd                	c.addi	a1,-1
    15dc:	fee78fa3          	sb	a4,-1(a5)
    15e0:	feb69ae3          	bne	a3,a1,15d4 <aes_ccmBaseTran.isra.0.constprop.13+0x98>
    15e4:	864a                	c.mv	a2,s2
    15e6:	00490813          	addi	a6,s2,4
    15ea:	872a                	c.mv	a4,a0
    15ec:	00060783          	lb	a5,0(a2)
    15f0:	01070683          	lb	a3,16(a4)
    15f4:	0605                	c.addi	a2,1
    15f6:	8fb5                	c.xor	a5,a3
    15f8:	fef60fa3          	sb	a5,-1(a2)
    15fc:	0705                	c.addi	a4,1
    15fe:	fec817e3          	bne	a6,a2,15ec <aes_ccmBaseTran.isra.0.constprop.13+0xb0>
    1602:	10000793          	li	a5,256
    1606:	00f11723          	sh	a5,14(sp)
    160a:	00f4f793          	andi	a5,s1,15
    160e:	8826                	c.mv	a6,s1
    1610:	cbe1                	c.beqz	a5,16e0 <aes_ccmBaseTran.isra.0.constprop.13+0x1a4>
    1612:	98c1                	c.andi	s1,-16
    1614:	01048493          	addi	s1,s1,16
    1618:	3c04a4db          	bfoz	s1,s1,15,0
    161c:	4681                	c.li	a3,0
    161e:	4885                	c.li	a7,1
    1620:	4301                	c.li	t1,0
    1622:	ffc10e13          	addi	t3,sp,-4
    1626:	02050513          	addi	a0,a0,32
    162a:	80160637          	lui	a2,0x80160
    162e:	4f85                	c.li	t6,1
    1630:	0ff8f913          	andi	s2,a7,255
    1634:	83f6                	c.mv	t2,t4
    1636:	0078                	c.addi4spn	a4,sp,12
    1638:	00174783          	lbu	a5,1(a4)
    163c:	00074283          	lbu	t0,0(a4)
    1640:	06a2                	c.slli	a3,0x8
    1642:	0126e6b3          	or	a3,a3,s2
    1646:	07c2                	c.slli	a5,0x10
    1648:	8fd5                	c.or	a5,a3
    164a:	01829693          	slli	a3,t0,0x18
    164e:	8fd5                	c.or	a5,a3
    1650:	00f3a023          	sw	a5,0(t2)
    1654:	1771                	c.addi	a4,-4
    1656:	0391                	c.addi	t2,4
    1658:	01c70863          	beq	a4,t3,1668 <aes_ccmBaseTran.isra.0.constprop.13+0x12c>
    165c:	00374903          	lbu	s2,3(a4)
    1660:	00274683          	lbu	a3,2(a4)
    1664:	fd5ff06f          	j	1638 <aes_ccmBaseTran.isra.0.constprop.13+0xfc>
    1668:	0dd62223          	sw	t4,196(a2) # 801600c4 <_DATA_LMA_START+0x6014ddcc>
    166c:	0bf62823          	sw	t6,176(a2)
    1670:	0b062783          	lw	a5,176(a2)
    1674:	fe07fe5b          	bbs	a5,0,1670 <aes_ccmBaseTran.isra.0.constprop.13+0x134>
    1678:	0818                	c.addi4spn	a4,sp,16
    167a:	87fa                	c.mv	a5,t5
    167c:	00078683          	lb	a3,0(a5)
    1680:	0705                	c.addi	a4,1
    1682:	17fd                	c.addi	a5,-1
    1684:	fed70fa3          	sb	a3,-1(a4)
    1688:	fef59ae3          	bne	a1,a5,167c <aes_ccmBaseTran.isra.0.constprop.13+0x140>
    168c:	006407b3          	add	a5,s0,t1
    1690:	0818                	c.addi4spn	a4,sp,16
    1692:	a829                	c.j	16ac <aes_ccmBaseTran.isra.0.constprop.13+0x170>
    1694:	00078683          	lb	a3,0(a5)
    1698:	00070283          	lb	t0,0(a4)
    169c:	0785                	c.addi	a5,1
    169e:	0056c6b3          	xor	a3,a3,t0
    16a2:	0705                	c.addi	a4,1
    16a4:	fed78fa3          	sb	a3,-1(a5)
    16a8:	00e50663          	beq	a0,a4,16b4 <aes_ccmBaseTran.isra.0.constprop.13+0x178>
    16ac:	408786b3          	sub	a3,a5,s0
    16b0:	ff06c2e3          	blt	a3,a6,1694 <aes_ccmBaseTran.isra.0.constprop.13+0x158>
    16b4:	0885                	c.addi	a7,1
    16b6:	3c08a8db          	bfoz	a7,a7,15,0
    16ba:	0088d693          	srli	a3,a7,0x8
    16be:	0341                	c.addi	t1,16
    16c0:	00d10723          	sb	a3,14(sp)
    16c4:	011107a3          	sb	a7,15(sp)
    16c8:	3c03235b          	bfoz	t1,t1,15,0
    16cc:	f69362e3          	bltu	t1,s1,1630 <aes_ccmBaseTran.isra.0.constprop.13+0xf4>
    16d0:	50f2                	c.lwsp	ra,60(sp)
    16d2:	5462                	c.lwsp	s0,56(sp)
    16d4:	54d2                	c.lwsp	s1,52(sp)
    16d6:	5942                	c.lwsp	s2,48(sp)
    16d8:	4501                	c.li	a0,0
    16da:	6121                	c.addi16sp	sp,64
    16dc:	00008067          	ret
    16e0:	fc95                	c.bnez	s1,161c <aes_ccmBaseTran.isra.0.constprop.13+0xe0>
    16e2:	50f2                	c.lwsp	ra,60(sp)
    16e4:	5462                	c.lwsp	s0,56(sp)
    16e6:	54d2                	c.lwsp	s1,52(sp)
    16e8:	5942                	c.lwsp	s2,48(sp)
    16ea:	4501                	c.li	a0,0
    16ec:	6121                	c.addi16sp	sp,64
    16ee:	8082                	c.jr	ra

000016f0 <aes_ll_ccm_decryption.constprop.12>:
    16f0:	00154783          	lbu	a5,1(a0)
    16f4:	4711                	c.li	a4,4
    16f6:	0cf77563          	bgeu	a4,a5,17c0 <aes_ll_ccm_decryption.constprop.12+0xd0>
    16fa:	1101                	c.addi	sp,-32
    16fc:	17f1                	c.addi	a5,-4
    16fe:	00000637          	lui	a2,0x0
    1702:	ca26                	c.swsp	s1,20(sp)
    1704:	ce06                	c.swsp	ra,28(sp)
    1706:	cc22                	c.swsp	s0,24(sp)
    1708:	01212823          	sw	s2,16(sp)
    170c:	17860613          	addi	a2,a2,376 # 178 <_AES_VMA_END>
    1710:	00050703          	lb	a4,0(a0)
    1714:	0ff7f593          	andi	a1,a5,255
    1718:	00b500a3          	sb	a1,1(a0)
    171c:	09462803          	lw	a6,148(a2)
    1720:	00377793          	andi	a5,a4,3
    1724:	00160337          	lui	t1,0x160
    1728:	00180893          	addi	a7,a6,1
    172c:	00250493          	addi	s1,a0,2
    1730:	0b430693          	addi	a3,t1,180 # 1600b4 <FLASH_SIZE+0x600b4>
    1734:	00f103a3          	sb	a5,7(sp)
    1738:	0a460713          	addi	a4,a2,164
    173c:	f8000793          	li	a5,-128
    1740:	80000537          	lui	a0,0x80000
    1744:	0c430313          	addi	t1,t1,196
    1748:	09162a23          	sw	a7,148(a2)
    174c:	0b062423          	sw	a6,168(a2)
    1750:	0af60623          	sb	a5,172(a2)
    1754:	00274783          	lbu	a5,2(a4)
    1758:	00174883          	lbu	a7,1(a4)
    175c:	00374603          	lbu	a2,3(a4)
    1760:	00074803          	lbu	a6,0(a4)
    1764:	07a2                	c.slli	a5,0x8
    1766:	08c2                	c.slli	a7,0x10
    1768:	0117e7b3          	or	a5,a5,a7
    176c:	8fd1                	c.or	a5,a2
    176e:	0862                	c.slli	a6,0x18
    1770:	00a6e633          	or	a2,a3,a0
    1774:	0107e7b3          	or	a5,a5,a6
    1778:	c21c                	c.sw	a5,0(a2)
    177a:	0691                	c.addi	a3,4
    177c:	1771                	c.addi	a4,-4
    177e:	fc669be3          	bne	a3,t1,1754 <aes_ll_ccm_decryption.constprop.12+0x64>
    1782:	00b48433          	add	s0,s1,a1
    1786:	3c05a95b          	bfoz	s2,a1,15,0
    178a:	8622                	c.mv	a2,s0
    178c:	85ca                	c.mv	a1,s2
    178e:	8526                	c.mv	a0,s1
    1790:	dadff0ef          	jal	ra,153c <aes_ccmBaseTran.isra.0.constprop.13>
    1794:	0034                	c.addi4spn	a3,sp,8
    1796:	00710613          	addi	a2,sp,7
    179a:	85ca                	c.mv	a1,s2
    179c:	8526                	c.mv	a0,s1
    179e:	36cd                	c.jal	1380 <aes_ccmAuthTran.constprop.14>
    17a0:	0068                	c.addi4spn	a0,sp,12
    17a2:	85a2                	c.mv	a1,s0
    17a4:	4611                	c.li	a2,4
    17a6:	36c9                	c.jal	1368 <smemcpy>
    17a8:	4532                	c.lwsp	a0,12(sp)
    17aa:	47a2                	c.lwsp	a5,8(sp)
    17ac:	40f2                	c.lwsp	ra,28(sp)
    17ae:	4462                	c.lwsp	s0,24(sp)
    17b0:	8d1d                	c.sub	a0,a5
    17b2:	44d2                	c.lwsp	s1,20(sp)
    17b4:	4942                	c.lwsp	s2,16(sp)
    17b6:	00a03533          	snez	a0,a0
    17ba:	6105                	c.addi16sp	sp,32
    17bc:	00008067          	ret
    17c0:	4505                	c.li	a0,1
    17c2:	8082                	c.jr	ra

000017c4 <blt_ll_searchAddr_in_WhiteList>:
    17c4:	00000737          	lui	a4,0x0
    17c8:	17870713          	addi	a4,a4,376 # 178 <_AES_VMA_END>
    17cc:	40c74603          	lbu	a2,1036(a4)
    17d0:	c635                	c.beqz	a2,183c <blt_ll_searchAddr_in_WhiteList+0x78>
    17d2:	3ec70893          	addi	a7,a4,1004
    17d6:	87c6                	c.mv	a5,a7
    17d8:	4701                	c.li	a4,0
    17da:	a029                	c.j	17e4 <blt_ll_searchAddr_in_WhiteList+0x20>
    17dc:	0705                	c.addi	a4,1
    17de:	07a1                	c.addi	a5,8
    17e0:	04c75e63          	bge	a4,a2,183c <blt_ll_searchAddr_in_WhiteList+0x78>
    17e4:	0007c683          	lbu	a3,0(a5)
    17e8:	fea69ae3          	bne	a3,a0,17dc <blt_ll_searchAddr_in_WhiteList+0x18>
    17ec:	0017c803          	lbu	a6,1(a5)
    17f0:	0005c683          	lbu	a3,0(a1)
    17f4:	fed814e3          	bne	a6,a3,17dc <blt_ll_searchAddr_in_WhiteList+0x18>
    17f8:	0027c803          	lbu	a6,2(a5)
    17fc:	0015c683          	lbu	a3,1(a1)
    1800:	fcd81ee3          	bne	a6,a3,17dc <blt_ll_searchAddr_in_WhiteList+0x18>
    1804:	0037c803          	lbu	a6,3(a5)
    1808:	0025c683          	lbu	a3,2(a1)
    180c:	fcd818e3          	bne	a6,a3,17dc <blt_ll_searchAddr_in_WhiteList+0x18>
    1810:	0047c803          	lbu	a6,4(a5)
    1814:	0035c683          	lbu	a3,3(a1)
    1818:	fcd812e3          	bne	a6,a3,17dc <blt_ll_searchAddr_in_WhiteList+0x18>
    181c:	0057c803          	lbu	a6,5(a5)
    1820:	0045c683          	lbu	a3,4(a1)
    1824:	fad81ce3          	bne	a6,a3,17dc <blt_ll_searchAddr_in_WhiteList+0x18>
    1828:	0067c803          	lbu	a6,6(a5)
    182c:	0055c683          	lbu	a3,5(a1)
    1830:	fad816e3          	bne	a6,a3,17dc <blt_ll_searchAddr_in_WhiteList+0x18>
    1834:	0ee8855b          	lea.d	a0,a7,a4
    1838:	00008067          	ret
    183c:	4501                	c.li	a0,0
    183e:	8082                	c.jr	ra

00001840 <blt_terminate_proc>:
    1840:	1141                	c.addi	sp,-16
    1842:	c422                	c.swsp	s0,8(sp)
    1844:	00000437          	lui	s0,0x0
    1848:	c606                	c.swsp	ra,12(sp)
    184a:	17840413          	addi	s0,s0,376 # 178 <_AES_VMA_END>
    184e:	41f44783          	lbu	a5,1055(s0)
    1852:	0647d95b          	beqc	a5,4,18c4 <blt_terminate_proc+0x84>
    1856:	0027d55b          	beqc	a5,2,1860 <blt_terminate_proc+0x20>
    185a:	47a1                	c.li	a5,8
    185c:	40f40ea3          	sb	a5,1053(s0)
    1860:	47842783          	lw	a5,1144(s0)
    1864:	4e842703          	lw	a4,1256(s0)
    1868:	0107e793          	ori	a5,a5,16
    186c:	46f42c23          	sw	a5,1144(s0)
    1870:	001b07b7          	lui	a5,0x1b0
    1874:	07ed                	c.addi	a5,27
    1876:	46f42e23          	sw	a5,1148(s0)
    187a:	57fd                	c.li	a5,-1
    187c:	480416a3          	sh	zero,1165(s0)
    1880:	480407a3          	sb	zero,1167(s0)
    1884:	40040e23          	sb	zero,1052(s0)
    1888:	40041f23          	sh	zero,1054(s0)
    188c:	48040d23          	sb	zero,1178(s0)
    1890:	44042823          	sw	zero,1104(s0)
    1894:	42f41123          	sh	a5,1058(s0)
    1898:	480408a3          	sb	zero,1169(s0)
    189c:	44042a23          	sw	zero,1108(s0)
    18a0:	cb11                	c.beqz	a4,18b4 <blt_terminate_proc+0x74>
    18a2:	17040783          	lb	a5,368(s0)
    18a6:	01000537          	lui	a0,0x1000
    18aa:	0ff7f793          	andi	a5,a5,255
    18ae:	8d5d                	c.or	a0,a5
    18b0:	000700e7          	jalr	a4
    18b4:	400409a3          	sb	zero,1043(s0)
    18b8:	4e040723          	sb	zero,1262(s0)
    18bc:	40b2                	c.lwsp	ra,12(sp)
    18be:	4422                	c.lwsp	s0,8(sp)
    18c0:	0141                	c.addi	sp,16
    18c2:	8082                	c.jr	ra
    18c4:	02200793          	li	a5,34
    18c8:	40f40ea3          	sb	a5,1053(s0)
    18cc:	f95ff06f          	j	1860 <blt_terminate_proc+0x20>

000018d0 <blt_terminate_pending_proc>:
    18d0:	000007b7          	lui	a5,0x0
    18d4:	17878793          	addi	a5,a5,376 # 178 <_AES_VMA_END>
    18d8:	41c7c703          	lbu	a4,1052(a5)
    18dc:	cb11                	c.beqz	a4,18f0 <blt_terminate_pending_proc+0x20>
    18de:	0705                	c.addi	a4,1
    18e0:	0ff77713          	andi	a4,a4,255
    18e4:	40e78e23          	sb	a4,1052(a5)
    18e8:	00200693          	li	a3,2
    18ec:	06e6e063          	bltu	a3,a4,194c <blt_terminate_pending_proc+0x7c>
    18f0:	41e7c703          	lbu	a4,1054(a5)
    18f4:	0017545b          	beqc	a4,1,18fc <blt_terminate_pending_proc+0x2c>
    18f8:	00008067          	ret
    18fc:	801006b7          	lui	a3,0x80100
    1900:	50068703          	lb	a4,1280(a3) # 80100500 <_DATA_LMA_START+0x600ee208>
    1904:	50168683          	lb	a3,1281(a3)
    1908:	8f15                	c.sub	a4,a3
    190a:	8b7d                	c.andi	a4,31
    190c:	00071863          	bnez	a4,191c <blt_terminate_pending_proc+0x4c>
    1910:	5237c683          	lbu	a3,1315(a5)
    1914:	5227c703          	lbu	a4,1314(a5)
    1918:	02e68063          	beq	a3,a4,1938 <blt_terminate_pending_proc+0x68>
    191c:	80140737          	lui	a4,0x80140
    1920:	20072683          	lw	a3,512(a4) # 80140200 <_DATA_LMA_START+0x6012df08>
    1924:	45c7a703          	lw	a4,1116(a5)
    1928:	40e686b3          	sub	a3,a3,a4
    192c:	007a1737          	lui	a4,0x7a1
    1930:	20070713          	addi	a4,a4,512 # 7a1200 <FLASH_SIZE+0x6a1200>
    1934:	fcd772e3          	bgeu	a4,a3,18f8 <blt_terminate_pending_proc+0x28>
    1938:	52f78703          	lb	a4,1327(a5)
    193c:	20000693          	li	a3,512
    1940:	40d79f23          	sh	a3,1054(a5)
    1944:	40e78ea3          	sb	a4,1053(a5)
    1948:	00008067          	ret
    194c:	40d78fa3          	sb	a3,1055(a5)
    1950:	00008067          	ret

00001954 <bls_ll_setNewConnection_timing>:
    1954:	000007b7          	lui	a5,0x0
    1958:	8d0d                	c.sub	a0,a1
    195a:	17878793          	addi	a5,a5,376 # 178 <_AES_VMA_END>
    195e:	4685                	c.li	a3,1
    1960:	6715                	c.lui	a4,0x5
    1962:	e2070713          	addi	a4,a4,-480 # 4e20 <sys_init.constprop.20+0x218>
    1966:	40d78ca3          	sb	a3,1049(a5)
    196a:	3c05255b          	bfoz	a0,a0,15,0
    196e:	480d                	c.li	a6,3
    1970:	02e585b3          	mul	a1,a1,a4
    1974:	04a86a63          	bltu	a6,a0,19c8 <bls_ll_setNewConnection_timing+0x74>
    1978:	6705                	c.lui	a4,0x1
    197a:	00150813          	addi	a6,a0,1 # 1000001 <FLASH_SIZE+0xf00001>
    197e:	fa070713          	addi	a4,a4,-96 # fa0 <app_acl_rxfifo+0xa0>
    1982:	6889                	c.lui	a7,0x2
    1984:	02e80733          	mul	a4,a6,a4
    1988:	f4088893          	addi	a7,a7,-192 # 1f40 <irq_blc_slave_rx_data+0x168>
    198c:	00b00333          	add	t1,zero,a1
    1990:	c518137f          	maddr32	t1,a6,a7
    1994:	4ed78723          	sb	a3,1262(a5)
    1998:	4467a223          	sw	t1,1092(a5)
    199c:	44e7a823          	sw	a4,1104(a5)
    19a0:	e215                	c.bnez	a2,19c4 <bls_ll_setNewConnection_timing+0x70>
    19a2:	4709                	c.li	a4,2
    19a4:	02a76e63          	bltu	a4,a0,19e0 <bls_ll_setNewConnection_timing+0x8c>
    19a8:	00156e5b          	bnec	a0,1,19c4 <bls_ll_setNewConnection_timing+0x70>
    19ac:	6709                	c.lui	a4,0x2
    19ae:	f4070713          	addi	a4,a4,-192 # 1f40 <irq_blc_slave_rx_data+0x168>
    19b2:	95ba                	c.add	a1,a4
    19b4:	6705                	c.lui	a4,0x1
    19b6:	fa070713          	addi	a4,a4,-96 # fa0 <app_acl_rxfifo+0xa0>
    19ba:	44e7a823          	sw	a4,1104(a5)
    19be:	44b7a223          	sw	a1,1092(a5)
    19c2:	8082                	c.jr	ra
    19c4:	00008067          	ret
    19c8:	6741                	c.lui	a4,0x10
    19ca:	a0070713          	addi	a4,a4,-1536 # fa00 <_RAMCODE_VMA_END+0x95fe>
    19ce:	66a1                	c.lui	a3,0x8
    19d0:	972e                	c.add	a4,a1
    19d2:	d0068693          	addi	a3,a3,-768 # 7d00 <_RAMCODE_VMA_END+0x18fe>
    19d6:	44d7a823          	sw	a3,1104(a5)
    19da:	44e7a223          	sw	a4,1092(a5)
    19de:	b7c9                	c.j	19a0 <bls_ll_setNewConnection_timing+0x4c>
    19e0:	6719                	c.lui	a4,0x6
    19e2:	dc070713          	addi	a4,a4,-576 # 5dc0 <entry_irq15+0x80>
    19e6:	95ba                	c.add	a1,a4
    19e8:	670d                	c.lui	a4,0x3
    19ea:	ee070713          	addi	a4,a4,-288 # 2ee0 <irq_blc_ll_rx+0x78>
    19ee:	44e7a823          	sw	a4,1104(a5)
    19f2:	4705                	c.li	a4,1
    19f4:	44b7a223          	sw	a1,1092(a5)
    19f8:	4ee78723          	sb	a4,1262(a5)
    19fc:	00008067          	ret

00001a00 <blt_brx_timing_update>:
    1a00:	000007b7          	lui	a5,0x0
    1a04:	17878793          	addi	a5,a5,376 # 178 <_AES_VMA_END>
    1a08:	53078703          	lb	a4,1328(a5)
    1a0c:	0625dc5b          	beqc	a1,2,1a84 <blt_brx_timing_update+0x84>
    1a10:	53178683          	lb	a3,1329(a5)
    1a14:	4147c603          	lbu	a2,1044(a5)
    1a18:	52078923          	sb	zero,1330(a5)
    1a1c:	00c6d863          	bge	a3,a2,1a2c <blt_brx_timing_update+0x2c>
    1a20:	0685                	c.addi	a3,1
    1a22:	1c06b65b          	bfos	a2,a3,7,0
    1a26:	86b2                	c.mv	a3,a2
    1a28:	52c788a3          	sb	a2,1329(a5)
    1a2c:	4605                	c.li	a2,1
    1a2e:	04e65363          	bge	a2,a4,1a74 <blt_brx_timing_update+0x74>
    1a32:	53c7a603          	lw	a2,1340(a5)
    1a36:	1779                	c.addi	a4,-2
    1a38:	52e78823          	sb	a4,1328(a5)
    1a3c:	5407a703          	lw	a4,1344(a5)
    1a40:	4307a503          	lw	a0,1072(a5)
    1a44:	43c7a583          	lw	a1,1084(a5)
    1a48:	c4c6977f          	maddr32	a4,a3,a2
    1a4c:	4587a603          	lw	a2,1112(a5)
    1a50:	6689                	c.lui	a3,0x2
    1a52:	f4068693          	addi	a3,a3,-192 # 1f40 <irq_blc_slave_rx_data+0x168>
    1a56:	44e7a823          	sw	a4,1104(a5)
    1a5a:	9736                	c.add	a4,a3
    1a5c:	952e                	c.add	a0,a1
    1a5e:	0706                	c.slli	a4,0x1
    1a60:	42a7a823          	sw	a0,1072(a5)
    1a64:	44e7a223          	sw	a4,1092(a5)
    1a68:	52c7aa23          	sw	a2,1332(a5)
    1a6c:	4e0787a3          	sb	zero,1263(a5)
    1a70:	00008067          	ret
    1a74:	6719                	c.lui	a4,0x6
    1a76:	dc070713          	addi	a4,a4,-576 # 5dc0 <entry_irq15+0x80>
    1a7a:	863a                	c.mv	a2,a4
    1a7c:	52e7ae23          	sw	a4,1340(a5)
    1a80:	fbdff06f          	j	1a3c <blt_brx_timing_update+0x3c>
    1a84:	520788a3          	sb	zero,1329(a5)
    1a88:	00500693          	li	a3,5
    1a8c:	0ae6d063          	bge	a3,a4,1b2c <blt_brx_timing_update+0x12c>
    1a90:	5407a703          	lw	a4,1344(a5)
    1a94:	52e7ae23          	sw	a4,1340(a5)
    1a98:	5327c683          	lbu	a3,1330(a5)
    1a9c:	1c06b65b          	bfos	a2,a3,7,0
    1aa0:	00064663          	bltz	a2,1aac <blt_brx_timing_update+0xac>
    1aa4:	00168693          	addi	a3,a3,1
    1aa8:	52d78923          	sb	a3,1330(a5)
    1aac:	5457c683          	lbu	a3,1349(a5)
    1ab0:	4587a603          	lw	a2,1112(a5)
    1ab4:	43c7a583          	lw	a1,1084(a5)
    1ab8:	dec1                	c.beqz	a3,1a50 <blt_brx_timing_update+0x50>
    1aba:	5327c803          	lbu	a6,1330(a5)
    1abe:	4685                	c.li	a3,1
    1ac0:	f906f8e3          	bgeu	a3,a6,1a50 <blt_brx_timing_update+0x50>
    1ac4:	4ef7c683          	lbu	a3,1263(a5)
    1ac8:	f6c1                	c.bnez	a3,1a50 <blt_brx_timing_update+0x50>
    1aca:	5347a683          	lw	a3,1332(a5)
    1ace:	40d60833          	sub	a6,a2,a3
    1ad2:	001876b7          	lui	a3,0x187
    1ad6:	a0068693          	addi	a3,a3,-1536 # 186a00 <FLASH_SIZE+0x86a00>
    1ada:	f706dbe3          	bge	a3,a6,1a50 <blt_brx_timing_update+0x50>
    1ade:	5387ae03          	lw	t3,1336(a5)
    1ae2:	6691                	c.lui	a3,0x4
    1ae4:	030e0eb3          	mul	t4,t3,a6
    1ae8:	fff68313          	addi	t1,a3,-1 # 3fff <cpu_sleep_wakeup_32k_rc_ram+0x10b>
    1aec:	4307a683          	lw	a3,1072(a5)
    1af0:	40d506b3          	sub	a3,a0,a3
    1af4:	41fed893          	srai	a7,t4,0x1f
    1af8:	0068f8b3          	and	a7,a7,t1
    1afc:	98f6                	c.add	a7,t4
    1afe:	40e8d893          	srai	a7,a7,0xe
    1b02:	96c6                	c.add	a3,a7
    1b04:	06ba                	c.slli	a3,0xe
    1b06:	0306c6b3          	div	a3,a3,a6
    1b0a:	41c686b3          	sub	a3,a3,t3
    1b0e:	8685                	c.srai	a3,0x1
    1b10:	96f2                	c.add	a3,t3
    1b12:	02d58833          	mul	a6,a1,a3
    1b16:	52d7ac23          	sw	a3,1336(a5)
    1b1a:	41f85693          	srai	a3,a6,0x1f
    1b1e:	0066f6b3          	and	a3,a3,t1
    1b22:	96c2                	c.add	a3,a6
    1b24:	86b9                	c.srai	a3,0xe
    1b26:	42d7aa23          	sw	a3,1076(a5)
    1b2a:	b71d                	c.j	1a50 <blt_brx_timing_update+0x50>
    1b2c:	0705                	c.addi	a4,1
    1b2e:	52e78823          	sb	a4,1328(a5)
    1b32:	53c7a703          	lw	a4,1340(a5)
    1b36:	b78d                	c.j	1a98 <blt_brx_timing_update+0x98>

00001b38 <blt_brx_timing_update_init>:
    1b38:	000007b7          	lui	a5,0x0
    1b3c:	17878793          	addi	a5,a5,376 # 178 <_AES_VMA_END>
    1b40:	4307a683          	lw	a3,1072(a5)
    1b44:	43c7a583          	lw	a1,1084(a5)
    1b48:	80141637          	lui	a2,0x80141
    1b4c:	96ae                	c.add	a3,a1
    1b4e:	a0360703          	lb	a4,-1533(a2) # 80140a03 <_DATA_LMA_START+0x6012e70b>
    1b52:	42d7a823          	sw	a3,1072(a5)
    1b56:	6699                	c.lui	a3,0x6
    1b58:	dc068693          	addi	a3,a3,-576 # 5dc0 <entry_irq15+0x80>
    1b5c:	0fe77713          	andi	a4,a4,254
    1b60:	52079823          	sh	zero,1328(a5)
    1b64:	52078923          	sb	zero,1330(a5)
    1b68:	5207ac23          	sw	zero,1336(a5)
    1b6c:	52d7ae23          	sw	a3,1340(a5)
    1b70:	4207aa23          	sw	zero,1076(a5)
    1b74:	a0e601a3          	sb	a4,-1533(a2)
    1b78:	00008067          	ret

00001b7c <blt_set_fsmTimeout_intLevel>:
    1b7c:	479d                	c.li	a5,7
    1b7e:	02a7e163          	bltu	a5,a0,1ba0 <blt_set_fsmTimeout_intLevel+0x24>
    1b82:	000007b7          	lui	a5,0x0
    1b86:	17878793          	addi	a5,a5,376 # 178 <_AES_VMA_END>
    1b8a:	4705                	c.li	a4,1
    1b8c:	40e78a23          	sb	a4,1044(a5)
    1b90:	157d                	c.addi	a0,-1
    1b92:	4e200713          	li	a4,1250
    1b96:	02e50533          	mul	a0,a0,a4
    1b9a:	46a7aa23          	sw	a0,1140(a5)
    1b9e:	8082                	c.jr	ra
    1ba0:	04f00793          	li	a5,79
    1ba4:	02a7f863          	bgeu	a5,a0,1bd4 <blt_set_fsmTimeout_intLevel+0x58>
    1ba8:	000007b7          	lui	a5,0x0
    1bac:	17878793          	addi	a5,a5,376 # 178 <_AES_VMA_END>
    1bb0:	00300713          	li	a4,3
    1bb4:	40e78a23          	sb	a4,1044(a5)
    1bb8:	4741                	c.li	a4,16
    1bba:	fca77be3          	bgeu	a4,a0,1b90 <blt_set_fsmTimeout_intLevel+0x14>
    1bbe:	02000713          	li	a4,32
    1bc2:	02a77163          	bgeu	a4,a0,1be4 <blt_set_fsmTimeout_intLevel+0x68>
    1bc6:	27100713          	li	a4,625
    1bca:	02e50533          	mul	a0,a0,a4
    1bce:	46a7aa23          	sw	a0,1140(a5)
    1bd2:	8082                	c.jr	ra
    1bd4:	000007b7          	lui	a5,0x0
    1bd8:	17878793          	addi	a5,a5,376 # 178 <_AES_VMA_END>
    1bdc:	4709                	c.li	a4,2
    1bde:	40e78a23          	sb	a4,1044(a5)
    1be2:	bfd9                	c.j	1bb8 <blt_set_fsmTimeout_intLevel+0x3c>
    1be4:	1571                	c.addi	a0,-4
    1be6:	4e200713          	li	a4,1250
    1bea:	02e50533          	mul	a0,a0,a4
    1bee:	46a7aa23          	sw	a0,1140(a5)
    1bf2:	8082                	c.jr	ra

00001bf4 <blt_ll_channel_conn_update>:
    1bf4:	1141                	c.addi	sp,-16
    1bf6:	c422                	c.swsp	s0,8(sp)
    1bf8:	00000437          	lui	s0,0x0
    1bfc:	17840413          	addi	s0,s0,376 # 178 <_AES_VMA_END>
    1c00:	c226                	c.swsp	s1,4(sp)
    1c02:	c606                	c.swsp	ra,12(sp)
    1c04:	c04a                	c.swsp	s2,0(sp)
    1c06:	0b644783          	lbu	a5,182(s0)
    1c0a:	84aa                	c.mv	s1,a0
    1c0c:	08079463          	bnez	a5,1c94 <blt_ll_channel_conn_update+0xa0>
    1c10:	0024c783          	lbu	a5,2(s1)
    1c14:	4705                	c.li	a4,1
    1c16:	0a17d35b          	beqc	a5,1,1cbc <blt_ll_channel_conn_update+0xc8>
    1c1a:	e78d                	c.bnez	a5,1c44 <blt_ll_channel_conn_update+0x50>
    1c1c:	00c4d683          	lhu	a3,12(s1)
    1c20:	4ac41783          	lh	a5,1196(s0)
    1c24:	4ad41723          	sh	a3,1198(s0)
    1c28:	40f687b3          	sub	a5,a3,a5
    1c2c:	3c07b7db          	bfos	a5,a5,15,0
    1c30:	0cf04c63          	bgtz	a5,1d08 <blt_ll_channel_conn_update+0x114>
    1c34:	00000513          	li	a0,0
    1c38:	40b2                	c.lwsp	ra,12(sp)
    1c3a:	4422                	c.lwsp	s0,8(sp)
    1c3c:	4492                	c.lwsp	s1,4(sp)
    1c3e:	4902                	c.lwsp	s2,0(sp)
    1c40:	0141                	c.addi	sp,16
    1c42:	8082                	c.jr	ra
    1c44:	bf87e85b          	bnec	a5,24,1c34 <blt_ll_channel_conn_update+0x40>
    1c48:	0064c783          	lbu	a5,6(s1)
    1c4c:	0054c603          	lbu	a2,5(s1)
    1c50:	4ac41683          	lh	a3,1196(s0)
    1c54:	07a2                	c.slli	a5,0x8
    1c56:	8fd1                	c.or	a5,a2
    1c58:	40d786b3          	sub	a3,a5,a3
    1c5c:	3c06b6db          	bfos	a3,a3,15,0
    1c60:	fcd05ae3          	blez	a3,1c34 <blt_ll_channel_conn_update+0x40>
    1c64:	00348683          	lb	a3,3(s1)
    1c68:	00448583          	lb	a1,4(s1)
    1c6c:	460d                	c.li	a2,3
    1c6e:	8eed                	c.and	a3,a1
    1c70:	40e40ba3          	sb	a4,1047(s0)
    1c74:	0ff6f693          	andi	a3,a3,255
    1c78:	48c408a3          	sb	a2,1169(s0)
    1c7c:	4af41723          	sh	a5,1198(s0)
    1c80:	4e06f45b          	bbs	a3,0,1d68 <blt_ll_channel_conn_update+0x174>
    1c84:	4e16f65b          	bbs	a3,1,1d70 <blt_ll_channel_conn_update+0x17c>
    1c88:	0e26fa5b          	bbc	a3,2,1d7c <blt_ll_channel_conn_update+0x188>
    1c8c:	00c40123          	sb	a2,2(s0)
    1c90:	fa5ff06f          	j	1c34 <blt_ll_channel_conn_update+0x40>
    1c94:	09442903          	lw	s2,148(s0)
    1c98:	46442783          	lw	a5,1124(s0)
    1c9c:	08f42a23          	sw	a5,148(s0)
    1ca0:	a51ff0ef          	jal	ra,16f0 <aes_ll_ccm_decryption.constprop.12>
    1ca4:	09242a23          	sw	s2,148(s0)
    1ca8:	d525                	c.beqz	a0,1c10 <blt_ll_channel_conn_update+0x1c>
    1caa:	4785                	c.li	a5,1
    1cac:	0af40ba3          	sb	a5,183(s0)
    1cb0:	40b2                	c.lwsp	ra,12(sp)
    1cb2:	4422                	c.lwsp	s0,8(sp)
    1cb4:	4492                	c.lwsp	s1,4(sp)
    1cb6:	4902                	c.lwsp	s2,0(sp)
    1cb8:	0141                	c.addi	sp,16
    1cba:	8082                	c.jr	ra
    1cbc:	0084d683          	lhu	a3,8(s1)
    1cc0:	4ac41703          	lh	a4,1196(s0)
    1cc4:	4ad41723          	sh	a3,1198(s0)
    1cc8:	40e68733          	sub	a4,a3,a4
    1ccc:	3c07375b          	bfos	a4,a4,15,0
    1cd0:	f6e052e3          	blez	a4,1c34 <blt_ll_channel_conn_update+0x40>
    1cd4:	4a340513          	addi	a0,s0,1187
    1cd8:	00348593          	addi	a1,s1,3
    1cdc:	00500613          	li	a2,5
    1ce0:	40f40ba3          	sb	a5,1047(s0)
    1ce4:	48f408a3          	sb	a5,1169(s0)
    1ce8:	e80ff0ef          	jal	ra,1368 <smemcpy>
    1cec:	47842783          	lw	a5,1144(s0)
    1cf0:	4501                	c.li	a0,0
    1cf2:	4007e793          	ori	a5,a5,1024
    1cf6:	46f42c23          	sw	a5,1144(s0)
    1cfa:	40b2                	c.lwsp	ra,12(sp)
    1cfc:	4422                	c.lwsp	s0,8(sp)
    1cfe:	4492                	c.lwsp	s1,4(sp)
    1d00:	4902                	c.lwsp	s2,0(sp)
    1d02:	0141                	c.addi	sp,16
    1d04:	00008067          	ret
    1d08:	40e40ba3          	sb	a4,1047(s0)
    1d0c:	0034c783          	lbu	a5,3(s1)
    1d10:	54840513          	addi	a0,s0,1352
    1d14:	40f40d23          	sb	a5,1050(s0)
    1d18:	0044d783          	lhu	a5,4(s1)
    1d1c:	4709                	c.li	a4,2
    1d1e:	42f41223          	sh	a5,1060(s0)
    1d22:	0064d783          	lhu	a5,6(s1)
    1d26:	85a6                	c.mv	a1,s1
    1d28:	42f41323          	sh	a5,1062(s0)
    1d2c:	0084d783          	lhu	a5,8(s1)
    1d30:	00e00613          	li	a2,14
    1d34:	42f41423          	sh	a5,1064(s0)
    1d38:	00a4d783          	lhu	a5,10(s1)
    1d3c:	48e408a3          	sb	a4,1169(s0)
    1d40:	42f41523          	sh	a5,1066(s0)
    1d44:	e24ff0ef          	jal	ra,1368 <smemcpy>
    1d48:	47842783          	lw	a5,1144(s0)
    1d4c:	6705                	c.lui	a4,0x1
    1d4e:	80070713          	addi	a4,a4,-2048 # 800 <blt_rxfifo>
    1d52:	8fd9                	c.or	a5,a4
    1d54:	46f42c23          	sw	a5,1144(s0)
    1d58:	40b2                	c.lwsp	ra,12(sp)
    1d5a:	4422                	c.lwsp	s0,8(sp)
    1d5c:	4492                	c.lwsp	s1,4(sp)
    1d5e:	4902                	c.lwsp	s2,0(sp)
    1d60:	4501                	c.li	a0,0
    1d62:	0141                	c.addi	sp,16
    1d64:	00008067          	ret
    1d68:	00e40123          	sb	a4,2(s0)
    1d6c:	4501                	c.li	a0,0
    1d6e:	b5e9                	c.j	1c38 <blt_ll_channel_conn_update+0x44>
    1d70:	4789                	c.li	a5,2
    1d72:	00f40123          	sb	a5,2(s0)
    1d76:	4501                	c.li	a0,0
    1d78:	ec1ff06f          	j	1c38 <blt_ll_channel_conn_update+0x44>
    1d7c:	00140783          	lb	a5,1(s0)
    1d80:	4501                	c.li	a0,0
    1d82:	00f40123          	sb	a5,2(s0)
    1d86:	bd4d                	c.j	1c38 <blt_ll_channel_conn_update+0x44>

00001d88 <bls_ll_procUpdateReq>:
    1d88:	1141                	c.addi	sp,-16
    1d8a:	c422                	c.swsp	s0,8(sp)
    1d8c:	00000437          	lui	s0,0x0
    1d90:	17840413          	addi	s0,s0,376 # 178 <_AES_VMA_END>
    1d94:	c226                	c.swsp	s1,4(sp)
    1d96:	55840493          	addi	s1,s0,1368
    1d9a:	00450593          	addi	a1,a0,4
    1d9e:	4661                	c.li	a2,24
    1da0:	8526                	c.mv	a0,s1
    1da2:	c606                	c.swsp	ra,12(sp)
    1da4:	dc4ff0ef          	jal	ra,1368 <smemcpy>
    1da8:	0b644783          	lbu	a5,182(s0)
    1dac:	c385                	c.beqz	a5,1dcc <bls_ll_procUpdateReq+0x44>
    1dae:	46042703          	lw	a4,1120(s0)
    1db2:	4785                	c.li	a5,1
    1db4:	46e42223          	sw	a4,1124(s0)
    1db8:	46f42823          	sw	a5,1136(s0)
    1dbc:	16f40b23          	sb	a5,374(s0)
    1dc0:	40b2                	c.lwsp	ra,12(sp)
    1dc2:	4422                	c.lwsp	s0,8(sp)
    1dc4:	4492                	c.lwsp	s1,4(sp)
    1dc6:	0141                	c.addi	sp,16
    1dc8:	00008067          	ret
    1dcc:	4422                	c.lwsp	s0,8(sp)
    1dce:	40b2                	c.lwsp	ra,12(sp)
    1dd0:	8526                	c.mv	a0,s1
    1dd2:	4492                	c.lwsp	s1,4(sp)
    1dd4:	0141                	c.addi	sp,16
    1dd6:	bd39                	c.j	1bf4 <blt_ll_channel_conn_update>

00001dd8 <irq_blc_slave_rx_data>:
    1dd8:	1141                	c.addi	sp,-16
    1dda:	c422                	c.swsp	s0,8(sp)
    1ddc:	00000437          	lui	s0,0x0
    1de0:	17840413          	addi	s0,s0,376 # 178 <_AES_VMA_END>
    1de4:	c606                	c.swsp	ra,12(sp)
    1de6:	c226                	c.swsp	s1,4(sp)
    1de8:	17940783          	lb	a5,377(s0)
    1dec:	00554483          	lbu	s1,5(a0)
    1df0:	0ff7f793          	andi	a5,a5,255
    1df4:	00454803          	lbu	a6,4(a0)
    1df8:	c3a1                	c.beqz	a5,1e38 <irq_blc_slave_rx_data+0x60>
    1dfa:	80140737          	lui	a4,0x80140
    1dfe:	801417b7          	lui	a5,0x80141
    1e02:	f8000693          	li	a3,-128
    1e06:	a0d78023          	sb	a3,-1536(a5) # 80140a00 <_DATA_LMA_START+0x6012e708>
    1e0a:	20072783          	lw	a5,512(a4) # 80140200 <_DATA_LMA_START+0x6012df08>
    1e0e:	4689                	c.li	a3,2
    1e10:	32078793          	addi	a5,a5,800
    1e14:	56d40823          	sb	a3,1392(s0)
    1e18:	20f72223          	sw	a5,516(a4)
    1e1c:	18240783          	lb	a5,386(s0)
    1e20:	00000713          	li	a4,0
    1e24:	0ff7f793          	andi	a5,a5,255
    1e28:	0457de5b          	beqc	a5,5,1e84 <irq_blc_slave_rx_data+0xac>
    1e2c:	40b2                	c.lwsp	ra,12(sp)
    1e2e:	4422                	c.lwsp	s0,8(sp)
    1e30:	4492                	c.lwsp	s1,4(sp)
    1e32:	853a                	c.mv	a0,a4
    1e34:	0141                	c.addi	sp,16
    1e36:	8082                	c.jr	ra
    1e38:	80141737          	lui	a4,0x80141
    1e3c:	a2270783          	lb	a5,-1502(a4) # 80140a22 <_DATA_LMA_START+0x6012e72a>
    1e40:	a2370703          	lb	a4,-1501(a4)
    1e44:	801006b7          	lui	a3,0x80100
    1e48:	0487275b          	bfoz	a4,a4,1,8
    1e4c:	02077713          	andi	a4,a4,32
    1e50:	0047a7db          	bfoz	a5,a5,0,4
    1e54:	50168603          	lb	a2,1281(a3) # 80100501 <_DATA_LMA_START+0x600ee209>
    1e58:	8fd9                	c.or	a5,a4
    1e5a:	50068683          	lb	a3,1280(a3)
    1e5e:	56f408a3          	sb	a5,1393(s0)
    1e62:	18240783          	lb	a5,386(s0)
    1e66:	01f6f713          	andi	a4,a3,31
    1e6a:	8a7d                	c.andi	a2,31
    1e6c:	4685                	c.li	a3,1
    1e6e:	56e409a3          	sb	a4,1395(s0)
    1e72:	56d40823          	sb	a3,1392(s0)
    1e76:	56c40923          	sb	a2,1394(s0)
    1e7a:	0ff7f793          	andi	a5,a5,255
    1e7e:	4701                	c.li	a4,0
    1e80:	ba57e65b          	bnec	a5,5,1e2c <irq_blc_slave_rx_data+0x54>
    1e84:	17940783          	lb	a5,377(s0)
    1e88:	0ff7f793          	andi	a5,a5,255
    1e8c:	f3c5                	c.bnez	a5,1e2c <irq_blc_slave_rx_data+0x54>
    1e8e:	801417b7          	lui	a5,0x80141
    1e92:	8507a703          	lw	a4,-1968(a5) # 80140850 <_DATA_LMA_START+0x6012e558>
    1e96:	45442783          	lw	a5,1108(s0)
    1e9a:	eb8d                	c.bnez	a5,1ecc <irq_blc_slave_rx_data+0xf4>
    1e9c:	49444783          	lbu	a5,1172(s0)
    1ea0:	e795                	c.bnez	a5,1ecc <irq_blc_slave_rx_data+0xf4>
    1ea2:	01644783          	lbu	a5,22(s0)
    1ea6:	8d99                	c.sub	a1,a4
    1ea8:	029787b3          	mul	a5,a5,s1
    1eac:	3e878793          	addi	a5,a5,1000
    1eb0:	0792                	c.slli	a5,0x4
    1eb2:	00f5fd63          	bgeu	a1,a5,1ecc <irq_blc_slave_rx_data+0xf4>
    1eb6:	01a45783          	lhu	a5,26(s0)
    1eba:	0792                	c.slli	a5,0x4
    1ebc:	8f1d                	c.sub	a4,a5
    1ebe:	00176713          	ori	a4,a4,1
    1ec2:	4785                	c.li	a5,1
    1ec4:	44e42a23          	sw	a4,1108(s0)
    1ec8:	50f40723          	sb	a5,1294(s0)
    1ecc:	801407b7          	lui	a5,0x80140
    1ed0:	2007a783          	lw	a5,512(a5) # 80140200 <_DATA_LMA_START+0x6012df08>
    1ed4:	41644703          	lbu	a4,1046(s0)
    1ed8:	4af42823          	sw	a5,1200(s0)
    1edc:	00454783          	lbu	a5,4(a0)
    1ee0:	00387813          	andi	a6,a6,3
    1ee4:	0c37a7db          	bfoz	a5,a5,3,3
    1ee8:	02f70e63          	beq	a4,a5,1f24 <irq_blc_slave_rx_data+0x14c>
    1eec:	40f40b23          	sb	a5,1046(s0)
    1ef0:	10000793          	li	a5,256
    1ef4:	409408a3          	sb	s1,1041(s0)
    1ef8:	40f41ba3          	sh	a5,1047(s0)
    1efc:	ec95                	c.bnez	s1,1f38 <irq_blc_slave_rx_data+0x160>
    1efe:	57444783          	lbu	a5,1396(s0)
    1f02:	e7ad                	c.bnez	a5,1f6c <irq_blc_slave_rx_data+0x194>
    1f04:	00000713          	li	a4,0
    1f08:	41944783          	lbu	a5,1049(s0)
    1f0c:	d385                	c.beqz	a5,1e2c <irq_blc_slave_rx_data+0x54>
    1f0e:	40040ca3          	sb	zero,1049(s0)
    1f12:	4e040723          	sb	zero,1262(s0)
    1f16:	40b2                	c.lwsp	ra,12(sp)
    1f18:	4422                	c.lwsp	s0,8(sp)
    1f1a:	4492                	c.lwsp	s1,4(sp)
    1f1c:	853a                	c.mv	a0,a4
    1f1e:	0141                	c.addi	sp,16
    1f20:	00008067          	ret
    1f24:	d0e5                	c.beqz	s1,1f04 <irq_blc_slave_rx_data+0x12c>
    1f26:	41144783          	lbu	a5,1041(s0)
    1f2a:	ffe9                	c.bnez	a5,1f04 <irq_blc_slave_rx_data+0x12c>
    1f2c:	10000793          	li	a5,256
    1f30:	409408a3          	sb	s1,1041(s0)
    1f34:	40f41ba3          	sh	a5,1047(s0)
    1f38:	04000793          	li	a5,64
    1f3c:	00f50123          	sb	a5,2(a0)
    1f40:	00386e5b          	bnec	a6,3,1f5c <irq_blc_slave_rx_data+0x184>
    1f44:	0b644783          	lbu	a5,182(s0)
    1f48:	02078863          	beqz	a5,1f78 <irq_blc_slave_rx_data+0x1a0>
    1f4c:	0294dc5b          	beqc	s1,9,1f84 <irq_blc_slave_rx_data+0x1ac>
    1f50:	02c4da5b          	beqc	s1,12,1f84 <irq_blc_slave_rx_data+0x1ac>
    1f54:	0304d85b          	beqc	s1,16,1f84 <irq_blc_slave_rx_data+0x1ac>
    1f58:	00048e63          	beqz	s1,1f74 <irq_blc_slave_rx_data+0x19c>
    1f5c:	46042783          	lw	a5,1120(s0)
    1f60:	4705                	c.li	a4,1
    1f62:	0785                	c.addi	a5,1
    1f64:	46f42023          	sw	a5,1120(s0)
    1f68:	fa1ff06f          	j	1f08 <irq_blc_slave_rx_data+0x130>
    1f6c:	04000793          	li	a5,64
    1f70:	00f50123          	sb	a5,2(a0)
    1f74:	4705                	c.li	a4,1
    1f76:	bf49                	c.j	1f08 <irq_blc_slave_rx_data+0x130>
    1f78:	0054d65b          	beqc	s1,5,1f84 <irq_blc_slave_rx_data+0x1ac>
    1f7c:	0fb4f793          	andi	a5,s1,251
    1f80:	bc87ec5b          	bnec	a5,8,1f58 <irq_blc_slave_rx_data+0x180>
    1f84:	e05ff0ef          	jal	ra,1d88 <bls_ll_procUpdateReq>
    1f88:	f8f1                	c.bnez	s1,1f5c <irq_blc_slave_rx_data+0x184>
    1f8a:	b7ed                	c.j	1f74 <irq_blc_slave_rx_data+0x19c>

00001f8c <irq_blc_slave_tx>:
    1f8c:	1141                	c.addi	sp,-16
    1f8e:	c422                	c.swsp	s0,8(sp)
    1f90:	00000437          	lui	s0,0x0
    1f94:	17840413          	addi	s0,s0,376 # 178 <_AES_VMA_END>
    1f98:	c606                	c.swsp	ra,12(sp)
    1f9a:	47042783          	lw	a5,1136(s0)
    1f9e:	c799                	c.beqz	a5,1fac <irq_blc_slave_tx+0x20>
    1fa0:	18240783          	lb	a5,386(s0)
    1fa4:	0ff7f793          	andi	a5,a5,255
    1fa8:	0057d65b          	beqc	a5,5,1fb4 <irq_blc_slave_tx+0x28>
    1fac:	40b2                	c.lwsp	ra,12(sp)
    1fae:	4422                	c.lwsp	s0,8(sp)
    1fb0:	0141                	c.addi	sp,16
    1fb2:	8082                	c.jr	ra
    1fb4:	46c42783          	lw	a5,1132(s0)
    1fb8:	80141737          	lui	a4,0x80141
    1fbc:	f8000693          	li	a3,-128
    1fc0:	a0d70023          	sb	a3,-1536(a4) # 80140a00 <_DATA_LMA_START+0x6012e708>
    1fc4:	00078e63          	beqz	a5,1fe0 <irq_blc_slave_tx+0x54>
    1fc8:	55840793          	addi	a5,s0,1368
    1fcc:	46f42423          	sw	a5,1128(s0)
    1fd0:	46042823          	sw	zero,1136(s0)
    1fd4:	16040b23          	sb	zero,374(s0)
    1fd8:	40b2                	c.lwsp	ra,12(sp)
    1fda:	4422                	c.lwsp	s0,8(sp)
    1fdc:	0141                	c.addi	sp,16
    1fde:	8082                	c.jr	ra
    1fe0:	55840513          	addi	a0,s0,1368
    1fe4:	c11ff0ef          	jal	ra,1bf4 <blt_ll_channel_conn_update>
    1fe8:	fe9ff06f          	j	1fd0 <irq_blc_slave_tx+0x44>

00001fec <blt_push_fifo_hw>:
    1fec:	1101                	c.addi	sp,-32
    1fee:	801416b7          	lui	a3,0x80141
    1ff2:	cc22                	c.swsp	s0,24(sp)
    1ff4:	c84a                	c.swsp	s2,16(sp)
    1ff6:	ce06                	c.swsp	ra,28(sp)
    1ff8:	ca26                	c.swsp	s1,20(sp)
    1ffa:	c64e                	c.swsp	s3,12(sp)
    1ffc:	a0368783          	lb	a5,-1533(a3) # 80140a03 <_DATA_LMA_START+0x6012e70b>
    2000:	00000437          	lui	s0,0x0
    2004:	17840413          	addi	s0,s0,376 # 178 <_AES_VMA_END>
    2008:	0cf7f793          	andi	a5,a5,207
    200c:	a0f681a3          	sb	a5,-1533(a3)
    2010:	a0368583          	lb	a1,-1533(a3)
    2014:	57140703          	lb	a4,1393(s0)
    2018:	57240783          	lb	a5,1394(s0)
    201c:	8f4d                	c.or	a4,a1
    201e:	57340603          	lb	a2,1395(s0)
    2022:	0ff77713          	andi	a4,a4,255
    2026:	0207e793          	ori	a5,a5,32
    202a:	a0e681a3          	sb	a4,-1533(a3)
    202e:	80100937          	lui	s2,0x80100
    2032:	0ff7f793          	andi	a5,a5,255
    2036:	50f900a3          	sb	a5,1281(s2) # 80100501 <_DATA_LMA_START+0x600ee209>
    203a:	01f67793          	andi	a5,a2,31
    203e:	50f90023          	sb	a5,1280(s2)
    2042:	50090783          	lb	a5,1280(s2)
    2046:	50190683          	lb	a3,1281(s2)
    204a:	52240483          	lb	s1,1314(s0)
    204e:	52344703          	lbu	a4,1315(s0)
    2052:	8f95                	c.sub	a5,a3
    2054:	8c99                	c.sub	s1,a4
    2056:	56040823          	sb	zero,1392(s0)
    205a:	8bfd                	c.andi	a5,31
    205c:	88fd                	c.andi	s1,31
    205e:	e399                	c.bnez	a5,2064 <blt_push_fifo_hw+0x78>
    2060:	02049863          	bnez	s1,2090 <blt_push_fifo_hw+0xa4>
    2064:	80100737          	lui	a4,0x80100
    2068:	50070783          	lb	a5,1280(a4) # 80100500 <_DATA_LMA_START+0x600ee208>
    206c:	52340683          	lb	a3,1315(s0)
    2070:	97a6                	c.add	a5,s1
    2072:	0ff7f793          	andi	a5,a5,255
    2076:	50f70023          	sb	a5,1280(a4)
    207a:	94b6                	c.add	s1,a3
    207c:	529401a3          	sb	s1,1315(s0)
    2080:	40f2                	c.lwsp	ra,28(sp)
    2082:	4462                	c.lwsp	s0,24(sp)
    2084:	44d2                	c.lwsp	s1,20(sp)
    2086:	4942                	c.lwsp	s2,16(sp)
    2088:	49b2                	c.lwsp	s3,12(sp)
    208a:	6105                	c.addi16sp	sp,32
    208c:	00008067          	ret
    2090:	52144783          	lbu	a5,1313(s0)
    2094:	51c45683          	lhu	a3,1308(s0)
    2098:	52842503          	lw	a0,1320(s0)
    209c:	fff70993          	addi	s3,a4,-1
    20a0:	00f9f7b3          	and	a5,s3,a5
    20a4:	c4d7957f          	maddr32	a0,a5,a3
    20a8:	00600613          	li	a2,6
    20ac:	8a1f958b          	addigp	a1,-1888 # 800a0 <blt_tx_empty_packet>
    20b0:	ab8ff0ef          	jal	ra,1368 <smemcpy>
    20b4:	01f9f713          	andi	a4,s3,31
    20b8:	02076713          	ori	a4,a4,32
    20bc:	50e900a3          	sb	a4,1281(s2)
    20c0:	50190783          	lb	a5,1281(s2)
    20c4:	0785                	c.addi	a5,1
    20c6:	0ff7f793          	andi	a5,a5,255
    20ca:	50f90023          	sb	a5,1280(s2)
    20ce:	bf59                	c.j	2064 <blt_push_fifo_hw+0x78>

000020d0 <blc_calc_remapping_table>:
    20d0:	00000837          	lui	a6,0x0
    20d4:	17880813          	addi	a6,a6,376 # 178 <_AES_VMA_END>
    20d8:	4581                	c.li	a1,0
    20da:	4601                	c.li	a2,0
    20dc:	00000793          	li	a5,0
    20e0:	56080aa3          	sb	zero,1397(a6)
    20e4:	4037d713          	srai	a4,a5,0x3
    20e8:	972a                	c.add	a4,a0
    20ea:	00074703          	lbu	a4,0(a4)
    20ee:	0077f693          	andi	a3,a5,7
    20f2:	40d75733          	sra	a4,a4,a3
    20f6:	00160693          	addi	a3,a2,1
    20fa:	0007755b          	bbc	a4,0,2104 <blc_calc_remapping_table+0x34>
    20fe:	0ff6f613          	andi	a2,a3,255
    2102:	4585                	c.li	a1,1
    2104:	0785                	c.addi	a5,1
    2106:	bc57efdb          	bnec	a5,37,20e4 <blc_calc_remapping_table+0x14>
    210a:	e199                	c.bnez	a1,2110 <blc_calc_remapping_table+0x40>
    210c:	4501                	c.li	a0,0
    210e:	8082                	c.jr	ra
    2110:	56c80aa3          	sb	a2,1397(a6)
    2114:	ff9ff06f          	j	210c <blc_calc_remapping_table+0x3c>

00002118 <blt_ll_channelTable_calc>:
    2118:	7179                	c.addi16sp	sp,-48
    211a:	4781                	c.li	a5,0
    211c:	00000693          	li	a3,0
    2120:	4037d713          	srai	a4,a5,0x3
    2124:	972a                	c.add	a4,a0
    2126:	00074703          	lbu	a4,0(a4)
    212a:	0077f813          	andi	a6,a5,7
    212e:	41075733          	sra	a4,a4,a6
    2132:	00168813          	addi	a6,a3,1
    2136:	0007795b          	bbc	a4,0,2148 <blt_ll_channelTable_calc+0x30>
    213a:	1818                	c.addi4spn	a4,sp,48
    213c:	00d70733          	add	a4,a4,a3
    2140:	0ff87693          	andi	a3,a6,255
    2144:	fcf70c23          	sb	a5,-40(a4)
    2148:	0785                	c.addi	a5,1
    214a:	bc57ebdb          	bnec	a5,37,2120 <blt_ll_channelTable_calc+0x8>
    214e:	02560313          	addi	t1,a2,37
    2152:	4701                	c.li	a4,0
    2154:	02400893          	li	a7,36
    2158:	0100006f          	j	2168 <blt_ll_channelTable_calc+0x50>
    215c:	00e60023          	sb	a4,0(a2)
    2160:	00160613          	addi	a2,a2,1
    2164:	04c30a63          	beq	t1,a2,21b8 <blt_ll_channelTable_calc+0xa0>
    2168:	00b70733          	add	a4,a4,a1
    216c:	0ff77713          	andi	a4,a4,255
    2170:	00e8f663          	bgeu	a7,a4,217c <blt_ll_channelTable_calc+0x64>
    2174:	fdb70713          	addi	a4,a4,-37
    2178:	0ff77713          	andi	a4,a4,255
    217c:	00375793          	srli	a5,a4,0x3
    2180:	97aa                	c.add	a5,a0
    2182:	0007c783          	lbu	a5,0(a5)
    2186:	00777813          	andi	a6,a4,7
    218a:	4107d7b3          	sra	a5,a5,a6
    218e:	fc07f75b          	bbs	a5,0,215c <blt_ll_channelTable_calc+0x44>
    2192:	87ba                	c.mv	a5,a4
    2194:	00d76863          	bltu	a4,a3,21a4 <blt_ll_channelTable_calc+0x8c>
    2198:	40d787b3          	sub	a5,a5,a3
    219c:	0ff7f793          	andi	a5,a5,255
    21a0:	fed7fce3          	bgeu	a5,a3,2198 <blt_ll_channelTable_calc+0x80>
    21a4:	03010f13          	addi	t5,sp,48
    21a8:	97fa                	c.add	a5,t5
    21aa:	fd878783          	lb	a5,-40(a5)
    21ae:	0605                	c.addi	a2,1
    21b0:	fef60fa3          	sb	a5,-1(a2)
    21b4:	fac31ae3          	bne	t1,a2,2168 <blt_ll_channelTable_calc+0x50>
    21b8:	6145                	c.addi16sp	sp,48
    21ba:	8082                	c.jr	ra

000021bc <connUpdate_mapUpdate_proc>:
    21bc:	1141                	c.addi	sp,-16
    21be:	c422                	c.swsp	s0,8(sp)
    21c0:	00000437          	lui	s0,0x0
    21c4:	c606                	c.swsp	ra,12(sp)
    21c6:	c226                	c.swsp	s1,4(sp)
    21c8:	17840413          	addi	s0,s0,376 # 178 <_AES_VMA_END>
    21cc:	49144783          	lbu	a5,1169(s0)
    21d0:	0a17d05b          	beqc	a5,1,2270 <connUpdate_mapUpdate_proc+0xb4>
    21d4:	0227d05b          	beqc	a5,2,21f4 <connUpdate_mapUpdate_proc+0x38>
    21d8:	0037e85b          	bnec	a5,3,21e8 <connUpdate_mapUpdate_proc+0x2c>
    21dc:	4ac45703          	lhu	a4,1196(s0)
    21e0:	4ae45783          	lhu	a5,1198(s0)
    21e4:	0cf70a63          	beq	a4,a5,22b8 <connUpdate_mapUpdate_proc+0xfc>
    21e8:	40b2                	c.lwsp	ra,12(sp)
    21ea:	4422                	c.lwsp	s0,8(sp)
    21ec:	4492                	c.lwsp	s1,4(sp)
    21ee:	0141                	c.addi	sp,16
    21f0:	00008067          	ret
    21f4:	4ac45703          	lhu	a4,1196(s0)
    21f8:	4ae45783          	lhu	a5,1198(s0)
    21fc:	fef716e3          	bne	a4,a5,21e8 <connUpdate_mapUpdate_proc+0x2c>
    2200:	42a45783          	lhu	a5,1066(s0)
    2204:	00027737          	lui	a4,0x27
    2208:	10070713          	addi	a4,a4,256 # 27100 <BIN_SIZE+0x14d4e>
    220c:	02e787b3          	mul	a5,a5,a4
    2210:	42645503          	lhu	a0,1062(s0)
    2214:	42845703          	lhu	a4,1064(s0)
    2218:	480408a3          	sb	zero,1169(s0)
    221c:	44e42023          	sw	a4,1088(s0)
    2220:	42f42c23          	sw	a5,1080(s0)
    2224:	959ff0ef          	jal	ra,1b7c <blt_set_fsmTimeout_intLevel>
    2228:	42645503          	lhu	a0,1062(s0)
    222c:	6715                	c.lui	a4,0x5
    222e:	e2070713          	addi	a4,a4,-480 # 4e20 <sys_init.constprop.20+0x218>
    2232:	02e506b3          	mul	a3,a0,a4
    2236:	43042783          	lw	a5,1072(s0)
    223a:	43c42803          	lw	a6,1084(s0)
    223e:	42445603          	lhu	a2,1060(s0)
    2242:	97c2                	c.add	a5,a6
    2244:	41a44583          	lbu	a1,1050(s0)
    2248:	c4e617ff          	maddr32	a5,a2,a4
    224c:	40d787b3          	sub	a5,a5,a3
    2250:	42f42823          	sw	a5,1072(s0)
    2254:	42d42e23          	sw	a3,1084(s0)
    2258:	efcff0ef          	jal	ra,1954 <bls_ll_setNewConnection_timing>
    225c:	47842783          	lw	a5,1144(s0)
    2260:	6709                	c.lui	a4,0x2
    2262:	8fd9                	c.or	a5,a4
    2264:	44042a23          	sw	zero,1108(s0)
    2268:	46f42c23          	sw	a5,1144(s0)
    226c:	f7dff06f          	j	21e8 <connUpdate_mapUpdate_proc+0x2c>
    2270:	4ac45703          	lhu	a4,1196(s0)
    2274:	4ae45783          	lhu	a5,1198(s0)
    2278:	f6f718e3          	bne	a4,a5,21e8 <connUpdate_mapUpdate_proc+0x2c>
    227c:	49e40493          	addi	s1,s0,1182
    2280:	4615                	c.li	a2,5
    2282:	4a340593          	addi	a1,s0,1187
    2286:	8526                	c.mv	a0,s1
    2288:	480408a3          	sb	zero,1169(s0)
    228c:	8dcff0ef          	jal	ra,1368 <smemcpy>
    2290:	49a44783          	lbu	a5,1178(s0)
    2294:	ef95                	c.bnez	a5,22d0 <connUpdate_mapUpdate_proc+0x114>
    2296:	49d44583          	lbu	a1,1181(s0)
    229a:	4c040613          	addi	a2,s0,1216
    229e:	8526                	c.mv	a0,s1
    22a0:	e79ff0ef          	jal	ra,2118 <blt_ll_channelTable_calc>
    22a4:	47842783          	lw	a5,1144(s0)
    22a8:	6705                	c.lui	a4,0x1
    22aa:	8fd9                	c.or	a5,a4
    22ac:	44042a23          	sw	zero,1108(s0)
    22b0:	46f42c23          	sw	a5,1144(s0)
    22b4:	f35ff06f          	j	21e8 <connUpdate_mapUpdate_proc+0x2c>
    22b8:	57842303          	lw	t1,1400(s0)
    22bc:	480408a3          	sb	zero,1169(s0)
    22c0:	f20304e3          	beqz	t1,21e8 <connUpdate_mapUpdate_proc+0x2c>
    22c4:	4422                	c.lwsp	s0,8(sp)
    22c6:	40b2                	c.lwsp	ra,12(sp)
    22c8:	4492                	c.lwsp	s1,4(sp)
    22ca:	0141                	c.addi	sp,16
    22cc:	00030067          	jr	t1
    22d0:	8526                	c.mv	a0,s1
    22d2:	3bfd                	c.jal	20d0 <blc_calc_remapping_table>
    22d4:	fd1ff06f          	j	22a4 <connUpdate_mapUpdate_proc+0xe8>

000022d8 <blt_brx_post>:
    22d8:	1141                	c.addi	sp,-16
    22da:	c422                	c.swsp	s0,8(sp)
    22dc:	00000437          	lui	s0,0x0
    22e0:	17840413          	addi	s0,s0,376 # 178 <_AES_VMA_END>
    22e4:	c606                	c.swsp	ra,12(sp)
    22e6:	57c42783          	lw	a5,1404(s0)
    22ea:	c399                	c.beqz	a5,22f0 <blt_brx_post+0x18>
    22ec:	4501                	c.li	a0,0
    22ee:	9782                	c.jalr	a5
    22f0:	4ac41703          	lh	a4,1196(s0)
    22f4:	49b40783          	lb	a5,1179(s0)
    22f8:	801416b7          	lui	a3,0x80141
    22fc:	f8000613          	li	a2,-128
    2300:	a0c68023          	sb	a2,-1536(a3) # 80140a00 <_DATA_LMA_START+0x6012e708>
    2304:	567d                	c.li	a2,-1
    2306:	a2c69023          	sh	a2,-1504(a3)
    230a:	0705                	c.addi	a4,1
    230c:	0785                	c.addi	a5,1
    230e:	4699                	c.li	a3,6
    2310:	4ae41623          	sh	a4,1196(s0)
    2314:	18d40123          	sb	a3,386(s0)
    2318:	0ff7f793          	andi	a5,a5,255
    231c:	02400713          	li	a4,36
    2320:	0af76c63          	bltu	a4,a5,23d8 <blt_brx_post+0x100>
    2324:	48f40da3          	sb	a5,1179(s0)
    2328:	49144783          	lbu	a5,1169(s0)
    232c:	0a079c63          	bnez	a5,23e4 <blt_brx_post+0x10c>
    2330:	41944783          	lbu	a5,1049(s0)
    2334:	0a079e63          	bnez	a5,23f0 <blt_brx_post+0x118>
    2338:	45442503          	lw	a0,1108(s0)
    233c:	00a035b3          	snez	a1,a0
    2340:	00159593          	slli	a1,a1,0x1
    2344:	ebcff0ef          	jal	ra,1a00 <blt_brx_timing_update>
    2348:	58042783          	lw	a5,1408(s0)
    234c:	cf81                	c.beqz	a5,2364 <blt_brx_post+0x8c>
    234e:	80140737          	lui	a4,0x80140
    2352:	20072683          	lw	a3,512(a4) # 80140200 <_DATA_LMA_START+0x6012df08>
    2356:	58442703          	lw	a4,1412(s0)
    235a:	40f687b3          	sub	a5,a3,a5
    235e:	0712                	c.slli	a4,0x4
    2360:	0af76263          	bltu	a4,a5,2404 <blt_brx_post+0x12c>
    2364:	41f44783          	lbu	a5,1055(s0)
    2368:	0817d85b          	beqc	a5,1,23f8 <blt_brx_post+0x120>
    236c:	0627d25b          	beqc	a5,2,23d0 <blt_brx_post+0xf8>
    2370:	801407b7          	lui	a5,0x80140
    2374:	2007a783          	lw	a5,512(a5) # 80140200 <_DATA_LMA_START+0x6012df08>
    2378:	4b042683          	lw	a3,1200(s0)
    237c:	43842703          	lw	a4,1080(s0)
    2380:	40d787b3          	sub	a5,a5,a3
    2384:	04f76663          	bltu	a4,a5,23d0 <blt_brx_post+0xf8>
    2388:	57044783          	lbu	a5,1392(s0)
    238c:	ef95                	c.bnez	a5,23c8 <blt_brx_post+0xf0>
    238e:	80141737          	lui	a4,0x80141
    2392:	a2270783          	lb	a5,-1502(a4) # 80140a22 <_DATA_LMA_START+0x6012e72a>
    2396:	a2370703          	lb	a4,-1501(a4)
    239a:	801006b7          	lui	a3,0x80100
    239e:	50168603          	lb	a2,1281(a3) # 80100501 <_DATA_LMA_START+0x600ee209>
    23a2:	0487275b          	bfoz	a4,a4,1,8
    23a6:	50068683          	lb	a3,1280(a3)
    23aa:	02077713          	andi	a4,a4,32
    23ae:	0047a7db          	bfoz	a5,a5,0,4
    23b2:	8fd9                	c.or	a5,a4
    23b4:	01f67613          	andi	a2,a2,31
    23b8:	01f6f713          	andi	a4,a3,31
    23bc:	56f408a3          	sb	a5,1393(s0)
    23c0:	56c40923          	sb	a2,1394(s0)
    23c4:	56e409a3          	sb	a4,1395(s0)
    23c8:	40b2                	c.lwsp	ra,12(sp)
    23ca:	4422                	c.lwsp	s0,8(sp)
    23cc:	0141                	c.addi	sp,16
    23ce:	8082                	c.jr	ra
    23d0:	c70ff0ef          	jal	ra,1840 <blt_terminate_proc>
    23d4:	fb5ff06f          	j	2388 <blt_brx_post+0xb0>
    23d8:	49144783          	lbu	a5,1169(s0)
    23dc:	48040da3          	sb	zero,1179(s0)
    23e0:	f40788e3          	beqz	a5,2330 <blt_brx_post+0x58>
    23e4:	dd9ff0ef          	jal	ra,21bc <connUpdate_mapUpdate_proc>
    23e8:	41944783          	lbu	a5,1049(s0)
    23ec:	f40786e3          	beqz	a5,2338 <blt_brx_post+0x60>
    23f0:	f48ff0ef          	jal	ra,1b38 <blt_brx_timing_update_init>
    23f4:	f55ff06f          	j	2348 <blt_brx_post+0x70>
    23f8:	cd8ff0ef          	jal	ra,18d0 <blt_terminate_pending_proc>
    23fc:	41f44783          	lbu	a5,1055(s0)
    2400:	f6dff06f          	j	236c <blt_brx_post+0x94>
    2404:	00400793          	li	a5,4
    2408:	40f40fa3          	sb	a5,1055(s0)
    240c:	58042023          	sw	zero,1408(s0)
    2410:	58042223          	sw	zero,1412(s0)
    2414:	58040423          	sb	zero,1416(s0)
    2418:	c28ff0ef          	jal	ra,1840 <blt_terminate_proc>
    241c:	41f44783          	lbu	a5,1055(s0)
    2420:	b417e65b          	bnec	a5,1,236c <blt_brx_post+0x94>
    2424:	fd5ff06f          	j	23f8 <blt_brx_post+0x120>

00002428 <blt_ll_connect_common>:
    2428:	7179                	c.addi16sp	sp,-48
    242a:	d606                	c.swsp	ra,44(sp)
    242c:	d422                	c.swsp	s0,40(sp)
    242e:	d226                	c.swsp	s1,36(sp)
    2430:	d04a                	c.swsp	s2,32(sp)
    2432:	ce4e                	c.swsp	s3,28(sp)
    2434:	cc52                	c.swsp	s4,24(sp)
    2436:	0145c703          	lbu	a4,20(a1)
    243a:	0135c603          	lbu	a2,19(a1)
    243e:	0125c683          	lbu	a3,18(a1)
    2442:	0155c783          	lbu	a5,21(a1)
    2446:	0642                	c.slli	a2,0x10
    2448:	0722                	c.slli	a4,0x8
    244a:	8f51                	c.or	a4,a2
    244c:	8f5d                	c.or	a4,a5
    244e:	01258a13          	addi	s4,a1,18
    2452:	01869793          	slli	a5,a3,0x18
    2456:	84aa                	c.mv	s1,a0
    2458:	8fd9                	c.or	a5,a4
    245a:	842e                	c.mv	s0,a1
    245c:	4611                	c.li	a2,4
    245e:	85d2                	c.mv	a1,s4
    2460:	02450513          	addi	a0,a0,36
    2464:	02f4a423          	sw	a5,40(s1)
    2468:	f01fe0ef          	jal	ra,1368 <smemcpy>
    246c:	01640593          	addi	a1,s0,22
    2470:	00300613          	li	a2,3
    2474:	02c48513          	addi	a0,s1,44
    2478:	ef1fe0ef          	jal	ra,1368 <smemcpy>
    247c:	02740783          	lb	a5,39(s0)
    2480:	00e48993          	addi	s3,s1,14
    2484:	02240413          	addi	s0,s0,34
    2488:	8bfd                	c.andi	a5,31
    248a:	4615                	c.li	a2,5
    248c:	85a2                	c.mv	a1,s0
    248e:	854e                	c.mv	a0,s3
    2490:	00000937          	lui	s2,0x0
    2494:	00f486a3          	sb	a5,13(s1)
    2498:	17890913          	addi	s2,s2,376 # 178 <_AES_VMA_END>
    249c:	ecdfe0ef          	jal	ra,1368 <smemcpy>
    24a0:	18990783          	lb	a5,393(s2)
    24a4:	0ff7f793          	andi	a5,a5,255
    24a8:	cb81                	c.beqz	a5,24b8 <blt_ll_connect_common+0x90>
    24aa:	47892783          	lw	a5,1144(s2)
    24ae:	80000737          	lui	a4,0x80000
    24b2:	8fd9                	c.or	a5,a4
    24b4:	46f92c23          	sw	a5,1144(s2)
    24b8:	18a90783          	lb	a5,394(s2)
    24bc:	0ff7f793          	andi	a5,a5,255
    24c0:	c791                	c.beqz	a5,24cc <blt_ll_connect_common+0xa4>
    24c2:	18990783          	lb	a5,393(s2)
    24c6:	0ff7f793          	andi	a5,a5,255
    24ca:	eb8d                	c.bnez	a5,24fc <blt_ll_connect_common+0xd4>
    24cc:	00d4c583          	lbu	a1,13(s1)
    24d0:	03048613          	addi	a2,s1,48
    24d4:	8522                	c.mv	a0,s0
    24d6:	00049523          	sh	zero,10(s1)
    24da:	393d                	c.jal	2118 <blt_ll_channelTable_calc>
    24dc:	e59fe0ef          	jal	ra,1334 <blt_reset_conn_phy_param.constprop.17>
    24e0:	00049e23          	sh	zero,28(s1)
    24e4:	50b2                	c.lwsp	ra,44(sp)
    24e6:	5422                	c.lwsp	s0,40(sp)
    24e8:	58090623          	sb	zero,1420(s2)
    24ec:	5492                	c.lwsp	s1,36(sp)
    24ee:	5902                	c.lwsp	s2,32(sp)
    24f0:	49f2                	c.lwsp	s3,28(sp)
    24f2:	4a62                	c.lwsp	s4,24(sp)
    24f4:	4501                	c.li	a0,0
    24f6:	6145                	c.addi16sp	sp,48
    24f8:	00008067          	ret
    24fc:	0068                	c.addi4spn	a0,sp,12
    24fe:	4785                	c.li	a5,1
    2500:	4611                	c.li	a2,4
    2502:	85d2                	c.mv	a1,s4
    2504:	00f48523          	sb	a5,10(s1)
    2508:	e61fe0ef          	jal	ra,1368 <smemcpy>
    250c:	4732                	c.lwsp	a4,12(sp)
    250e:	854e                	c.mv	a0,s3
    2510:	01075793          	srli	a5,a4,0x10
    2514:	8fb9                	c.xor	a5,a4
    2516:	00f49d23          	sh	a5,26(s1)
    251a:	3e5d                	c.jal	20d0 <blc_calc_remapping_table>
    251c:	fc1ff06f          	j	24dc <blt_ll_connect_common+0xb4>

00002520 <bls_ll_setAdvEnable>:
    2520:	000007b7          	lui	a5,0x0
    2524:	17878793          	addi	a5,a5,376 # 178 <_AES_VMA_END>
    2528:	17b78703          	lb	a4,379(a5)
    252c:	4c17705b          	bbs	a4,1,25ec <bls_ll_setAdvEnable+0xcc>
    2530:	0ff57613          	andi	a2,a0,255
    2534:	0785745b          	bbc	a0,24,259c <bls_ll_setAdvEnable+0x7c>
    2538:	80100737          	lui	a4,0x80100
    253c:	f8000693          	li	a3,-128
    2540:	50d700a3          	sb	a3,1281(a4) # 80100501 <_DATA_LMA_START+0x600ee209>
    2544:	80141737          	lui	a4,0x80141
    2548:	a0071e23          	sh	zero,-1508(a4) # 80140a1c <_DATA_LMA_START+0x6012e724>
    254c:	56fd                	c.li	a3,-1
    254e:	801405b7          	lui	a1,0x80140
    2552:	a2d71023          	sh	a3,-1504(a4)
    2556:	66a1                	c.lui	a3,0x8
    2558:	2005a703          	lw	a4,512(a1) # 80140200 <_DATA_LMA_START+0x6012df08>
    255c:	d0068693          	addi	a3,a3,-768 # 7d00 <_RAMCODE_VMA_END+0x18fe>
    2560:	9736                	c.add	a4,a3
    2562:	5ae7a423          	sw	a4,1448(a5)
    2566:	18178703          	lb	a4,385(a5)
    256a:	0ff77713          	andi	a4,a4,255
    256e:	ce39                	c.beqz	a2,25cc <bls_ll_setAdvEnable+0xac>
    2570:	00175a5b          	beqc	a4,1,2584 <bls_ll_setAdvEnable+0x64>
    2574:	00100713          	li	a4,1
    2578:	18e780a3          	sb	a4,385(a5)
    257c:	2005a703          	lw	a4,512(a1)
    2580:	5ce7a023          	sw	a4,1472(a5)
    2584:	17b78703          	lb	a4,379(a5)
    2588:	4501                	c.li	a0,0
    258a:	0ff77713          	andi	a4,a4,255
    258e:	00176713          	ori	a4,a4,1
    2592:	16e78da3          	sb	a4,379(a5)
    2596:	16c78823          	sb	a2,368(a5)
    259a:	8082                	c.jr	ra
    259c:	18178703          	lb	a4,385(a5)
    25a0:	0ff77713          	andi	a4,a4,255
    25a4:	db51                	c.beqz	a4,2538 <bls_ll_setAdvEnable+0x18>
    25a6:	18178703          	lb	a4,385(a5)
    25aa:	0ff77713          	andi	a4,a4,255
    25ae:	b817555b          	beqc	a4,1,2538 <bls_ll_setAdvEnable+0x18>
    25b2:	17b78703          	lb	a4,379(a5)
    25b6:	4501                	c.li	a0,0
    25b8:	0ff77713          	andi	a4,a4,255
    25bc:	00176713          	ori	a4,a4,1
    25c0:	16e78da3          	sb	a4,379(a5)
    25c4:	16c78823          	sb	a2,368(a5)
    25c8:	00008067          	ret
    25cc:	df45                	c.beqz	a4,2584 <bls_ll_setAdvEnable+0x64>
    25ce:	180780a3          	sb	zero,385(a5)
    25d2:	17b78703          	lb	a4,379(a5)
    25d6:	4501                	c.li	a0,0
    25d8:	0ff77713          	andi	a4,a4,255
    25dc:	00176713          	ori	a4,a4,1
    25e0:	16e78da3          	sb	a4,379(a5)
    25e4:	16c78823          	sb	a2,368(a5)
    25e8:	00008067          	ret
    25ec:	4531                	c.li	a0,12
    25ee:	8082                	c.jr	ra

000025f0 <irq_ll_system_timer>:
    25f0:	000007b7          	lui	a5,0x0
    25f4:	17878793          	addi	a5,a5,376 # 178 <_AES_VMA_END>
    25f8:	18178703          	lb	a4,385(a5)
    25fc:	0ff77713          	andi	a4,a4,255
    2600:	0087545b          	beqc	a4,8,2608 <irq_ll_system_timer+0x18>
    2604:	00008067          	ret
    2608:	5c47a303          	lw	t1,1476(a5)
    260c:	fe030ce3          	beqz	t1,2604 <irq_ll_system_timer+0x14>
    2610:	00030067          	jr	t1

00002614 <blt_event_callback_func>:
    2614:	000007b7          	lui	a5,0x0
    2618:	17878793          	addi	a5,a5,376 # 178 <_AES_VMA_END>
    261c:	5d87a683          	lw	a3,1496(a5)
    2620:	872a                	c.mv	a4,a0
    2622:	ca89                	c.beqz	a3,2634 <blt_event_callback_func+0x20>
    2624:	4785                	c.li	a5,1
    2626:	00a797b3          	sll	a5,a5,a0
    262a:	8ff5                	c.and	a5,a3
    262c:	00079c63          	bnez	a5,2644 <blt_event_callback_func+0x30>
    2630:	00008067          	ret
    2634:	0ca787db          	lea.w	a5,a5,a0
    2638:	5dc7a303          	lw	t1,1500(a5)
    263c:	fe030ae3          	beqz	t1,2630 <blt_event_callback_func+0x1c>
    2640:	00030067          	jr	t1
    2644:	01000537          	lui	a0,0x1000
    2648:	00e56533          	or	a0,a0,a4
    264c:	20004317          	auipc	t1,0x20004
    2650:	3bc30067          	jr	956(t1) # 20006a08 <blc_hci_send_event>

00002654 <trng_rand>:
    2654:	000006b7          	lui	a3,0x0
    2658:	17868693          	addi	a3,a3,376 # 178 <_AES_VMA_END>
    265c:	6306a783          	lw	a5,1584(a3)
    2660:	6641                	c.lui	a2,0x10
    2662:	167d                	c.addi	a2,-1
    2664:	65a5                	c.lui	a1,0x9
    2666:	62c6a703          	lw	a4,1580(a3)
    266a:	00c7f533          	and	a0,a5,a2
    266e:	06958593          	addi	a1,a1,105 # 9069 <_RAMCODE_VMA_END+0x2c67>
    2672:	83c1                	c.srli	a5,0x10
    2674:	c4b517ff          	maddr32	a5,a0,a1
    2678:	6591                	c.lui	a1,0x4
    267a:	8e79                	c.and	a2,a4
    267c:	65058593          	addi	a1,a1,1616 # 4650 <blt_sdk_main_loop+0x264>
    2680:	8341                	c.srli	a4,0x10
    2682:	c4b6177f          	maddr32	a4,a2,a1
    2686:	80140637          	lui	a2,0x80140
    268a:	20062503          	lw	a0,512(a2) # 80140200 <_DATA_LMA_START+0x6012df08>
    268e:	01079613          	slli	a2,a5,0x10
    2692:	963a                	c.add	a2,a4
    2694:	62e6a623          	sw	a4,1580(a3)
    2698:	62f6a823          	sw	a5,1584(a3)
    269c:	8d31                	c.xor	a0,a2
    269e:	8082                	c.jr	ra

000026a0 <rf_set_rxmode>:
    26a0:	801417b7          	lui	a5,0x80141
    26a4:	04500713          	li	a4,69
    26a8:	a0e78123          	sb	a4,-1534(a5) # 80140a02 <_DATA_LMA_START+0x6012e70a>
    26ac:	c2078703          	lb	a4,-992(a5)
    26b0:	0ff77713          	andi	a4,a4,255
    26b4:	00876713          	ori	a4,a4,8
    26b8:	c2e78023          	sb	a4,-992(a5)
    26bc:	a0278703          	lb	a4,-1534(a5)
    26c0:	0ff77713          	andi	a4,a4,255
    26c4:	02076713          	ori	a4,a4,32
    26c8:	a0e78123          	sb	a4,-1534(a5)
    26cc:	82878703          	lb	a4,-2008(a5)
    26d0:	0ff77713          	andi	a4,a4,255
    26d4:	00176713          	ori	a4,a4,1
    26d8:	82e78423          	sb	a4,-2008(a5)
    26dc:	00008067          	ret

000026e0 <pm_tim_recover_32k_rc>:
    26e0:	000007b7          	lui	a5,0x0
    26e4:	17878793          	addi	a5,a5,376 # 178 <_AES_VMA_END>
    26e8:	6387a703          	lw	a4,1592(a5)
    26ec:	6647c603          	lbu	a2,1636(a5)
    26f0:	6347a583          	lw	a1,1588(a5)
    26f4:	40e50733          	sub	a4,a0,a4
    26f8:	6607a683          	lw	a3,1632(a5)
    26fc:	ee01                	c.bnez	a2,2714 <pm_tim_recover_32k_rc+0x34>
    26fe:	02d70633          	mul	a2,a4,a3
    2702:	64a7a823          	sw	a0,1616(a5)
    2706:	64e7a623          	sw	a4,1612(a5)
    270a:	00465693          	srli	a3,a2,0x4
    270e:	95b6                	c.add	a1,a3
    2710:	852e                	c.mv	a0,a1
    2712:	8082                	c.jr	ra
    2714:	00475613          	srli	a2,a4,0x4
    2718:	c4d615ff          	maddr32	a1,a2,a3
    271c:	64a7a823          	sw	a0,1616(a5)
    2720:	64e7a623          	sw	a4,1612(a5)
    2724:	852e                	c.mv	a0,a1
    2726:	8082                	c.jr	ra

00002728 <pm_get_32k_rc_calib>:
    2728:	801407b7          	lui	a5,0x80140
    272c:	2147a703          	lw	a4,532(a5) # 80140214 <_DATA_LMA_START+0x6012df1c>
    2730:	df75                	c.beqz	a4,272c <pm_get_32k_rc_calib+0x4>
    2732:	2147a503          	lw	a0,532(a5)
    2736:	000007b7          	lui	a5,0x0
    273a:	17878793          	addi	a5,a5,376 # 178 <_AES_VMA_END>
    273e:	6487a703          	lw	a4,1608(a5)
    2742:	64a7ac23          	sw	a0,1624(a5)
    2746:	0512                	c.slli	a0,0x4
    2748:	cb11                	c.beqz	a4,275c <pm_get_32k_rc_calib+0x34>
    274a:	65c7c603          	lbu	a2,1628(a5)
    274e:	4691                	c.li	a3,4
    2750:	8d19                	c.sub	a0,a4
    2752:	8e91                	c.sub	a3,a2
    2754:	40d55533          	sra	a0,a0,a3
    2758:	00e50533          	add	a0,a0,a4
    275c:	64a7a423          	sw	a0,1608(a5)
    2760:	63c7a783          	lw	a5,1596(a5)
    2764:	8511                	c.srai	a0,0x4
    2766:	02f507b3          	mul	a5,a0,a5
    276a:	87c9                	c.srai	a5,0x12
    276c:	953e                	c.add	a0,a5
    276e:	8082                	c.jr	ra

00002770 <pm_update_32k_rc_sleep_tick>:
    2770:	000007b7          	lui	a5,0x0
    2774:	17878793          	addi	a5,a5,376 # 178 <_AES_VMA_END>
    2778:	6507a703          	lw	a4,1616(a5)
    277c:	65c7c683          	lbu	a3,1628(a5)
    2780:	40e50733          	sub	a4,a0,a4
    2784:	64e7aa23          	sw	a4,1620(a5)
    2788:	e681                	c.bnez	a3,2790 <pm_update_32k_rc_sleep_tick+0x20>
    278a:	6347a703          	lw	a4,1588(a5)
    278e:	eb19                	c.bnez	a4,27a4 <pm_update_32k_rc_sleep_tick+0x34>
    2790:	0015e593          	ori	a1,a1,1
    2794:	64078e23          	sb	zero,1628(a5)
    2798:	62a7ac23          	sw	a0,1592(a5)
    279c:	62b7aa23          	sw	a1,1588(a5)
    27a0:	00008067          	ret
    27a4:	6387a703          	lw	a4,1592(a5)
    27a8:	6691                	c.lui	a3,0x4
    27aa:	40e50733          	sub	a4,a0,a4
    27ae:	6c07275b          	bfoz	a4,a4,27,0
    27b2:	e8068693          	addi	a3,a3,-384 # 3e80 <pm_sleep_start+0x130>
    27b6:	fee6f5e3          	bgeu	a3,a4,27a0 <pm_update_32k_rc_sleep_tick+0x30>
    27ba:	0015e593          	ori	a1,a1,1
    27be:	64078e23          	sb	zero,1628(a5)
    27c2:	62a7ac23          	sw	a0,1592(a5)
    27c6:	62b7aa23          	sw	a1,1588(a5)
    27ca:	bfd9                	c.j	27a0 <pm_update_32k_rc_sleep_tick+0x30>

000027cc <rf_set_ble_channel>:
    27cc:	80141737          	lui	a4,0x80141
    27d0:	0ff57793          	andi	a5,a0,255
    27d4:	80f706a3          	sb	a5,-2035(a4) # 8014080d <_DATA_LMA_START+0x6012e515>
    27d8:	4729                	c.li	a4,10
    27da:	0aa75163          	bge	a4,a0,287c <rf_set_ble_channel+0xb0>
    27de:	02400693          	li	a3,36
    27e2:	02a6d363          	bge	a3,a0,2808 <rf_set_ble_channel+0x3c>
    27e6:	105553db          	beqc	a0,37,28ec <rf_set_ble_channel+0x120>
    27ea:	0e655bdb          	beqc	a0,38,28e0 <rf_set_ble_channel+0x114>
    27ee:	107555db          	beqc	a0,39,28f8 <rf_set_ble_channel+0x12c>
    27f2:	fcd78693          	addi	a3,a5,-51
    27f6:	0ff6f693          	andi	a3,a3,255
    27fa:	00d76b63          	bltu	a4,a3,2810 <rf_set_ble_channel+0x44>
    27fe:	fc378513          	addi	a0,a5,-61
    2802:	1c05355b          	bfos	a0,a0,7,0
    2806:	a029                	c.j	2810 <rf_set_ble_channel+0x44>
    2808:	00378513          	addi	a0,a5,3
    280c:	1c05355b          	bfos	a0,a0,7,0
    2810:	6785                	c.lui	a5,0x1
    2812:	96078713          	addi	a4,a5,-1696 # 960 <adv_rx_buff+0x38>
    2816:	0475355b          	bfos	a0,a0,1,7
    281a:	953a                	c.add	a0,a4
    281c:	9d778713          	addi	a4,a5,-1577
    2820:	00151813          	slli	a6,a0,0x1
    2824:	02000693          	li	a3,32
    2828:	06a77c63          	bgeu	a4,a0,28a0 <rf_set_ble_channel+0xd4>
    282c:	801417b7          	lui	a5,0x80141
    2830:	e4478603          	lb	a2,-444(a5) # 80140e44 <_DATA_LMA_START+0x6012eb4c>
    2834:	0ff67613          	andi	a2,a2,255
    2838:	8d9fa70b          	lbugp	a4,-1832 # 800d8 <g_single_tong_freqoffset>
    283c:	00166613          	ori	a2,a2,1
    2840:	e4c78223          	sb	a2,-444(a5)
    2844:	e4478583          	lb	a1,-444(a5)
    2848:	9742                	c.add	a4,a6
    284a:	0477265b          	bfoz	a2,a4,1,7
    284e:	8985                	c.andi	a1,1
    2850:	8e4d                	c.or	a2,a1
    2852:	e4c78223          	sb	a2,-444(a5)
    2856:	e4578603          	lb	a2,-443(a5)
    285a:	3877275b          	bfoz	a4,a4,14,7
    285e:	0c067613          	andi	a2,a2,192
    2862:	8f51                	c.or	a4,a2
    2864:	e4e782a3          	sb	a4,-443(a5)
    2868:	e2978703          	lb	a4,-471(a5)
    286c:	03f77713          	andi	a4,a4,63
    2870:	8ed9                	c.or	a3,a4
    2872:	0ff6f693          	andi	a3,a3,255
    2876:	e2d784a3          	sb	a3,-471(a5)
    287a:	8082                	c.jr	ra
    287c:	00278513          	addi	a0,a5,2
    2880:	1c05355b          	bfos	a0,a0,7,0
    2884:	6785                	c.lui	a5,0x1
    2886:	96078713          	addi	a4,a5,-1696 # 960 <adv_rx_buff+0x38>
    288a:	0475355b          	bfos	a0,a0,1,7
    288e:	953a                	c.add	a0,a4
    2890:	9d778713          	addi	a4,a5,-1577
    2894:	00151813          	slli	a6,a0,0x1
    2898:	02000693          	li	a3,32
    289c:	f8a768e3          	bltu	a4,a0,282c <rf_set_ble_channel+0x60>
    28a0:	9be78713          	addi	a4,a5,-1602
    28a4:	04000693          	li	a3,64
    28a8:	f8a762e3          	bltu	a4,a0,282c <rf_set_ble_channel+0x60>
    28ac:	9a078713          	addi	a4,a5,-1632
    28b0:	06000693          	li	a3,96
    28b4:	f6a76ce3          	bltu	a4,a0,282c <rf_set_ble_channel+0x60>
    28b8:	98278713          	addi	a4,a5,-1662
    28bc:	f8000693          	li	a3,-128
    28c0:	f6a766e3          	bltu	a4,a0,282c <rf_set_ble_channel+0x60>
    28c4:	96478713          	addi	a4,a5,-1692
    28c8:	fa000693          	li	a3,-96
    28cc:	f6a760e3          	bltu	a4,a0,282c <rf_set_ble_channel+0x60>
    28d0:	94b78793          	addi	a5,a5,-1717
    28d4:	5681                	c.li	a3,-32
    28d6:	f4a7fbe3          	bgeu	a5,a0,282c <rf_set_ble_channel+0x60>
    28da:	fc000693          	li	a3,-64
    28de:	b7b9                	c.j	282c <rf_set_ble_channel+0x60>
    28e0:	6705                	c.lui	a4,0x1
    28e2:	2f470813          	addi	a6,a4,756 # 12f4 <_RETENTION_DATA_VMA_END+0x68>
    28e6:	fa000693          	li	a3,-96
    28ea:	b789                	c.j	282c <rf_set_ble_channel+0x60>
    28ec:	6705                	c.lui	a4,0x1
    28ee:	2c470813          	addi	a6,a4,708 # 12c4 <_RETENTION_DATA_VMA_END+0x38>
    28f2:	fc000693          	li	a3,-64
    28f6:	bf1d                	c.j	282c <rf_set_ble_channel+0x60>
    28f8:	6705                	c.lui	a4,0x1
    28fa:	36070813          	addi	a6,a4,864 # 1360 <smemset.constprop.15+0x8>
    28fe:	06000693          	li	a3,96
    2902:	b72d                	c.j	282c <rf_set_ble_channel+0x60>

00002904 <blt_ll_start_common>:
    2904:	1141                	c.addi	sp,-16
    2906:	c422                	c.swsp	s0,8(sp)
    2908:	c606                	c.swsp	ra,12(sp)
    290a:	c226                	c.swsp	s1,4(sp)
    290c:	801417b7          	lui	a5,0x80141
    2910:	47700713          	li	a4,1143
    2914:	a0e79e23          	sh	a4,-1508(a5) # 80140a1c <_DATA_LMA_START+0x6012e724>
    2918:	577d                	c.li	a4,-1
    291a:	a2e79023          	sh	a4,-1504(a5)
    291e:	00a54783          	lbu	a5,10(a0) # 100000a <FLASH_SIZE+0xf0000a>
    2922:	00051223          	sh	zero,4(a0)
    2926:	00050323          	sb	zero,6(a0)
    292a:	842a                	c.mv	s0,a0
    292c:	cba5                	c.beqz	a5,299c <blt_ll_start_common+0x98>
    292e:	000004b7          	lui	s1,0x0
    2932:	17848493          	addi	s1,s1,376 # 178 <_AES_VMA_END>
    2936:	01a55603          	lhu	a2,26(a0)
    293a:	01c55583          	lhu	a1,28(a0)
    293e:	6684a783          	lw	a5,1640(s1)
    2942:	0539                	c.addi	a0,14
    2944:	000780e7          	jalr	a5
    2948:	00a40623          	sb	a0,12(s0)
    294c:	1c05355b          	bfos	a0,a0,7,0
    2950:	e7dff0ef          	jal	ra,27cc <rf_set_ble_channel>
    2954:	47c4d783          	lhu	a5,1148(s1)
    2958:	80141737          	lui	a4,0x80141
    295c:	0791                	c.addi	a5,4
    295e:	0ff7f793          	andi	a5,a5,255
    2962:	82f708a3          	sb	a5,-1999(a4) # 80140831 <_DATA_LMA_START+0x6012e539>
    2966:	66c4a783          	lw	a5,1644(s1)
    296a:	c399                	c.beqz	a5,2970 <blt_ll_start_common+0x6c>
    296c:	000780e7          	jalr	a5
    2970:	541c                	c.lw	a5,40(s0)
    2972:	80141737          	lui	a4,0x80141
    2976:	80f72423          	sw	a5,-2040(a4) # 80140808 <_DATA_LMA_START+0x6012e510>
    297a:	c2570783          	lb	a5,-987(a4)
    297e:	4501                	c.li	a0,0
    2980:	0ff7f793          	andi	a5,a5,255
    2984:	0017e793          	ori	a5,a5,1
    2988:	c2f702a3          	sb	a5,-987(a4)
    298c:	545c                	c.lw	a5,44(s0)
    298e:	82f72223          	sw	a5,-2012(a4)
    2992:	40b2                	c.lwsp	ra,12(sp)
    2994:	4422                	c.lwsp	s0,8(sp)
    2996:	4492                	c.lwsp	s1,4(sp)
    2998:	0141                	c.addi	sp,16
    299a:	8082                	c.jr	ra
    299c:	00b54783          	lbu	a5,11(a0)
    29a0:	000004b7          	lui	s1,0x0
    29a4:	97aa                	c.add	a5,a0
    29a6:	0307c503          	lbu	a0,48(a5)
    29aa:	17848493          	addi	s1,s1,376 # 178 <_AES_VMA_END>
    29ae:	00a40623          	sb	a0,12(s0)
    29b2:	bf69                	c.j	294c <blt_ll_start_common+0x48>

000029b4 <rf_start_fsm>:
    29b4:	ffb57713          	andi	a4,a0,-5
    29b8:	08200793          	li	a5,130
    29bc:	04f70463          	beq	a4,a5,2a04 <rf_start_fsm+0x50>
    29c0:	08400793          	li	a5,132
    29c4:	04f50063          	beq	a0,a5,2a04 <rf_start_fsm+0x50>
    29c8:	80141737          	lui	a4,0x80141
    29cc:	a0c72c23          	sw	a2,-1512(a4) # 80140a18 <_DATA_LMA_START+0x6012e720>
    29d0:	a1670783          	lb	a5,-1514(a4)
    29d4:	0ff57513          	andi	a0,a0,255
    29d8:	0ff7f793          	andi	a5,a5,255
    29dc:	0047e793          	ori	a5,a5,4
    29e0:	a0f70b23          	sb	a5,-1514(a4)
    29e4:	a0a70023          	sb	a0,-1536(a4)
    29e8:	cd81                	c.beqz	a1,2a00 <rf_start_fsm+0x4c>
    29ea:	000a07b7          	lui	a5,0xa0
    29ee:	00f5f563          	bgeu	a1,a5,29f8 <rf_start_fsm+0x44>
    29f2:	c01807b7          	lui	a5,0xc0180
    29f6:	95be                	c.add	a1,a5
    29f8:	801007b7          	lui	a5,0x80100
    29fc:	44b7a423          	sw	a1,1096(a5) # 80100448 <_DATA_LMA_START+0x600ee150>
    2a00:	00008067          	ret
    2a04:	100007b7          	lui	a5,0x10000
    2a08:	80141737          	lui	a4,0x80141
    2a0c:	17fd                	c.addi	a5,-1
    2a0e:	a2f72423          	sw	a5,-1496(a4) # 80140a28 <_DATA_LMA_START+0x6012e730>
    2a12:	bf5d                	c.j	29c8 <rf_start_fsm+0x14>

00002a14 <ble_rx_dma_config>:
    2a14:	801006b7          	lui	a3,0x80100
    2a18:	200127b7          	lui	a5,0x20012
    2a1c:	4586a703          	lw	a4,1112(a3) # 80100458 <_DATA_LMA_START+0x600ee160>
    2a20:	1e47a783          	lw	a5,484(a5) # 200121e4 <rf_rx_dma_config>
    2a24:	8b3d                	c.andi	a4,15
    2a26:	0792                	c.slli	a5,0x4
    2a28:	8fd9                	c.or	a5,a4
    2a2a:	44f6ac23          	sw	a5,1112(a3)
    2a2e:	8082                	c.jr	ra

00002a30 <ble_tx_dma_config>:
    2a30:	801006b7          	lui	a3,0x80100
    2a34:	200127b7          	lui	a5,0x20012
    2a38:	4446a703          	lw	a4,1092(a3) # 80100444 <_DATA_LMA_START+0x600ee14c>
    2a3c:	1e87a783          	lw	a5,488(a5) # 200121e8 <rf_tx_dma_config>
    2a40:	8b3d                	c.andi	a4,15
    2a42:	0792                	c.slli	a5,0x4
    2a44:	8fd9                	c.or	a5,a4
    2a46:	44f6a223          	sw	a5,1092(a3)
    2a4a:	8082                	c.jr	ra

00002a4c <blc_ll_initBasicMCU>:
    2a4c:	1141                	c.addi	sp,-16
    2a4e:	80140737          	lui	a4,0x80140
    2a52:	c606                	c.swsp	ra,12(sp)
    2a54:	20072783          	lw	a5,512(a4) # 80140200 <_DATA_LMA_START+0x6012df08>
    2a58:	800006b7          	lui	a3,0x80000
    2a5c:	97b6                	c.add	a5,a3
    2a5e:	20f72223          	sw	a5,516(a4)
    2a62:	20870783          	lb	a5,520(a4)
    2a66:	e40026b7          	lui	a3,0xe4002
    2a6a:	0ff7f793          	andi	a5,a5,255
    2a6e:	0017e793          	ori	a5,a5,1
    2a72:	20f70423          	sb	a5,520(a4)
    2a76:	429c                	c.lw	a5,0(a3)
    2a78:	6621                	c.lui	a2,0x8
    2a7a:	8fd1                	c.or	a5,a2
    2a7c:	c29c                	c.sw	a5,0(a3)
    2a7e:	e4000737          	lui	a4,0xe4000
    2a82:	4789                	c.li	a5,2
    2a84:	df5c                	c.sw	a5,60(a4)
    2a86:	c35c                	c.sw	a5,4(a4)
    2a88:	e42007b7          	lui	a5,0xe4200
    2a8c:	0007a023          	sw	zero,0(a5) # e4200000 <_DATA_LMA_START+0xc41edd08>
    2a90:	fa1ff0ef          	jal	ra,2a30 <ble_tx_dma_config>
    2a94:	40b2                	c.lwsp	ra,12(sp)
    2a96:	0141                	c.addi	sp,16
    2a98:	f7dff06f          	j	2a14 <ble_rx_dma_config>

00002a9c <ble_rf_set_tx_dma>:
    2a9c:	80100737          	lui	a4,0x80100
    2aa0:	50c70783          	lb	a5,1292(a4) # 8010050c <_DATA_LMA_START+0x600ee214>
    2aa4:	0ff7f793          	andi	a5,a5,255
    2aa8:	0057e793          	ori	a5,a5,5
    2aac:	50f70623          	sb	a5,1292(a4)
    2ab0:	4ea709a3          	sb	a0,1267(a4)
    2ab4:	4eb70923          	sb	a1,1266(a4)
    2ab8:	89ffa7ab          	lwgp	a5,-1892 # 8009c <TXADDR>
    2abc:	000a0737          	lui	a4,0xa0
    2ac0:	00e7f663          	bgeu	a5,a4,2acc <ble_rf_set_tx_dma+0x30>
    2ac4:	c0180737          	lui	a4,0xc0180
    2ac8:	00e787b3          	add	a5,a5,a4
    2acc:	80100737          	lui	a4,0x80100
    2ad0:	44f72423          	sw	a5,1096(a4) # 80100448 <_DATA_LMA_START+0x600ee150>
    2ad4:	001417b7          	lui	a5,0x141
    2ad8:	88478793          	addi	a5,a5,-1916 # 140884 <FLASH_SIZE+0x40884>
    2adc:	44f72623          	sw	a5,1100(a4)
    2ae0:	00008067          	ret

00002ae4 <ble_rf_set_rx_dma>:
    2ae4:	801007b7          	lui	a5,0x80100
    2ae8:	50c78703          	lb	a4,1292(a5) # 8010050c <_DATA_LMA_START+0x600ee214>
    2aec:	0511                	c.addi	a0,4
    2aee:	0ff77713          	andi	a4,a4,255
    2af2:	00676713          	ori	a4,a4,6
    2af6:	50e78623          	sb	a4,1292(a5)
    2afa:	500786a3          	sb	zero,1293(a5)
    2afe:	00141737          	lui	a4,0x141
    2b02:	4eb78b23          	sb	a1,1270(a5)
    2b06:	88070713          	addi	a4,a4,-1920 # 140880 <FLASH_SIZE+0x40880>
    2b0a:	44e7ae23          	sw	a4,1116(a5)
    2b0e:	000a07b7          	lui	a5,0xa0
    2b12:	00f57563          	bgeu	a0,a5,2b1c <ble_rf_set_rx_dma+0x38>
    2b16:	c01807b7          	lui	a5,0xc0180
    2b1a:	953e                	c.add	a0,a5
    2b1c:	801007b7          	lui	a5,0x80100
    2b20:	46a7a023          	sw	a0,1120(a5) # 80100460 <_DATA_LMA_START+0x600ee168>
    2b24:	577d                	c.li	a4,-1
    2b26:	46e7a223          	sw	a4,1124(a5)
    2b2a:	8082                	c.jr	ra

00002b2c <blt_setScan_enter_manaul_rx>:
    2b2c:	1141                	c.addi	sp,-16
    2b2e:	c422                	c.swsp	s0,8(sp)
    2b30:	00000437          	lui	s0,0x0
    2b34:	17840413          	addi	s0,s0,376 # 178 <_AES_VMA_END>
    2b38:	c606                	c.swsp	ra,12(sp)
    2b3a:	c226                	c.swsp	s1,4(sp)
    2b3c:	4709                	c.li	a4,2
    2b3e:	67042783          	lw	a5,1648(s0)
    2b42:	18e40123          	sb	a4,386(s0)
    2b46:	cb89                	c.beqz	a5,2b58 <blt_setScan_enter_manaul_rx+0x2c>
    2b48:	01044703          	lbu	a4,16(s0)
    2b4c:	0017565b          	beqc	a4,1,2b58 <blt_setScan_enter_manaul_rx+0x2c>
    2b50:	4589                	c.li	a1,2
    2b52:	4505                	c.li	a0,1
    2b54:	000780e7          	jalr	a5
    2b58:	801406b7          	lui	a3,0x80140
    2b5c:	3e442783          	lw	a5,996(s0)
    2b60:	2006a703          	lw	a4,512(a3) # 80140200 <_DATA_LMA_START+0x6012df08>
    2b64:	3e842603          	lw	a2,1000(s0)
    2b68:	8f1d                	c.sub	a4,a5
    2b6a:	3dd44783          	lbu	a5,989(s0)
    2b6e:	00e67f63          	bgeu	a2,a4,2b8c <blt_setScan_enter_manaul_rx+0x60>
    2b72:	2006a703          	lw	a4,512(a3)
    2b76:	0785                	c.addi	a5,1
    2b78:	3ee42223          	sw	a4,996(s0)
    2b7c:	0ff7f793          	andi	a5,a5,255
    2b80:	4709                	c.li	a4,2
    2b82:	06f77763          	bgeu	a4,a5,2bf0 <blt_setScan_enter_manaul_rx+0xc4>
    2b86:	4781                	c.li	a5,0
    2b88:	3c040ea3          	sb	zero,989(s0)
    2b8c:	97a2                	c.add	a5,s0
    2b8e:	801414b7          	lui	s1,0x80141
    2b92:	6747c503          	lbu	a0,1652(a5)
    2b96:	02900793          	li	a5,41
    2b9a:	a0f48b23          	sb	a5,-1514(s1) # 80140a16 <_DATA_LMA_START+0x6012e71e>
    2b9e:	f8000793          	li	a5,-128
    2ba2:	82f48423          	sb	a5,-2008(s1)
    2ba6:	1c05355b          	bfos	a0,a0,7,0
    2baa:	04500793          	li	a5,69
    2bae:	a0f48123          	sb	a5,-1534(s1)
    2bb2:	3929                	c.jal	27cc <rf_set_ble_channel>
    2bb4:	d6be97b7          	lui	a5,0xd6be9
    2bb8:	98e78793          	addi	a5,a5,-1650 # d6be898e <_DATA_LMA_START+0xb6bd6696>
    2bbc:	80f4a423          	sw	a5,-2040(s1)
    2bc0:	005557b7          	lui	a5,0x555
    2bc4:	3dc44583          	lbu	a1,988(s0)
    2bc8:	3e042503          	lw	a0,992(s0)
    2bcc:	55578793          	addi	a5,a5,1365 # 555555 <FLASH_SIZE+0x455555>
    2bd0:	82f4a223          	sw	a5,-2012(s1)
    2bd4:	02500793          	li	a5,37
    2bd8:	82f488a3          	sb	a5,-1999(s1)
    2bdc:	f09ff0ef          	jal	ra,2ae4 <ble_rf_set_rx_dma>
    2be0:	57fd                	c.li	a5,-1
    2be2:	a2f49023          	sh	a5,-1504(s1)
    2be6:	4422                	c.lwsp	s0,8(sp)
    2be8:	40b2                	c.lwsp	ra,12(sp)
    2bea:	4492                	c.lwsp	s1,4(sp)
    2bec:	0141                	c.addi	sp,16
    2bee:	bc4d                	c.j	26a0 <rf_set_rxmode>
    2bf0:	3cf40ea3          	sb	a5,989(s0)
    2bf4:	f99ff06f          	j	2b8c <blt_setScan_enter_manaul_rx+0x60>

00002bf8 <blt_brx_start>:
    2bf8:	1141                	c.addi	sp,-16
    2bfa:	c422                	c.swsp	s0,8(sp)
    2bfc:	00000437          	lui	s0,0x0
    2c00:	17840413          	addi	s0,s0,376 # 178 <_AES_VMA_END>
    2c04:	c606                	c.swsp	ra,12(sp)
    2c06:	19442503          	lw	a0,404(s0)
    2c0a:	18740583          	lb	a1,391(s0)
    2c0e:	0ff5f593          	andi	a1,a1,255
    2c12:	3dc9                	c.jal	2ae4 <ble_rf_set_rx_dma>
    2c14:	801417b7          	lui	a5,0x80141
    2c18:	02900713          	li	a4,41
    2c1c:	a0e78b23          	sb	a4,-1514(a5) # 80140a16 <_DATA_LMA_START+0x6012e71e>
    2c20:	f8000713          	li	a4,-128
    2c24:	82e78423          	sb	a4,-2008(a5)
    2c28:	04500693          	li	a3,69
    2c2c:	a0d78123          	sb	a3,-1534(a5)
    2c30:	a0e78023          	sb	a4,-1536(a5)
    2c34:	4705                	c.li	a4,1
    2c36:	a0e780a3          	sb	a4,-1535(a5)
    2c3a:	801407b7          	lui	a5,0x80140
    2c3e:	2007a783          	lw	a5,512(a5) # 80140200 <_DATA_LMA_START+0x6012df08>
    2c42:	59442503          	lw	a0,1428(s0)
    2c46:	44f42c23          	sw	a5,1112(s0)
    2c4a:	44042a23          	sw	zero,1108(s0)
    2c4e:	40040c23          	sb	zero,1048(s0)
    2c52:	394d                	c.jal	2904 <blt_ll_start_common>
    2c54:	b98ff0ef          	jal	ra,1fec <blt_push_fifo_hw>
    2c58:	8b7f878b          	lbgp	a5,-1866 # 800b6 <sys_clk+0x2>
    2c5c:	0df7f793          	andi	a5,a5,223
    2c60:	4807d45b          	beqc	a5,64,2ce8 <blt_brx_start+0xf0>
    2c64:	00144783          	lbu	a5,1(s0)
    2c68:	008787b3          	add	a5,a5,s0
    2c6c:	67c7c783          	lbu	a5,1660(a5)
    2c70:	3c07a7db          	bfoz	a5,a5,15,0
    2c74:	80141737          	lui	a4,0x80141
    2c78:	a0f71223          	sh	a5,-1532(a4) # 80140a04 <_DATA_LMA_START+0x6012e70c>
    2c7c:	25800713          	li	a4,600
    2c80:	00144783          	lbu	a5,1(s0)
    2c84:	0037d45b          	beqc	a5,3,2c8c <blt_brx_start+0x94>
    2c88:	0fa00713          	li	a4,250
    2c8c:	801417b7          	lui	a5,0x80141
    2c90:	41944683          	lbu	a3,1049(s0)
    2c94:	a0e79523          	sh	a4,-1526(a5) # 80140a0a <_DATA_LMA_START+0x6012e712>
    2c98:	a0378703          	lb	a4,-1533(a5)
    2c9c:	04068c63          	beqz	a3,2cf4 <blt_brx_start+0xfc>
    2ca0:	0fe77713          	andi	a4,a4,254
    2ca4:	a0e781a3          	sb	a4,-1533(a5)
    2ca8:	51c45583          	lhu	a1,1308(s0)
    2cac:	51f44503          	lbu	a0,1311(s0)
    2cb0:	2c45a5db          	bfoz	a1,a1,11,4
    2cb4:	de9ff0ef          	jal	ra,2a9c <ble_rf_set_tx_dma>
    2cb8:	801407b7          	lui	a5,0x80140
    2cbc:	2007a603          	lw	a2,512(a5) # 80140200 <_DATA_LMA_START+0x6012df08>
    2cc0:	52442583          	lw	a1,1316(s0)
    2cc4:	0629                	c.addi	a2,10
    2cc6:	08200513          	li	a0,130
    2cca:	31ed                	c.jal	29b4 <rf_start_fsm>
    2ccc:	57c42783          	lw	a5,1404(s0)
    2cd0:	c781                	c.beqz	a5,2cd8 <blt_brx_start+0xe0>
    2cd2:	4509                	c.li	a0,2
    2cd4:	000780e7          	jalr	a5
    2cd8:	50040d23          	sb	zero,1306(s0)
    2cdc:	40b2                	c.lwsp	ra,12(sp)
    2cde:	4422                	c.lwsp	s0,8(sp)
    2ce0:	4501                	c.li	a0,0
    2ce2:	0141                	c.addi	sp,16
    2ce4:	00008067          	ret
    2ce8:	00144783          	lbu	a5,1(s0)
    2cec:	97a2                	c.add	a5,s0
    2cee:	6787c783          	lbu	a5,1656(a5)
    2cf2:	bfbd                	c.j	2c70 <blt_brx_start+0x78>
    2cf4:	0ff77713          	andi	a4,a4,255
    2cf8:	47442683          	lw	a3,1140(s0)
    2cfc:	00176713          	ori	a4,a4,1
    2d00:	a0e781a3          	sb	a4,-1533(a5)
    2d04:	a2d7a623          	sw	a3,-1492(a5)
    2d08:	fa1ff06f          	j	2ca8 <blt_brx_start+0xb0>

00002d0c <irq_slave_system_timer>:
    2d0c:	1141                	c.addi	sp,-16
    2d0e:	c422                	c.swsp	s0,8(sp)
    2d10:	00000437          	lui	s0,0x0
    2d14:	17840413          	addi	s0,s0,376 # 178 <_AES_VMA_END>
    2d18:	00112623          	sw	ra,12(sp)
    2d1c:	18140783          	lb	a5,385(s0)
    2d20:	0ff7f793          	andi	a5,a5,255
    2d24:	0087d65b          	beqc	a5,8,2d30 <irq_slave_system_timer+0x24>
    2d28:	40b2                	c.lwsp	ra,12(sp)
    2d2a:	4422                	c.lwsp	s0,8(sp)
    2d2c:	0141                	c.addi	sp,16
    2d2e:	8082                	c.jr	ra
    2d30:	18240783          	lb	a5,386(s0)
    2d34:	0ff7f793          	andi	a5,a5,255
    2d38:	0457d85b          	beqc	a5,5,2d88 <irq_slave_system_timer+0x7c>
    2d3c:	18240783          	lb	a5,386(s0)
    2d40:	0ff7f793          	andi	a5,a5,255
    2d44:	0067dc5b          	beqc	a5,6,2d5c <irq_slave_system_timer+0x50>
    2d48:	3da40783          	lb	a5,986(s0)
    2d4c:	bc67fe5b          	bbc	a5,6,2d28 <irq_slave_system_timer+0x1c>
    2d50:	18240783          	lb	a5,386(s0)
    2d54:	0ff7f793          	andi	a5,a5,255
    2d58:	bc27e85b          	bnec	a5,2,2d28 <irq_slave_system_timer+0x1c>
    2d5c:	4785                	c.li	a5,1
    2d5e:	18f40223          	sb	a5,388(s0)
    2d62:	577d                	c.li	a4,-1
    2d64:	801417b7          	lui	a5,0x80141
    2d68:	a2e79023          	sh	a4,-1504(a5) # 80140a20 <_DATA_LMA_START+0x6012e728>
    2d6c:	4795                	c.li	a5,5
    2d6e:	18f40123          	sb	a5,386(s0)
    2d72:	3559                	c.jal	2bf8 <blt_brx_start>
    2d74:	80140737          	lui	a4,0x80140
    2d78:	20072783          	lw	a5,512(a4) # 80140200 <_DATA_LMA_START+0x6012df08>
    2d7c:	44442683          	lw	a3,1092(s0)
    2d80:	97b6                	c.add	a5,a3
    2d82:	20f72223          	sw	a5,516(a4)
    2d86:	b74d                	c.j	2d28 <irq_slave_system_timer+0x1c>
    2d88:	801417b7          	lui	a5,0x80141
    2d8c:	84078783          	lb	a5,-1984(a5) # 80140840 <_DATA_LMA_START+0x6012e548>
    2d90:	4705                	c.li	a4,1
    2d92:	8b9d                	c.andi	a5,7
    2d94:	00f77a63          	bgeu	a4,a5,2da8 <irq_slave_system_timer+0x9c>
    2d98:	00144783          	lbu	a5,1(s0)
    2d9c:	0a37da5b          	beqc	a5,3,2e50 <irq_slave_system_timer+0x144>
    2da0:	48e44783          	lbu	a5,1166(s0)
    2da4:	08079c63          	bnez	a5,2e3c <irq_slave_system_timer+0x130>
    2da8:	54544783          	lbu	a5,1349(s0)
    2dac:	04078a63          	beqz	a5,2e00 <irq_slave_system_timer+0xf4>
    2db0:	d28ff0ef          	jal	ra,22d8 <blt_brx_post>
    2db4:	17140783          	lb	a5,369(s0)
    2db8:	0067f85b          	bbc	a5,6,2dc8 <irq_slave_system_timer+0xbc>
    2dbc:	68042783          	lw	a5,1664(s0)
    2dc0:	4705                	c.li	a4,1
    2dc2:	18e40123          	sb	a4,386(s0)
    2dc6:	9782                	c.jalr	a5
    2dc8:	3da40783          	lb	a5,986(s0)
    2dcc:	0067f65b          	bbc	a5,6,2dd8 <irq_slave_system_timer+0xcc>
    2dd0:	1c442783          	lw	a5,452(s0)
    2dd4:	000780e7          	jalr	a5
    2dd8:	18040223          	sb	zero,388(s0)
    2ddc:	18140783          	lb	a5,385(s0)
    2de0:	0ff7f793          	andi	a5,a5,255
    2de4:	0287dc5b          	beqc	a5,8,2e1c <irq_slave_system_timer+0x110>
    2de8:	e4002737          	lui	a4,0xe4002
    2dec:	801407b7          	lui	a5,0x80140
    2df0:	4685                	c.li	a3,1
    2df2:	20d784a3          	sb	a3,521(a5) # 80140209 <_DATA_LMA_START+0x6012df11>
    2df6:	431c                	c.lw	a5,0(a4)
    2df8:	9bf5                	c.andi	a5,-3
    2dfa:	c31c                	c.sw	a5,0(a4)
    2dfc:	f2dff06f          	j	2d28 <irq_slave_system_timer+0x1c>
    2e00:	59c42703          	lw	a4,1436(s0)
    2e04:	5a042783          	lw	a5,1440(s0)
    2e08:	faf704e3          	beq	a4,a5,2db0 <irq_slave_system_timer+0xa4>
    2e0c:	5a442703          	lw	a4,1444(s0)
    2e10:	43c42783          	lw	a5,1084(s0)
    2e14:	97ba                	c.add	a5,a4
    2e16:	5af42223          	sw	a5,1444(s0)
    2e1a:	bf59                	c.j	2db0 <irq_slave_system_timer+0xa4>
    2e1c:	45042703          	lw	a4,1104(s0)
    2e20:	43042783          	lw	a5,1072(s0)
    2e24:	801406b7          	lui	a3,0x80140
    2e28:	8f99                	c.sub	a5,a4
    2e2a:	68444703          	lbu	a4,1668(s0)
    2e2e:	20f6a223          	sw	a5,516(a3) # 80140204 <_DATA_LMA_START+0x6012df0c>
    2e32:	ee070be3          	beqz	a4,2d28 <irq_slave_system_timer+0x1c>
    2e36:	50040623          	sb	zero,1292(s0)
    2e3a:	b5fd                	c.j	2d28 <irq_slave_system_timer+0x1c>
    2e3c:	80140737          	lui	a4,0x80140
    2e40:	20072683          	lw	a3,512(a4) # 80140200 <_DATA_LMA_START+0x6012df08>
    2e44:	07e5                	c.addi	a5,25
    2e46:	079e                	c.slli	a5,0x7
    2e48:	97b6                	c.add	a5,a3
    2e4a:	20f72223          	sw	a5,516(a4)
    2e4e:	bde9                	c.j	2d28 <irq_slave_system_timer+0x1c>
    2e50:	801406b7          	lui	a3,0x80140
    2e54:	2006a783          	lw	a5,512(a3) # 80140200 <_DATA_LMA_START+0x6012df08>
    2e58:	6721                	c.lui	a4,0x8
    2e5a:	d0070713          	addi	a4,a4,-768 # 7d00 <_RAMCODE_VMA_END+0x18fe>
    2e5e:	97ba                	c.add	a5,a4
    2e60:	20f6a223          	sw	a5,516(a3)
    2e64:	ec5ff06f          	j	2d28 <irq_slave_system_timer+0x1c>

00002e68 <irq_blc_ll_rx>:
    2e68:	1141                	c.addi	sp,-16
    2e6a:	c422                	c.swsp	s0,8(sp)
    2e6c:	00000437          	lui	s0,0x0
    2e70:	17840413          	addi	s0,s0,376 # 178 <_AES_VMA_END>
    2e74:	c606                	c.swsp	ra,12(sp)
    2e76:	c226                	c.swsp	s1,4(sp)
    2e78:	68e44703          	lbu	a4,1678(s0)
    2e7c:	69442483          	lw	s1,1684(s0)
    2e80:	68d44603          	lbu	a2,1677(s0)
    2e84:	68845683          	lhu	a3,1672(s0)
    2e88:	00170793          	addi	a5,a4,1
    2e8c:	0ff7f793          	andi	a5,a5,255
    2e90:	00c7f5b3          	and	a1,a5,a2
    2e94:	8526                	c.mv	a0,s1
    2e96:	c4d5957f          	maddr32	a0,a1,a3
    2e9a:	8f71                	c.and	a4,a2
    2e9c:	18a42a23          	sw	a0,404(s0)
    2ea0:	19442503          	lw	a0,404(s0)
    2ea4:	18740583          	lb	a1,391(s0)
    2ea8:	c4d714ff          	maddr32	s1,a4,a3
    2eac:	0ff5f593          	andi	a1,a1,255
    2eb0:	68f40723          	sb	a5,1678(s0)
    2eb4:	c31ff0ef          	jal	ra,2ae4 <ble_rf_set_rx_dma>
    2eb8:	801417b7          	lui	a5,0x80141
    2ebc:	00100713          	li	a4,1
    2ec0:	a2e79023          	sh	a4,-1504(a5) # 80140a20 <_DATA_LMA_START+0x6012e728>
    2ec4:	801407b7          	lui	a5,0x80140
    2ec8:	2007a583          	lw	a1,512(a5) # 80140200 <_DATA_LMA_START+0x6012df08>
    2ecc:	00048123          	sb	zero,2(s1)
    2ed0:	18240783          	lb	a5,386(s0)
    2ed4:	0ff7f793          	andi	a5,a5,255
    2ed8:	1057d45b          	beqc	a5,5,2fe0 <irq_blc_ll_rx+0x178>
    2edc:	801417b7          	lui	a5,0x80141
    2ee0:	83178783          	lb	a5,-1999(a5) # 80140831 <_DATA_LMA_START+0x6012e539>
    2ee4:	0054c703          	lbu	a4,5(s1)
    2ee8:	0ff7f793          	andi	a5,a5,255
    2eec:	00e7e863          	bltu	a5,a4,2efc <irq_blc_ll_rx+0x94>
    2ef0:	00970733          	add	a4,a4,s1
    2ef4:	01070783          	lb	a5,16(a4)
    2ef8:	0207fa5b          	bbc	a5,0,2f2c <irq_blc_ll_rx+0xc4>
    2efc:	49440783          	lb	a5,1172(s0)
    2f00:	00178793          	addi	a5,a5,1
    2f04:	48f40a23          	sb	a5,1172(s0)
    2f08:	68e40783          	lb	a5,1678(s0)
    2f0c:	18942a23          	sw	s1,404(s0)
    2f10:	17fd                	c.addi	a5,-1
    2f12:	68f40723          	sb	a5,1678(s0)
    2f16:	19442503          	lw	a0,404(s0)
    2f1a:	18740583          	lb	a1,391(s0)
    2f1e:	4422                	c.lwsp	s0,8(sp)
    2f20:	40b2                	c.lwsp	ra,12(sp)
    2f22:	4492                	c.lwsp	s1,4(sp)
    2f24:	0ff5f593          	andi	a1,a1,255
    2f28:	0141                	c.addi	sp,16
    2f2a:	be6d                	c.j	2ae4 <ble_rf_set_rx_dma>
    2f2c:	18140783          	lb	a5,385(s0)
    2f30:	00000513          	li	a0,0
    2f34:	0ff7f793          	andi	a5,a5,255
    2f38:	0647d45b          	beqc	a5,4,2fa0 <irq_blc_ll_rx+0x138>
    2f3c:	18140783          	lb	a5,385(s0)
    2f40:	0ff7f793          	andi	a5,a5,255
    2f44:	0487ee5b          	bnec	a5,8,2fa0 <irq_blc_ll_rx+0x138>
    2f48:	18240783          	lb	a5,386(s0)
    2f4c:	0ff7f793          	andi	a5,a5,255
    2f50:	0057d85b          	beqc	a5,5,2f60 <irq_blc_ll_rx+0xf8>
    2f54:	18240783          	lb	a5,386(s0)
    2f58:	0ff7f793          	andi	a5,a5,255
    2f5c:	0437e25b          	bnec	a5,3,2fa0 <irq_blc_ll_rx+0x138>
    2f60:	69842703          	lw	a4,1688(s0)
    2f64:	4501                	c.li	a0,0
    2f66:	cf0d                	c.beqz	a4,2fa0 <irq_blc_ll_rx+0x138>
    2f68:	17840783          	lb	a5,376(s0)
    2f6c:	0ff7f793          	andi	a5,a5,255
    2f70:	0c078463          	beqz	a5,3038 <irq_blc_ll_rx+0x1d0>
    2f74:	17840783          	lb	a5,376(s0)
    2f78:	49444683          	lbu	a3,1172(s0)
    2f7c:	0ff7f793          	andi	a5,a5,255
    2f80:	0af6ec63          	bltu	a3,a5,3038 <irq_blc_ll_rx+0x1d0>
    2f84:	47842783          	lw	a5,1144(s0)
    2f88:	00100693          	li	a3,1
    2f8c:	0407e793          	ori	a5,a5,64
    2f90:	16d40ca3          	sb	a3,377(s0)
    2f94:	46f42c23          	sw	a5,1144(s0)
    2f98:	8526                	c.mv	a0,s1
    2f9a:	9702                	c.jalr	a4
    2f9c:	0ff57513          	andi	a0,a0,255
    2fa0:	16040ca3          	sb	zero,377(s0)
    2fa4:	17440703          	lb	a4,372(s0)
    2fa8:	0054c783          	lbu	a5,5(s1)
    2fac:	0ff77713          	andi	a4,a4,255
    2fb0:	97a6                	c.add	a5,s1
    2fb2:	00f7c683          	lbu	a3,15(a5)
    2fb6:	cf39                	c.beqz	a4,3014 <irq_blc_ll_rx+0x1ac>
    2fb8:	17440783          	lb	a5,372(s0)
    2fbc:	0ff7f793          	andi	a5,a5,255
    2fc0:	97b6                	c.add	a5,a3
    2fc2:	8385                	c.srli	a5,0x1
    2fc4:	16f40a23          	sb	a5,372(s0)
    2fc8:	49440783          	lb	a5,1172(s0)
    2fcc:	0785                	c.addi	a5,1
    2fce:	48f40a23          	sb	a5,1172(s0)
    2fd2:	d91d                	c.beqz	a0,2f08 <irq_blc_ll_rx+0xa0>
    2fd4:	40b2                	c.lwsp	ra,12(sp)
    2fd6:	4422                	c.lwsp	s0,8(sp)
    2fd8:	4492                	c.lwsp	s1,4(sp)
    2fda:	0141                	c.addi	sp,16
    2fdc:	00008067          	ret
    2fe0:	00144783          	lbu	a5,1(s0)
    2fe4:	0437d65b          	beqc	a5,3,3030 <irq_blc_ll_rx+0x1c8>
    2fe8:	48f44783          	lbu	a5,1167(s0)
    2fec:	cb85                	c.beqz	a5,301c <irq_blc_ll_rx+0x1b4>
    2fee:	80100737          	lui	a4,0x80100
    2ff2:	50070683          	lb	a3,1280(a4) # 80100500 <_DATA_LMA_START+0x600ee208>
    2ff6:	50170703          	lb	a4,1281(a4)
    2ffa:	0ff6f693          	andi	a3,a3,255
    2ffe:	0ff77713          	andi	a4,a4,255
    3002:	00e68d63          	beq	a3,a4,301c <irq_blc_ll_rx+0x1b4>
    3006:	6705                	c.lui	a4,0x1
    3008:	83470713          	addi	a4,a4,-1996 # 834 <blt_timer+0x1c>
    300c:	0ef707db          	lea.d	a5,a4,a5
    3010:	0792                	c.slli	a5,0x4
    3012:	a809                	c.j	3024 <irq_blc_ll_rx+0x1bc>
    3014:	16d40a23          	sb	a3,372(s0)
    3018:	fb1ff06f          	j	2fc8 <irq_blc_ll_rx+0x160>
    301c:	000087b7          	lui	a5,0x8
    3020:	34078793          	addi	a5,a5,832 # 8340 <_RAMCODE_VMA_END+0x1f3e>
    3024:	97ae                	c.add	a5,a1
    3026:	80140737          	lui	a4,0x80140
    302a:	20f72223          	sw	a5,516(a4) # 80140204 <_DATA_LMA_START+0x6012df0c>
    302e:	b57d                	c.j	2edc <irq_blc_ll_rx+0x74>
    3030:	67d5                	c.lui	a5,0x15
    3032:	b4078793          	addi	a5,a5,-1216 # 14b40 <BIN_SIZE+0x278e>
    3036:	b7fd                	c.j	3024 <irq_blc_ll_rx+0x1bc>
    3038:	68e40783          	lb	a5,1678(s0)
    303c:	68f40603          	lb	a2,1679(s0)
    3040:	68c44683          	lbu	a3,1676(s0)
    3044:	8f91                	c.sub	a5,a2
    3046:	03f7f793          	andi	a5,a5,63
    304a:	f4d7e7e3          	bltu	a5,a3,2f98 <irq_blc_ll_rx+0x130>
    304e:	bf1d                	c.j	2f84 <irq_blc_ll_rx+0x11c>

00003050 <irq_blt_sdk_handler>:
    3050:	1141                	c.addi	sp,-16
    3052:	c422                	c.swsp	s0,8(sp)
    3054:	00000437          	lui	s0,0x0
    3058:	17840413          	addi	s0,s0,376 # 178 <_AES_VMA_END>
    305c:	c606                	c.swsp	ra,12(sp)
    305e:	c226                	c.swsp	s1,4(sp)
    3060:	17240783          	lb	a5,370(s0)
    3064:	0ff7f793          	andi	a5,a5,255
    3068:	efe1                	c.bnez	a5,3140 <irq_blt_sdk_handler+0xf0>
    306a:	801417b7          	lui	a5,0x80141
    306e:	a2079483          	lh	s1,-1504(a5) # 80140a20 <_DATA_LMA_START+0x6012e728>
    3072:	3c04a4db          	bfoz	s1,s1,15,0
    3076:	0204f75b          	bbc	s1,0,30a4 <irq_blt_sdk_handler+0x54>
    307a:	18240783          	lb	a5,386(s0)
    307e:	0ff7f793          	andi	a5,a5,255
    3082:	1627eb5b          	bnec	a5,2,31f8 <irq_blt_sdk_handler+0x1a8>
    3086:	1bc42783          	lw	a5,444(s0)
    308a:	9782                	c.jalr	a5
    308c:	57c42703          	lw	a4,1404(s0)
    3090:	00070a63          	beqz	a4,30a4 <irq_blt_sdk_handler+0x54>
    3094:	18240783          	lb	a5,386(s0)
    3098:	0ff7f793          	andi	a5,a5,255
    309c:	1457e45b          	bnec	a5,5,31e4 <irq_blt_sdk_handler+0x194>
    30a0:	4505                	c.li	a0,1
    30a2:	9702                	c.jalr	a4
    30a4:	0414f25b          	bbc	s1,1,30e8 <irq_blt_sdk_handler+0x98>
    30a8:	57c42703          	lw	a4,1404(s0)
    30ac:	801417b7          	lui	a5,0x80141
    30b0:	4689                	c.li	a3,2
    30b2:	a2d79023          	sh	a3,-1504(a5) # 80140a20 <_DATA_LMA_START+0x6012e728>
    30b6:	cb09                	c.beqz	a4,30c8 <irq_blt_sdk_handler+0x78>
    30b8:	18240783          	lb	a5,386(s0)
    30bc:	0ff7f793          	andi	a5,a5,255
    30c0:	1057ea5b          	bnec	a5,5,31d4 <irq_blt_sdk_handler+0x184>
    30c4:	4509                	c.li	a0,2
    30c6:	9702                	c.jalr	a4
    30c8:	69c42703          	lw	a4,1692(s0)
    30cc:	cb01                	c.beqz	a4,30dc <irq_blt_sdk_handler+0x8c>
    30ce:	17640783          	lb	a5,374(s0)
    30d2:	0ff7f793          	andi	a5,a5,255
    30d6:	c399                	c.beqz	a5,30dc <irq_blt_sdk_handler+0x8c>
    30d8:	000700e7          	jalr	a4
    30dc:	18140783          	lb	a5,385(s0)
    30e0:	0ff7f793          	andi	a5,a5,255
    30e4:	0887d65b          	beqc	a5,8,3170 <irq_blt_sdk_handler+0x120>
    30e8:	4744f493          	andi	s1,s1,1140
    30ec:	00048e63          	beqz	s1,3108 <irq_blt_sdk_handler+0xb8>
    30f0:	801417b7          	lui	a5,0x80141
    30f4:	47400713          	li	a4,1140
    30f8:	a2e79023          	sh	a4,-1504(a5) # 80140a20 <_DATA_LMA_START+0x6012e728>
    30fc:	18240783          	lb	a5,386(s0)
    3100:	0ff7f793          	andi	a5,a5,255
    3104:	0a57de5b          	beqc	a5,5,31c0 <irq_blt_sdk_handler+0x170>
    3108:	801407b7          	lui	a5,0x80140
    310c:	20978703          	lb	a4,521(a5) # 80140209 <_DATA_LMA_START+0x6012df11>
    3110:	42077e5b          	bbs	a4,0,314c <irq_blt_sdk_handler+0xfc>
    3114:	80140737          	lui	a4,0x80140
    3118:	20472783          	lw	a5,516(a4) # 80140204 <_DATA_LMA_START+0x6012df0c>
    311c:	20072603          	lw	a2,512(a4)
    3120:	400006b7          	lui	a3,0x40000
    3124:	40c787b3          	sub	a5,a5,a2
    3128:	00f6fc63          	bgeu	a3,a5,3140 <irq_blt_sdk_handler+0xf0>
    312c:	18140783          	lb	a5,385(s0)
    3130:	8bb9                	c.andi	a5,14
    3132:	c799                	c.beqz	a5,3140 <irq_blt_sdk_handler+0xf0>
    3134:	20072783          	lw	a5,512(a4)
    3138:	7d078793          	addi	a5,a5,2000
    313c:	20f72223          	sw	a5,516(a4)
    3140:	40b2                	c.lwsp	ra,12(sp)
    3142:	4422                	c.lwsp	s0,8(sp)
    3144:	4492                	c.lwsp	s1,4(sp)
    3146:	0141                	c.addi	sp,16
    3148:	00008067          	ret
    314c:	00100713          	li	a4,1
    3150:	20e784a3          	sb	a4,521(a5)
    3154:	c9cff0ef          	jal	ra,25f0 <irq_ll_system_timer>
    3158:	80140737          	lui	a4,0x80140
    315c:	20472783          	lw	a5,516(a4) # 80140204 <_DATA_LMA_START+0x6012df0c>
    3160:	20072603          	lw	a2,512(a4)
    3164:	400006b7          	lui	a3,0x40000
    3168:	8f91                	c.sub	a5,a2
    316a:	fcf6e1e3          	bltu	a3,a5,312c <irq_blt_sdk_handler+0xdc>
    316e:	bfc9                	c.j	3140 <irq_blt_sdk_handler+0xf0>
    3170:	52240783          	lb	a5,1314(s0)
    3174:	52340683          	lb	a3,1315(s0)
    3178:	8f95                	c.sub	a5,a3
    317a:	8bfd                	c.andi	a5,31
    317c:	d7b5                	c.beqz	a5,30e8 <irq_blt_sdk_handler+0x98>
    317e:	80100637          	lui	a2,0x80100
    3182:	50060703          	lb	a4,1280(a2) # 80100500 <_DATA_LMA_START+0x600ee208>
    3186:	50160503          	lb	a0,1281(a2)
    318a:	4585                	c.li	a1,1
    318c:	8f09                	c.sub	a4,a0
    318e:	8b7d                	c.andi	a4,31
    3190:	177d                	c.addi	a4,-1
    3192:	f4e5ebe3          	bltu	a1,a4,30e8 <irq_blt_sdk_handler+0x98>
    3196:	50060703          	lb	a4,1280(a2)
    319a:	96be                	c.add	a3,a5
    319c:	97ba                	c.add	a5,a4
    319e:	52d401a3          	sb	a3,1315(s0)
    31a2:	0ff7f793          	andi	a5,a5,255
    31a6:	50f60023          	sb	a5,1280(a2)
    31aa:	50160703          	lb	a4,1281(a2)
    31ae:	50060783          	lb	a5,1280(a2)
    31b2:	8b7d                	c.andi	a4,31
    31b4:	8bfd                	c.andi	a5,31
    31b6:	56e40923          	sb	a4,1394(s0)
    31ba:	56f409a3          	sb	a5,1395(s0)
    31be:	b72d                	c.j	30e8 <irq_blt_sdk_handler+0x98>
    31c0:	80140737          	lui	a4,0x80140
    31c4:	20072783          	lw	a5,512(a4) # 80140200 <_DATA_LMA_START+0x6012df08>
    31c8:	0c878793          	addi	a5,a5,200
    31cc:	20f72223          	sw	a5,516(a4)
    31d0:	f39ff06f          	j	3108 <irq_blt_sdk_handler+0xb8>
    31d4:	18240783          	lb	a5,386(s0)
    31d8:	0ff7f793          	andi	a5,a5,255
    31dc:	ae37e65b          	bnec	a5,3,30c8 <irq_blt_sdk_handler+0x78>
    31e0:	ee5ff06f          	j	30c4 <irq_blt_sdk_handler+0x74>
    31e4:	18240783          	lb	a5,386(s0)
    31e8:	0ff7f793          	andi	a5,a5,255
    31ec:	aa37da5b          	beqc	a5,3,30a0 <irq_blt_sdk_handler+0x50>
    31f0:	ae14fc5b          	bbc	s1,1,30e8 <irq_blt_sdk_handler+0x98>
    31f4:	eb5ff06f          	j	30a8 <irq_blt_sdk_handler+0x58>
    31f8:	c71ff0ef          	jal	ra,2e68 <irq_blc_ll_rx>
    31fc:	e91ff06f          	j	308c <irq_blt_sdk_handler+0x3c>

00003200 <stimer_irq_handler>:
    3200:	e51ff06f          	j	3050 <irq_blt_sdk_handler>

00003204 <rf_irq_handler>:
    3204:	e4dff06f          	j	3050 <irq_blt_sdk_handler>

00003208 <delay_ms>:
    3208:	000047b7          	lui	a5,0x4
    320c:	e8078793          	addi	a5,a5,-384 # 3e80 <pm_sleep_start+0x130>
    3210:	02f50533          	mul	a0,a0,a5
    3214:	801407b7          	lui	a5,0x80140
    3218:	2007a683          	lw	a3,512(a5) # 80140200 <_DATA_LMA_START+0x6012df08>
    321c:	80140737          	lui	a4,0x80140
    3220:	20072783          	lw	a5,512(a4) # 80140200 <_DATA_LMA_START+0x6012df08>
    3224:	8f95                	c.sub	a5,a3
    3226:	fef57de3          	bgeu	a0,a5,3220 <delay_ms+0x18>
    322a:	8082                	c.jr	ra

0000322c <delay_us>:
    322c:	801407b7          	lui	a5,0x80140
    3230:	2007a683          	lw	a3,512(a5) # 80140200 <_DATA_LMA_START+0x6012df08>
    3234:	00451513          	slli	a0,a0,0x4
    3238:	80140737          	lui	a4,0x80140
    323c:	20072783          	lw	a5,512(a4) # 80140200 <_DATA_LMA_START+0x6012df08>
    3240:	8f95                	c.sub	a5,a3
    3242:	fef57de3          	bgeu	a0,a5,323c <delay_us+0x10>
    3246:	8082                	c.jr	ra

00003248 <flash_send_addr>:
    3248:	5d05275b          	bfoz	a4,a0,23,16
    324c:	801407b7          	lui	a5,0x80140
    3250:	801406b7          	lui	a3,0x80140
    3254:	10e78023          	sb	a4,256(a5) # 80140100 <_DATA_LMA_START+0x6012de08>
    3258:	10268783          	lb	a5,258(a3) # 80140102 <_DATA_LMA_START+0x6012de0a>
    325c:	fe07fe5b          	bbs	a5,0,3258 <flash_send_addr+0x10>
    3260:	3c8527db          	bfoz	a5,a0,15,8
    3264:	80140737          	lui	a4,0x80140
    3268:	10f68023          	sb	a5,256(a3)
    326c:	10270783          	lb	a5,258(a4) # 80140102 <_DATA_LMA_START+0x6012de0a>
    3270:	fe07fe5b          	bbs	a5,0,326c <flash_send_addr+0x24>
    3274:	0ff57513          	andi	a0,a0,255
    3278:	801406b7          	lui	a3,0x80140
    327c:	10a70023          	sb	a0,256(a4)
    3280:	10268783          	lb	a5,258(a3) # 80140102 <_DATA_LMA_START+0x6012de0a>
    3284:	fe07fe5b          	bbs	a5,0,3280 <flash_send_addr+0x38>
    3288:	00008067          	ret

0000328c <flash_send_cmd>:
    328c:	801407b7          	lui	a5,0x80140
    3290:	10178703          	lb	a4,257(a5) # 80140101 <_DATA_LMA_START+0x6012de09>
    3294:	0ff77713          	andi	a4,a4,255
    3298:	01076713          	ori	a4,a4,16
    329c:	10e780a3          	sb	a4,257(a5)
    32a0:	0001                	c.nop
    32a2:	0001                	c.nop
    32a4:	0001                	c.nop
    32a6:	0001                	c.nop
    32a8:	0001                	c.nop
    32aa:	0001                	c.nop
    32ac:	0001                	c.nop
    32ae:	0001                	c.nop
    32b0:	0001                	c.nop
    32b2:	0001                	c.nop
    32b4:	10178683          	lb	a3,257(a5)
    32b8:	0ff57513          	andi	a0,a0,255
    32bc:	0ef6f693          	andi	a3,a3,239
    32c0:	10d780a3          	sb	a3,257(a5)
    32c4:	80140737          	lui	a4,0x80140
    32c8:	10a78023          	sb	a0,256(a5)
    32cc:	10270783          	lb	a5,258(a4) # 80140102 <_DATA_LMA_START+0x6012de0a>
    32d0:	fe07fe5b          	bbs	a5,0,32cc <flash_send_cmd+0x40>
    32d4:	00008067          	ret

000032d8 <flash_mspi_read_ram>:
    32d8:	1101                	c.addi	sp,-32
    32da:	cc22                	c.swsp	s0,24(sp)
    32dc:	ca26                	c.swsp	s1,20(sp)
    32de:	c84a                	c.swsp	s2,16(sp)
    32e0:	c64e                	c.swsp	s3,12(sp)
    32e2:	c452                	c.swsp	s4,8(sp)
    32e4:	c256                	c.swsp	s5,4(sp)
    32e6:	ce06                	c.swsp	ra,28(sp)
    32e8:	89aa                	c.mv	s3,a0
    32ea:	843a                	c.mv	s0,a4
    32ec:	84be                	c.mv	s1,a5
    32ee:	4705                	c.li	a4,1
    32f0:	e42007b7          	lui	a5,0xe4200
    32f4:	8a2e                	c.mv	s4,a1
    32f6:	8ab2                	c.mv	s5,a2
    32f8:	8936                	c.mv	s2,a3
    32fa:	80140537          	lui	a0,0x80140
    32fe:	c398                	c.sw	a4,0(a5)
    3300:	10250703          	lb	a4,258(a0) # 80140102 <_DATA_LMA_START+0x6012de0a>
    3304:	fe077e5b          	bbs	a4,0,3300 <flash_mspi_read_ram+0x28>
    3308:	10150783          	lb	a5,257(a0)
    330c:	80140837          	lui	a6,0x80140
    3310:	0ff7f793          	andi	a5,a5,255
    3314:	0107e793          	ori	a5,a5,16
    3318:	10f500a3          	sb	a5,257(a0)
    331c:	32880703          	lb	a4,808(a6) # 80140328 <_DATA_LMA_START+0x6012e030>
    3320:	be377e5b          	bbc	a4,3,331c <flash_mspi_read_ram+0x44>
    3324:	10180783          	lb	a5,257(a6)
    3328:	854e                	c.mv	a0,s3
    332a:	0fd7f793          	andi	a5,a5,253
    332e:	10f800a3          	sb	a5,257(a6)
    3332:	10180783          	lb	a5,257(a6)
    3336:	0f37f793          	andi	a5,a5,243
    333a:	10f800a3          	sb	a5,257(a6)
    333e:	37b9                	c.jal	328c <flash_send_cmd>
    3340:	0e0a9c63          	bnez	s5,3438 <flash_mspi_read_ram+0x160>
    3344:	00000713          	li	a4,0
    3348:	801405b7          	lui	a1,0x80140
    334c:	01277c63          	bgeu	a4,s2,3364 <flash_mspi_read_ram+0x8c>
    3350:	00100713          	li	a4,1
    3354:	10058023          	sb	zero,256(a1) # 80140100 <_DATA_LMA_START+0x6012de08>
    3358:	10258603          	lb	a2,258(a1)
    335c:	fe067e5b          	bbs	a2,0,3358 <flash_mspi_read_ram+0x80>
    3360:	ff2768e3          	bltu	a4,s2,3350 <flash_mspi_read_ram+0x78>
    3364:	01b9ecdb          	bnec	s3,59,337c <flash_mspi_read_ram+0xa4>
    3368:	80140737          	lui	a4,0x80140
    336c:	10170783          	lb	a5,257(a4) # 80140101 <_DATA_LMA_START+0x6012de09>
    3370:	0f37f793          	andi	a5,a5,243
    3374:	0047e793          	ori	a5,a5,4
    3378:	10f700a3          	sb	a5,257(a4)
    337c:	80140737          	lui	a4,0x80140
    3380:	10170783          	lb	a5,257(a4) # 80140101 <_DATA_LMA_START+0x6012de09>
    3384:	801406b7          	lui	a3,0x80140
    3388:	0ff7f793          	andi	a5,a5,255
    338c:	0027e793          	ori	a5,a5,2
    3390:	10f700a3          	sb	a5,257(a4)
    3394:	10070023          	sb	zero,256(a4)
    3398:	10268703          	lb	a4,258(a3) # 80140102 <_DATA_LMA_START+0x6012de0a>
    339c:	fe077e5b          	bbs	a4,0,3398 <flash_mspi_read_ram+0xc0>
    33a0:	10168703          	lb	a4,257(a3)
    33a4:	801407b7          	lui	a5,0x80140
    33a8:	0ff77713          	andi	a4,a4,255
    33ac:	00176713          	ori	a4,a4,1
    33b0:	10e680a3          	sb	a4,257(a3)
    33b4:	10278703          	lb	a4,258(a5) # 80140102 <_DATA_LMA_START+0x6012de0a>
    33b8:	fe077e5b          	bbs	a4,0,33b4 <flash_mspi_read_ram+0xdc>
    33bc:	02048263          	beqz	s1,33e0 <flash_mspi_read_ram+0x108>
    33c0:	00940733          	add	a4,s0,s1
    33c4:	801406b7          	lui	a3,0x80140
    33c8:	10068783          	lb	a5,256(a3) # 80140100 <_DATA_LMA_START+0x6012de08>
    33cc:	00140413          	addi	s0,s0,1
    33d0:	fef40fa3          	sb	a5,-1(s0)
    33d4:	10268783          	lb	a5,258(a3)
    33d8:	fe07fe5b          	bbs	a5,0,33d4 <flash_mspi_read_ram+0xfc>
    33dc:	fee416e3          	bne	s0,a4,33c8 <flash_mspi_read_ram+0xf0>
    33e0:	801407b7          	lui	a5,0x80140
    33e4:	10178703          	lb	a4,257(a5) # 80140101 <_DATA_LMA_START+0x6012de09>
    33e8:	0fe77713          	andi	a4,a4,254
    33ec:	10e780a3          	sb	a4,257(a5)
    33f0:	01b9e8db          	bnec	s3,59,3400 <flash_mspi_read_ram+0x128>
    33f4:	10178703          	lb	a4,257(a5)
    33f8:	0f377713          	andi	a4,a4,243
    33fc:	10e780a3          	sb	a4,257(a5)
    3400:	80140737          	lui	a4,0x80140
    3404:	10170783          	lb	a5,257(a4) # 80140101 <_DATA_LMA_START+0x6012de09>
    3408:	0ff7f793          	andi	a5,a5,255
    340c:	0107e793          	ori	a5,a5,16
    3410:	10f700a3          	sb	a5,257(a4)
    3414:	0001                	c.nop
    3416:	0001                	c.nop
    3418:	0001                	c.nop
    341a:	0001                	c.nop
    341c:	0001                	c.nop
    341e:	e42007b7          	lui	a5,0xe4200
    3422:	0007a023          	sw	zero,0(a5) # e4200000 <_DATA_LMA_START+0xc41edd08>
    3426:	40f2                	c.lwsp	ra,28(sp)
    3428:	4462                	c.lwsp	s0,24(sp)
    342a:	44d2                	c.lwsp	s1,20(sp)
    342c:	4942                	c.lwsp	s2,16(sp)
    342e:	49b2                	c.lwsp	s3,12(sp)
    3430:	4a22                	c.lwsp	s4,8(sp)
    3432:	4a92                	c.lwsp	s5,4(sp)
    3434:	6105                	c.addi16sp	sp,32
    3436:	8082                	c.jr	ra
    3438:	8552                	c.mv	a0,s4
    343a:	3539                	c.jal	3248 <flash_send_addr>
    343c:	f09ff06f          	j	3344 <flash_mspi_read_ram+0x6c>

00003440 <flash_wait_done>:
    3440:	1141                	c.addi	sp,-16
    3442:	4515                	c.li	a0,5
    3444:	c606                	c.swsp	ra,12(sp)
    3446:	3599                	c.jal	328c <flash_send_cmd>
    3448:	009896b7          	lui	a3,0x989
    344c:	68068693          	addi	a3,a3,1664 # 989680 <FLASH_SIZE+0x889680>
    3450:	80140737          	lui	a4,0x80140
    3454:	10070023          	sb	zero,256(a4) # 80140100 <_DATA_LMA_START+0x6012de08>
    3458:	10270783          	lb	a5,258(a4)
    345c:	fe07fe5b          	bbs	a5,0,3458 <flash_wait_done+0x18>
    3460:	10070783          	lb	a5,256(a4)
    3464:	0007f45b          	bbc	a5,0,346c <flash_wait_done+0x2c>
    3468:	16fd                	c.addi	a3,-1
    346a:	f6ed                	c.bnez	a3,3454 <flash_wait_done+0x14>
    346c:	80140737          	lui	a4,0x80140
    3470:	10170783          	lb	a5,257(a4) # 80140101 <_DATA_LMA_START+0x6012de09>
    3474:	0ff7f793          	andi	a5,a5,255
    3478:	0107e793          	ori	a5,a5,16
    347c:	10f700a3          	sb	a5,257(a4)
    3480:	40b2                	c.lwsp	ra,12(sp)
    3482:	0141                	c.addi	sp,16
    3484:	00008067          	ret

00003488 <flash_mspi_write_ram.constprop.67>:
    3488:	1101                	c.addi	sp,-32
    348a:	cc22                	c.swsp	s0,24(sp)
    348c:	ca26                	c.swsp	s1,20(sp)
    348e:	c84a                	c.swsp	s2,16(sp)
    3490:	c64e                	c.swsp	s3,12(sp)
    3492:	ce06                	c.swsp	ra,28(sp)
    3494:	892a                	c.mv	s2,a0
    3496:	e42007b7          	lui	a5,0xe4200
    349a:	4705                	c.li	a4,1
    349c:	84ae                	c.mv	s1,a1
    349e:	89b2                	c.mv	s3,a2
    34a0:	8436                	c.mv	s0,a3
    34a2:	80140537          	lui	a0,0x80140
    34a6:	c398                	c.sw	a4,0(a5)
    34a8:	10250783          	lb	a5,258(a0) # 80140102 <_DATA_LMA_START+0x6012de0a>
    34ac:	fe07fe5b          	bbs	a5,0,34a8 <flash_mspi_write_ram.constprop.67+0x20>
    34b0:	10150783          	lb	a5,257(a0)
    34b4:	80140737          	lui	a4,0x80140
    34b8:	0ff7f793          	andi	a5,a5,255
    34bc:	0107e793          	ori	a5,a5,16
    34c0:	10f500a3          	sb	a5,257(a0)
    34c4:	32870783          	lb	a5,808(a4) # 80140328 <_DATA_LMA_START+0x6012e030>
    34c8:	be37fe5b          	bbc	a5,3,34c4 <flash_mspi_write_ram.constprop.67+0x3c>
    34cc:	10170783          	lb	a5,257(a4)
    34d0:	4519                	c.li	a0,6
    34d2:	0fd7f793          	andi	a5,a5,253
    34d6:	10f700a3          	sb	a5,257(a4)
    34da:	10170783          	lb	a5,257(a4)
    34de:	0f37f793          	andi	a5,a5,243
    34e2:	10f700a3          	sb	a5,257(a4)
    34e6:	335d                	c.jal	328c <flash_send_cmd>
    34e8:	01200533          	add	a0,zero,s2
    34ec:	da1ff0ef          	jal	ra,328c <flash_send_cmd>
    34f0:	00900533          	add	a0,zero,s1
    34f4:	d55ff0ef          	jal	ra,3248 <flash_send_addr>
    34f8:	c015                	c.beqz	s0,351c <flash_mspi_write_ram.constprop.67+0x94>
    34fa:	864e                	c.mv	a2,s3
    34fc:	008986b3          	add	a3,s3,s0
    3500:	80140737          	lui	a4,0x80140
    3504:	00064783          	lbu	a5,0(a2)
    3508:	10f70023          	sb	a5,256(a4) # 80140100 <_DATA_LMA_START+0x6012de08>
    350c:	10270783          	lb	a5,258(a4)
    3510:	fe07fe5b          	bbs	a5,0,350c <flash_mspi_write_ram.constprop.67+0x84>
    3514:	00160613          	addi	a2,a2,1
    3518:	fec696e3          	bne	a3,a2,3504 <flash_mspi_write_ram.constprop.67+0x7c>
    351c:	80140737          	lui	a4,0x80140
    3520:	10170783          	lb	a5,257(a4) # 80140101 <_DATA_LMA_START+0x6012de09>
    3524:	0ff7f793          	andi	a5,a5,255
    3528:	0107e793          	ori	a5,a5,16
    352c:	10f700a3          	sb	a5,257(a4)
    3530:	f11ff0ef          	jal	ra,3440 <flash_wait_done>
    3534:	0001                	c.nop
    3536:	0001                	c.nop
    3538:	0001                	c.nop
    353a:	0001                	c.nop
    353c:	0001                	c.nop
    353e:	e42007b7          	lui	a5,0xe4200
    3542:	0007a023          	sw	zero,0(a5) # e4200000 <_DATA_LMA_START+0xc41edd08>
    3546:	40f2                	c.lwsp	ra,28(sp)
    3548:	4462                	c.lwsp	s0,24(sp)
    354a:	44d2                	c.lwsp	s1,20(sp)
    354c:	4942                	c.lwsp	s2,16(sp)
    354e:	49b2                	c.lwsp	s3,12(sp)
    3550:	6105                	c.addi16sp	sp,32
    3552:	8082                	c.jr	ra

00003554 <clock_set_32k_tick>:
    3554:	801406b7          	lui	a3,0x80140
    3558:	20a68703          	lb	a4,522(a3) # 8014020a <_DATA_LMA_START+0x6012df12>
    355c:	801407b7          	lui	a5,0x80140
    3560:	0ff77713          	andi	a4,a4,255
    3564:	00176713          	ori	a4,a4,1
    3568:	20e68523          	sb	a4,522(a3)
    356c:	20b78703          	lb	a4,523(a5) # 8014020b <_DATA_LMA_START+0x6012df13>
    3570:	20b78693          	addi	a3,a5,523
    3574:	fe677c5b          	bbs	a4,6,356c <clock_set_32k_tick+0x18>
    3578:	20a7a623          	sw	a0,524(a5)
    357c:	47a1                	c.li	a5,8
    357e:	00f68023          	sb	a5,0(a3)
    3582:	0001                	c.nop
    3584:	0001                	c.nop
    3586:	0001                	c.nop
    3588:	0001                	c.nop
    358a:	0001                	c.nop
    358c:	0001                	c.nop
    358e:	0001                	c.nop
    3590:	0001                	c.nop
    3592:	0001                	c.nop
    3594:	0001                	c.nop
    3596:	0001                	c.nop
    3598:	0001                	c.nop
    359a:	0001                	c.nop
    359c:	0001                	c.nop
    359e:	0001                	c.nop
    35a0:	00000013          	nop
    35a4:	80140737          	lui	a4,0x80140
    35a8:	20b70783          	lb	a5,523(a4) # 8014020b <_DATA_LMA_START+0x6012df13>
    35ac:	fe37fe5b          	bbs	a5,3,35a8 <clock_set_32k_tick+0x54>
    35b0:	00008067          	ret

000035b4 <clock_get_32k_tick>:
    35b4:	1141                	c.addi	sp,-16
    35b6:	c422                	c.swsp	s0,8(sp)
    35b8:	00112623          	sw	ra,12(sp)
    35bc:	20004097          	auipc	ra,0x20004
    35c0:	2c8080e7          	jalr	712(ra) # 20007884 <analog_read_reg32.constprop.65>
    35c4:	00a00433          	add	s0,zero,a0
    35c8:	20004097          	auipc	ra,0x20004
    35cc:	2bc080e7          	jalr	700(ra) # 20007884 <analog_read_reg32.constprop.65>
    35d0:	40850733          	sub	a4,a0,s0
    35d4:	842a                	c.mv	s0,a0
    35d6:	be17695b          	bnec	a4,1,35c8 <clock_get_32k_tick+0x14>
    35da:	40b2                	c.lwsp	ra,12(sp)
    35dc:	4422                	c.lwsp	s0,8(sp)
    35de:	0141                	c.addi	sp,16
    35e0:	00008067          	ret

000035e4 <smp_quickResolvPrivateAddr>:
    35e4:	30002873          	csrr	a6,mstatus
    35e8:	00887813          	andi	a6,a6,8
    35ec:	00080463          	beqz	a6,35f4 <smp_quickResolvPrivateAddr+0x10>
    35f0:	300477f3          	csrrci	a5,mstatus,8
    35f4:	411c                	c.lw	a5,0(a0)
    35f6:	80160637          	lui	a2,0x80160
    35fa:	0af62a23          	sw	a5,180(a2) # 801600b4 <_DATA_LMA_START+0x6014ddbc>
    35fe:	415c                	c.lw	a5,4(a0)
    3600:	00000737          	lui	a4,0x0
    3604:	0af62c23          	sw	a5,184(a2)
    3608:	451c                	c.lw	a5,8(a0)
    360a:	15870713          	addi	a4,a4,344 # 158 <_RETENTION_RESET_VMA_END>
    360e:	0af62e23          	sw	a5,188(a2)
    3612:	455c                	c.lw	a5,12(a0)
    3614:	0cf62023          	sw	a5,192(a2)
    3618:	0045c783          	lbu	a5,4(a1)
    361c:	0055c683          	lbu	a3,5(a1)
    3620:	0035c503          	lbu	a0,3(a1)
    3624:	06c2                	c.slli	a3,0x10
    3626:	07a2                	c.slli	a5,0x8
    3628:	8fd5                	c.or	a5,a3
    362a:	8fc9                	c.or	a5,a0
    362c:	c31c                	c.sw	a5,0(a4)
    362e:	0ce62223          	sw	a4,196(a2)
    3632:	00072223          	sw	zero,4(a4)
    3636:	00072423          	sw	zero,8(a4)
    363a:	00072623          	sw	zero,12(a4)
    363e:	4785                	c.li	a5,1
    3640:	801606b7          	lui	a3,0x80160
    3644:	0af62823          	sw	a5,176(a2)
    3648:	0b06a783          	lw	a5,176(a3) # 801600b0 <_DATA_LMA_START+0x6014ddb8>
    364c:	fe07fe5b          	bbs	a5,0,3648 <smp_quickResolvPrivateAddr+0x64>
    3650:	00080463          	beqz	a6,3658 <smp_quickResolvPrivateAddr+0x74>
    3654:	30082873          	csrrs	a6,mstatus,a6
    3658:	0015c503          	lbu	a0,1(a1)
    365c:	0025c683          	lbu	a3,2(a1)
    3660:	0005c603          	lbu	a2,0(a1)
    3664:	06c2                	c.slli	a3,0x10
    3666:	4b1c                	c.lw	a5,16(a4)
    3668:	0522                	c.slli	a0,0x8
    366a:	8d55                	c.or	a0,a3
    366c:	8d51                	c.or	a0,a2
    366e:	5c07a7db          	bfoz	a5,a5,23,0
    3672:	8d1d                	c.sub	a0,a5
    3674:	00153513          	seqz	a0,a0
    3678:	00008067          	ret

0000367c <blt_ll_searchAddr_in_ResolvingList>:
    367c:	1101                	c.addi	sp,-32
    367e:	ce06                	c.swsp	ra,28(sp)
    3680:	cc22                	c.swsp	s0,24(sp)
    3682:	ca26                	c.swsp	s1,20(sp)
    3684:	c84a                	c.swsp	s2,16(sp)
    3686:	c64e                	c.swsp	s3,12(sp)
    3688:	c452                	c.swsp	s4,8(sp)
    368a:	04156f5b          	bnec	a0,1,36e8 <blt_ll_searchAddr_in_ResolvingList+0x6c>
    368e:	00558783          	lb	a5,5(a1)
    3692:	0c07f793          	andi	a5,a5,192
    3696:	4407e95b          	bnec	a5,64,36e8 <blt_ll_searchAddr_in_ResolvingList+0x6c>
    369a:	00000937          	lui	s2,0x0
    369e:	17890913          	addi	s2,s2,376 # 178 <_AES_VMA_END>
    36a2:	75994783          	lbu	a5,1881(s2)
    36a6:	c3a9                	c.beqz	a5,36e8 <blt_ll_searchAddr_in_ResolvingList+0x6c>
    36a8:	75894783          	lbu	a5,1880(s2)
    36ac:	cf95                	c.beqz	a5,36e8 <blt_ll_searchAddr_in_ResolvingList+0x6c>
    36ae:	89ae                	c.mv	s3,a1
    36b0:	73090413          	addi	s0,s2,1840
    36b4:	4481                	c.li	s1,0
    36b6:	a039                	c.j	36c4 <blt_ll_searchAddr_in_ResolvingList+0x48>
    36b8:	75894783          	lbu	a5,1880(s2)
    36bc:	01840413          	addi	s0,s0,24
    36c0:	02f4d463          	bge	s1,a5,36e8 <blt_ll_searchAddr_in_ResolvingList+0x6c>
    36c4:	8522                	c.mv	a0,s0
    36c6:	85ce                	c.mv	a1,s3
    36c8:	0485                	c.addi	s1,1
    36ca:	8a22                	c.mv	s4,s0
    36cc:	f19ff0ef          	jal	ra,35e4 <smp_quickResolvPrivateAddr>
    36d0:	fe0504e3          	beqz	a0,36b8 <blt_ll_searchAddr_in_ResolvingList+0x3c>
    36d4:	40f2                	c.lwsp	ra,28(sp)
    36d6:	4462                	c.lwsp	s0,24(sp)
    36d8:	8552                	c.mv	a0,s4
    36da:	44d2                	c.lwsp	s1,20(sp)
    36dc:	4942                	c.lwsp	s2,16(sp)
    36de:	49b2                	c.lwsp	s3,12(sp)
    36e0:	4a22                	c.lwsp	s4,8(sp)
    36e2:	6105                	c.addi16sp	sp,32
    36e4:	00008067          	ret
    36e8:	4a01                	c.li	s4,0
    36ea:	b7ed                	c.j	36d4 <blt_ll_searchAddr_in_ResolvingList+0x58>

000036ec <ll_searchAddr_in_WhiteList_and_ResolvingList>:
    36ec:	1141                	c.addi	sp,-16
    36ee:	c422                	c.swsp	s0,8(sp)
    36f0:	c226                	c.swsp	s1,4(sp)
    36f2:	c606                	c.swsp	ra,12(sp)
    36f4:	842a                	c.mv	s0,a0
    36f6:	84ae                	c.mv	s1,a1
    36f8:	8ccfe0ef          	jal	ra,17c4 <blt_ll_searchAddr_in_WhiteList>
    36fc:	c511                	c.beqz	a0,3708 <ll_searchAddr_in_WhiteList_and_ResolvingList+0x1c>
    36fe:	40b2                	c.lwsp	ra,12(sp)
    3700:	4422                	c.lwsp	s0,8(sp)
    3702:	4492                	c.lwsp	s1,4(sp)
    3704:	0141                	c.addi	sp,16
    3706:	8082                	c.jr	ra
    3708:	8522                	c.mv	a0,s0
    370a:	4422                	c.lwsp	s0,8(sp)
    370c:	40b2                	c.lwsp	ra,12(sp)
    370e:	85a6                	c.mv	a1,s1
    3710:	4492                	c.lwsp	s1,4(sp)
    3712:	0141                	c.addi	sp,16
    3714:	f69ff06f          	j	367c <blt_ll_searchAddr_in_ResolvingList>

00003718 <irq_scan_rx_primary_channel>:
    3718:	1101                	c.addi	sp,-32
    371a:	c84a                	c.swsp	s2,16(sp)
    371c:	80141937          	lui	s2,0x80141
    3720:	ce06                	c.swsp	ra,28(sp)
    3722:	cc22                	c.swsp	s0,24(sp)
    3724:	ca26                	c.swsp	s1,20(sp)
    3726:	c64e                	c.swsp	s3,12(sp)
    3728:	84090783          	lb	a5,-1984(s2) # 80140840 <_DATA_LMA_START+0x6012e548>
    372c:	0817a7db          	bfoz	a5,a5,2,1
    3730:	cf81                	c.beqz	a5,3748 <irq_scan_rx_primary_channel+0x30>
    3732:	4785                	c.li	a5,1
    3734:	a2f91023          	sh	a5,-1504(s2)
    3738:	40f2                	c.lwsp	ra,28(sp)
    373a:	4462                	c.lwsp	s0,24(sp)
    373c:	44d2                	c.lwsp	s1,20(sp)
    373e:	4942                	c.lwsp	s2,16(sp)
    3740:	49b2                	c.lwsp	s3,12(sp)
    3742:	4501                	c.li	a0,0
    3744:	6105                	c.addi16sp	sp,32
    3746:	8082                	c.jr	ra
    3748:	00000437          	lui	s0,0x0
    374c:	17840413          	addi	s0,s0,376 # 178 <_AES_VMA_END>
    3750:	1b244683          	lbu	a3,434(s0)
    3754:	1b442483          	lw	s1,436(s0)
    3758:	00168713          	addi	a4,a3,1
    375c:	0ff77713          	andi	a4,a4,255
    3760:	188727db          	bfoz	a5,a4,6,8
    3764:	97a6                	c.add	a5,s1
    3766:	3dc44583          	lbu	a1,988(s0)
    376a:	1886a6db          	bfoz	a3,a3,6,8
    376e:	853e                	c.mv	a0,a5
    3770:	00d484b3          	add	s1,s1,a3
    3774:	1ae40923          	sb	a4,434(s0)
    3778:	3ef42023          	sw	a5,992(s0)
    377c:	b68ff0ef          	jal	ra,2ae4 <ble_rf_set_rx_dma>
    3780:	00100793          	li	a5,1
    3784:	a2f91023          	sh	a5,-1504(s2)
    3788:	00048123          	sb	zero,2(s1)
    378c:	83190783          	lb	a5,-1999(s2)
    3790:	0054c703          	lbu	a4,5(s1)
    3794:	0ff7f793          	andi	a5,a5,255
    3798:	0ae7ec63          	bltu	a5,a4,3850 <irq_scan_rx_primary_channel+0x138>
    379c:	00e487b3          	add	a5,s1,a4
    37a0:	01078683          	lb	a3,16(a5)
    37a4:	1b244783          	lbu	a5,434(s0)
    37a8:	0206f85b          	bbc	a3,0,37d8 <irq_scan_rx_primary_channel+0xc0>
    37ac:	3dc44583          	lbu	a1,988(s0)
    37b0:	17fd                	c.addi	a5,-1
    37b2:	8526                	c.mv	a0,s1
    37b4:	1af40923          	sb	a5,434(s0)
    37b8:	3e942023          	sw	s1,992(s0)
    37bc:	b28ff0ef          	jal	ra,2ae4 <ble_rf_set_rx_dma>
    37c0:	4785                	c.li	a5,1
    37c2:	00f48023          	sb	a5,0(s1)
    37c6:	40f2                	c.lwsp	ra,28(sp)
    37c8:	4462                	c.lwsp	s0,24(sp)
    37ca:	44d2                	c.lwsp	s1,20(sp)
    37cc:	4942                	c.lwsp	s2,16(sp)
    37ce:	49b2                	c.lwsp	s3,12(sp)
    37d0:	4501                	c.li	a0,0
    37d2:	6105                	c.addi16sp	sp,32
    37d4:	00008067          	ret
    37d8:	1769                	c.addi	a4,-6
    37da:	0ff77713          	andi	a4,a4,255
    37de:	46fd                	c.li	a3,31
    37e0:	fce6e6e3          	bltu	a3,a4,37ac <irq_scan_rx_primary_channel+0x94>
    37e4:	1b340703          	lb	a4,435(s0)
    37e8:	1b044683          	lbu	a3,432(s0)
    37ec:	40e78733          	sub	a4,a5,a4
    37f0:	03f77713          	andi	a4,a4,63
    37f4:	fad77ce3          	bgeu	a4,a3,37ac <irq_scan_rx_primary_channel+0x94>
    37f8:	00448703          	lb	a4,4(s1)
    37fc:	4905                	c.li	s2,1
    37fe:	8b3d                	c.andi	a4,15
    3800:	00e91933          	sll	s2,s2,a4
    3804:	04797713          	andi	a4,s2,71
    3808:	d355                	c.beqz	a4,37ac <irq_scan_rx_primary_channel+0x94>
    380a:	0044c503          	lbu	a0,4(s1)
    380e:	3d644783          	lbu	a5,982(s0)
    3812:	00755993          	srli	s3,a0,0x7
    3816:	e3a9                	c.bnez	a5,3858 <irq_scan_rx_primary_channel+0x140>
    3818:	ba29645b          	bnec	s2,2,37c0 <irq_scan_rx_primary_channel+0xa8>
    381c:	885f978b          	addigp	a5,-1916 # 80084 <pkt_scan_req>
    3820:	0047a703          	lw	a4,4(a5)
    3824:	1867275b          	bfoz	a4,a4,6,6
    3828:	02e99463          	bne	s3,a4,3850 <irq_scan_rx_primary_channel+0x138>
    382c:	00c4d683          	lhu	a3,12(s1)
    3830:	0067d703          	lhu	a4,6(a5)
    3834:	00e69e63          	bne	a3,a4,3850 <irq_scan_rx_primary_channel+0x138>
    3838:	00e4d683          	lhu	a3,14(s1)
    383c:	0087d703          	lhu	a4,8(a5)
    3840:	00e69863          	bne	a3,a4,3850 <irq_scan_rx_primary_channel+0x138>
    3844:	0104d703          	lhu	a4,16(s1)
    3848:	00a7d783          	lhu	a5,10(a5)
    384c:	f6f70ae3          	beq	a4,a5,37c0 <irq_scan_rx_primary_channel+0xa8>
    3850:	1b244783          	lbu	a5,434(s0)
    3854:	f59ff06f          	j	37ac <irq_scan_rx_primary_channel+0x94>
    3858:	00648593          	addi	a1,s1,6
    385c:	1865255b          	bfoz	a0,a0,6,6
    3860:	e8dff0ef          	jal	ra,36ec <ll_searchAddr_in_WhiteList_and_ResolvingList>
    3864:	f955                	c.bnez	a0,3818 <irq_scan_rx_primary_channel+0x100>
    3866:	1b244783          	lbu	a5,434(s0)
    386a:	b789                	c.j	37ac <irq_scan_rx_primary_channel+0x94>

0000386c <blt_ll_getRealTxFifoNumber>:
    386c:	300027f3          	csrr	a5,mstatus
    3870:	8ba1                	c.andi	a5,8
    3872:	cb8d                	c.beqz	a5,38a4 <blt_ll_getRealTxFifoNumber+0x38>
    3874:	30047773          	csrrci	a4,mstatus,8
    3878:	000006b7          	lui	a3,0x0
    387c:	80100637          	lui	a2,0x80100
    3880:	17868693          	addi	a3,a3,376 # 178 <_AES_VMA_END>
    3884:	50060703          	lb	a4,1280(a2) # 80100500 <_DATA_LMA_START+0x600ee208>
    3888:	52268503          	lb	a0,1314(a3)
    388c:	50160603          	lb	a2,1281(a2)
    3890:	52368683          	lb	a3,1315(a3)
    3894:	8f11                	c.sub	a4,a2
    3896:	8d15                	c.sub	a0,a3
    3898:	8b7d                	c.andi	a4,31
    389a:	897d                	c.andi	a0,31
    389c:	953a                	c.add	a0,a4
    389e:	3007a7f3          	csrrs	a5,mstatus,a5
    38a2:	8082                	c.jr	ra
    38a4:	00000737          	lui	a4,0x0
    38a8:	801006b7          	lui	a3,0x80100
    38ac:	17870713          	addi	a4,a4,376 # 178 <_AES_VMA_END>
    38b0:	50068783          	lb	a5,1280(a3) # 80100500 <_DATA_LMA_START+0x600ee208>
    38b4:	52270503          	lb	a0,1314(a4)
    38b8:	50168683          	lb	a3,1281(a3)
    38bc:	52370703          	lb	a4,1315(a4)
    38c0:	8f95                	c.sub	a5,a3
    38c2:	8d19                	c.sub	a0,a4
    38c4:	8bfd                	c.andi	a5,31
    38c6:	897d                	c.andi	a0,31
    38c8:	953e                	c.add	a0,a5
    38ca:	8082                	c.jr	ra

000038cc <blc_ll_getTxFifoNumber>:
    38cc:	300027f3          	csrr	a5,mstatus
    38d0:	8ba1                	c.andi	a5,8
    38d2:	cf9d                	c.beqz	a5,3910 <blc_ll_getTxFifoNumber+0x44>
    38d4:	30047773          	csrrci	a4,mstatus,8
    38d8:	000006b7          	lui	a3,0x0
    38dc:	80100637          	lui	a2,0x80100
    38e0:	17868693          	addi	a3,a3,376 # 178 <_AES_VMA_END>
    38e4:	50060703          	lb	a4,1280(a2) # 80100500 <_DATA_LMA_START+0x600ee208>
    38e8:	52268503          	lb	a0,1314(a3)
    38ec:	50160603          	lb	a2,1281(a2)
    38f0:	52368683          	lb	a3,1315(a3)
    38f4:	8f11                	c.sub	a4,a2
    38f6:	8d15                	c.sub	a0,a3
    38f8:	8b7d                	c.andi	a4,31
    38fa:	897d                	c.andi	a0,31
    38fc:	953a                	c.add	a0,a4
    38fe:	e709                	c.bnez	a4,3908 <blc_ll_getTxFifoNumber+0x3c>
    3900:	00150513          	addi	a0,a0,1
    3904:	0ff57513          	andi	a0,a0,255
    3908:	3007a7f3          	csrrs	a5,mstatus,a5
    390c:	00008067          	ret
    3910:	00000737          	lui	a4,0x0
    3914:	801006b7          	lui	a3,0x80100
    3918:	17870713          	addi	a4,a4,376 # 178 <_AES_VMA_END>
    391c:	50068783          	lb	a5,1280(a3) # 80100500 <_DATA_LMA_START+0x600ee208>
    3920:	52270503          	lb	a0,1314(a4)
    3924:	50168683          	lb	a3,1281(a3)
    3928:	52370703          	lb	a4,1315(a4)
    392c:	8f95                	c.sub	a5,a3
    392e:	8d19                	c.sub	a0,a4
    3930:	8bfd                	c.andi	a5,31
    3932:	897d                	c.andi	a0,31
    3934:	953e                	c.add	a0,a5
    3936:	c399                	c.beqz	a5,393c <blc_ll_getTxFifoNumber+0x70>
    3938:	00008067          	ret
    393c:	0505                	c.addi	a0,1
    393e:	0ff57513          	andi	a0,a0,255
    3942:	8082                	c.jr	ra

00003944 <cpu_stall_WakeUp_By_RF_SystemTick>:
    3944:	300027f3          	csrr	a5,mstatus
    3948:	8ba1                	c.andi	a5,8
    394a:	c399                	c.beqz	a5,3950 <cpu_stall_WakeUp_By_RF_SystemTick+0xc>
    394c:	30047773          	csrrci	a4,mstatus,8
    3950:	e4002737          	lui	a4,0xe4002
    3954:	801418b7          	lui	a7,0x80141
    3958:	80140837          	lui	a6,0x80140
    395c:	a1c89e03          	lh	t3,-1508(a7) # 80140a1c <_DATA_LMA_START+0x6012e724>
    3960:	20880e83          	lb	t4,520(a6) # 80140208 <_DATA_LMA_START+0x6012df10>
    3964:	00072303          	lw	t1,0(a4) # e4002000 <_DATA_LMA_START+0xc3fefd08>
    3968:	4314                	c.lw	a3,0(a4)
    396a:	6f11                	c.lui	t5,0x4
    396c:	0026e693          	ori	a3,a3,2
    3970:	c314                	c.sw	a3,0(a4)
    3972:	4314                	c.lw	a3,0(a4)
    3974:	01e6e6b3          	or	a3,a3,t5
    3978:	00d72023          	sw	a3,0(a4)
    397c:	a0b89e23          	sh	a1,-1508(a7)
    3980:	00057c5b          	bbc	a0,0,3998 <cpu_stall_WakeUp_By_RF_SystemTick+0x54>
    3984:	20c82223          	sw	a2,516(a6)
    3988:	20880703          	lb	a4,520(a6)
    398c:	0ff77713          	andi	a4,a4,255
    3990:	00176713          	ori	a4,a4,1
    3994:	20e80423          	sb	a4,520(a6)
    3998:	10500073          	wfi
    399c:	80141837          	lui	a6,0x80141
    39a0:	577d                	c.li	a4,-1
    39a2:	a2e81023          	sh	a4,-1504(a6) # 80140a20 <_DATA_LMA_START+0x6012e728>
    39a6:	80140537          	lui	a0,0x80140
    39aa:	e4002737          	lui	a4,0xe4002
    39ae:	4685                	c.li	a3,1
    39b0:	20d504a3          	sb	a3,521(a0) # 80140209 <_DATA_LMA_START+0x6012df11>
    39b4:	75f1                	c.lui	a1,0xffffc
    39b6:	4310                	c.lw	a2,0(a4)
    39b8:	15f5                	c.addi	a1,-3
    39ba:	8e6d                	c.and	a2,a1
    39bc:	c310                	c.sw	a2,0(a4)
    39be:	4314                	c.lw	a3,0(a4)
    39c0:	0066e6b3          	or	a3,a3,t1
    39c4:	c314                	c.sw	a3,0(a4)
    39c6:	a1c81e23          	sh	t3,-1508(a6)
    39ca:	21d50423          	sb	t4,520(a0)
    39ce:	c399                	c.beqz	a5,39d4 <cpu_stall_WakeUp_By_RF_SystemTick+0x90>
    39d0:	3007a7f3          	csrrs	a5,mstatus,a5
    39d4:	4501                	c.li	a0,0
    39d6:	8082                	c.jr	ra

000039d8 <analog_write_reg8>:
    39d8:	30002673          	csrr	a2,mstatus
    39dc:	8a21                	c.andi	a2,8
    39de:	c219                	c.beqz	a2,39e4 <analog_write_reg8+0xc>
    39e0:	300477f3          	csrrci	a5,mstatus,8
    39e4:	80140737          	lui	a4,0x80140
    39e8:	18a70023          	sb	a0,384(a4) # 80140180 <_DATA_LMA_START+0x6012de88>
    39ec:	18b70223          	sb	a1,388(a4)
    39f0:	06000693          	li	a3,96
    39f4:	801407b7          	lui	a5,0x80140
    39f8:	18d70123          	sb	a3,386(a4)
    39fc:	18278703          	lb	a4,386(a5) # 80140182 <_DATA_LMA_START+0x6012de8a>
    3a00:	fe777e5b          	bbs	a4,7,39fc <analog_write_reg8+0x24>
    3a04:	18078123          	sb	zero,386(a5)
    3a08:	00060463          	beqz	a2,3a10 <analog_write_reg8+0x38>
    3a0c:	30062673          	csrrs	a2,mstatus,a2
    3a10:	00008067          	ret

00003a14 <rf_drv_ble_init>:
    3a14:	1141                	c.addi	sp,-16
    3a16:	6789                	c.lui	a5,0x2
    3a18:	c422                	c.swsp	s0,8(sp)
    3a1a:	c226                	c.swsp	s1,4(sp)
    3a1c:	80141437          	lui	s0,0x80141
    3a20:	c04a                	c.swsp	s2,0(sp)
    3a22:	c606                	c.swsp	ra,12(sp)
    3a24:	99b78793          	addi	a5,a5,-1637 # 199b <bls_ll_setNewConnection_timing+0x47>
    3a28:	ecf41923          	sh	a5,-302(s0) # 80140ed2 <_DATA_LMA_START+0x6012ebda>
    3a2c:	6905                	c.lui	s2,0x1
    3a2e:	47b9                	c.li	a5,14
    3a30:	c6f40da3          	sb	a5,-901(s0)
    3a34:	90e90793          	addi	a5,s2,-1778 # 90e <ll_host_main_loop_cb+0x2>
    3a38:	e4f41523          	sh	a5,-438(s0)
    3a3c:	080c17b7          	lui	a5,0x80c1
    3a40:	649d                	c.lui	s1,0x7
    3a42:	90e78793          	addi	a5,a5,-1778 # 80c090e <FLASH_SIZE+0x7fc090e>
    3a46:	e4f42a23          	sw	a5,-428(s0)
    3a4a:	35048793          	addi	a5,s1,848 # 7350 <_RAMCODE_VMA_END+0xf4e>
    3a4e:	c6f41b23          	sh	a5,-906(s0)
    3a52:	6799                	c.lui	a5,0x6
    3a54:	58678793          	addi	a5,a5,1414 # 6586 <_RAMCODE_VMA_END+0x184>
    3a58:	4591                	c.li	a1,4
    3a5a:	08b00513          	li	a0,139
    3a5e:	82f41d23          	sh	a5,-1990(s0)
    3a62:	3f9d                	c.jal	39d8 <analog_write_reg8>
    3a64:	06100793          	li	a5,97
    3a68:	e2f40ea3          	sb	a5,-451(s0)
    3a6c:	232017b7          	lui	a5,0x23201
    3a70:	a1678793          	addi	a5,a5,-1514 # 23200a16 <_DATA_LMA_START+0x31ee71e>
    3a74:	e2f42023          	sw	a5,-480(s0)
    3a78:	f8400793          	li	a5,-124
    3a7c:	c2f40023          	sb	a5,-992(s0)
    3a80:	c2040123          	sb	zero,-990(s0)
    3a84:	4785                	c.li	a5,1
    3a86:	c4f406a3          	sb	a5,-947(s0)
    3a8a:	4779                	c.li	a4,30
    3a8c:	c4e40723          	sb	a4,-946(s0)
    3a90:	eb790913          	addi	s2,s2,-329
    3a94:	c3241b23          	sh	s2,-970(s0)
    3a98:	1c448493          	addi	s1,s1,452
    3a9c:	c2941c23          	sh	s1,-968(s0)
    3aa0:	c6f409a3          	sb	a5,-909(s0)
    3aa4:	03800793          	li	a5,56
    3aa8:	c6f40ca3          	sb	a5,-903(s0)
    3aac:	6795                	c.lui	a5,0x5
    3aae:	c8040d23          	sb	zero,-870(s0)
    3ab2:	b3978793          	addi	a5,a5,-1223 # 4b39 <bls_ll_procRxPacket.constprop.18+0x2a9>
    3ab6:	ccf41123          	sh	a5,-830(s0)
    3aba:	796e67b7          	lui	a5,0x796e6
    3abe:	25678793          	addi	a5,a5,598 # 796e6256 <_DATA_LMA_START+0x596d3f5e>
    3ac2:	ccf42223          	sw	a5,-828(s0)
    3ac6:	444617b7          	lui	a5,0x44461
    3aca:	81f78793          	addi	a5,a5,-2017 # 4446081f <_DATA_LMA_START+0x2444e527>
    3ace:	80f42023          	sw	a5,-2048(s0)
    3ad2:	4f500793          	li	a5,1269
    3ad6:	80f41223          	sh	a5,-2044(s0)
    3ada:	80042423          	sw	zero,-2040(s0)
    3ade:	47fd                	c.li	a5,31
    3ae0:	c4f40723          	sb	a5,-946(s0)
    3ae4:	03600793          	li	a5,54
    3ae8:	82f40823          	sb	a5,-2000(s0)
    3aec:	a0040323          	sb	zero,-1530(s0)
    3af0:	05000793          	li	a5,80
    3af4:	a0f40623          	sb	a5,-1524(s0)
    3af8:	a0040723          	sb	zero,-1522(s0)
    3afc:	a0040823          	sb	zero,-1520(s0)
    3b00:	c2040783          	lb	a5,-992(s0)
    3b04:	0bf7f793          	andi	a5,a5,191
    3b08:	c2f40023          	sb	a5,-992(s0)
    3b0c:	40b2                	c.lwsp	ra,12(sp)
    3b0e:	4422                	c.lwsp	s0,8(sp)
    3b10:	4492                	c.lwsp	s1,4(sp)
    3b12:	4902                	c.lwsp	s2,0(sp)
    3b14:	0141                	c.addi	sp,16
    3b16:	8082                	c.jr	ra

00003b18 <analog_read_reg8>:
    3b18:	300026f3          	csrr	a3,mstatus
    3b1c:	8aa1                	c.andi	a3,8
    3b1e:	c299                	c.beqz	a3,3b24 <analog_read_reg8+0xc>
    3b20:	300477f3          	csrrci	a5,mstatus,8
    3b24:	801407b7          	lui	a5,0x80140
    3b28:	18a78023          	sb	a0,384(a5) # 80140180 <_DATA_LMA_START+0x6012de88>
    3b2c:	00100713          	li	a4,1
    3b30:	18e781a3          	sb	a4,387(a5)
    3b34:	04000613          	li	a2,64
    3b38:	80140737          	lui	a4,0x80140
    3b3c:	18c78123          	sb	a2,386(a5)
    3b40:	18270783          	lb	a5,386(a4) # 80140182 <_DATA_LMA_START+0x6012de8a>
    3b44:	fe77fe5b          	bbs	a5,7,3b40 <analog_read_reg8+0x28>
    3b48:	18470503          	lb	a0,388(a4)
    3b4c:	0ff57513          	andi	a0,a0,255
    3b50:	00068463          	beqz	a3,3b58 <analog_read_reg8+0x40>
    3b54:	3006a6f3          	csrrs	a3,mstatus,a3
    3b58:	00008067          	ret

00003b5c <clock_init.constprop.54>:
    3b5c:	1141                	c.addi	sp,-16
    3b5e:	08000513          	li	a0,128
    3b62:	c606                	c.swsp	ra,12(sp)
    3b64:	c422                	c.swsp	s0,8(sp)
    3b66:	3f4d                	c.jal	3b18 <analog_read_reg8>
    3b68:	0e057593          	andi	a1,a0,224
    3b6c:	0105e593          	ori	a1,a1,16
    3b70:	08000513          	li	a0,128
    3b74:	e65ff0ef          	jal	ra,39d8 <analog_write_reg8>
    3b78:	00900513          	li	a0,9
    3b7c:	f9dff0ef          	jal	ra,3b18 <analog_read_reg8>
    3b80:	0f357593          	andi	a1,a0,243
    3b84:	0085e593          	ori	a1,a1,8
    3b88:	4525                	c.li	a0,9
    3b8a:	35b9                	c.jal	39d8 <analog_write_reg8>
    3b8c:	0c000793          	li	a5,192
    3b90:	8b5f940b          	addigp	s0,-1868 # 800b4 <sys_clk>
    3b94:	00f41023          	sh	a5,0(s0)
    3b98:	4711                	c.li	a4,4
    3b9a:	801407b7          	lui	a5,0x80140
    3b9e:	08100513          	li	a0,129
    3ba2:	1ee78da3          	sb	a4,507(a5) # 801401fb <_DATA_LMA_START+0x6012df03>
    3ba6:	3f8d                	c.jal	3b18 <analog_read_reg8>
    3ba8:	04056593          	ori	a1,a0,64
    3bac:	0ff5f593          	andi	a1,a1,255
    3bb0:	08100513          	li	a0,129
    3bb4:	e25ff0ef          	jal	ra,39d8 <analog_write_reg8>
    3bb8:	08800513          	li	a0,136
    3bbc:	f5dff0ef          	jal	ra,3b18 <analog_read_reg8>
    3bc0:	be557c5b          	bbc	a0,5,3bb8 <clock_init.constprop.54+0x5c>
    3bc4:	08100513          	li	a0,129
    3bc8:	f51ff0ef          	jal	ra,3b18 <analog_read_reg8>
    3bcc:	0bf57593          	andi	a1,a0,191
    3bd0:	08100513          	li	a0,129
    3bd4:	e05ff0ef          	jal	ra,39d8 <analog_write_reg8>
    3bd8:	80140737          	lui	a4,0x80140
    3bdc:	10270783          	lb	a5,258(a4) # 80140102 <_DATA_LMA_START+0x6012de0a>
    3be0:	fe07fe5b          	bbs	a5,0,3bdc <clock_init.constprop.54+0x80>
    3be4:	10170683          	lb	a3,257(a4)
    3be8:	801407b7          	lui	a5,0x80140
    3bec:	0ff6f693          	andi	a3,a3,255
    3bf0:	0106e693          	ori	a3,a3,16
    3bf4:	10d700a3          	sb	a3,257(a4)
    3bf8:	32878703          	lb	a4,808(a5) # 80140328 <_DATA_LMA_START+0x6012e030>
    3bfc:	be377e5b          	bbc	a4,3,3bf8 <clock_init.constprop.54+0x9c>
    3c00:	1e978703          	lb	a4,489(a5)
    3c04:	aaaab637          	lui	a2,0xaaaab
    3c08:	8b3d                	c.andi	a4,15
    3c0a:	04076713          	ori	a4,a4,64
    3c0e:	1ee784a3          	sb	a4,489(a5)
    3c12:	1e878703          	lb	a4,488(a5)
    3c16:	aab60613          	addi	a2,a2,-1365 # aaaaaaab <_DATA_LMA_START+0x8aa987b3>
    3c1a:	f8076713          	ori	a4,a4,-128
    3c1e:	0ff77713          	andi	a4,a4,255
    3c22:	1ee78423          	sb	a4,488(a5)
    3c26:	1e878703          	lb	a4,488(a5)
    3c2a:	f8076713          	ori	a4,a4,-128
    3c2e:	0ff77713          	andi	a4,a4,255
    3c32:	1ee78423          	sb	a4,488(a5)
    3c36:	1d878703          	lb	a4,472(a5)
    3c3a:	00045683          	lhu	a3,0(s0)
    3c3e:	0fb77713          	andi	a4,a4,251
    3c42:	1ce78c23          	sb	a4,472(a5)
    3c46:	1d878703          	lb	a4,472(a5)
    3c4a:	8289                	c.srli	a3,0x2
    3c4c:	00d402a3          	sb	a3,5(s0)
    3c50:	0fc77713          	andi	a4,a4,252
    3c54:	1ce78c23          	sb	a4,472(a5)
    3c58:	1e878703          	lb	a4,488(a5)
    3c5c:	0f077713          	andi	a4,a4,240
    3c60:	00c76713          	ori	a4,a4,12
    3c64:	1ee78423          	sb	a4,488(a5)
    3c68:	00045703          	lhu	a4,0(s0)
    3c6c:	1e878683          	lb	a3,488(a5)
    3c70:	02c73733          	mulhu	a4,a4,a2
    3c74:	08f6f693          	andi	a3,a3,143
    3c78:	0206e693          	ori	a3,a3,32
    3c7c:	1ed78423          	sb	a3,488(a5)
    3c80:	00375793          	srli	a5,a4,0x3
    3c84:	00f40123          	sb	a5,2(s0)
    3c88:	0ff7f793          	andi	a5,a5,255
    3c8c:	00f401a3          	sb	a5,3(s0)
    3c90:	00f40223          	sb	a5,4(s0)
    3c94:	40b2                	c.lwsp	ra,12(sp)
    3c96:	4422                	c.lwsp	s0,8(sp)
    3c98:	0141                	c.addi	sp,16
    3c9a:	8082                	c.jr	ra

00003c9c <pm_wait_bbpll_done>:
    3c9c:	1101                	c.addi	sp,-32
    3c9e:	08100513          	li	a0,129
    3ca2:	cc22                	c.swsp	s0,24(sp)
    3ca4:	ca26                	c.swsp	s1,20(sp)
    3ca6:	c84a                	c.swsp	s2,16(sp)
    3ca8:	ce06                	c.swsp	ra,28(sp)
    3caa:	35bd                	c.jal	3b18 <analog_read_reg8>
    3cac:	04056593          	ori	a1,a0,64
    3cb0:	892a                	c.mv	s2,a0
    3cb2:	0ff5f593          	andi	a1,a1,255
    3cb6:	08100513          	li	a0,129
    3cba:	0bf97913          	andi	s2,s2,191
    3cbe:	4481                	c.li	s1,0
    3cc0:	4475                	c.li	s0,29
    3cc2:	3b19                	c.jal	39d8 <analog_write_reg8>
    3cc4:	000107a3          	sb	zero,15(sp)
    3cc8:	00f10783          	lb	a5,15(sp)
    3ccc:	0ff7f793          	andi	a5,a5,255
    3cd0:	02f46063          	bltu	s0,a5,3cf0 <pm_wait_bbpll_done+0x54>
    3cd4:	0001                	c.nop
    3cd6:	00f10783          	lb	a5,15(sp)
    3cda:	0785                	c.addi	a5,1
    3cdc:	0ff7f793          	andi	a5,a5,255
    3ce0:	00f107a3          	sb	a5,15(sp)
    3ce4:	00f10783          	lb	a5,15(sp)
    3ce8:	0ff7f793          	andi	a5,a5,255
    3cec:	fef474e3          	bgeu	s0,a5,3cd4 <pm_wait_bbpll_done+0x38>
    3cf0:	08800513          	li	a0,136
    3cf4:	e25ff0ef          	jal	ra,3b18 <analog_read_reg8>
    3cf8:	4255765b          	bbs	a0,5,3d24 <pm_wait_bbpll_done+0x88>
    3cfc:	cc95                	c.beqz	s1,3d38 <pm_wait_bbpll_done+0x9c>
    3cfe:	0414d35b          	beqc	s1,1,3d44 <pm_wait_bbpll_done+0xa8>
    3d02:	85ca                	c.mv	a1,s2
    3d04:	08100513          	li	a0,129
    3d08:	cd1ff0ef          	jal	ra,39d8 <analog_write_reg8>
    3d0c:	0024d65b          	beqc	s1,2,3d18 <pm_wait_bbpll_done+0x7c>
    3d10:	0485                	c.addi	s1,1
    3d12:	0ff4f493          	andi	s1,s1,255
    3d16:	b77d                	c.j	3cc4 <pm_wait_bbpll_done+0x28>
    3d18:	40f2                	c.lwsp	ra,28(sp)
    3d1a:	4462                	c.lwsp	s0,24(sp)
    3d1c:	44d2                	c.lwsp	s1,20(sp)
    3d1e:	4942                	c.lwsp	s2,16(sp)
    3d20:	6105                	c.addi16sp	sp,32
    3d22:	8082                	c.jr	ra
    3d24:	4462                	c.lwsp	s0,24(sp)
    3d26:	40f2                	c.lwsp	ra,28(sp)
    3d28:	44d2                	c.lwsp	s1,20(sp)
    3d2a:	85ca                	c.mv	a1,s2
    3d2c:	4942                	c.lwsp	s2,16(sp)
    3d2e:	08100513          	li	a0,129
    3d32:	6105                	c.addi16sp	sp,32
    3d34:	ca5ff06f          	j	39d8 <analog_write_reg8>
    3d38:	04600593          	li	a1,70
    3d3c:	4505                	c.li	a0,1
    3d3e:	3969                	c.jal	39d8 <analog_write_reg8>
    3d40:	fd1ff06f          	j	3d10 <pm_wait_bbpll_done+0x74>
    3d44:	04300593          	li	a1,67
    3d48:	4505                	c.li	a0,1
    3d4a:	3179                	c.jal	39d8 <analog_write_reg8>
    3d4c:	fc5ff06f          	j	3d10 <pm_wait_bbpll_done+0x74>

00003d50 <pm_sleep_start>:
    3d50:	1101                	c.addi	sp,-32
    3d52:	8d3fa72b          	lwgp	a4,-1840 # 800d0 <g_chip_version>
    3d56:	000016b7          	lui	a3,0x1
    3d5a:	ce06                	c.swsp	ra,28(sp)
    3d5c:	cc22                	c.swsp	s0,24(sp)
    3d5e:	0ff00793          	li	a5,255
    3d62:	8e46c583          	lbu	a1,-1820(a3) # 8e4 <g_pm_suspend_power_cfg>
    3d66:	16f70f63          	beq	a4,a5,3ee4 <pm_sleep_start+0x194>
    3d6a:	07d00513          	li	a0,125
    3d6e:	31ad                	c.jal	39d8 <analog_write_reg8>
    3d70:	801406b7          	lui	a3,0x80140
    3d74:	10268783          	lb	a5,258(a3) # 80140102 <_DATA_LMA_START+0x6012de0a>
    3d78:	fe07fe5b          	bbs	a5,0,3d74 <pm_sleep_start+0x24>
    3d7c:	10168783          	lb	a5,257(a3)
    3d80:	80140737          	lui	a4,0x80140
    3d84:	0ff7f793          	andi	a5,a5,255
    3d88:	0107e793          	ori	a5,a5,16
    3d8c:	10f680a3          	sb	a5,257(a3)
    3d90:	32870783          	lb	a5,808(a4) # 80140328 <_DATA_LMA_START+0x6012e030>
    3d94:	be37fe5b          	bbc	a5,3,3d90 <pm_sleep_start+0x40>
    3d98:	10170783          	lb	a5,257(a4)
    3d9c:	80140437          	lui	s0,0x80140
    3da0:	0fd7f793          	andi	a5,a5,253
    3da4:	10f700a3          	sb	a5,257(a4)
    3da8:	10170783          	lb	a5,257(a4)
    3dac:	0ef7f793          	andi	a5,a5,239
    3db0:	10f700a3          	sb	a5,257(a4)
    3db4:	fb900793          	li	a5,-71
    3db8:	10f70023          	sb	a5,256(a4)
    3dbc:	10240783          	lb	a5,258(s0) # 80140102 <_DATA_LMA_START+0x6012de0a>
    3dc0:	fe07fe5b          	bbs	a5,0,3dbc <pm_sleep_start+0x6c>
    3dc4:	10140783          	lb	a5,257(s0)
    3dc8:	452d                	c.li	a0,11
    3dca:	0ff7f793          	andi	a5,a5,255
    3dce:	0107e793          	ori	a5,a5,16
    3dd2:	10f400a3          	sb	a5,257(s0)
    3dd6:	320404a3          	sb	zero,809(s0)
    3dda:	3b3d                	c.jal	3b18 <analog_read_reg8>
    3ddc:	0fc57593          	andi	a1,a0,252
    3de0:	452d                	c.li	a0,11
    3de2:	3edd                	c.jal	39d8 <analog_write_reg8>
    3de4:	08100513          	li	a0,129
    3de8:	d31ff0ef          	jal	ra,3b18 <analog_read_reg8>
    3dec:	f8056593          	ori	a1,a0,-128
    3df0:	0ff5f593          	andi	a1,a1,255
    3df4:	08100513          	li	a0,129
    3df8:	be1ff0ef          	jal	ra,39d8 <analog_write_reg8>
    3dfc:	f8000793          	li	a5,-128
    3e00:	1ef407a3          	sb	a5,495(s0)
    3e04:	c402                	c.swsp	zero,8(sp)
    3e06:	4722                	c.lwsp	a4,8(sp)
    3e08:	03f00793          	li	a5,63
    3e0c:	00e7ec63          	bltu	a5,a4,3e24 <pm_sleep_start+0xd4>
    3e10:	03f00713          	li	a4,63
    3e14:	0001                	c.nop
    3e16:	47a2                	c.lwsp	a5,8(sp)
    3e18:	0785                	c.addi	a5,1
    3e1a:	c43e                	c.swsp	a5,8(sp)
    3e1c:	00812783          	lw	a5,8(sp)
    3e20:	fef77ae3          	bgeu	a4,a5,3e14 <pm_sleep_start+0xc4>
    3e24:	08100513          	li	a0,129
    3e28:	cf1ff0ef          	jal	ra,3b18 <analog_read_reg8>
    3e2c:	07f57593          	andi	a1,a0,127
    3e30:	08100513          	li	a0,129
    3e34:	ba5ff0ef          	jal	ra,39d8 <analog_write_reg8>
    3e38:	00b00513          	li	a0,11
    3e3c:	cddff0ef          	jal	ra,3b18 <analog_read_reg8>
    3e40:	00356593          	ori	a1,a0,3
    3e44:	0ff5f593          	andi	a1,a1,255
    3e48:	452d                	c.li	a0,11
    3e4a:	3679                	c.jal	39d8 <analog_write_reg8>
    3e4c:	08000593          	li	a1,128
    3e50:	07d00513          	li	a0,125
    3e54:	b85ff0ef          	jal	ra,39d8 <analog_write_reg8>
    3e58:	c602                	c.swsp	zero,12(sp)
    3e5a:	4732                	c.lwsp	a4,12(sp)
    3e5c:	12b00793          	li	a5,299
    3e60:	00e7ec63          	bltu	a5,a4,3e78 <pm_sleep_start+0x128>
    3e64:	12b00713          	li	a4,299
    3e68:	0001                	c.nop
    3e6a:	47b2                	c.lwsp	a5,12(sp)
    3e6c:	0785                	c.addi	a5,1
    3e6e:	c63e                	c.swsp	a5,12(sp)
    3e70:	00c12783          	lw	a5,12(sp)
    3e74:	fef77ae3          	bgeu	a4,a5,3e68 <pm_sleep_start+0x118>
    3e78:	08800513          	li	a0,136
    3e7c:	c9dff0ef          	jal	ra,3b18 <analog_read_reg8>
    3e80:	be757c5b          	bbc	a0,7,3e78 <pm_sleep_start+0x128>
    3e84:	08800513          	li	a0,136
    3e88:	c91ff0ef          	jal	ra,3b18 <analog_read_reg8>
    3e8c:	be757c5b          	bbc	a0,7,3e84 <pm_sleep_start+0x134>
    3e90:	08800513          	li	a0,136
    3e94:	c85ff0ef          	jal	ra,3b18 <analog_read_reg8>
    3e98:	be757c5b          	bbc	a0,7,3e90 <pm_sleep_start+0x140>
    3e9c:	e01ff0ef          	jal	ra,3c9c <pm_wait_bbpll_done>
    3ea0:	801407b7          	lui	a5,0x80140
    3ea4:	03f00713          	li	a4,63
    3ea8:	32e784a3          	sb	a4,809(a5) # 80140329 <_DATA_LMA_START+0x6012e031>
    3eac:	10178683          	lb	a3,257(a5)
    3eb0:	80140737          	lui	a4,0x80140
    3eb4:	0ef6f693          	andi	a3,a3,239
    3eb8:	10d780a3          	sb	a3,257(a5)
    3ebc:	fab00693          	li	a3,-85
    3ec0:	10d78023          	sb	a3,256(a5)
    3ec4:	10270783          	lb	a5,258(a4) # 80140102 <_DATA_LMA_START+0x6012de0a>
    3ec8:	fe07fe5b          	bbs	a5,0,3ec4 <pm_sleep_start+0x174>
    3ecc:	10170783          	lb	a5,257(a4)
    3ed0:	0ff7f793          	andi	a5,a5,255
    3ed4:	0107e793          	ori	a5,a5,16
    3ed8:	10f700a3          	sb	a5,257(a4)
    3edc:	40f2                	c.lwsp	ra,28(sp)
    3ede:	4462                	c.lwsp	s0,24(sp)
    3ee0:	6105                	c.addi16sp	sp,32
    3ee2:	8082                	c.jr	ra
    3ee4:	0fe5f593          	andi	a1,a1,254
    3ee8:	07d00513          	li	a0,125
    3eec:	aedff0ef          	jal	ra,39d8 <analog_write_reg8>
    3ef0:	e81ff06f          	j	3d70 <pm_sleep_start+0x20>

00003ef4 <cpu_sleep_wakeup_32k_rc_ram>:
    3ef4:	7179                	c.addi16sp	sp,-48
    3ef6:	d422                	c.swsp	s0,40(sp)
    3ef8:	d226                	c.swsp	s1,36(sp)
    3efa:	ce4e                	c.swsp	s3,28(sp)
    3efc:	cc52                	c.swsp	s4,24(sp)
    3efe:	ca56                	c.swsp	s5,20(sp)
    3f00:	c266                	c.swsp	s9,4(sp)
    3f02:	c06a                	c.swsp	s10,0(sp)
    3f04:	d606                	c.swsp	ra,44(sp)
    3f06:	8d2e                	c.mv	s10,a1
    3f08:	d04a                	c.swsp	s2,32(sp)
    3f0a:	c85a                	c.swsp	s6,16(sp)
    3f0c:	c65e                	c.swsp	s7,12(sp)
    3f0e:	c462                	c.swsp	s8,8(sp)
    3f10:	89aa                	c.mv	s3,a0
    3f12:	8ab2                	c.mv	s5,a2
    3f14:	815fe0ef          	jal	ra,2728 <pm_get_32k_rc_calib>
    3f18:	801407b7          	lui	a5,0x80140
    3f1c:	00000437          	lui	s0,0x0
    3f20:	17840413          	addi	s0,s0,376 # 178 <_AES_VMA_END>
    3f24:	2007a483          	lw	s1,512(a5) # 80140200 <_DATA_LMA_START+0x6012df08>
    3f28:	020d7a13          	andi	s4,s10,32
    3f2c:	66a42023          	sw	a0,1632(s0)
    3f30:	00a00cb3          	add	s9,zero,a0
    3f34:	020a0063          	beqz	s4,3f54 <cpu_sleep_wakeup_32k_rc_ram+0x60>
    3f38:	409a84b3          	sub	s1,s5,s1
    3f3c:	e0000737          	lui	a4,0xe0000
    3f40:	34976463          	bltu	a4,s1,4288 <cpu_sleep_wakeup_32k_rc_ram+0x394>
    3f44:	8a9f970b          	addigp	a4,-1880 # 800a8 <g_pm_early_wakeup_time_us>
    3f48:	00671703          	lh	a4,6(a4) # e0000006 <_DATA_LMA_START+0xbffedd0e>
    3f4c:	1137275b          	bfoz	a4,a4,4,19
    3f50:	34e4e463          	bltu	s1,a4,4298 <cpu_sleep_wakeup_32k_rc_ram+0x3a4>
    3f54:	300024f3          	csrr	s1,mstatus
    3f58:	88a1                	c.andi	s1,8
    3f5a:	e88d                	c.bnez	s1,3f8c <cpu_sleep_wakeup_32k_rc_ram+0x98>
    3f5c:	77042783          	lw	a5,1904(s0)
    3f60:	cb95                	c.beqz	a5,3f94 <cpu_sleep_wakeup_32k_rc_ram+0xa0>
    3f62:	9782                	c.jalr	a5
    3f64:	e905                	c.bnez	a0,3f94 <cpu_sleep_wakeup_32k_rc_ram+0xa0>
    3f66:	4521                	c.li	a0,8
    3f68:	00048463          	beqz	s1,3f70 <cpu_sleep_wakeup_32k_rc_ram+0x7c>
    3f6c:	3004a4f3          	csrrs	s1,mstatus,s1
    3f70:	50b2                	c.lwsp	ra,44(sp)
    3f72:	5422                	c.lwsp	s0,40(sp)
    3f74:	5492                	c.lwsp	s1,36(sp)
    3f76:	5902                	c.lwsp	s2,32(sp)
    3f78:	49f2                	c.lwsp	s3,28(sp)
    3f7a:	4a62                	c.lwsp	s4,24(sp)
    3f7c:	4ad2                	c.lwsp	s5,20(sp)
    3f7e:	4b42                	c.lwsp	s6,16(sp)
    3f80:	4bb2                	c.lwsp	s7,12(sp)
    3f82:	4c22                	c.lwsp	s8,8(sp)
    3f84:	4c92                	c.lwsp	s9,4(sp)
    3f86:	4d02                	c.lwsp	s10,0(sp)
    3f88:	6145                	c.addi16sp	sp,48
    3f8a:	8082                	c.jr	ra
    3f8c:	300477f3          	csrrci	a5,mstatus,8
    3f90:	fcdff06f          	j	3f5c <cpu_sleep_wakeup_32k_rc_ram+0x68>
    3f94:	80140937          	lui	s2,0x80140
    3f98:	1e890b03          	lb	s6,488(s2) # 801401e8 <_DATA_LMA_START+0x6012def0>
    3f9c:	00f9fc13          	andi	s8,s3,15
    3fa0:	08fb7793          	andi	a5,s6,143
    3fa4:	1ef90423          	sb	a5,488(s2)
    3fa8:	1d890b83          	lb	s7,472(s2)
    3fac:	0f8bf793          	andi	a5,s7,248
    3fb0:	1cf90c23          	sb	a5,472(s2)
    3fb4:	20890783          	lb	a5,520(s2)
    3fb8:	0fe7f793          	andi	a5,a5,254
    3fbc:	20f90423          	sb	a5,520(s2)
    3fc0:	00100793          	li	a5,1
    3fc4:	20f90c23          	sb	a5,536(s2)
    3fc8:	20a90783          	lb	a5,522(s2)
    3fcc:	0f77f793          	andi	a5,a5,247
    3fd0:	20f90523          	sb	a5,522(s2)
    3fd4:	de0ff0ef          	jal	ra,35b4 <clock_get_32k_tick>
    3fd8:	4789                	c.li	a5,2
    3fda:	20f905a3          	sb	a5,523(s2)
    3fde:	20092783          	lw	a5,512(s2)
    3fe2:	76a42a23          	sw	a0,1908(s0)
    3fe6:	85be                	c.mv	a1,a5
    3fe8:	76f42c23          	sw	a5,1912(s0)
    3fec:	f84fe0ef          	jal	ra,2770 <pm_update_32k_rc_sleep_tick>
    3ff0:	0ffd7593          	andi	a1,s10,255
    3ff4:	04b00513          	li	a0,75
    3ff8:	9e1ff0ef          	jal	ra,39d8 <analog_write_reg8>
    3ffc:	45fd                	c.li	a1,31
    3ffe:	06400513          	li	a0,100
    4002:	3ad9                	c.jal	39d8 <analog_write_reg8>
    4004:	0ff9f593          	andi	a1,s3,255
    4008:	07e00513          	li	a0,126
    400c:	9cdff0ef          	jal	ra,39d8 <analog_write_reg8>
    4010:	040d7793          	andi	a5,s10,64
    4014:	1a0c1e63          	bnez	s8,41d0 <cpu_sleep_wakeup_32k_rc_ram+0x2dc>
    4018:	2f09d6db          	beqc	s3,48,4304 <cpu_sleep_wakeup_32k_rc_ram+0x410>
    401c:	32078263          	beqz	a5,4340 <cpu_sleep_wakeup_32k_rc_ram+0x44c>
    4020:	06000593          	li	a1,96
    4024:	04d00513          	li	a0,77
    4028:	9b1ff0ef          	jal	ra,39d8 <analog_write_reg8>
    402c:	4585                	c.li	a1,1
    402e:	07f00513          	li	a0,127
    4032:	325d                	c.jal	39d8 <analog_write_reg8>
    4034:	8a9f992b          	lhgp	s2,-1880 # 800a8 <g_pm_early_wakeup_time_us>
    4038:	3c09295b          	bfoz	s2,s2,15,0
    403c:	00491913          	slli	s2,s2,0x4
    4040:	0e0d7d13          	andi	s10,s10,224
    4044:	412a8933          	sub	s2,s5,s2
    4048:	1c0d0063          	beqz	s10,4208 <cpu_sleep_wakeup_32k_rc_ram+0x314>
    404c:	0ee00593          	li	a1,238
    4050:	04c00513          	li	a0,76
    4054:	985ff0ef          	jal	ra,39d8 <analog_write_reg8>
    4058:	1d09d0db          	beqc	s3,48,4218 <cpu_sleep_wakeup_32k_rc_ram+0x324>
    405c:	8b1f978b          	addigp	a5,-1872 # 800b0 <g_pm_r_delay_cycle>
    4060:	00279583          	lh	a1,2(a5)
    4064:	04000513          	li	a0,64
    4068:	0ff5f593          	andi	a1,a1,255
    406c:	96dff0ef          	jal	ra,39d8 <analog_write_reg8>
    4070:	63442783          	lw	a5,1588(s0)
    4074:	40f907b3          	sub	a5,s2,a5
    4078:	1a0a0e63          	beqz	s4,4234 <cpu_sleep_wakeup_32k_rc_ram+0x340>
    407c:	0ff00737          	lui	a4,0xff00
    4080:	26f77663          	bgeu	a4,a5,42ec <cpu_sleep_wakeup_32k_rc_ram+0x3f8>
    4084:	00100713          	li	a4,1
    4088:	66e40223          	sb	a4,1636(s0)
    408c:	66042683          	lw	a3,1632(s0)
    4090:	63842583          	lw	a1,1592(s0)
    4094:	02d7d533          	divu	a0,a5,a3
    4098:	77442703          	lw	a4,1908(s0)
    409c:	40000637          	lui	a2,0x40000
    40a0:	00370793          	addi	a5,a4,3 # ff00003 <FLASH_SIZE+0xfe00003>
    40a4:	0512                	c.slli	a0,0x4
    40a6:	952e                	c.add	a0,a1
    40a8:	8f89                	c.sub	a5,a0
    40aa:	02c7f163          	bgeu	a5,a2,40cc <cpu_sleep_wakeup_32k_rc_ram+0x1d8>
    40ae:	77842783          	lw	a5,1912(s0)
    40b2:	62e42c23          	sw	a4,1592(s0)
    40b6:	0017e793          	ori	a5,a5,1
    40ba:	40f90533          	sub	a0,s2,a5
    40be:	02d55533          	divu	a0,a0,a3
    40c2:	62f42a23          	sw	a5,1588(s0)
    40c6:	0512                	c.slli	a0,0x4
    40c8:	00e50533          	add	a0,a0,a4
    40cc:	c88ff0ef          	jal	ra,3554 <clock_set_32k_tick>
    40d0:	06400513          	li	a0,100
    40d4:	a45ff0ef          	jal	ra,3b18 <analog_read_reg8>
    40d8:	01f57513          	andi	a0,a0,31
    40dc:	00051a63          	bnez	a0,40f0 <cpu_sleep_wakeup_32k_rc_ram+0x1fc>
    40e0:	240c1863          	bnez	s8,4330 <cpu_sleep_wakeup_32k_rc_ram+0x43c>
    40e4:	c6dff0ef          	jal	ra,3d50 <pm_sleep_start>
    40e8:	4585                	c.li	a1,1
    40ea:	07f00513          	li	a0,127
    40ee:	30ed                	c.jal	39d8 <analog_write_reg8>
    40f0:	0109e8db          	bnec	s3,48,4100 <cpu_sleep_wakeup_32k_rc_ram+0x20c>
    40f4:	801407b7          	lui	a5,0x80140
    40f8:	02000713          	li	a4,32
    40fc:	1ee787a3          	sb	a4,495(a5) # 801401ef <_DATA_LMA_START+0x6012def7>
    4100:	801407b7          	lui	a5,0x80140
    4104:	20878703          	lb	a4,520(a5) # 80140208 <_DATA_LMA_START+0x6012df10>
    4108:	0ff77713          	andi	a4,a4,255
    410c:	00176713          	ori	a4,a4,1
    4110:	20e78423          	sb	a4,520(a5)
    4114:	00200713          	li	a4,2
    4118:	20e78c23          	sb	a4,536(a5)
    411c:	20a78703          	lb	a4,522(a5)
    4120:	0ff77713          	andi	a4,a4,255
    4124:	00c76713          	ori	a4,a4,12
    4128:	20e78523          	sb	a4,522(a5)
    412c:	c88ff0ef          	jal	ra,35b4 <clock_get_32k_tick>
    4130:	66444783          	lbu	a5,1636(s0)
    4134:	0505                	c.addi	a0,1
    4136:	18078b63          	beqz	a5,42cc <cpu_sleep_wakeup_32k_rc_ram+0x3d8>
    413a:	77442703          	lw	a4,1908(s0)
    413e:	77842783          	lw	a5,1912(s0)
    4142:	66042683          	lw	a3,1632(s0)
    4146:	40e50733          	sub	a4,a0,a4
    414a:	8311                	c.srli	a4,0x4
    414c:	c4d717ff          	maddr32	a5,a4,a3
    4150:	76f42c23          	sw	a5,1912(s0)
    4154:	63842683          	lw	a3,1592(s0)
    4158:	00178793          	addi	a5,a5,1
    415c:	40d506b3          	sub	a3,a0,a3
    4160:	64d42623          	sw	a3,1612(s0)
    4164:	64a42823          	sw	a0,1616(s0)
    4168:	801406b7          	lui	a3,0x80140
    416c:	80140737          	lui	a4,0x80140
    4170:	20f6a023          	sw	a5,512(a3) # 80140200 <_DATA_LMA_START+0x6012df08>
    4174:	20b70783          	lb	a5,523(a4) # 8014020b <_DATA_LMA_START+0x6012df13>
    4178:	be77fe5b          	bbc	a5,7,4174 <cpu_sleep_wakeup_32k_rc_ram+0x280>
    417c:	06400513          	li	a0,100
    4180:	20070c23          	sb	zero,536(a4)
    4184:	995ff0ef          	jal	ra,3b18 <analog_read_reg8>
    4188:	00a00733          	add	a4,zero,a0
    418c:	00157e5b          	bbc	a0,1,41a8 <cpu_sleep_wakeup_32k_rc_ram+0x2b4>
    4190:	000a0c63          	beqz	s4,41a8 <cpu_sleep_wakeup_32k_rc_ram+0x2b4>
    4194:	80140637          	lui	a2,0x80140
    4198:	400006b7          	lui	a3,0x40000
    419c:	20062783          	lw	a5,512(a2) # 80140200 <_DATA_LMA_START+0x6012df08>
    41a0:	415787b3          	sub	a5,a5,s5
    41a4:	fef6ece3          	bltu	a3,a5,419c <cpu_sleep_wakeup_32k_rc_ram+0x2a8>
    41a8:	801407b7          	lui	a5,0x80140
    41ac:	1d778c23          	sb	s7,472(a5) # 801401d8 <_DATA_LMA_START+0x6012dee0>
    41b0:	1f678423          	sb	s6,488(a5)
    41b4:	00048463          	beqz	s1,41bc <cpu_sleep_wakeup_32k_rc_ram+0x2c8>
    41b8:	3004a4f3          	csrrs	s1,mstatus,s1
    41bc:	08000513          	li	a0,128
    41c0:	da0708e3          	beqz	a4,3f70 <cpu_sleep_wakeup_32k_rc_ram+0x7c>
    41c4:	400007b7          	lui	a5,0x40000
    41c8:	00f76533          	or	a0,a4,a5
    41cc:	da5ff06f          	j	3f70 <cpu_sleep_wakeup_32k_rc_ram+0x7c>
    41d0:	12078263          	beqz	a5,42f4 <cpu_sleep_wakeup_32k_rc_ram+0x400>
    41d4:	0d000593          	li	a1,208
    41d8:	04d00513          	li	a0,77
    41dc:	ffcff0ef          	jal	ra,39d8 <analog_write_reg8>
    41e0:	801407b7          	lui	a5,0x80140
    41e4:	1047a703          	lw	a4,260(a5) # 80140104 <_DATA_LMA_START+0x6012de0c>
    41e8:	8a9f978b          	addigp	a5,-1880 # 800a8 <g_pm_early_wakeup_time_us>
    41ec:	00279903          	lh	s2,2(a5)
    41f0:	76e42e23          	sw	a4,1916(s0)
    41f4:	3c09295b          	bfoz	s2,s2,15,0
    41f8:	00491913          	slli	s2,s2,0x4
    41fc:	0e0d7d13          	andi	s10,s10,224
    4200:	412a8933          	sub	s2,s5,s2
    4204:	e40d14e3          	bnez	s10,404c <cpu_sleep_wakeup_32k_rc_ram+0x158>
    4208:	0ef00593          	li	a1,239
    420c:	04c00513          	li	a0,76
    4210:	fc8ff0ef          	jal	ra,39d8 <analog_write_reg8>
    4214:	a509e4db          	bnec	s3,48,405c <cpu_sleep_wakeup_32k_rc_ram+0x168>
    4218:	8b1f95ab          	lhgp	a1,-1872 # 800b0 <g_pm_r_delay_cycle>
    421c:	04000513          	li	a0,64
    4220:	0ff5f593          	andi	a1,a1,255
    4224:	fb4ff0ef          	jal	ra,39d8 <analog_write_reg8>
    4228:	63442783          	lw	a5,1588(s0)
    422c:	40f907b3          	sub	a5,s2,a5
    4230:	e40a16e3          	bnez	s4,407c <cpu_sleep_wakeup_32k_rc_ram+0x188>
    4234:	66444703          	lbu	a4,1636(s0)
    4238:	e4071ae3          	bnez	a4,408c <cpu_sleep_wakeup_32k_rc_ram+0x198>
    423c:	00479513          	slli	a0,a5,0x4
    4240:	001cdc93          	srli	s9,s9,0x1
    4244:	66042683          	lw	a3,1632(s0)
    4248:	9566                	c.add	a0,s9
    424a:	02d55533          	divu	a0,a0,a3
    424e:	63842583          	lw	a1,1592(s0)
    4252:	77442703          	lw	a4,1908(s0)
    4256:	40000637          	lui	a2,0x40000
    425a:	00370793          	addi	a5,a4,3
    425e:	952e                	c.add	a0,a1
    4260:	8f89                	c.sub	a5,a0
    4262:	e6c7f5e3          	bgeu	a5,a2,40cc <cpu_sleep_wakeup_32k_rc_ram+0x1d8>
    4266:	77842783          	lw	a5,1912(s0)
    426a:	62e42c23          	sw	a4,1592(s0)
    426e:	0017e793          	ori	a5,a5,1
    4272:	40f90933          	sub	s2,s2,a5
    4276:	00491513          	slli	a0,s2,0x4
    427a:	9caa                	c.add	s9,a0
    427c:	02dcd533          	divu	a0,s9,a3
    4280:	62f42a23          	sw	a5,1588(s0)
    4284:	953a                	c.add	a0,a4
    4286:	b599                	c.j	40cc <cpu_sleep_wakeup_32k_rc_ram+0x1d8>
    4288:	06400513          	li	a0,100
    428c:	88dff0ef          	jal	ra,3b18 <analog_read_reg8>
    4290:	01f57513          	andi	a0,a0,31
    4294:	cddff06f          	j	3f70 <cpu_sleep_wakeup_32k_rc_ram+0x7c>
    4298:	01d00593          	li	a1,29
    429c:	06400513          	li	a0,100
    42a0:	80140937          	lui	s2,0x80140
    42a4:	2007a403          	lw	s0,512(a5)
    42a8:	f30ff0ef          	jal	ra,39d8 <analog_write_reg8>
    42ac:	0080006f          	j	42b4 <cpu_sleep_wakeup_32k_rc_ram+0x3c0>
    42b0:	cc0510e3          	bnez	a0,3f70 <cpu_sleep_wakeup_32k_rc_ram+0x7c>
    42b4:	06400513          	li	a0,100
    42b8:	861ff0ef          	jal	ra,3b18 <analog_read_reg8>
    42bc:	20092783          	lw	a5,512(s2) # 80140200 <_DATA_LMA_START+0x6012df08>
    42c0:	8975                	c.andi	a0,29
    42c2:	8f81                	c.sub	a5,s0
    42c4:	fe97e6e3          	bltu	a5,s1,42b0 <cpu_sleep_wakeup_32k_rc_ram+0x3bc>
    42c8:	ca9ff06f          	j	3f70 <cpu_sleep_wakeup_32k_rc_ram+0x7c>
    42cc:	77442783          	lw	a5,1908(s0)
    42d0:	66042703          	lw	a4,1632(s0)
    42d4:	40f507b3          	sub	a5,a0,a5
    42d8:	02e787b3          	mul	a5,a5,a4
    42dc:	77842703          	lw	a4,1912(s0)
    42e0:	8391                	c.srli	a5,0x4
    42e2:	97ba                	c.add	a5,a4
    42e4:	76f42c23          	sw	a5,1912(s0)
    42e8:	e6dff06f          	j	4154 <cpu_sleep_wakeup_32k_rc_ram+0x260>
    42ec:	66040223          	sb	zero,1636(s0)
    42f0:	f4dff06f          	j	423c <cpu_sleep_wakeup_32k_rc_ram+0x348>
    42f4:	0d100593          	li	a1,209
    42f8:	04d00513          	li	a0,77
    42fc:	edcff0ef          	jal	ra,39d8 <analog_write_reg8>
    4300:	ee1ff06f          	j	41e0 <cpu_sleep_wakeup_32k_rc_ram+0x2ec>
    4304:	04079663          	bnez	a5,4350 <cpu_sleep_wakeup_32k_rc_ram+0x45c>
    4308:	0f900593          	li	a1,249
    430c:	04d00513          	li	a0,77
    4310:	ec8ff0ef          	jal	ra,39d8 <analog_write_reg8>
    4314:	00100593          	li	a1,1
    4318:	07f00513          	li	a0,127
    431c:	ebcff0ef          	jal	ra,39d8 <analog_write_reg8>
    4320:	8a9f978b          	addigp	a5,-1880 # 800a8 <g_pm_early_wakeup_time_us>
    4324:	00479903          	lh	s2,4(a5)
    4328:	3c09295b          	bfoz	s2,s2,15,0
    432c:	d11ff06f          	j	403c <cpu_sleep_wakeup_32k_rc_ram+0x148>
    4330:	00000593          	li	a1,0
    4334:	07f00513          	li	a0,127
    4338:	ea0ff0ef          	jal	ra,39d8 <analog_write_reg8>
    433c:	da9ff06f          	j	40e4 <cpu_sleep_wakeup_32k_rc_ram+0x1f0>
    4340:	06100593          	li	a1,97
    4344:	04d00513          	li	a0,77
    4348:	e90ff0ef          	jal	ra,39d8 <analog_write_reg8>
    434c:	ce1ff06f          	j	402c <cpu_sleep_wakeup_32k_rc_ram+0x138>
    4350:	0f800593          	li	a1,248
    4354:	04d00513          	li	a0,77
    4358:	e80ff0ef          	jal	ra,39d8 <analog_write_reg8>
    435c:	fb9ff06f          	j	4314 <cpu_sleep_wakeup_32k_rc_ram+0x420>

00004360 <clock_cal_24m_rc>:
    4360:	1141                	c.addi	sp,-16
    4362:	08000593          	li	a1,128
    4366:	0c800513          	li	a0,200
    436a:	c606                	c.swsp	ra,12(sp)
    436c:	e6cff0ef          	jal	ra,39d8 <analog_write_reg8>
    4370:	04f00513          	li	a0,79
    4374:	fa4ff0ef          	jal	ra,3b18 <analog_read_reg8>
    4378:	f8056593          	ori	a1,a0,-128
    437c:	0ff5f593          	andi	a1,a1,255
    4380:	04f00513          	li	a0,79
    4384:	e54ff0ef          	jal	ra,39d8 <analog_write_reg8>
    4388:	00e00593          	li	a1,14
    438c:	0c700513          	li	a0,199
    4390:	e48ff0ef          	jal	ra,39d8 <analog_write_reg8>
    4394:	00f00593          	li	a1,15
    4398:	0c700513          	li	a0,199
    439c:	e3cff0ef          	jal	ra,39d8 <analog_write_reg8>
    43a0:	0cf00513          	li	a0,207
    43a4:	f74ff0ef          	jal	ra,3b18 <analog_read_reg8>
    43a8:	be757c5b          	bbc	a0,7,43a0 <clock_cal_24m_rc+0x40>
    43ac:	0cb00513          	li	a0,203
    43b0:	f68ff0ef          	jal	ra,3b18 <analog_read_reg8>
    43b4:	00a005b3          	add	a1,zero,a0
    43b8:	05200513          	li	a0,82
    43bc:	e1cff0ef          	jal	ra,39d8 <analog_write_reg8>
    43c0:	04f00513          	li	a0,79
    43c4:	f54ff0ef          	jal	ra,3b18 <analog_read_reg8>
    43c8:	07f57593          	andi	a1,a0,127
    43cc:	04f00513          	li	a0,79
    43d0:	e08ff0ef          	jal	ra,39d8 <analog_write_reg8>
    43d4:	0c700513          	li	a0,199
    43d8:	00e00593          	li	a1,14
    43dc:	dfcff0ef          	jal	ra,39d8 <analog_write_reg8>
    43e0:	40b2                	c.lwsp	ra,12(sp)
    43e2:	05200513          	li	a0,82
    43e6:	0141                	c.addi	sp,16
    43e8:	f30ff06f          	j	3b18 <analog_read_reg8>

000043ec <blt_sdk_main_loop>:
    43ec:	1101                	c.addi	sp,-32
    43ee:	cc22                	c.swsp	s0,24(sp)
    43f0:	00000437          	lui	s0,0x0
    43f4:	17840413          	addi	s0,s0,376 # 178 <_AES_VMA_END>
    43f8:	ce06                	c.swsp	ra,28(sp)
    43fa:	ca26                	c.swsp	s1,20(sp)
    43fc:	c84a                	c.swsp	s2,16(sp)
    43fe:	78842703          	lw	a4,1928(s0)
    4402:	cf19                	c.beqz	a4,4420 <blt_sdk_main_loop+0x34>
    4404:	17340783          	lb	a5,371(s0)
    4408:	0ff7f793          	andi	a5,a5,255
    440c:	cb91                	c.beqz	a5,4420 <blt_sdk_main_loop+0x34>
    440e:	9702                	c.jalr	a4
    4410:	40f2                	c.lwsp	ra,28(sp)
    4412:	4462                	c.lwsp	s0,24(sp)
    4414:	44d2                	c.lwsp	s1,20(sp)
    4416:	4942                	c.lwsp	s2,16(sp)
    4418:	4501                	c.li	a0,0
    441a:	6105                	c.addi16sp	sp,32
    441c:	00008067          	ret
    4420:	68e44703          	lbu	a4,1678(s0)
    4424:	68f44783          	lbu	a5,1679(s0)
    4428:	04f70a63          	beq	a4,a5,447c <blt_sdk_main_loop+0x90>
    442c:	801404b7          	lui	s1,0x80140
    4430:	14348493          	addi	s1,s1,323 # 80140143 <_DATA_LMA_START+0x6012de4b>
    4434:	00c00913          	li	s2,12
    4438:	68d40683          	lb	a3,1677(s0)
    443c:	68f44783          	lbu	a5,1679(s0)
    4440:	68845603          	lhu	a2,1672(s0)
    4444:	69442703          	lw	a4,1684(s0)
    4448:	8efd                	c.and	a3,a5
    444a:	01248023          	sb	s2,0(s1)
    444e:	c4c6977f          	maddr32	a4,a3,a2
    4452:	853a                	c.mv	a0,a4
    4454:	00274703          	lbu	a4,2(a4)
    4458:	cb01                	c.beqz	a4,4468 <blt_sdk_main_loop+0x7c>
    445a:	78c42703          	lw	a4,1932(s0)
    445e:	c709                	c.beqz	a4,4468 <blt_sdk_main_loop+0x7c>
    4460:	000700e7          	jalr	a4
    4464:	68f44783          	lbu	a5,1679(s0)
    4468:	00178793          	addi	a5,a5,1
    446c:	0ff7f793          	andi	a5,a5,255
    4470:	68e44703          	lbu	a4,1678(s0)
    4474:	68f407a3          	sb	a5,1679(s0)
    4478:	fcf710e3          	bne	a4,a5,4438 <blt_sdk_main_loop+0x4c>
    447c:	1b344703          	lbu	a4,435(s0)
    4480:	1b244783          	lbu	a5,434(s0)
    4484:	00f70863          	beq	a4,a5,4494 <blt_sdk_main_loop+0xa8>
    4488:	1c042783          	lw	a5,448(s0)
    448c:	c781                	c.beqz	a5,4494 <blt_sdk_main_loop+0xa8>
    448e:	4501                	c.li	a0,0
    4490:	000780e7          	jalr	a5
    4494:	47842703          	lw	a4,1144(s0)
    4498:	800007b7          	lui	a5,0x80000
    449c:	1c078793          	addi	a5,a5,448 # 800001c0 <_DATA_LMA_START+0x5ffedec8>
    44a0:	00e7f7b3          	and	a5,a5,a4
    44a4:	14079463          	bnez	a5,45ec <blt_sdk_main_loop+0x200>
    44a8:	18140783          	lb	a5,385(s0)
    44ac:	0ff7f793          	andi	a5,a5,255
    44b0:	1a87d05b          	beqc	a5,8,4650 <blt_sdk_main_loop+0x264>
    44b4:	79042783          	lw	a5,1936(s0)
    44b8:	c391                	c.beqz	a5,44bc <blt_sdk_main_loop+0xd0>
    44ba:	9782                	c.jalr	a5
    44bc:	79442783          	lw	a5,1940(s0)
    44c0:	c391                	c.beqz	a5,44c4 <blt_sdk_main_loop+0xd8>
    44c2:	9782                	c.jalr	a5
    44c4:	79842783          	lw	a5,1944(s0)
    44c8:	c391                	c.beqz	a5,44cc <blt_sdk_main_loop+0xe0>
    44ca:	9782                	c.jalr	a5
    44cc:	79c42783          	lw	a5,1948(s0)
    44d0:	c391                	c.beqz	a5,44d4 <blt_sdk_main_loop+0xe8>
    44d2:	9782                	c.jalr	a5
    44d4:	7a042783          	lw	a5,1952(s0)
    44d8:	c791                	c.beqz	a5,44e4 <blt_sdk_main_loop+0xf8>
    44da:	54644703          	lbu	a4,1350(s0)
    44de:	e319                	c.bnez	a4,44e4 <blt_sdk_main_loop+0xf8>
    44e0:	000780e7          	jalr	a5
    44e4:	68444783          	lbu	a5,1668(s0)
    44e8:	e791                	c.bnez	a5,44f4 <blt_sdk_main_loop+0x108>
    44ea:	18840783          	lb	a5,392(s0)
    44ee:	0ff7f793          	andi	a5,a5,255
    44f2:	e3b9                	c.bnez	a5,4538 <blt_sdk_main_loop+0x14c>
    44f4:	18140783          	lb	a5,385(s0)
    44f8:	0ff7f793          	andi	a5,a5,255
    44fc:	0a17d85b          	beqc	a5,1,45ac <blt_sdk_main_loop+0x1c0>
    4500:	801406b7          	lui	a3,0x80140
    4504:	7ac42783          	lw	a5,1964(s0)
    4508:	2006a703          	lw	a4,512(a3) # 80140200 <_DATA_LMA_START+0x6012df08>
    450c:	8f1d                	c.sub	a4,a5
    450e:	393737b7          	lui	a5,0x39373
    4512:	78078793          	addi	a5,a5,1920 # 39373780 <_DATA_LMA_START+0x19361488>
    4516:	00e7f763          	bgeu	a5,a4,4524 <blt_sdk_main_loop+0x138>
    451a:	2006a783          	lw	a5,512(a3)
    451e:	7af42623          	sw	a5,1964(s0)
    4522:	3d3d                	c.jal	4360 <clock_cal_24m_rc>
    4524:	4785                	c.li	a5,1
    4526:	18f40423          	sb	a5,392(s0)
    452a:	40f2                	c.lwsp	ra,28(sp)
    452c:	4462                	c.lwsp	s0,24(sp)
    452e:	44d2                	c.lwsp	s1,20(sp)
    4530:	4942                	c.lwsp	s2,16(sp)
    4532:	4501                	c.li	a0,0
    4534:	6105                	c.addi16sp	sp,32
    4536:	8082                	c.jr	ra
    4538:	7a442783          	lw	a5,1956(s0)
    453c:	dfc5                	c.beqz	a5,44f4 <blt_sdk_main_loop+0x108>
    453e:	54644783          	lbu	a5,1350(s0)
    4542:	dbcd                	c.beqz	a5,44f4 <blt_sdk_main_loop+0x108>
    4544:	18140783          	lb	a5,385(s0)
    4548:	8ba5                	c.andi	a5,9
    454a:	d7cd                	c.beqz	a5,44f4 <blt_sdk_main_loop+0x108>
    454c:	18440783          	lb	a5,388(s0)
    4550:	0ff7f793          	andi	a5,a5,255
    4554:	f3c5                	c.bnez	a5,44f4 <blt_sdk_main_loop+0x108>
    4556:	47842783          	lw	a5,1144(s0)
    455a:	ffc9                	c.bnez	a5,44f4 <blt_sdk_main_loop+0x108>
    455c:	4ee44783          	lbu	a5,1262(s0)
    4560:	fbd1                	c.bnez	a5,44f4 <blt_sdk_main_loop+0x108>
    4562:	68f44703          	lbu	a4,1679(s0)
    4566:	68e44783          	lbu	a5,1678(s0)
    456a:	f8f715e3          	bne	a4,a5,44f4 <blt_sdk_main_loop+0x108>
    456e:	4ec44783          	lbu	a5,1260(s0)
    4572:	d3c9                	c.beqz	a5,44f4 <blt_sdk_main_loop+0x108>
    4574:	e4002737          	lui	a4,0xe4002
    4578:	431c                	c.lw	a5,0(a4)
    457a:	9bf5                	c.andi	a5,-3
    457c:	c31c                	c.sw	a5,0(a4)
    457e:	18440783          	lb	a5,388(s0)
    4582:	0ff7f793          	andi	a5,a5,255
    4586:	e789                	c.bnez	a5,4590 <blt_sdk_main_loop+0x1a4>
    4588:	7a442783          	lw	a5,1956(s0)
    458c:	000780e7          	jalr	a5
    4590:	18140783          	lb	a5,385(s0)
    4594:	0ff7f793          	andi	a5,a5,255
    4598:	b487ee5b          	bnec	a5,8,44f4 <blt_sdk_main_loop+0x108>
    459c:	e4002737          	lui	a4,0xe4002
    45a0:	431c                	c.lw	a5,0(a4)
    45a2:	0027e793          	ori	a5,a5,2
    45a6:	c31c                	c.sw	a5,0(a4)
    45a8:	f4dff06f          	j	44f4 <blt_sdk_main_loop+0x108>
    45ac:	7a842703          	lw	a4,1960(s0)
    45b0:	db21                	c.beqz	a4,4500 <blt_sdk_main_loop+0x114>
    45b2:	801407b7          	lui	a5,0x80140
    45b6:	2007a783          	lw	a5,512(a5) # 80140200 <_DATA_LMA_START+0x6012df08>
    45ba:	5a842683          	lw	a3,1448(s0)
    45be:	8f95                	c.sub	a5,a3
    45c0:	f407c0e3          	bltz	a5,4500 <blt_sdk_main_loop+0x114>
    45c4:	47842783          	lw	a5,1144(s0)
    45c8:	ff85                	c.bnez	a5,4500 <blt_sdk_main_loop+0x114>
    45ca:	9702                	c.jalr	a4
    45cc:	18140783          	lb	a5,385(s0)
    45d0:	0ff7f793          	andi	a5,a5,255
    45d4:	1817d25b          	beqc	a5,1,4758 <blt_sdk_main_loop+0x36c>
    45d8:	18140783          	lb	a5,385(s0)
    45dc:	0ff7f793          	andi	a5,a5,255
    45e0:	1a87d65b          	beqc	a5,8,478c <blt_sdk_main_loop+0x3a0>
    45e4:	18040223          	sb	zero,388(s0)
    45e8:	f19ff06f          	j	4500 <blt_sdk_main_loop+0x114>
    45ec:	0277785b          	bbc	a4,7,461c <blt_sdk_main_loop+0x230>
    45f0:	f7f77713          	andi	a4,a4,-129
    45f4:	1b842683          	lw	a3,440(s0)
    45f8:	46e42c23          	sw	a4,1144(s0)
    45fc:	00144783          	lbu	a5,1(s0)
    4600:	52b6f25b          	bbs	a3,11,4724 <blt_sdk_main_loop+0x338>
    4604:	5d042703          	lw	a4,1488(s0)
    4608:	4609                	c.li	a2,2
    460a:	004c                	c.addi4spn	a1,sp,4
    460c:	451d                	c.li	a0,7
    460e:	00f10223          	sb	a5,4(sp)
    4612:	00f102a3          	sb	a5,5(sp)
    4616:	9702                	c.jalr	a4
    4618:	47842703          	lw	a4,1144(s0)
    461c:	06074a63          	bltz	a4,4690 <blt_sdk_main_loop+0x2a4>
    4620:	00877a5b          	bbc	a4,8,4634 <blt_sdk_main_loop+0x248>
    4624:	1b842783          	lw	a5,440(s0)
    4628:	4a67f65b          	bbs	a5,6,46d4 <blt_sdk_main_loop+0x2e8>
    462c:	eff77713          	andi	a4,a4,-257
    4630:	46e42c23          	sw	a4,1144(s0)
    4634:	a6677a5b          	bbc	a4,6,44a8 <blt_sdk_main_loop+0xbc>
    4638:	5d042783          	lw	a5,1488(s0)
    463c:	fbf77713          	andi	a4,a4,-65
    4640:	4601                	c.li	a2,0
    4642:	4581                	c.li	a1,0
    4644:	4519                	c.li	a0,6
    4646:	46e42c23          	sw	a4,1144(s0)
    464a:	9782                	c.jalr	a5
    464c:	e5dff06f          	j	44a8 <blt_sdk_main_loop+0xbc>
    4650:	00644783          	lbu	a5,6(s0)
    4654:	e60780e3          	beqz	a5,44b4 <blt_sdk_main_loop+0xc8>
    4658:	18540783          	lb	a5,389(s0)
    465c:	0ff7f793          	andi	a5,a5,255
    4660:	e4079ae3          	bnez	a5,44b4 <blt_sdk_main_loop+0xc8>
    4664:	00044783          	lbu	a5,0(s0)
    4668:	30300693          	li	a3,771
    466c:	4c58                	c.lw	a4,28(s0)
    466e:	00d11223          	sh	a3,4(sp)
    4672:	004c                	c.addi4spn	a1,sp,4
    4674:	46d9                	c.li	a3,22
    4676:	6521                	c.lui	a0,0x8
    4678:	00d10323          	sb	a3,6(sp)
    467c:	00f10423          	sb	a5,8(sp)
    4680:	00f103a3          	sb	a5,7(sp)
    4684:	9702                	c.jalr	a4
    4686:	e20507e3          	beqz	a0,44b4 <blt_sdk_main_loop+0xc8>
    468a:	00040323          	sb	zero,6(s0)
    468e:	b51d                	c.j	44b4 <blt_sdk_main_loop+0xc8>
    4690:	7807275b          	bfoz	a4,a4,30,0
    4694:	1b842783          	lw	a5,440(s0)
    4698:	46e42c23          	sw	a4,1144(s0)
    469c:	b937f25b          	bbc	a5,19,4620 <blt_sdk_main_loop+0x234>
    46a0:	4a845703          	lhu	a4,1192(s0)
    46a4:	49a44783          	lbu	a5,1178(s0)
    46a8:	02000537          	lui	a0,0x2000
    46ac:	46d1                	c.li	a3,20
    46ae:	4611                	c.li	a2,4
    46b0:	00410593          	addi	a1,sp,4
    46b4:	03e50513          	addi	a0,a0,62 # 200003e <FLASH_SIZE+0x1f0003e>
    46b8:	00e112a3          	sh	a4,5(sp)
    46bc:	00d10223          	sb	a3,4(sp)
    46c0:	00f103a3          	sb	a5,7(sp)
    46c4:	20002097          	auipc	ra,0x20002
    46c8:	344080e7          	jalr	836(ra) # 20006a08 <blc_hci_send_event>
    46cc:	47842703          	lw	a4,1144(s0)
    46d0:	f51ff06f          	j	4620 <blt_sdk_main_loop+0x234>
    46d4:	47e45803          	lhu	a6,1150(s0)
    46d8:	47c45683          	lhu	a3,1148(s0)
    46dc:	4a845883          	lhu	a7,1192(s0)
    46e0:	00e80713          	addi	a4,a6,14
    46e4:	00e68793          	addi	a5,a3,14
    46e8:	02000537          	lui	a0,0x2000
    46ec:	070e                	c.slli	a4,0x3
    46ee:	078e                	c.slli	a5,0x3
    46f0:	431d                	c.li	t1,7
    46f2:	462d                	c.li	a2,11
    46f4:	00410593          	addi	a1,sp,4
    46f8:	03e50513          	addi	a0,a0,62 # 200003e <FLASH_SIZE+0x1f0003e>
    46fc:	00e114a3          	sh	a4,9(sp)
    4700:	00610223          	sb	t1,4(sp)
    4704:	011112a3          	sh	a7,5(sp)
    4708:	010113a3          	sh	a6,7(sp)
    470c:	00d115a3          	sh	a3,11(sp)
    4710:	00f116a3          	sh	a5,13(sp)
    4714:	20002097          	auipc	ra,0x20002
    4718:	2f4080e7          	jalr	756(ra) # 20006a08 <blc_hci_send_event>
    471c:	47842703          	lw	a4,1144(s0)
    4720:	f0dff06f          	j	462c <blt_sdk_main_loop+0x240>
    4724:	4a845703          	lhu	a4,1192(s0)
    4728:	02000537          	lui	a0,0x2000
    472c:	00f10423          	sb	a5,8(sp)
    4730:	00f104a3          	sb	a5,9(sp)
    4734:	4619                	c.li	a2,6
    4736:	47b1                	c.li	a5,12
    4738:	00410593          	addi	a1,sp,4
    473c:	03e50513          	addi	a0,a0,62 # 200003e <FLASH_SIZE+0x1f0003e>
    4740:	00f11223          	sh	a5,4(sp)
    4744:	00e11323          	sh	a4,6(sp)
    4748:	20002097          	auipc	ra,0x20002
    474c:	2c0080e7          	jalr	704(ra) # 20006a08 <blc_hci_send_event>
    4750:	00144783          	lbu	a5,1(s0)
    4754:	eb1ff06f          	j	4604 <blt_sdk_main_loop+0x218>
    4758:	49144783          	lbu	a5,1169(s0)
    475c:	00078463          	beqz	a5,4764 <blt_sdk_main_loop+0x378>
    4760:	480408a3          	sb	zero,1169(s0)
    4764:	3da40783          	lb	a5,986(s0)
    4768:	80141737          	lui	a4,0x80141
    476c:	0257fa5b          	bbc	a5,5,47a0 <blt_sdk_main_loop+0x3b4>
    4770:	a1c71783          	lh	a5,-1508(a4) # 80140a1c <_DATA_LMA_START+0x6012e724>
    4774:	1c442683          	lw	a3,452(s0)
    4778:	3c07a7db          	bfoz	a5,a5,15,0
    477c:	0017e793          	ori	a5,a5,1
    4780:	a0f71e23          	sh	a5,-1508(a4)
    4784:	9682                	c.jalr	a3
    4786:	18040223          	sb	zero,388(s0)
    478a:	bb9d                	c.j	4500 <blt_sdk_main_loop+0x114>
    478c:	17140783          	lb	a5,369(s0)
    4790:	a467fa5b          	bbc	a5,6,45e4 <blt_sdk_main_loop+0x1f8>
    4794:	68042783          	lw	a5,1664(s0)
    4798:	9782                	c.jalr	a5
    479a:	18040223          	sb	zero,388(s0)
    479e:	b38d                	c.j	4500 <blt_sdk_main_loop+0x114>
    47a0:	a1c71783          	lh	a5,-1508(a4)
    47a4:	3c07a7db          	bfoz	a5,a5,15,0
    47a8:	9bf9                	c.andi	a5,-2
    47aa:	3c07a7db          	bfoz	a5,a5,15,0
    47ae:	a0f71e23          	sh	a5,-1508(a4)
    47b2:	18040223          	sb	zero,388(s0)
    47b6:	b3a9                	c.j	4500 <blt_sdk_main_loop+0x114>

000047b8 <dr_putchar>:
    47b8:	801407b7          	lui	a5,0x80140
    47bc:	30378803          	lb	a6,771(a5) # 80140303 <_DATA_LMA_START+0x6012e00b>
    47c0:	30378783          	lb	a5,771(a5)
    47c4:	1141                	c.addi	sp,-16
    47c6:	07f87813          	andi	a6,a6,127
    47ca:	f807e793          	ori	a5,a5,-128
    47ce:	0ff7f793          	andi	a5,a5,255
    47d2:	01010223          	sb	a6,4(sp)
    47d6:	873e                	c.mv	a4,a5
    47d8:	4005745b          	bbs	a0,0,47e0 <dr_putchar+0x28>
    47dc:	01000733          	add	a4,zero,a6
    47e0:	00e102a3          	sb	a4,5(sp)
    47e4:	8742                	c.mv	a4,a6
    47e6:	0015735b          	bbc	a0,1,47ec <dr_putchar+0x34>
    47ea:	873e                	c.mv	a4,a5
    47ec:	00e10323          	sb	a4,6(sp)
    47f0:	8742                	c.mv	a4,a6
    47f2:	0025735b          	bbc	a0,2,47f8 <dr_putchar+0x40>
    47f6:	873e                	c.mv	a4,a5
    47f8:	00e103a3          	sb	a4,7(sp)
    47fc:	8742                	c.mv	a4,a6
    47fe:	0035735b          	bbc	a0,3,4804 <dr_putchar+0x4c>
    4802:	873e                	c.mv	a4,a5
    4804:	00e10423          	sb	a4,8(sp)
    4808:	8742                	c.mv	a4,a6
    480a:	0045735b          	bbc	a0,4,4810 <dr_putchar+0x58>
    480e:	873e                	c.mv	a4,a5
