
B91_DFU.elf:     file format elf32-littleriscv
B91_DFU.elf
architecture: riscv:rv32, flags 0x00000112:
EXEC_P, HAS_SYMS, D_PAGED
start address 0x20000000

Program Header:
    LOAD off    0x00001000 vaddr 0x20000000 paddr 0x20000000 align 2**12
         filesz 0x0000018a memsz 0x0000018a flags r-x
    LOAD off    0x00002000 vaddr 0x00000000 paddr 0x20000190 align 2**12
         filesz 0x000002a3 memsz 0x000002a3 flags rwx
    LOAD off    0x00002300 vaddr 0x00000300 paddr 0x20000438 align 2**12
         filesz 0x00002d02 memsz 0x00002d02 flags r-x
    LOAD off    0x00005140 vaddr 0x20003140 paddr 0x20003140 align 2**12
         filesz 0x000052b8 memsz 0x000052b8 flags r-x
    LOAD off    0x0000b000 vaddr 0x00080000 paddr 0x200083f8 align 2**12
         filesz 0x00000034 memsz 0x000000c0 flags rw-
0x70000000 off    0x00031b10 vaddr 0x00000000 paddr 0x00000000 align 2**0
         filesz 0x0000003b memsz 0x00000000 flags r--

Sections:
Idx Name          Size      VMA       LMA       File off  Algn
  0 .vectors      0000018a  20000000  20000000  00001000  2**2
                  CONTENTS, ALLOC, LOAD, READONLY, CODE
  1 .retention_reset 00000154  00000000  20000190  00002000  2**2
                  CONTENTS, ALLOC, LOAD, READONLY, CODE
  2 .retention_data 0000014b  00000158  200002e8  00002158  2**2
                  CONTENTS, ALLOC, LOAD, DATA
  3 .ram_code     00002d02  00000300  20000438  00002300  2**8
                  CONTENTS, ALLOC, LOAD, READONLY, CODE
  4 .text         00004d2a  20003140  20003140  00005140  2**2
                  CONTENTS, ALLOC, LOAD, READONLY, CODE
  5 .rodata       00000483  20007e70  20007e70  00009e70  2**3
                  CONTENTS, ALLOC, LOAD, READONLY, DATA
  6 .eh_frame     000000f8  20008300  20008300  0000a300  2**2
                  CONTENTS, ALLOC, LOAD, READONLY, DATA
  7 .data         00000034  00080000  200083f8  0000b000  2**2
                  CONTENTS, ALLOC, LOAD, DATA
  8 .sbss         00000050  00080038  20008430  0000b034  2**3
                  ALLOC
  9 .bss          00000038  00080088  20008480  0000b034  2**2
                  ALLOC
 10 .debug_info   0000db86  00000000  00000000  0000b034  2**0
                  CONTENTS, READONLY, DEBUGGING
 11 .debug_abbrev 000014b8  00000000  00000000  00018bba  2**0
                  CONTENTS, READONLY, DEBUGGING
 12 .debug_loc    00009cd2  00000000  00000000  0001a072  2**0
                  CONTENTS, READONLY, DEBUGGING
 13 .debug_aranges 00000558  00000000  00000000  00023d48  2**3
                  CONTENTS, READONLY, DEBUGGING
 14 .debug_ranges 00001af0  00000000  00000000  000242a0  2**3
                  CONTENTS, READONLY, DEBUGGING
 15 .debug_line   00006dbb  00000000  00000000  00025d90  2**0
                  CONTENTS, READONLY, DEBUGGING
 16 .debug_str    00004f8e  00000000  00000000  0002cb4b  2**0
                  CONTENTS, READONLY, DEBUGGING
 17 .comment      00000037  00000000  00000000  00031ad9  2**0
                  CONTENTS, READONLY
 18 .riscv.attributes 0000003b  00000000  00000000  00031b10  2**0
                  CONTENTS, READONLY
 19 .debug_frame  000015a0  00000000  00000000  00031b4c  2**2
                  CONTENTS, READONLY, DEBUGGING
SYMBOL TABLE:
20000000 l    d  .vectors	00000000 .vectors
00000000 l    d  .retention_reset	00000000 .retention_reset
00000158 l    d  .retention_data	00000000 .retention_data
00000300 l    d  .ram_code	00000000 .ram_code
20003140 l    d  .text	00000000 .text
20007e70 l    d  .rodata	00000000 .rodata
20008300 l    d  .eh_frame	00000000 .eh_frame
00080000 l    d  .data	00000000 .data
00080038 l    d  .sbss	00000000 .sbss
00080088 l    d  .bss	00000000 .bss
00000000 l    d  .debug_info	00000000 .debug_info
00000000 l    d  .debug_abbrev	00000000 .debug_abbrev
00000000 l    d  .debug_loc	00000000 .debug_loc
00000000 l    d  .debug_aranges	00000000 .debug_aranges
00000000 l    d  .debug_ranges	00000000 .debug_ranges
00000000 l    d  .debug_line	00000000 .debug_line
00000000 l    d  .debug_str	00000000 .debug_str
00000000 l    d  .comment	00000000 .comment
00000000 l    d  .riscv.attributes	00000000 .riscv.attributes
00000000 l    d  .debug_frame	00000000 .debug_frame
00000000 l    df *ABS*	00000000 ./boot/B91/cstartup_B91.o
20000028 l       .vectors	00000000 _START
20000030 l       .vectors	00000000 _SWS_USB_DIS
2000008e l       .vectors	00000000 _RETENTION_RESET_INIT
200000a6 l       .vectors	00000000 _RETENTION_RESET_BEGIN
200000b8 l       .vectors	00000000 _RETENTION_DATA_INIT
200000cc l       .vectors	00000000 _RETENTION_DATA_INIT_BEGIN
200000de l       .vectors	00000000 _RAMCODE_INIT
200000f6 l       .vectors	00000000 _RAMCODE_INIT_BEGIN
20000108 l       .vectors	00000000 _DATA_INIT
20000120 l       .vectors	00000000 _DATA_INIT_BEGIN
20000132 l       .vectors	00000000 _ZERO_BSS
20000146 l       .vectors	00000000 _ZERO_BSS_BEGIN
20000152 l       .vectors	00000000 _ZERO_AES
20000166 l       .vectors	00000000 _ZERO_AES_BEGIN
20000172 l       .vectors	00000000 _FILL_STK
20000172 l       .vectors	00000000 _MAIN_FUNC
20000188 l       .vectors	00000000 _END
00000022 l       .retention_reset	00000000 _ISTART
0000002a l       .retention_reset	00000000 _ISWS_USB_DIS
00000088 l       .retention_reset	00000000 _WAKEUP_FLASH
000000a2 l       .retention_reset	00000000 _MSPI_WAIT
000000bc l       .retention_reset	00000000 _WAIT_EFUSE_LOAD_FINISH
000000c2 l       .retention_reset	00000000 _MULTI_ADDRESS_BEGIN
000000d2 l       .retention_reset	00000000 _IDATA_INIT
000000ea l       .retention_reset	00000000 _IDATA_INIT_BEGIN
000000fc l       .retention_reset	00000000 _IZERO_BSS
00000110 l       .retention_reset	00000000 _IZERO_BSS_BEGIN
0000011c l       .retention_reset	00000000 _IZERO_AES
00000130 l       .retention_reset	00000000 _IZERO_AES_BEGIN
0000013c l       .retention_reset	00000000 _IFILL_STK
0000013c l       .retention_reset	00000000 _IMAIN_FUNC
00000152 l       .retention_reset	00000000 _IEND
00000040 l       *ABS*	00000000 irqno
00000000 l    df *ABS*	00000000 
20003274 l     F .text	00000084 uart_receive_dma.constprop.24
200032f8 l     F .text	0000004a uart_send.constprop.16
20003344 l     F .text	00000034 uart_send_byte.constprop.15
2000337c l     F .text	00000038 queue_available_data.constprop.11
00000300 l     F .ram_code	00000048 ble_rf_set_rx_dma
00000348 l     F .ram_code	00000024 irq_ll_system_timer
0000036c l     F .ram_code	000001dc irq_blc_ll_rx
00000548 l     F .ram_code	000001a0 irq_blt_sdk_handler
000006e8 l     F .ram_code	00000048 pm_tim_recover_32k_rc
00000730 l     F .ram_code	00000048 pm_get_32k_rc_calib
00000778 l     F .ram_code	0000005c pm_update_32k_rc_sleep_tick
000007d4 l     F .ram_code	00000004 stimer_irq_handler
000007d8 l     F .ram_code	00000004 rf_irq_handler
200033b8 l     F .text	00000092 uart_is_prime
000007dc l     F .ram_code	00000024 delay_ms
2000344c l     F .text	00000068 pwm_kick_32k_pad.constprop.2
00000800 l     F .ram_code	0000001c delay_us
0000081c l     F .ram_code	00000044 flash_send_addr
00000860 l     F .ram_code	0000004c flash_send_cmd
000008ac l     F .ram_code	00000168 flash_mspi_read_ram
20003140 l     F .text	00000030 flash_read_status
00000a14 l     F .ram_code	00000048 flash_wait_done
00000a5c l     F .ram_code	000000d8 flash_mspi_write_ram
20003170 l     F .text	0000002c flash_read_mid
200034b4 l     F .text	00000062 blc_readFlashSize_autoConfigCustomFlashSector
2000319c l     F .text	0000005c flash_page_program
200031f8 l     F .text	0000002c flash_dread
20003224 l     F .text	00000034 flash_erase_sector
00000b34 l     F .ram_code	00000060 clock_set_32k_tick
20003518 l     F .text	00000030 response_ack
20003548 l     F .text	0000002e program_array
20003578 l     F .text	00000096 writeSPIByte
20003610 l     F .text	0000006c W25XXX_Read
2000367c l     F .text	0000003c FLASH_ReadStatusReg
200036b8 l     F .text	000000ae W25XXX_WR_Page
20003768 l     F .text	00000118 W25XXX_WR_Block
20003880 l     F .text	0000007e FLASH_Erase_Sector
20003900 l     F .text	00000042 analog_read_reg32.constprop.5
00000b94 l     F .ram_code	00000030 clock_get_32k_tick
00000bc4 l     F .ram_code	0000003c analog_write_reg8
20003944 l     F .text	00000080 pwm_kick_32k_pad_times.constprop.1
00000c00 l     F .ram_code	00000044 analog_read_reg8
00000c44 l     F .ram_code	00000140 clock_init.constprop.4
00000d84 l     F .ram_code	000000b4 pm_wait_bbpll_done
00000e38 l     F .ram_code	000001a4 pm_sleep_start
00000fdc l     F .ram_code	00000464 cpu_sleep_wakeup_32k_rc_ram
20003258 l     F .text	0000001a cpu_sleep_wakeup_32k_rc
200039c8 l     F .text	000001a6 cpu_wakeup_no_deepretn_back_init
20003b70 l     F .text	00000096 gpio_set_up_down_res
20003c08 l     F .text	000000a6 gpio_input_en
20003cb0 l     F .text	00000174 hspi_set_pin_mux.part.0
00001440 l     F .ram_code	0000008c clock_cal_24m_rc
000014cc l     F .ram_code	000000d8 dr_putchar
000015a4 l     F .ram_code	00000254 sys_init.constprop.0
000017f8 l     F .ram_code	000000b4 gpio_irq_handler
20003e28 l     F .text	00000058 flash_unlock_mid146085
20003e84 l     F .text	00000120 PLOG_DEVICE_PROFILE
20003fa4 l     F .text	000000f2 dfu_uart_receive
20004098 l     F .text	0000036e fw_copy
20004408 l     F .text	00000536 firmware_check
20004940 l     F .text	0000073c dfu_uart_process
00080088 l     O .bss	00000011 cmd
0008009c l     O .bss	00000010 crc128
000800ac l     O .bss	0000000e dfu_uart_queue
00000158 l     O .retention_data	0000002c bltParam
00000184 l     O .retention_data	00000004 ll_irq_systemTick_conn_cb
00000188 l     O .retention_data	00000010 blt_rxfifo
00000198 l     O .retention_data	0000000c blt_conn_phy
000001a4 l     O .retention_data	00000014 bltData
000001b8 l     O .retention_data	00000058 blttcon
00000210 l     O .retention_data	00000004 ll_irq_rx_data_cb
00000214 l     O .retention_data	00000004 blc_tlkEvent_pending
00000218 l     O .retention_data	00000004 ll_irq_scan_rx_pri_chn_cb
0000021c l     O .retention_data	00000004 blc_rf_pa_cb
00000220 l     O .retention_data	00000004 ll_irq_tx_cb
00000224 l     O .retention_data	00000010 blt_txfifo
00000234 l     O .retention_data	00000029 pmcd
00000260 l     O .retention_data	00000004 g_pm_tick_32k_calib
00000264 l     O .retention_data	00000001 g_pm_long_suspend
00000268 l     O .retention_data	00000004 flash_sector_calibration
0000026c l     O .retention_data	00000004 flash_write_page
00000270 l     O .retention_data	00000004 pm_get_32k_tick
00000274 l     O .retention_data	00000001 g_pm_suspend_power_cfg
00000278 l     O .retention_data	00000004 func_before_suspend
0000027c l     O .retention_data	00000004 g_pm_tick_32k_cur
00000280 l     O .retention_data	00000004 g_pm_tick_cur
00000288 l     O .retention_data	00000004 blt_miscParam
0000028c l     O .retention_data	00000006 adc_vref_cfg
00000294 l     O .retention_data	00000004 pm_tim_recover
00000298 l     O .retention_data	00000004 cpu_sleep_wakeup
0000029c l     O .retention_data	00000004 flash_read_page
000002a0 l     O .retention_data	00000001 F_SENDING_STATE
000002a1 l     O .retention_data	00000001 FLAG_uart_dma_send
000002a2 l     O .retention_data	00000001 g_plic_preempt_en
20007ff8 l     O .rodata	0000000b __FUNCTION__.10334
20008004 l     O .rodata	00000011 __FUNCTION__.13237
20008094 l     O .rodata	00000025 month_names.5678
00080038 l     O .sbss	00000004 crc
0008003c l     O .sbss	00000002 dfu_uart_queue_fifo
00080040 l     O .sbss	00000008 doubleword
00080048 l     O .sbss	00000001 enter_bootloader
0008004c l     O .sbss	00000004 g_chip_version
00080050 l     O .sbss	00000004 g_pm_status_info
00080054 l     O .sbss	00000004 len
00080058 l     O .sbss	00000004 mcause
0008005c l     O .sbss	00000004 mepc
00080060 l     O .sbss	00000004 page
00080064 l     O .sbss	00000008 uart_dma_rev_size
0008006c l     O .sbss	00000002 uart_dma_rx_chn
00080070 l     O .sbss	00000002 uart_rx_addr
00080074 l     O .sbss	00000002 uart_tx_byte_index
00080000 l     O .data	00000002 FmDebug
00080004 l     O .data	00000004 baudrate
00080008 l     O .data	00000008 g_pm_early_wakeup_time_us
00080010 l     O .data	00000004 g_pm_r_delay_cycle
00080014 l     O .data	00000004 program_address
00080018 l     O .data	00000006 sys_clk
00080020 l     O .data	00000004 timeout_jump
00080024 l     O .data	00000008 uart_rx_dma_config
0008002c l     O .data	00000008 uart_tx_dma_config
200082e8 l     O .rodata	00000003 _bootloader
200082ec l     O .rodata	00000003 _fw
200082f0 l     O .rodata	00000003 _hw
00000000 l    df *ABS*	00000000 memcpy.c
00000000 l    df *ABS*	00000000 printf.c
00000000 l    df *ABS*	00000000 sprintf.c
00000000 l    df *ABS*	00000000 sscanf.c
00000000 l    df *ABS*	00000000 strlen.c
00000000 l    df *ABS*	00000000 strrchr.c
00000000 l    df *ABS*	00000000 strstr.c
00000000 l    df *ABS*	00000000 vprintf.c
200053d0 l     F .text	00000038 __vprintf_help
00080078 l     O .sbss	00000004 __vprintf_buf
0008007c l     O .sbss	00000004 __vprintf_buf_len
00000000 l    df *ABS*	00000000 vsprintf.c
20005452 l     F .text	0000001c __vsprintf_help
00000000 l    df *ABS*	00000000 vsscanf.c
20005496 l     F .text	00000004 vsscanf_help
00000000 l    df *ABS*	00000000 do_scanf.c
00000000 l    df *ABS*	00000000 nds_isspace.c
00000000 l    df *ABS*	00000000 printf_impl.c
00000000 l    df *ABS*	00000000 printf_impl_float.c
00000000 l    df *ABS*	00000000 scanf_f.c
00000000 l    df *ABS*	00000000 scanf_i.c
00000000 l    df *ABS*	00000000 sccl.c
00000000 l    df *ABS*	00000000 strcpy.c
00000000 l    df *ABS*	00000000 strnlen.c
00000000 l    df *ABS*	00000000 strtod.c
00000000 l    df *ABS*	00000000 strtol.c
00000000 l    df *ABS*	00000000 strtol_common.c
00000000 l    df *ABS*	00000000 strtoul.c
00000000 l    df *ABS*	00000000 nds_isalpha.c
00000000 l    df *ABS*	00000000 nds_isdigit.c
00000000 l    df *ABS*	00000000 nds_isupper.c
00000000 l    df *ABS*	00000000 libgcc2.c
00000000 l    df *ABS*	00000000 libgcc2.c
00000000 l    df *ABS*	00000000 divdf3.c
00000000 l    df *ABS*	00000000 muldf3.c
00000000 l    df *ABS*	00000000 floatundidf.c
00000000 l    df *ABS*	00000000 truncdfsf2.c
00000000 l    df *ABS*	00000000 libgcc2.c
00000000 l    df *ABS*	00000000 printf_data.c
00000000 l    df *ABS*	00000000 libgcc2.c
20006152 g     F .text	000000ba _scanf_chars
00001eb0 g     F .ram_code	00000048 entry_irq55
00002a44 g     F .ram_code	00000044 entry_irq13
200064c0 g     F .text	0000007c strcpy
0000292c g     F .ram_code	000000d4 entry_irq15
20006988 g     F .text	0000002e .hidden __ashldi3
00002460 g     F .ram_code	00000044 entry_irq27
00001d48 g     F .ram_code	00000048 entry_irq60
00002d74 g     F .ram_code	000000d4 entry_irq1
00001f88 g     F .ram_code	00000048 entry_irq52
00002018 g     F .ram_code	00000048 entry_irq50
00001cb8 g     F .ram_code	00000048 entry_irq62
200052bc g     F .text	0000001e printf
00080800 g       .data	00000000 __global_pointer$
2000546e g     F .text	00000028 vsprintf
20007d98 g       .text	00000000 .hidden __riscv_save_8
00001dd8 g     F .ram_code	00000048 entry_irq58
20007de4 g       .text	00000000 .hidden __riscv_restore_3
000002a3 g       .retention_data	00000000 _RETENTION_DATA_VMA_END
20007dd0 g       .text	00000000 .hidden __riscv_restore_10
20007d98 g       .text	00000000 .hidden __riscv_save_11
20005756 g     F .text	0000004c __print_integral
00000000 g       .retention_reset	00000000 _RETENTION_RESET_VMA_START
2000620c g     F .text	00000200 _scanf_i
00002b10 g     F .ram_code	00000044 entry_irq10
00002688 g     F .ram_code	00000044 entry_irq21
00000158 g       .retention_data	00000000 _AES_VMA_START
2000549a g     F .text	00000026 vsscanf
00002064 g     F .ram_code	00000004 entry_irq48
20007de4 g       .text	00000000 .hidden __riscv_restore_2
00002b98 g     F .ram_code	00000044 entry_irq8
000022c0 g     F .ram_code	00000048 entry_irq33
000800c0 g       .bss	00000000 _BSS_VMA_END
20005118 g     F .text	000000fa memcpy
20000190 g       *ABS*	00000000 _RETENTION_RESET_LMA_START
200057a2 g     F .text	0000047a __printf_impl
00002a88 g     F .ram_code	00000044 entry_irq12
00002a00 g     F .ram_code	00000044 entry_irq14
20007d90 g       .text	00000000 .hidden __riscv_save_12
20006928 g     F .text	0000000c strtoul
00002d30 g     F .ram_code	00000044 entry_irq2
00001fd0 g     F .ram_code	00000048 entry_irq51
20007dd0 g       .text	00000000 .hidden __riscv_restore_11
0000241c g     F .ram_code	00000044 entry_irq28
00002100 g     F .ram_code	00000048 entry_irq43
20007dc0 g       .text	00000000 .hidden __riscv_save_1
20007de4 g       .text	00000000 .hidden __riscv_restore_0
000026cc g     F .ram_code	00000044 entry_irq20
20007da6 g       .text	00000000 .hidden __riscv_save_7
00080038 g       .sbss	00000000 _BSS_VMA_START
00001c70 g     F .ram_code	00000048 entry_irq63
00080034 g       .data	00000000 _DATA_VMA_END
0000206c g     F .ram_code	00000048 entry_irq46
00002350 g     F .ram_code	00000044 entry_irq31
000028e8 g     F .ram_code	00000044 entry_irq16
00100000 g       *ABS*	00000000 FLASH_SIZE
20007dda g       .text	00000000 .hidden __riscv_restore_5
00080000 g       .data	00000000 _DATA_VMA_START
200067f8 g     F .text	00000130 strtol_common
00001f40 g     F .ram_code	00000048 entry_irq53
00002acc g     F .ram_code	00000044 entry_irq11
00000154 g       .retention_reset	00000000 _RETENTION_RESET_VMA_END
200067ec g     F .text	0000000c strtol
2000653e g     F .text	00000018 strnlen
20006934 g     F .text	0000000e nds_isalpha
20007dda g       .text	00000000 .hidden __riscv_restore_6
20005374 g     F .text	0000002c strrchr
00002c64 g     F .ram_code	00000044 entry_irq5
00002600 g     F .ram_code	00000044 entry_irq23
00002278 g     F .ram_code	00000048 entry_irq34
20006556 g     F .text	00000296 strtod
20006958 g     F .text	0000002e .hidden __lshrdi3
000021e8 g     F .ram_code	00000048 entry_irq36
20007d98 g       .text	00000000 .hidden __riscv_save_9
000020b8 g     F .ram_code	00000048 entry_irq44
20005408 g     F .text	0000004a vprintf
000020b4 g     F .ram_code	00000004 entry_irq45
000024a4 g     F .ram_code	00000044 entry_irq26
20007da6 g       .text	00000000 .hidden __riscv_save_4
00002190 g     F .ram_code	00000004 entry_irq41
00001d00 g     F .ram_code	00000048 entry_irq61
20007df0 g     F .text	00000078 .hidden __clzsi2
20005728 g     F .text	0000001e memchr
20000000 g       .vectors	00000000 BIN_BEGIN
20007dc0 g       .text	00000000 .hidden __riscv_save_3
200053a0 g     F .text	00000030 strstr
0000219c g     F .ram_code	00000004 entry_irq38
2000789c g     F .text	000001f2 .hidden __floatundidf
00002f00 g       .ram_code	00000000 __vectors
0000842c g       *ABS*	00000000 BIN_SIZE
20006942 g     F .text	0000000a nds_isdigit
2000811c g     O .rodata	00000010 __digits
20000438 g       *ABS*	00000000 _RAMCODE_LMA_START
00080084 g     O .sbss	00000004 __printf_count
00001d90 g     F .ram_code	00000048 entry_irq59
200050c8 g     F .text	0000004e memcmp
200052f6 g     F .text	0000001c sscanf
200069b8 g     F .text	00000872 .hidden __divdf3
00002c20 g     F .ram_code	00000044 entry_irq6
2000722c g     F .text	00000670 .hidden __muldf3
20007d98 g       .text	00000000 .hidden __riscv_save_10
00080080 g     O .sbss	00000004 __mculib_REENT_errno
200083f8 g       *ABS*	00000000 _DATA_LMA_START
20005c3c g     F .text	00000092 __print_integral_poly
20005746 g     F .text	00000010 nds_isspace
20000000 g       *ABS*	00000000 NDS_SAG_LMA_FLASH
20007dda g       .text	00000000 .hidden __riscv_restore_4
20007dd0 g       .text	00000000 .hidden __riscv_restore_8
20007da6 g       .text	00000000 .hidden __riscv_save_6
20000000  w      .vectors	00000000 _RELAX_END_
20005cce g     F .text	00000412 __printf_float_impl
20005212 g     F .text	000000aa memset
20007dd0 g       .text	00000000 .hidden __riscv_restore_9
20007dda g       .text	00000000 .hidden __riscv_restore_7
000018ac g     F .ram_code	000003c4 main
00002cec g     F .ram_code	00000044 entry_irq3
00002e48 g     F .ram_code	00000034 trap_entry
00000158 g       .retention_data	00000000 _AES_VMA_END
200054c0 g     F .text	00000268 do_scanf
2000694c g     F .text	0000000a nds_isupper
20007a90 g     F .text	00000300 .hidden __truncdfsf2
00002198 g     F .ram_code	00000004 entry_irq39
00002060 g     F .ram_code	00000004 entry_irq49
00000284 g     O .retention_data	00000004 g_pm_multi_addr
00001e20 g     F .ram_code	00000048 entry_irq57
00002068 g     F .ram_code	00000004 entry_irq47
200002e8 g       *ABS*	00000000 _RETENTION_DATA_LMA_START
20000000 g     F .vectors	00000000 _RESET_ENTRY
00000158 g       .retention_data	00000000 _RETENTION_DATA_VMA_START
200052da g     F .text	0000001c sprintf
200081e8 g     O .rodata	00000100 .hidden __clz_tab
00002ca8 g     F .ram_code	00000044 entry_irq4
000a0000 g       *ABS*	00000000 _STACK_TOP
00002644 g     F .ram_code	00000044 entry_irq22
00002394 g     F .ram_code	00000044 entry_irq30
00002148 g     F .ram_code	00000048 entry_irq42
000025bc g     F .ram_code	00000044 entry_irq24
20007dc0 g       .text	00000000 .hidden __riscv_save_2
00003002 g       .ram_code	00000000 _RAMCODE_VMA_END
00000000  w      *ABS*	00000000 _ITB_BASE_
20007da6 g       .text	00000000 .hidden __riscv_save_5
00002710 g     F .ram_code	00000044 entry_irq19
2000507c g     F .text	0000004c _write
000800c0 g       .bss	00000000 _end
000028a4 g     F .ram_code	00000044 entry_irq17
00002b54 g     F .ram_code	00000044 entry_irq9
00001e68 g     F .ram_code	00000048 entry_irq56
00002230 g     F .ram_code	00000048 entry_irq35
000021a0 g     F .ram_code	00000048 entry_irq37
00001ef8 g     F .ram_code	00000048 entry_irq54
00002194 g     F .ram_code	00000004 entry_irq40
2000640c g     F .text	0000007e __sccl
20007dcc g       .text	00000000 .hidden __riscv_restore_12
00000300 g       .ram_code	00000000 _RAMCODE_VMA_START
20007dc0 g       .text	00000000 .hidden __riscv_save_0
20005314 g     F .text	0000005e strlen
000023d8 g     F .ram_code	00000044 entry_irq29
000800bc g     O .bss	00000004 __vsprintf_buf
2000648c g     F .text	00000030 strchr
20007de4 g       .text	00000000 .hidden __riscv_restore_1
00002bdc g     F .ram_code	00000044 entry_irq7
00002308 g     F .ram_code	00000048 entry_irq32
00000000 g     F .retention_reset	00000000 _IRESET_ENTRY
00002754 g     F .ram_code	00000150 entry_irq18
20005c1c g     F .text	00000020 __int_to_poly
000024e8 g     F .ram_code	000000d4 entry_irq25
200060e0 g     F .text	00000072 _scanf_float



Disassembly of section .vectors:

20000000 <_RESET_ENTRY>:
20000000:	a025                	c.j	20000028 <_START>
	...
20000016:	0000                	unimp
20000018:	842c                	exec.it	#154     !
2000001a:	0000                	unimp
2000001c:	0000                	unimp
2000001e:	0000                	unimp
20000020:	544c4e4b          	fnmsub.h	ft8,fs8,ft4,fa0,rmm
20000024:	0000                	unimp
20000026:	          	sllw	a4,zero,zero

20000028 <_START>:
20000028:	e0080197          	auipc	gp,0xe0080
2000002c:	7d818193          	addi	gp,gp,2008 # 80800 <__global_pointer$>

20000030 <_SWS_USB_DIS>:
20000030:	801002b7          	lui	t0,0x80100
20000034:	70028293          	addi	t0,t0,1792 # 80100700 <_DATA_LMA_START+0x600f8308>
20000038:	04000313          	li	t1,64
2000003c:	506280a3          	sb	t1,1281(t0)
20000040:	e00a0297          	auipc	t0,0xe00a0
20000044:	fc028293          	addi	t0,t0,-64 # a0000 <_STACK_TOP>
20000048:	8116                	c.mv	sp,t0
2000004a:	e0000297          	auipc	t0,0xe0000
2000004e:	fb628293          	addi	t0,t0,-74 # 0 <_ITB_BASE_>
20000052:	80029073          	csrw	uitb,t0
20000056:	6299                	c.lui	t0,0x6
20000058:	3002a2f3          	csrrs	t0,mstatus,t0
2000005c:	00301073          	fssr	zero
20000060:	e0003297          	auipc	t0,0xe0003
20000064:	ea028293          	addi	t0,t0,-352 # 2f00 <__vectors>
20000068:	30529073          	csrw	mtvec,t0
2000006c:	7d016073          	csrsi	mmisc_ctl,2
20000070:	e40002b7          	lui	t0,0xe4000
20000074:	430d                	c.li	t1,3
20000076:	0062a023          	sw	t1,0(t0) # e4000000 <_DATA_LMA_START+0xc3ff7c08>
2000007a:	7ca022f3          	csrr	t0,mcache_ctl
2000007e:	0012e293          	ori	t0,t0,1
20000082:	0022e293          	ori	t0,t0,2
20000086:	7ca29073          	csrw	mcache_ctl,t0
2000008a:	0000100f          	fence.i

2000008e <_RETENTION_RESET_INIT>:
2000008e:	00000317          	auipc	t1,0x0
20000092:	10230313          	addi	t1,t1,258 # 20000190 <_RETENTION_RESET_LMA_START>
20000096:	e0000397          	auipc	t2,0xe0000
2000009a:	f6a38393          	addi	t2,t2,-150 # 0 <_ITB_BASE_>
2000009e:	e0000e17          	auipc	t3,0xe0000
200000a2:	0b6e0e13          	addi	t3,t3,182 # 154 <_RETENTION_RESET_VMA_END>

200000a6 <_RETENTION_RESET_BEGIN>:
200000a6:	01c3f963          	bgeu	t2,t3,200000b8 <_RETENTION_DATA_INIT>
200000aa:	00032283          	lw	t0,0(t1)
200000ae:	0053a023          	sw	t0,0(t2)
200000b2:	0311                	c.addi	t1,4
200000b4:	0391                	c.addi	t2,4
200000b6:	bfc5                	c.j	200000a6 <_RETENTION_RESET_BEGIN>

200000b8 <_RETENTION_DATA_INIT>:
200000b8:	00000317          	auipc	t1,0x0
200000bc:	23030313          	addi	t1,t1,560 # 200002e8 <_RETENTION_DATA_LMA_START>
200000c0:	15800393          	li	t2,344
200000c4:	e0000e17          	auipc	t3,0xe0000
200000c8:	1dfe0e13          	addi	t3,t3,479 # 2a3 <_RETENTION_DATA_VMA_END>

200000cc <_RETENTION_DATA_INIT_BEGIN>:
200000cc:	01c3f963          	bgeu	t2,t3,200000de <_RAMCODE_INIT>
200000d0:	00032283          	lw	t0,0(t1)
200000d4:	0053a023          	sw	t0,0(t2)
200000d8:	0311                	c.addi	t1,4
200000da:	0391                	c.addi	t2,4
200000dc:	bfc5                	c.j	200000cc <_RETENTION_DATA_INIT_BEGIN>

200000de <_RAMCODE_INIT>:
200000de:	00000317          	auipc	t1,0x0
200000e2:	35a30313          	addi	t1,t1,858 # 20000438 <_RAMCODE_LMA_START>
200000e6:	e0000397          	auipc	t2,0xe0000
200000ea:	21a38393          	addi	t2,t2,538 # 300 <ble_rf_set_rx_dma>
200000ee:	e0003e17          	auipc	t3,0xe0003
200000f2:	f14e0e13          	addi	t3,t3,-236 # 3002 <_RAMCODE_VMA_END>

200000f6 <_RAMCODE_INIT_BEGIN>:
200000f6:	01c3f963          	bgeu	t2,t3,20000108 <_DATA_INIT>
200000fa:	00032283          	lw	t0,0(t1)
200000fe:	0053a023          	sw	t0,0(t2)
20000102:	0311                	c.addi	t1,4
20000104:	0391                	c.addi	t2,4
20000106:	bfc5                	c.j	200000f6 <_RAMCODE_INIT_BEGIN>

20000108 <_DATA_INIT>:
20000108:	00008317          	auipc	t1,0x8
2000010c:	2f030313          	addi	t1,t1,752 # 200083f8 <_DATA_LMA_START>
20000110:	e0080397          	auipc	t2,0xe0080
20000114:	ef038393          	addi	t2,t2,-272 # 80000 <_DATA_VMA_START>
20000118:	e0080e17          	auipc	t3,0xe0080
2000011c:	f1ce0e13          	addi	t3,t3,-228 # 80034 <_DATA_VMA_END>

20000120 <_DATA_INIT_BEGIN>:
20000120:	01c3f963          	bgeu	t2,t3,20000132 <_ZERO_BSS>
20000124:	00032283          	lw	t0,0(t1)
20000128:	0053a023          	sw	t0,0(t2)
2000012c:	0311                	c.addi	t1,4
2000012e:	0391                	c.addi	t2,4
20000130:	bfc5                	c.j	20000120 <_DATA_INIT_BEGIN>

20000132 <_ZERO_BSS>:
20000132:	000002b7          	lui	t0,0x0
20000136:	e0080397          	auipc	t2,0xe0080
2000013a:	f0238393          	addi	t2,t2,-254 # 80038 <_BSS_VMA_START>
2000013e:	e0080e17          	auipc	t3,0xe0080
20000142:	f82e0e13          	addi	t3,t3,-126 # 800c0 <_BSS_VMA_END>

20000146 <_ZERO_BSS_BEGIN>:
20000146:	01c3f663          	bgeu	t2,t3,20000152 <_ZERO_AES>
2000014a:	0053a023          	sw	t0,0(t2)
2000014e:	0391                	c.addi	t2,4
20000150:	bfdd                	c.j	20000146 <_ZERO_BSS_BEGIN>

20000152 <_ZERO_AES>:
20000152:	000002b7          	lui	t0,0x0
20000156:	e0000397          	auipc	t2,0xe0000
2000015a:	00238393          	addi	t2,t2,2 # 158 <_AES_VMA_END>
2000015e:	e0000e17          	auipc	t3,0xe0000
20000162:	ffae0e13          	addi	t3,t3,-6 # 158 <_AES_VMA_END>

20000166 <_ZERO_AES_BEGIN>:
20000166:	01c3f663          	bgeu	t2,t3,20000172 <_FILL_STK>
2000016a:	0053a023          	sw	t0,0(t2)
2000016e:	0391                	c.addi	t2,4
20000170:	bfdd                	c.j	20000166 <_ZERO_AES_BEGIN>

20000172 <_FILL_STK>:
20000172:	0001                	c.nop
20000174:	e0001297          	auipc	t0,0xe0001
20000178:	73828293          	addi	t0,t0,1848 # 18ac <main>
2000017c:	9282                	c.jalr	t0
2000017e:	0001                	c.nop
20000180:	0001                	c.nop
20000182:	0001                	c.nop
20000184:	0001                	c.nop
20000186:	0001                	c.nop

20000188 <_END>:
20000188:	a001                	c.j	20000188 <_END>

Disassembly of section .retention_reset:

00000000 <_IRESET_ENTRY>:
   0:	a00d                	c.j	22 <_ISTART>
	...

00000022 <_ISTART>:
  22:	00080197          	auipc	gp,0x80
  26:	7de18193          	addi	gp,gp,2014 # 80800 <__global_pointer$>

0000002a <_ISWS_USB_DIS>:
  2a:	801002b7          	lui	t0,0x80100
  2e:	70028293          	addi	t0,t0,1792 # 80100700 <_DATA_LMA_START+0x600f8308>
  32:	04000313          	li	t1,64
  36:	506280a3          	sb	t1,1281(t0)
  3a:	000a0297          	auipc	t0,0xa0
  3e:	fc628293          	addi	t0,t0,-58 # a0000 <_STACK_TOP>
  42:	8116                	c.mv	sp,t0
  44:	00000297          	auipc	t0,0x0
  48:	fbc28293          	addi	t0,t0,-68 # 0 <_IRESET_ENTRY>
  4c:	80029073          	csrw	uitb,t0
  50:	6299                	c.lui	t0,0x6
  52:	3002a2f3          	csrrs	t0,mstatus,t0
  56:	00301073          	fssr	zero
  5a:	00003297          	auipc	t0,0x3
  5e:	ea628293          	addi	t0,t0,-346 # 2f00 <__vectors>
  62:	30529073          	csrw	mtvec,t0
  66:	7d016073          	csrsi	mmisc_ctl,2
  6a:	e40002b7          	lui	t0,0xe4000
  6e:	430d                	c.li	t1,3
  70:	0062a023          	sw	t1,0(t0) # e4000000 <_DATA_LMA_START+0xc3ff7c08>
  74:	7ca022f3          	csrr	t0,mcache_ctl
  78:	0012e293          	ori	t0,t0,1
  7c:	0022e293          	ori	t0,t0,2
  80:	7ca29073          	csrw	mcache_ctl,t0
  84:	0000100f          	fence.i

00000088 <_WAKEUP_FLASH>:
  88:	801402b7          	lui	t0,0x80140
  8c:	0ff00313          	li	t1,255
  90:	4381                	c.li	t2,0
  92:	0ab00e13          	li	t3,171
  96:	326284a3          	sb	t1,809(t0) # 80140329 <_DATA_LMA_START+0x60137f31>
  9a:	107280a3          	sb	t2,257(t0)
  9e:	11c28023          	sb	t3,256(t0)

000000a2 <_MSPI_WAIT>:
  a2:	801402b7          	lui	t0,0x80140
  a6:	10228383          	lb	t2,258(t0) # 80140102 <_DATA_LMA_START+0x60137d0a>
  aa:	4e05                	c.li	t3,1
  ac:	4ec1                	c.li	t4,16
  ae:	fe7e0ae3          	beq	t3,t2,a2 <_MSPI_WAIT>
  b2:	11d280a3          	sb	t4,257(t0)
  b6:	4281                	c.li	t0,0
  b8:	0e200313          	li	t1,226

000000bc <_WAIT_EFUSE_LOAD_FINISH>:
  bc:	0285                	c.addi	t0,1
  be:	fe537fe3          	bgeu	t1,t0,bc <_WAIT_EFUSE_LOAD_FINISH>

000000c2 <_MULTI_ADDRESS_BEGIN>:
  c2:	801402b7          	lui	t0,0x80140
  c6:	28400313          	li	t1,644
  ca:	00032383          	lw	t2,0(t1)
  ce:	1072a223          	sw	t2,260(t0) # 80140104 <_DATA_LMA_START+0x60137d0c>

000000d2 <_IDATA_INIT>:
  d2:	20008317          	auipc	t1,0x20008
  d6:	32630313          	addi	t1,t1,806 # 200083f8 <_DATA_LMA_START>
  da:	00080397          	auipc	t2,0x80
  de:	f2638393          	addi	t2,t2,-218 # 80000 <_DATA_VMA_START>
  e2:	00080e17          	auipc	t3,0x80
  e6:	f52e0e13          	addi	t3,t3,-174 # 80034 <_DATA_VMA_END>

000000ea <_IDATA_INIT_BEGIN>:
  ea:	01c3f963          	bgeu	t2,t3,fc <_IZERO_BSS>
  ee:	00032283          	lw	t0,0(t1)
  f2:	0053a023          	sw	t0,0(t2)
  f6:	0311                	c.addi	t1,4
  f8:	0391                	c.addi	t2,4
  fa:	bfc5                	c.j	ea <_IDATA_INIT_BEGIN>

000000fc <_IZERO_BSS>:
  fc:	000002b7          	lui	t0,0x0
 100:	00080397          	auipc	t2,0x80
 104:	f3838393          	addi	t2,t2,-200 # 80038 <_BSS_VMA_START>
 108:	00080e17          	auipc	t3,0x80
 10c:	fb8e0e13          	addi	t3,t3,-72 # 800c0 <_BSS_VMA_END>

00000110 <_IZERO_BSS_BEGIN>:
 110:	01c3f663          	bgeu	t2,t3,11c <_IZERO_AES>
 114:	0053a023          	sw	t0,0(t2)
 118:	0391                	c.addi	t2,4
 11a:	bfdd                	c.j	110 <_IZERO_BSS_BEGIN>

0000011c <_IZERO_AES>:
 11c:	000002b7          	lui	t0,0x0
 120:	00000397          	auipc	t2,0x0
 124:	03838393          	addi	t2,t2,56 # 158 <_AES_VMA_END>
 128:	00000e17          	auipc	t3,0x0
 12c:	030e0e13          	addi	t3,t3,48 # 158 <_AES_VMA_END>

00000130 <_IZERO_AES_BEGIN>:
 130:	01c3f663          	bgeu	t2,t3,13c <_IFILL_STK>
 134:	0053a023          	sw	t0,0(t2)
 138:	0391                	c.addi	t2,4
 13a:	bfdd                	c.j	130 <_IZERO_AES_BEGIN>

0000013c <_IFILL_STK>:
 13c:	0001                	c.nop
 13e:	00001297          	auipc	t0,0x1
 142:	76e28293          	addi	t0,t0,1902 # 18ac <main>
 146:	9282                	c.jalr	t0
 148:	0001                	c.nop
 14a:	0001                	c.nop
 14c:	0001                	c.nop
 14e:	0001                	c.nop
 150:	0001                	c.nop

00000152 <_IEND>:
 152:	a001                	c.j	152 <_IEND>

Disassembly of section .ram_code:

00000300 <ble_rf_set_rx_dma>:
     300:	801007b7          	lui	a5,0x80100
     304:	50c78703          	lb	a4,1292(a5) # 8010050c <_DATA_LMA_START+0x600f8114>
     308:	0511                	c.addi	a0,4
     30a:	0ff77713          	andi	a4,a4,255
     30e:	00676713          	ori	a4,a4,6
     312:	50e78623          	sb	a4,1292(a5)
     316:	500786a3          	sb	zero,1293(a5)
     31a:	00141737          	lui	a4,0x141
     31e:	4eb78b23          	sb	a1,1270(a5)
     322:	88070713          	addi	a4,a4,-1920 # 140880 <FLASH_SIZE+0x40880>
     326:	44e7ae23          	sw	a4,1116(a5)
     32a:	000a07b7          	lui	a5,0xa0
     32e:	00f57563          	bgeu	a0,a5,338 <ble_rf_set_rx_dma+0x38>
     332:	c01807b7          	lui	a5,0xc0180
     336:	953e                	c.add	a0,a5
     338:	801007b7          	lui	a5,0x80100
     33c:	46a7a023          	sw	a0,1120(a5) # 80100460 <_DATA_LMA_START+0x600f8068>
     340:	577d                	c.li	a4,-1
     342:	46e7a223          	sw	a4,1124(a5)
     346:	8082                	c.jr	ra

00000348 <irq_ll_system_timer>:
     348:	000007b7          	lui	a5,0x0
     34c:	15878793          	addi	a5,a5,344 # 158 <_AES_VMA_END>
     350:	01178703          	lb	a4,17(a5)
     354:	0ff77713          	andi	a4,a4,255
     358:	0087545b          	beqc	a4,8,360 <irq_ll_system_timer+0x18>
     35c:	00008067          	ret
     360:	02c7a303          	lw	t1,44(a5)
     364:	fe030ce3          	beqz	t1,35c <irq_ll_system_timer+0x14>
     368:	00030067          	jr	t1

0000036c <irq_blc_ll_rx>:
     36c:	1141                	c.addi	sp,-16
     36e:	c422                	c.swsp	s0,8(sp)
     370:	00000437          	lui	s0,0x0
     374:	15840413          	addi	s0,s0,344 # 158 <_AES_VMA_END>
     378:	c606                	c.swsp	ra,12(sp)
     37a:	c226                	c.swsp	s1,4(sp)
     37c:	03644703          	lbu	a4,54(s0)
     380:	5c44                	c.lw	s1,60(s0)
     382:	03544603          	lbu	a2,53(s0)
     386:	03045683          	lhu	a3,48(s0)
     38a:	00170793          	addi	a5,a4,1
     38e:	0ff7f793          	andi	a5,a5,255
     392:	00c7f5b3          	and	a1,a5,a2
     396:	8526                	c.mv	a0,s1
     398:	c4d5957f          	maddr32	a0,a1,a3
     39c:	8f71                	c.and	a4,a2
     39e:	d048                	c.sw	a0,36(s0)
     3a0:	5048                	c.lw	a0,36(s0)
     3a2:	01740583          	lb	a1,23(s0)
     3a6:	c4d714ff          	maddr32	s1,a4,a3
     3aa:	0ff5f593          	andi	a1,a1,255
     3ae:	02f40b23          	sb	a5,54(s0)
     3b2:	37b9                	c.jal	300 <ble_rf_set_rx_dma>
     3b4:	801417b7          	lui	a5,0x80141
     3b8:	00100713          	li	a4,1
     3bc:	a2e79023          	sh	a4,-1504(a5) # 80140a20 <_DATA_LMA_START+0x60138628>
     3c0:	801407b7          	lui	a5,0x80140
     3c4:	2007a583          	lw	a1,512(a5) # 80140200 <_DATA_LMA_START+0x60137e08>
     3c8:	00048123          	sb	zero,2(s1)
     3cc:	01240783          	lb	a5,18(s0)
     3d0:	0ff7f793          	andi	a5,a5,255
     3d4:	1057d25b          	beqc	a5,5,4d8 <irq_blc_ll_rx+0x16c>
     3d8:	801417b7          	lui	a5,0x80141
     3dc:	83178783          	lb	a5,-1999(a5) # 80140831 <_DATA_LMA_START+0x60138439>
     3e0:	0054c703          	lbu	a4,5(s1)
     3e4:	0ff7f793          	andi	a5,a5,255
     3e8:	00e7e863          	bltu	a5,a4,3f8 <irq_blc_ll_rx+0x8c>
     3ec:	00970733          	add	a4,a4,s1
     3f0:	01070783          	lb	a5,16(a4)
     3f4:	0207f85b          	bbc	a5,0,424 <irq_blc_ll_rx+0xb8>
     3f8:	06440783          	lb	a5,100(s0)
     3fc:	00178793          	addi	a5,a5,1
     400:	06f40223          	sb	a5,100(s0)
     404:	03640783          	lb	a5,54(s0)
     408:	d044                	c.sw	s1,36(s0)
     40a:	17fd                	c.addi	a5,-1
     40c:	02f40b23          	sb	a5,54(s0)
     410:	5048                	c.lw	a0,36(s0)
     412:	01740583          	lb	a1,23(s0)
     416:	4422                	c.lwsp	s0,8(sp)
     418:	40b2                	c.lwsp	ra,12(sp)
     41a:	4492                	c.lwsp	s1,4(sp)
     41c:	0ff5f593          	andi	a1,a1,255
     420:	0141                	c.addi	sp,16
     422:	bdf9                	c.j	300 <ble_rf_set_rx_dma>
     424:	01140783          	lb	a5,17(s0)
     428:	00000513          	li	a0,0
     42c:	0ff7f793          	andi	a5,a5,255
     430:	0647d45b          	beqc	a5,4,498 <irq_blc_ll_rx+0x12c>
     434:	01140783          	lb	a5,17(s0)
     438:	0ff7f793          	andi	a5,a5,255
     43c:	0487ee5b          	bnec	a5,8,498 <irq_blc_ll_rx+0x12c>
     440:	01240783          	lb	a5,18(s0)
     444:	0ff7f793          	andi	a5,a5,255
     448:	0057d85b          	beqc	a5,5,458 <irq_blc_ll_rx+0xec>
     44c:	01240783          	lb	a5,18(s0)
     450:	0ff7f793          	andi	a5,a5,255
     454:	0437e25b          	bnec	a5,3,498 <irq_blc_ll_rx+0x12c>
     458:	0b842703          	lw	a4,184(s0)
     45c:	4501                	c.li	a0,0
     45e:	cf0d                	c.beqz	a4,498 <irq_blc_ll_rx+0x12c>
     460:	00840783          	lb	a5,8(s0)
     464:	0ff7f793          	andi	a5,a5,255
     468:	0c078463          	beqz	a5,530 <irq_blc_ll_rx+0x1c4>
     46c:	00840783          	lb	a5,8(s0)
     470:	06444683          	lbu	a3,100(s0)
     474:	0ff7f793          	andi	a5,a5,255
     478:	0af6ec63          	bltu	a3,a5,530 <irq_blc_ll_rx+0x1c4>
     47c:	0bc42783          	lw	a5,188(s0)
     480:	00100693          	li	a3,1
     484:	0407e793          	ori	a5,a5,64
     488:	00d404a3          	sb	a3,9(s0)
     48c:	0af42e23          	sw	a5,188(s0)
     490:	8526                	c.mv	a0,s1
     492:	9702                	c.jalr	a4
     494:	0ff57513          	andi	a0,a0,255
     498:	000404a3          	sb	zero,9(s0)
     49c:	00440703          	lb	a4,4(s0)
     4a0:	0054c783          	lbu	a5,5(s1)
     4a4:	0ff77713          	andi	a4,a4,255
     4a8:	97a6                	c.add	a5,s1
     4aa:	00f7c683          	lbu	a3,15(a5)
     4ae:	cf39                	c.beqz	a4,50c <irq_blc_ll_rx+0x1a0>
     4b0:	00440783          	lb	a5,4(s0)
     4b4:	0ff7f793          	andi	a5,a5,255
     4b8:	97b6                	c.add	a5,a3
     4ba:	8385                	c.srli	a5,0x1
     4bc:	00f40223          	sb	a5,4(s0)
     4c0:	06440783          	lb	a5,100(s0)
     4c4:	0785                	c.addi	a5,1
     4c6:	06f40223          	sb	a5,100(s0)
     4ca:	dd0d                	c.beqz	a0,404 <irq_blc_ll_rx+0x98>
     4cc:	40b2                	c.lwsp	ra,12(sp)
     4ce:	4422                	c.lwsp	s0,8(sp)
     4d0:	4492                	c.lwsp	s1,4(sp)
     4d2:	0141                	c.addi	sp,16
     4d4:	00008067          	ret
     4d8:	04144783          	lbu	a5,65(s0)
     4dc:	0437d65b          	beqc	a5,3,528 <irq_blc_ll_rx+0x1bc>
     4e0:	05f44783          	lbu	a5,95(s0)
     4e4:	cb85                	c.beqz	a5,514 <irq_blc_ll_rx+0x1a8>
     4e6:	80100737          	lui	a4,0x80100
     4ea:	50070683          	lb	a3,1280(a4) # 80100500 <_DATA_LMA_START+0x600f8108>
     4ee:	50170703          	lb	a4,1281(a4)
     4f2:	0ff6f693          	andi	a3,a3,255
     4f6:	0ff77713          	andi	a4,a4,255
     4fa:	00e68d63          	beq	a3,a4,514 <irq_blc_ll_rx+0x1a8>
     4fe:	6705                	c.lui	a4,0x1
     500:	83470713          	addi	a4,a4,-1996 # 834 <flash_send_addr+0x18>
     504:	0ef707db          	lea.d	a5,a4,a5
     508:	0792                	c.slli	a5,0x4
     50a:	a809                	c.j	51c <irq_blc_ll_rx+0x1b0>
     50c:	00d40223          	sb	a3,4(s0)
     510:	fb1ff06f          	j	4c0 <irq_blc_ll_rx+0x154>
     514:	000087b7          	lui	a5,0x8
     518:	34078793          	addi	a5,a5,832 # 8340 <_RAMCODE_VMA_END+0x533e>
     51c:	97ae                	c.add	a5,a1
     51e:	80140737          	lui	a4,0x80140
     522:	20f72223          	sw	a5,516(a4) # 80140204 <_DATA_LMA_START+0x60137e0c>
     526:	bd4d                	c.j	3d8 <irq_blc_ll_rx+0x6c>
     528:	67d5                	c.lui	a5,0x15
     52a:	b4078793          	addi	a5,a5,-1216 # 14b40 <BIN_SIZE+0xc714>
     52e:	b7fd                	c.j	51c <irq_blc_ll_rx+0x1b0>
     530:	03640783          	lb	a5,54(s0)
     534:	03740603          	lb	a2,55(s0)
     538:	03444683          	lbu	a3,52(s0)
     53c:	8f91                	c.sub	a5,a2
     53e:	03f7f793          	andi	a5,a5,63
     542:	f4d7e7e3          	bltu	a5,a3,490 <irq_blc_ll_rx+0x124>
     546:	bf1d                	c.j	47c <irq_blc_ll_rx+0x110>

00000548 <irq_blt_sdk_handler>:
     548:	1141                	c.addi	sp,-16
     54a:	c422                	c.swsp	s0,8(sp)
     54c:	00000437          	lui	s0,0x0
     550:	15840413          	addi	s0,s0,344 # 158 <_AES_VMA_END>
     554:	c606                	c.swsp	ra,12(sp)
     556:	c226                	c.swsp	s1,4(sp)
     558:	00240783          	lb	a5,2(s0)
     55c:	0ff7f793          	andi	a5,a5,255
     560:	efe1                	c.bnez	a5,638 <irq_blt_sdk_handler+0xf0>
     562:	801417b7          	lui	a5,0x80141
     566:	a2079483          	lh	s1,-1504(a5) # 80140a20 <_DATA_LMA_START+0x60138628>
     56a:	3c04a4db          	bfoz	s1,s1,15,0
     56e:	0204f75b          	bbc	s1,0,59c <irq_blt_sdk_handler+0x54>
     572:	01240783          	lb	a5,18(s0)
     576:	0ff7f793          	andi	a5,a5,255
     57a:	1627e35b          	bnec	a5,2,6e0 <irq_blt_sdk_handler+0x198>
     57e:	0c042783          	lw	a5,192(s0)
     582:	9782                	c.jalr	a5
     584:	0c442703          	lw	a4,196(s0)
     588:	00070a63          	beqz	a4,59c <irq_blt_sdk_handler+0x54>
     58c:	01240783          	lb	a5,18(s0)
     590:	0ff7f793          	andi	a5,a5,255
     594:	1257ec5b          	bnec	a5,5,6cc <irq_blt_sdk_handler+0x184>
     598:	4505                	c.li	a0,1
     59a:	9702                	c.jalr	a4
     59c:	0414f25b          	bbc	s1,1,5e0 <irq_blt_sdk_handler+0x98>
     5a0:	0c442703          	lw	a4,196(s0)
     5a4:	801417b7          	lui	a5,0x80141
     5a8:	4689                	c.li	a3,2
     5aa:	a2d79023          	sh	a3,-1504(a5) # 80140a20 <_DATA_LMA_START+0x60138628>
     5ae:	cb09                	c.beqz	a4,5c0 <irq_blt_sdk_handler+0x78>
     5b0:	01240783          	lb	a5,18(s0)
     5b4:	0ff7f793          	andi	a5,a5,255
     5b8:	1057e25b          	bnec	a5,5,6bc <irq_blt_sdk_handler+0x174>
     5bc:	4509                	c.li	a0,2
     5be:	9702                	c.jalr	a4
     5c0:	0c842703          	lw	a4,200(s0)
     5c4:	cb01                	c.beqz	a4,5d4 <irq_blt_sdk_handler+0x8c>
     5c6:	00640783          	lb	a5,6(s0)
     5ca:	0ff7f793          	andi	a5,a5,255
     5ce:	c399                	c.beqz	a5,5d4 <irq_blt_sdk_handler+0x8c>
     5d0:	000700e7          	jalr	a4
     5d4:	01140783          	lb	a5,17(s0)
     5d8:	0ff7f793          	andi	a5,a5,255
     5dc:	0887d45b          	beqc	a5,8,664 <irq_blt_sdk_handler+0x11c>
     5e0:	4744f493          	andi	s1,s1,1140
     5e4:	00048e63          	beqz	s1,600 <irq_blt_sdk_handler+0xb8>
     5e8:	801417b7          	lui	a5,0x80141
     5ec:	47400713          	li	a4,1140
     5f0:	a2e79023          	sh	a4,-1504(a5) # 80140a20 <_DATA_LMA_START+0x60138628>
     5f4:	01240783          	lb	a5,18(s0)
     5f8:	0ff7f793          	andi	a5,a5,255
     5fc:	0a57d65b          	beqc	a5,5,6a8 <irq_blt_sdk_handler+0x160>
     600:	801407b7          	lui	a5,0x80140
     604:	20978703          	lb	a4,521(a5) # 80140209 <_DATA_LMA_START+0x60137e11>
     608:	42077e5b          	bbs	a4,0,644 <irq_blt_sdk_handler+0xfc>
     60c:	80140737          	lui	a4,0x80140
     610:	20472783          	lw	a5,516(a4) # 80140204 <_DATA_LMA_START+0x60137e0c>
     614:	20072603          	lw	a2,512(a4)
     618:	400006b7          	lui	a3,0x40000
     61c:	40c787b3          	sub	a5,a5,a2
     620:	00f6fc63          	bgeu	a3,a5,638 <irq_blt_sdk_handler+0xf0>
     624:	01140783          	lb	a5,17(s0)
     628:	8bb9                	c.andi	a5,14
     62a:	c799                	c.beqz	a5,638 <irq_blt_sdk_handler+0xf0>
     62c:	20072783          	lw	a5,512(a4)
     630:	7d078793          	addi	a5,a5,2000
     634:	20f72223          	sw	a5,516(a4)
     638:	40b2                	c.lwsp	ra,12(sp)
     63a:	4422                	c.lwsp	s0,8(sp)
     63c:	4492                	c.lwsp	s1,4(sp)
     63e:	0141                	c.addi	sp,16
     640:	00008067          	ret
     644:	4705                	c.li	a4,1
     646:	20e784a3          	sb	a4,521(a5)
     64a:	39fd                	c.jal	348 <irq_ll_system_timer>
     64c:	80140737          	lui	a4,0x80140
     650:	20472783          	lw	a5,516(a4) # 80140204 <_DATA_LMA_START+0x60137e0c>
     654:	20072603          	lw	a2,512(a4)
     658:	400006b7          	lui	a3,0x40000
     65c:	8f91                	c.sub	a5,a2
     65e:	fcf6e3e3          	bltu	a3,a5,624 <irq_blt_sdk_handler+0xdc>
     662:	bfd9                	c.j	638 <irq_blt_sdk_handler+0xf0>
     664:	0d240783          	lb	a5,210(s0)
     668:	0d340683          	lb	a3,211(s0)
     66c:	8f95                	c.sub	a5,a3
     66e:	8bfd                	c.andi	a5,31
     670:	dba5                	c.beqz	a5,5e0 <irq_blt_sdk_handler+0x98>
     672:	80100637          	lui	a2,0x80100
     676:	50060703          	lb	a4,1280(a2) # 80100500 <_DATA_LMA_START+0x600f8108>
     67a:	50160503          	lb	a0,1281(a2)
     67e:	4585                	c.li	a1,1
     680:	8f09                	c.sub	a4,a0
     682:	8b7d                	c.andi	a4,31
     684:	177d                	c.addi	a4,-1
     686:	f4e5ede3          	bltu	a1,a4,5e0 <irq_blt_sdk_handler+0x98>
     68a:	50060703          	lb	a4,1280(a2)
     68e:	96be                	c.add	a3,a5
     690:	97ba                	c.add	a5,a4
     692:	0cd409a3          	sb	a3,211(s0)
     696:	0ff7f793          	andi	a5,a5,255
     69a:	50f60023          	sb	a5,1280(a2)
     69e:	50160783          	lb	a5,1281(a2)
     6a2:	50060783          	lb	a5,1280(a2)
     6a6:	bf2d                	c.j	5e0 <irq_blt_sdk_handler+0x98>
     6a8:	80140737          	lui	a4,0x80140
     6ac:	20072783          	lw	a5,512(a4) # 80140200 <_DATA_LMA_START+0x60137e08>
     6b0:	0c878793          	addi	a5,a5,200
     6b4:	20f72223          	sw	a5,516(a4)
     6b8:	f49ff06f          	j	600 <irq_blt_sdk_handler+0xb8>
     6bc:	01240783          	lb	a5,18(s0)
     6c0:	0ff7f793          	andi	a5,a5,255
     6c4:	ae37ee5b          	bnec	a5,3,5c0 <irq_blt_sdk_handler+0x78>
     6c8:	ef5ff06f          	j	5bc <irq_blt_sdk_handler+0x74>
     6cc:	01240783          	lb	a5,18(s0)
     6d0:	0ff7f793          	andi	a5,a5,255
     6d4:	ac37d25b          	beqc	a5,3,598 <irq_blt_sdk_handler+0x50>
     6d8:	b014f45b          	bbc	s1,1,5e0 <irq_blt_sdk_handler+0x98>
     6dc:	ec5ff06f          	j	5a0 <irq_blt_sdk_handler+0x58>
     6e0:	c8dff0ef          	jal	ra,36c <irq_blc_ll_rx>
     6e4:	ea1ff06f          	j	584 <irq_blt_sdk_handler+0x3c>

000006e8 <pm_tim_recover_32k_rc>:
     6e8:	000007b7          	lui	a5,0x0
     6ec:	15878793          	addi	a5,a5,344 # 158 <_AES_VMA_END>
     6f0:	0e07a703          	lw	a4,224(a5)
     6f4:	10c7c603          	lbu	a2,268(a5)
     6f8:	0dc7a583          	lw	a1,220(a5)
     6fc:	40e50733          	sub	a4,a0,a4
     700:	1087a683          	lw	a3,264(a5)
     704:	ee01                	c.bnez	a2,71c <pm_tim_recover_32k_rc+0x34>
     706:	02d70633          	mul	a2,a4,a3
     70a:	0ea7ac23          	sw	a0,248(a5)
     70e:	0ee7aa23          	sw	a4,244(a5)
     712:	00465693          	srli	a3,a2,0x4
     716:	95b6                	c.add	a1,a3
     718:	852e                	c.mv	a0,a1
     71a:	8082                	c.jr	ra
     71c:	00475613          	srli	a2,a4,0x4
     720:	c4d615ff          	maddr32	a1,a2,a3
     724:	0ea7ac23          	sw	a0,248(a5)
     728:	0ee7aa23          	sw	a4,244(a5)
     72c:	852e                	c.mv	a0,a1
     72e:	8082                	c.jr	ra

00000730 <pm_get_32k_rc_calib>:
     730:	801407b7          	lui	a5,0x80140
     734:	2147a703          	lw	a4,532(a5) # 80140214 <_DATA_LMA_START+0x60137e1c>
     738:	df75                	c.beqz	a4,734 <pm_get_32k_rc_calib+0x4>
     73a:	2147a503          	lw	a0,532(a5)
     73e:	000007b7          	lui	a5,0x0
     742:	15878793          	addi	a5,a5,344 # 158 <_AES_VMA_END>
     746:	0f07a703          	lw	a4,240(a5)
     74a:	10a7a023          	sw	a0,256(a5)
     74e:	0512                	c.slli	a0,0x4
     750:	cb11                	c.beqz	a4,764 <pm_get_32k_rc_calib+0x34>
     752:	1047c603          	lbu	a2,260(a5)
     756:	4691                	c.li	a3,4
     758:	8d19                	c.sub	a0,a4
     75a:	8e91                	c.sub	a3,a2
     75c:	40d55533          	sra	a0,a0,a3
     760:	00e50533          	add	a0,a0,a4
     764:	0ea7a823          	sw	a0,240(a5)
     768:	0e47a783          	lw	a5,228(a5)
     76c:	8511                	c.srai	a0,0x4
     76e:	02f507b3          	mul	a5,a0,a5
     772:	87c9                	c.srai	a5,0x12
     774:	953e                	c.add	a0,a5
     776:	8082                	c.jr	ra

00000778 <pm_update_32k_rc_sleep_tick>:
     778:	000007b7          	lui	a5,0x0
     77c:	15878793          	addi	a5,a5,344 # 158 <_AES_VMA_END>
     780:	0f87a703          	lw	a4,248(a5)
     784:	1047c683          	lbu	a3,260(a5)
     788:	40e50733          	sub	a4,a0,a4
     78c:	0ee7ae23          	sw	a4,252(a5)
     790:	e681                	c.bnez	a3,798 <pm_update_32k_rc_sleep_tick+0x20>
     792:	0dc7a703          	lw	a4,220(a5)
     796:	eb19                	c.bnez	a4,7ac <pm_update_32k_rc_sleep_tick+0x34>
     798:	0015e593          	ori	a1,a1,1
     79c:	10078223          	sb	zero,260(a5)
     7a0:	0ea7a023          	sw	a0,224(a5)
     7a4:	0cb7ae23          	sw	a1,220(a5)
     7a8:	00008067          	ret
     7ac:	0e07a703          	lw	a4,224(a5)
     7b0:	6691                	c.lui	a3,0x4
     7b2:	40e50733          	sub	a4,a0,a4
     7b6:	6c07275b          	bfoz	a4,a4,27,0
     7ba:	e8068693          	addi	a3,a3,-384 # 3e80 <_RAMCODE_VMA_END+0xe7e>
     7be:	fee6f5e3          	bgeu	a3,a4,7a8 <pm_update_32k_rc_sleep_tick+0x30>
     7c2:	0015e593          	ori	a1,a1,1
     7c6:	10078223          	sb	zero,260(a5)
     7ca:	0ea7a023          	sw	a0,224(a5)
     7ce:	0cb7ae23          	sw	a1,220(a5)
     7d2:	bfd9                	c.j	7a8 <pm_update_32k_rc_sleep_tick+0x30>

000007d4 <stimer_irq_handler>:
     7d4:	d75ff06f          	j	548 <irq_blt_sdk_handler>

000007d8 <rf_irq_handler>:
     7d8:	d71ff06f          	j	548 <irq_blt_sdk_handler>

000007dc <delay_ms>:
     7dc:	000047b7          	lui	a5,0x4
     7e0:	e8078793          	addi	a5,a5,-384 # 3e80 <_RAMCODE_VMA_END+0xe7e>
     7e4:	02f50533          	mul	a0,a0,a5
     7e8:	801407b7          	lui	a5,0x80140
     7ec:	2007a683          	lw	a3,512(a5) # 80140200 <_DATA_LMA_START+0x60137e08>
     7f0:	80140737          	lui	a4,0x80140
     7f4:	20072783          	lw	a5,512(a4) # 80140200 <_DATA_LMA_START+0x60137e08>
     7f8:	8f95                	c.sub	a5,a3
     7fa:	fef57de3          	bgeu	a0,a5,7f4 <delay_ms+0x18>
     7fe:	8082                	c.jr	ra

00000800 <delay_us>:
     800:	801407b7          	lui	a5,0x80140
     804:	2007a683          	lw	a3,512(a5) # 80140200 <_DATA_LMA_START+0x60137e08>
     808:	00451513          	slli	a0,a0,0x4
     80c:	80140737          	lui	a4,0x80140
     810:	20072783          	lw	a5,512(a4) # 80140200 <_DATA_LMA_START+0x60137e08>
     814:	8f95                	c.sub	a5,a3
     816:	fef57de3          	bgeu	a0,a5,810 <delay_us+0x10>
     81a:	8082                	c.jr	ra

0000081c <flash_send_addr>:
     81c:	5d05275b          	bfoz	a4,a0,23,16
     820:	801407b7          	lui	a5,0x80140
     824:	801406b7          	lui	a3,0x80140
     828:	10e78023          	sb	a4,256(a5) # 80140100 <_DATA_LMA_START+0x60137d08>
     82c:	10268783          	lb	a5,258(a3) # 80140102 <_DATA_LMA_START+0x60137d0a>
     830:	fe07fe5b          	bbs	a5,0,82c <flash_send_addr+0x10>
     834:	3c8527db          	bfoz	a5,a0,15,8
     838:	80140737          	lui	a4,0x80140
     83c:	10f68023          	sb	a5,256(a3)
     840:	10270783          	lb	a5,258(a4) # 80140102 <_DATA_LMA_START+0x60137d0a>
     844:	fe07fe5b          	bbs	a5,0,840 <flash_send_addr+0x24>
     848:	0ff57513          	andi	a0,a0,255
     84c:	801406b7          	lui	a3,0x80140
     850:	10a70023          	sb	a0,256(a4)
     854:	10268783          	lb	a5,258(a3) # 80140102 <_DATA_LMA_START+0x60137d0a>
     858:	fe07fe5b          	bbs	a5,0,854 <flash_send_addr+0x38>
     85c:	00008067          	ret

00000860 <flash_send_cmd>:
     860:	801407b7          	lui	a5,0x80140
     864:	10178703          	lb	a4,257(a5) # 80140101 <_DATA_LMA_START+0x60137d09>
     868:	0ff77713          	andi	a4,a4,255
     86c:	01076713          	ori	a4,a4,16
     870:	10e780a3          	sb	a4,257(a5)
     874:	0001                	c.nop
     876:	0001                	c.nop
     878:	0001                	c.nop
     87a:	0001                	c.nop
     87c:	0001                	c.nop
     87e:	0001                	c.nop
     880:	0001                	c.nop
     882:	0001                	c.nop
     884:	0001                	c.nop
     886:	0001                	c.nop
     888:	10178683          	lb	a3,257(a5)
     88c:	0ff57513          	andi	a0,a0,255
     890:	0ef6f693          	andi	a3,a3,239
     894:	10d780a3          	sb	a3,257(a5)
     898:	80140737          	lui	a4,0x80140
     89c:	10a78023          	sb	a0,256(a5)
     8a0:	10270783          	lb	a5,258(a4) # 80140102 <_DATA_LMA_START+0x60137d0a>
     8a4:	fe07fe5b          	bbs	a5,0,8a0 <flash_send_cmd+0x40>
     8a8:	00008067          	ret

000008ac <flash_mspi_read_ram>:
     8ac:	1101                	c.addi	sp,-32
     8ae:	cc22                	c.swsp	s0,24(sp)
     8b0:	ca26                	c.swsp	s1,20(sp)
     8b2:	c84a                	c.swsp	s2,16(sp)
     8b4:	c64e                	c.swsp	s3,12(sp)
     8b6:	c452                	c.swsp	s4,8(sp)
     8b8:	c256                	c.swsp	s5,4(sp)
     8ba:	ce06                	c.swsp	ra,28(sp)
     8bc:	89aa                	c.mv	s3,a0
     8be:	843a                	c.mv	s0,a4
     8c0:	84be                	c.mv	s1,a5
     8c2:	4705                	c.li	a4,1
     8c4:	e42007b7          	lui	a5,0xe4200
     8c8:	8a2e                	c.mv	s4,a1
     8ca:	8ab2                	c.mv	s5,a2
     8cc:	8936                	c.mv	s2,a3
     8ce:	80140537          	lui	a0,0x80140
     8d2:	c398                	c.sw	a4,0(a5)
     8d4:	10250703          	lb	a4,258(a0) # 80140102 <_DATA_LMA_START+0x60137d0a>
     8d8:	fe077e5b          	bbs	a4,0,8d4 <flash_mspi_read_ram+0x28>
     8dc:	10150783          	lb	a5,257(a0)
     8e0:	80140837          	lui	a6,0x80140
     8e4:	0ff7f793          	andi	a5,a5,255
     8e8:	0107e793          	ori	a5,a5,16
     8ec:	10f500a3          	sb	a5,257(a0)
     8f0:	32880703          	lb	a4,808(a6) # 80140328 <_DATA_LMA_START+0x60137f30>
     8f4:	be377e5b          	bbc	a4,3,8f0 <flash_mspi_read_ram+0x44>
     8f8:	10180783          	lb	a5,257(a6)
     8fc:	854e                	c.mv	a0,s3
     8fe:	0fd7f793          	andi	a5,a5,253
     902:	10f800a3          	sb	a5,257(a6)
     906:	10180783          	lb	a5,257(a6)
     90a:	0f37f793          	andi	a5,a5,243
     90e:	10f800a3          	sb	a5,257(a6)
     912:	37b9                	c.jal	860 <flash_send_cmd>
     914:	0e0a9c63          	bnez	s5,a0c <flash_mspi_read_ram+0x160>
     918:	00000713          	li	a4,0
     91c:	801405b7          	lui	a1,0x80140
     920:	01277c63          	bgeu	a4,s2,938 <flash_mspi_read_ram+0x8c>
     924:	00100713          	li	a4,1
     928:	10058023          	sb	zero,256(a1) # 80140100 <_DATA_LMA_START+0x60137d08>
     92c:	10258603          	lb	a2,258(a1)
     930:	fe067e5b          	bbs	a2,0,92c <flash_mspi_read_ram+0x80>
     934:	ff2768e3          	bltu	a4,s2,924 <flash_mspi_read_ram+0x78>
     938:	01b9ecdb          	bnec	s3,59,950 <flash_mspi_read_ram+0xa4>
     93c:	80140737          	lui	a4,0x80140
     940:	10170783          	lb	a5,257(a4) # 80140101 <_DATA_LMA_START+0x60137d09>
     944:	0f37f793          	andi	a5,a5,243
     948:	0047e793          	ori	a5,a5,4
     94c:	10f700a3          	sb	a5,257(a4)
     950:	80140737          	lui	a4,0x80140
     954:	10170783          	lb	a5,257(a4) # 80140101 <_DATA_LMA_START+0x60137d09>
     958:	801406b7          	lui	a3,0x80140
     95c:	0ff7f793          	andi	a5,a5,255
     960:	0027e793          	ori	a5,a5,2
     964:	10f700a3          	sb	a5,257(a4)
     968:	10070023          	sb	zero,256(a4)
     96c:	10268703          	lb	a4,258(a3) # 80140102 <_DATA_LMA_START+0x60137d0a>
     970:	fe077e5b          	bbs	a4,0,96c <flash_mspi_read_ram+0xc0>
     974:	10168703          	lb	a4,257(a3)
     978:	801407b7          	lui	a5,0x80140
     97c:	0ff77713          	andi	a4,a4,255
     980:	00176713          	ori	a4,a4,1
     984:	10e680a3          	sb	a4,257(a3)
     988:	10278703          	lb	a4,258(a5) # 80140102 <_DATA_LMA_START+0x60137d0a>
     98c:	fe077e5b          	bbs	a4,0,988 <flash_mspi_read_ram+0xdc>
     990:	02048263          	beqz	s1,9b4 <flash_mspi_read_ram+0x108>
     994:	00940733          	add	a4,s0,s1
     998:	801406b7          	lui	a3,0x80140
     99c:	10068783          	lb	a5,256(a3) # 80140100 <_DATA_LMA_START+0x60137d08>
     9a0:	00140413          	addi	s0,s0,1
     9a4:	fef40fa3          	sb	a5,-1(s0)
     9a8:	10268783          	lb	a5,258(a3)
     9ac:	fe07fe5b          	bbs	a5,0,9a8 <flash_mspi_read_ram+0xfc>
     9b0:	fee416e3          	bne	s0,a4,99c <flash_mspi_read_ram+0xf0>
     9b4:	801407b7          	lui	a5,0x80140
     9b8:	10178703          	lb	a4,257(a5) # 80140101 <_DATA_LMA_START+0x60137d09>
     9bc:	0fe77713          	andi	a4,a4,254
     9c0:	10e780a3          	sb	a4,257(a5)
     9c4:	01b9e8db          	bnec	s3,59,9d4 <flash_mspi_read_ram+0x128>
     9c8:	10178703          	lb	a4,257(a5)
     9cc:	0f377713          	andi	a4,a4,243
     9d0:	10e780a3          	sb	a4,257(a5)
     9d4:	80140737          	lui	a4,0x80140
     9d8:	10170783          	lb	a5,257(a4) # 80140101 <_DATA_LMA_START+0x60137d09>
     9dc:	0ff7f793          	andi	a5,a5,255
     9e0:	0107e793          	ori	a5,a5,16
     9e4:	10f700a3          	sb	a5,257(a4)
     9e8:	0001                	c.nop
     9ea:	0001                	c.nop
     9ec:	0001                	c.nop
     9ee:	0001                	c.nop
     9f0:	0001                	c.nop
     9f2:	e42007b7          	lui	a5,0xe4200
     9f6:	0007a023          	sw	zero,0(a5) # e4200000 <_DATA_LMA_START+0xc41f7c08>
     9fa:	40f2                	c.lwsp	ra,28(sp)
     9fc:	4462                	c.lwsp	s0,24(sp)
     9fe:	44d2                	c.lwsp	s1,20(sp)
     a00:	4942                	c.lwsp	s2,16(sp)
     a02:	49b2                	c.lwsp	s3,12(sp)
     a04:	4a22                	c.lwsp	s4,8(sp)
     a06:	4a92                	c.lwsp	s5,4(sp)
     a08:	6105                	c.addi16sp	sp,32
     a0a:	8082                	c.jr	ra
     a0c:	8552                	c.mv	a0,s4
     a0e:	3539                	c.jal	81c <flash_send_addr>
     a10:	f09ff06f          	j	918 <flash_mspi_read_ram+0x6c>

00000a14 <flash_wait_done>:
     a14:	1141                	c.addi	sp,-16
     a16:	4515                	c.li	a0,5
     a18:	c606                	c.swsp	ra,12(sp)
     a1a:	3599                	c.jal	860 <flash_send_cmd>
     a1c:	009896b7          	lui	a3,0x989
     a20:	68068693          	addi	a3,a3,1664 # 989680 <FLASH_SIZE+0x889680>
     a24:	80140737          	lui	a4,0x80140
     a28:	10070023          	sb	zero,256(a4) # 80140100 <_DATA_LMA_START+0x60137d08>
     a2c:	10270783          	lb	a5,258(a4)
     a30:	fe07fe5b          	bbs	a5,0,a2c <flash_wait_done+0x18>
     a34:	10070783          	lb	a5,256(a4)
     a38:	0007f45b          	bbc	a5,0,a40 <flash_wait_done+0x2c>
     a3c:	16fd                	c.addi	a3,-1
     a3e:	f6ed                	c.bnez	a3,a28 <flash_wait_done+0x14>
     a40:	80140737          	lui	a4,0x80140
     a44:	10170783          	lb	a5,257(a4) # 80140101 <_DATA_LMA_START+0x60137d09>
     a48:	0ff7f793          	andi	a5,a5,255
     a4c:	0107e793          	ori	a5,a5,16
     a50:	10f700a3          	sb	a5,257(a4)
     a54:	40b2                	c.lwsp	ra,12(sp)
     a56:	0141                	c.addi	sp,16
     a58:	00008067          	ret

00000a5c <flash_mspi_write_ram>:
     a5c:	1101                	c.addi	sp,-32
     a5e:	cc22                	c.swsp	s0,24(sp)
     a60:	ca26                	c.swsp	s1,20(sp)
     a62:	c84a                	c.swsp	s2,16(sp)
     a64:	c64e                	c.swsp	s3,12(sp)
     a66:	c452                	c.swsp	s4,8(sp)
     a68:	ce06                	c.swsp	ra,28(sp)
     a6a:	8a2a                	c.mv	s4,a0
     a6c:	84ba                	c.mv	s1,a4
     a6e:	e42007b7          	lui	a5,0xe4200
     a72:	4705                	c.li	a4,1
     a74:	892e                	c.mv	s2,a1
     a76:	89b2                	c.mv	s3,a2
     a78:	8436                	c.mv	s0,a3
     a7a:	80140537          	lui	a0,0x80140
     a7e:	c398                	c.sw	a4,0(a5)
     a80:	10250783          	lb	a5,258(a0) # 80140102 <_DATA_LMA_START+0x60137d0a>
     a84:	fe07fe5b          	bbs	a5,0,a80 <flash_mspi_write_ram+0x24>
     a88:	10150783          	lb	a5,257(a0)
     a8c:	801406b7          	lui	a3,0x80140
     a90:	0ff7f793          	andi	a5,a5,255
     a94:	0107e793          	ori	a5,a5,16
     a98:	10f500a3          	sb	a5,257(a0)
     a9c:	32868783          	lb	a5,808(a3) # 80140328 <_DATA_LMA_START+0x60137f30>
     aa0:	be37fe5b          	bbc	a5,3,a9c <flash_mspi_write_ram+0x40>
     aa4:	10168783          	lb	a5,257(a3)
     aa8:	4519                	c.li	a0,6
     aaa:	0fd7f793          	andi	a5,a5,253
     aae:	10f680a3          	sb	a5,257(a3)
     ab2:	10168783          	lb	a5,257(a3)
     ab6:	0f37f793          	andi	a5,a5,243
     aba:	10f680a3          	sb	a5,257(a3)
     abe:	334d                	c.jal	860 <flash_send_cmd>
     ac0:	01400533          	add	a0,zero,s4
     ac4:	d9dff0ef          	jal	ra,860 <flash_send_cmd>
     ac8:	06099263          	bnez	s3,b2c <flash_mspi_write_ram+0xd0>
     acc:	c095                	c.beqz	s1,af0 <flash_mspi_write_ram+0x94>
     ace:	86a2                	c.mv	a3,s0
     ad0:	00940633          	add	a2,s0,s1
     ad4:	80140737          	lui	a4,0x80140
     ad8:	0006c783          	lbu	a5,0(a3)
     adc:	10f70023          	sb	a5,256(a4) # 80140100 <_DATA_LMA_START+0x60137d08>
     ae0:	10270783          	lb	a5,258(a4)
     ae4:	fe07fe5b          	bbs	a5,0,ae0 <flash_mspi_write_ram+0x84>
     ae8:	00168693          	addi	a3,a3,1
     aec:	fed616e3          	bne	a2,a3,ad8 <flash_mspi_write_ram+0x7c>
     af0:	80140737          	lui	a4,0x80140
     af4:	10170783          	lb	a5,257(a4) # 80140101 <_DATA_LMA_START+0x60137d09>
     af8:	0ff7f793          	andi	a5,a5,255
     afc:	0107e793          	ori	a5,a5,16
     b00:	10f700a3          	sb	a5,257(a4)
     b04:	f11ff0ef          	jal	ra,a14 <flash_wait_done>
     b08:	0001                	c.nop
     b0a:	0001                	c.nop
     b0c:	0001                	c.nop
     b0e:	0001                	c.nop
     b10:	0001                	c.nop
     b12:	e42007b7          	lui	a5,0xe4200
     b16:	0007a023          	sw	zero,0(a5) # e4200000 <_DATA_LMA_START+0xc41f7c08>
     b1a:	40f2                	c.lwsp	ra,28(sp)
     b1c:	4462                	c.lwsp	s0,24(sp)
     b1e:	44d2                	c.lwsp	s1,20(sp)
     b20:	4942                	c.lwsp	s2,16(sp)
     b22:	49b2                	c.lwsp	s3,12(sp)
     b24:	4a22                	c.lwsp	s4,8(sp)
     b26:	6105                	c.addi16sp	sp,32
     b28:	00008067          	ret
     b2c:	854a                	c.mv	a0,s2
     b2e:	31fd                	c.jal	81c <flash_send_addr>
     b30:	f9dff06f          	j	acc <flash_mspi_write_ram+0x70>

00000b34 <clock_set_32k_tick>:
     b34:	801406b7          	lui	a3,0x80140
     b38:	20a68703          	lb	a4,522(a3) # 8014020a <_DATA_LMA_START+0x60137e12>
     b3c:	801407b7          	lui	a5,0x80140
     b40:	0ff77713          	andi	a4,a4,255
     b44:	00176713          	ori	a4,a4,1
     b48:	20e68523          	sb	a4,522(a3)
     b4c:	20b78703          	lb	a4,523(a5) # 8014020b <_DATA_LMA_START+0x60137e13>
     b50:	20b78693          	addi	a3,a5,523
     b54:	fe677c5b          	bbs	a4,6,b4c <clock_set_32k_tick+0x18>
     b58:	20a7a623          	sw	a0,524(a5)
     b5c:	47a1                	c.li	a5,8
     b5e:	00f68023          	sb	a5,0(a3)
     b62:	0001                	c.nop
     b64:	0001                	c.nop
     b66:	0001                	c.nop
     b68:	0001                	c.nop
     b6a:	0001                	c.nop
     b6c:	0001                	c.nop
     b6e:	0001                	c.nop
     b70:	0001                	c.nop
     b72:	0001                	c.nop
     b74:	0001                	c.nop
     b76:	0001                	c.nop
     b78:	0001                	c.nop
     b7a:	0001                	c.nop
     b7c:	0001                	c.nop
     b7e:	0001                	c.nop
     b80:	00000013          	nop
     b84:	80140737          	lui	a4,0x80140
     b88:	20b70783          	lb	a5,523(a4) # 8014020b <_DATA_LMA_START+0x60137e13>
     b8c:	fe37fe5b          	bbs	a5,3,b88 <clock_set_32k_tick+0x54>
     b90:	00008067          	ret

00000b94 <clock_get_32k_tick>:
     b94:	1141                	c.addi	sp,-16
     b96:	c422                	c.swsp	s0,8(sp)
     b98:	00112623          	sw	ra,12(sp)
     b9c:	20003097          	auipc	ra,0x20003
     ba0:	d64080e7          	jalr	-668(ra) # 20003900 <analog_read_reg32.constprop.5>
     ba4:	00a00433          	add	s0,zero,a0
     ba8:	20003097          	auipc	ra,0x20003
     bac:	d58080e7          	jalr	-680(ra) # 20003900 <analog_read_reg32.constprop.5>
     bb0:	40850733          	sub	a4,a0,s0
     bb4:	842a                	c.mv	s0,a0
     bb6:	be17695b          	bnec	a4,1,ba8 <clock_get_32k_tick+0x14>
     bba:	40b2                	c.lwsp	ra,12(sp)
     bbc:	4422                	c.lwsp	s0,8(sp)
     bbe:	0141                	c.addi	sp,16
     bc0:	00008067          	ret

00000bc4 <analog_write_reg8>:
     bc4:	30002673          	csrr	a2,mstatus
     bc8:	8a21                	c.andi	a2,8
     bca:	c219                	c.beqz	a2,bd0 <analog_write_reg8+0xc>
     bcc:	300477f3          	csrrci	a5,mstatus,8
     bd0:	80140737          	lui	a4,0x80140
     bd4:	18a70023          	sb	a0,384(a4) # 80140180 <_DATA_LMA_START+0x60137d88>
     bd8:	18b70223          	sb	a1,388(a4)
     bdc:	06000693          	li	a3,96
     be0:	801407b7          	lui	a5,0x80140
     be4:	18d70123          	sb	a3,386(a4)
     be8:	18278703          	lb	a4,386(a5) # 80140182 <_DATA_LMA_START+0x60137d8a>
     bec:	fe777e5b          	bbs	a4,7,be8 <analog_write_reg8+0x24>
     bf0:	18078123          	sb	zero,386(a5)
     bf4:	00060463          	beqz	a2,bfc <analog_write_reg8+0x38>
     bf8:	30062673          	csrrs	a2,mstatus,a2
     bfc:	00008067          	ret

00000c00 <analog_read_reg8>:
     c00:	300026f3          	csrr	a3,mstatus
     c04:	8aa1                	c.andi	a3,8
     c06:	c299                	c.beqz	a3,c0c <analog_read_reg8+0xc>
     c08:	300477f3          	csrrci	a5,mstatus,8
     c0c:	801407b7          	lui	a5,0x80140
     c10:	18a78023          	sb	a0,384(a5) # 80140180 <_DATA_LMA_START+0x60137d88>
     c14:	00100713          	li	a4,1
     c18:	18e781a3          	sb	a4,387(a5)
     c1c:	04000613          	li	a2,64
     c20:	80140737          	lui	a4,0x80140
     c24:	18c78123          	sb	a2,386(a5)
     c28:	18270783          	lb	a5,386(a4) # 80140182 <_DATA_LMA_START+0x60137d8a>
     c2c:	fe77fe5b          	bbs	a5,7,c28 <analog_read_reg8+0x28>
     c30:	18470503          	lb	a0,388(a4)
     c34:	0ff57513          	andi	a0,a0,255
     c38:	00068463          	beqz	a3,c40 <analog_read_reg8+0x40>
     c3c:	3006a6f3          	csrrs	a3,mstatus,a3
     c40:	00008067          	ret

00000c44 <clock_init.constprop.4>:
     c44:	1141                	c.addi	sp,-16
     c46:	08000513          	li	a0,128
     c4a:	c606                	c.swsp	ra,12(sp)
     c4c:	c422                	c.swsp	s0,8(sp)
     c4e:	3f4d                	c.jal	c00 <analog_read_reg8>
     c50:	0e057593          	andi	a1,a0,224
     c54:	0105e593          	ori	a1,a1,16
     c58:	08000513          	li	a0,128
     c5c:	f69ff0ef          	jal	ra,bc4 <analog_write_reg8>
     c60:	00900513          	li	a0,9
     c64:	f9dff0ef          	jal	ra,c00 <analog_read_reg8>
     c68:	0f357593          	andi	a1,a0,243
     c6c:	0085e593          	ori	a1,a1,8
     c70:	4525                	c.li	a0,9
     c72:	3f89                	c.jal	bc4 <analog_write_reg8>
     c74:	0c000793          	li	a5,192
     c78:	819f940b          	addigp	s0,-2024 # 80018 <sys_clk>
     c7c:	00f41023          	sh	a5,0(s0)
     c80:	4711                	c.li	a4,4
     c82:	801407b7          	lui	a5,0x80140
     c86:	08100513          	li	a0,129
     c8a:	1ee78da3          	sb	a4,507(a5) # 801401fb <_DATA_LMA_START+0x60137e03>
     c8e:	3f8d                	c.jal	c00 <analog_read_reg8>
     c90:	04056593          	ori	a1,a0,64
     c94:	0ff5f593          	andi	a1,a1,255
     c98:	08100513          	li	a0,129
     c9c:	f29ff0ef          	jal	ra,bc4 <analog_write_reg8>
     ca0:	08800513          	li	a0,136
     ca4:	f5dff0ef          	jal	ra,c00 <analog_read_reg8>
     ca8:	be557c5b          	bbc	a0,5,ca0 <clock_init.constprop.4+0x5c>
     cac:	08100513          	li	a0,129
     cb0:	f51ff0ef          	jal	ra,c00 <analog_read_reg8>
     cb4:	0bf57593          	andi	a1,a0,191
     cb8:	08100513          	li	a0,129
     cbc:	f09ff0ef          	jal	ra,bc4 <analog_write_reg8>
     cc0:	80140737          	lui	a4,0x80140
     cc4:	10270783          	lb	a5,258(a4) # 80140102 <_DATA_LMA_START+0x60137d0a>
     cc8:	fe07fe5b          	bbs	a5,0,cc4 <clock_init.constprop.4+0x80>
     ccc:	10170683          	lb	a3,257(a4)
     cd0:	801407b7          	lui	a5,0x80140
     cd4:	0ff6f693          	andi	a3,a3,255
     cd8:	0106e693          	ori	a3,a3,16
     cdc:	10d700a3          	sb	a3,257(a4)
     ce0:	32878703          	lb	a4,808(a5) # 80140328 <_DATA_LMA_START+0x60137f30>
     ce4:	be377e5b          	bbc	a4,3,ce0 <clock_init.constprop.4+0x9c>
     ce8:	1e978703          	lb	a4,489(a5)
     cec:	aaaab637          	lui	a2,0xaaaab
     cf0:	8b3d                	c.andi	a4,15
     cf2:	04076713          	ori	a4,a4,64
     cf6:	1ee784a3          	sb	a4,489(a5)
     cfa:	1e878703          	lb	a4,488(a5)
     cfe:	aab60613          	addi	a2,a2,-1365 # aaaaaaab <_DATA_LMA_START+0x8aaa26b3>
     d02:	f8076713          	ori	a4,a4,-128
     d06:	0ff77713          	andi	a4,a4,255
     d0a:	1ee78423          	sb	a4,488(a5)
     d0e:	1e878703          	lb	a4,488(a5)
     d12:	f8076713          	ori	a4,a4,-128
     d16:	0ff77713          	andi	a4,a4,255
     d1a:	1ee78423          	sb	a4,488(a5)
     d1e:	1d878703          	lb	a4,472(a5)
     d22:	00045683          	lhu	a3,0(s0)
     d26:	0fb77713          	andi	a4,a4,251
     d2a:	1ce78c23          	sb	a4,472(a5)
     d2e:	1d878703          	lb	a4,472(a5)
     d32:	8289                	c.srli	a3,0x2
     d34:	00d402a3          	sb	a3,5(s0)
     d38:	0fc77713          	andi	a4,a4,252
     d3c:	1ce78c23          	sb	a4,472(a5)
     d40:	1e878703          	lb	a4,488(a5)
     d44:	0f077713          	andi	a4,a4,240
     d48:	00c76713          	ori	a4,a4,12
     d4c:	1ee78423          	sb	a4,488(a5)
     d50:	00045703          	lhu	a4,0(s0)
     d54:	1e878683          	lb	a3,488(a5)
     d58:	02c73733          	mulhu	a4,a4,a2
     d5c:	08f6f693          	andi	a3,a3,143
     d60:	0206e693          	ori	a3,a3,32
     d64:	1ed78423          	sb	a3,488(a5)
     d68:	00375793          	srli	a5,a4,0x3
     d6c:	00f40123          	sb	a5,2(s0)
     d70:	0ff7f793          	andi	a5,a5,255
     d74:	00f401a3          	sb	a5,3(s0)
     d78:	00f40223          	sb	a5,4(s0)
     d7c:	40b2                	c.lwsp	ra,12(sp)
     d7e:	4422                	c.lwsp	s0,8(sp)
     d80:	0141                	c.addi	sp,16
     d82:	8082                	c.jr	ra

00000d84 <pm_wait_bbpll_done>:
     d84:	1101                	c.addi	sp,-32
     d86:	08100513          	li	a0,129
     d8a:	cc22                	c.swsp	s0,24(sp)
     d8c:	ca26                	c.swsp	s1,20(sp)
     d8e:	c84a                	c.swsp	s2,16(sp)
     d90:	ce06                	c.swsp	ra,28(sp)
     d92:	35bd                	c.jal	c00 <analog_read_reg8>
     d94:	04056593          	ori	a1,a0,64
     d98:	892a                	c.mv	s2,a0
     d9a:	0ff5f593          	andi	a1,a1,255
     d9e:	08100513          	li	a0,129
     da2:	0bf97913          	andi	s2,s2,191
     da6:	4481                	c.li	s1,0
     da8:	4475                	c.li	s0,29
     daa:	3d29                	c.jal	bc4 <analog_write_reg8>
     dac:	000107a3          	sb	zero,15(sp)
     db0:	00f10783          	lb	a5,15(sp)
     db4:	0ff7f793          	andi	a5,a5,255
     db8:	02f46063          	bltu	s0,a5,dd8 <pm_wait_bbpll_done+0x54>
     dbc:	0001                	c.nop
     dbe:	00f10783          	lb	a5,15(sp)
     dc2:	0785                	c.addi	a5,1
     dc4:	0ff7f793          	andi	a5,a5,255
     dc8:	00f107a3          	sb	a5,15(sp)
     dcc:	00f10783          	lb	a5,15(sp)
     dd0:	0ff7f793          	andi	a5,a5,255
     dd4:	fef474e3          	bgeu	s0,a5,dbc <pm_wait_bbpll_done+0x38>
     dd8:	08800513          	li	a0,136
     ddc:	e25ff0ef          	jal	ra,c00 <analog_read_reg8>
     de0:	4255765b          	bbs	a0,5,e0c <pm_wait_bbpll_done+0x88>
     de4:	cc95                	c.beqz	s1,e20 <pm_wait_bbpll_done+0x9c>
     de6:	0414d35b          	beqc	s1,1,e2c <pm_wait_bbpll_done+0xa8>
     dea:	85ca                	c.mv	a1,s2
     dec:	08100513          	li	a0,129
     df0:	dd5ff0ef          	jal	ra,bc4 <analog_write_reg8>
     df4:	0024d65b          	beqc	s1,2,e00 <pm_wait_bbpll_done+0x7c>
     df8:	0485                	c.addi	s1,1
     dfa:	0ff4f493          	andi	s1,s1,255
     dfe:	b77d                	c.j	dac <pm_wait_bbpll_done+0x28>
     e00:	40f2                	c.lwsp	ra,28(sp)
     e02:	4462                	c.lwsp	s0,24(sp)
     e04:	44d2                	c.lwsp	s1,20(sp)
     e06:	4942                	c.lwsp	s2,16(sp)
     e08:	6105                	c.addi16sp	sp,32
     e0a:	8082                	c.jr	ra
     e0c:	4462                	c.lwsp	s0,24(sp)
     e0e:	40f2                	c.lwsp	ra,28(sp)
     e10:	44d2                	c.lwsp	s1,20(sp)
     e12:	85ca                	c.mv	a1,s2
     e14:	4942                	c.lwsp	s2,16(sp)
     e16:	08100513          	li	a0,129
     e1a:	6105                	c.addi16sp	sp,32
     e1c:	da9ff06f          	j	bc4 <analog_write_reg8>
     e20:	04600593          	li	a1,70
     e24:	4505                	c.li	a0,1
     e26:	3b79                	c.jal	bc4 <analog_write_reg8>
     e28:	fd1ff06f          	j	df8 <pm_wait_bbpll_done+0x74>
     e2c:	04300593          	li	a1,67
     e30:	4505                	c.li	a0,1
     e32:	3b49                	c.jal	bc4 <analog_write_reg8>
     e34:	fc5ff06f          	j	df8 <pm_wait_bbpll_done+0x74>

00000e38 <pm_sleep_start>:
     e38:	1101                	c.addi	sp,-32
     e3a:	84ffa72b          	lwgp	a4,-1972 # 8004c <g_chip_version>
     e3e:	000006b7          	lui	a3,0x0
     e42:	ce06                	c.swsp	ra,28(sp)
     e44:	cc22                	c.swsp	s0,24(sp)
     e46:	0ff00793          	li	a5,255
     e4a:	2746c583          	lbu	a1,628(a3) # 274 <g_pm_suspend_power_cfg>
     e4e:	16f70f63          	beq	a4,a5,fcc <pm_sleep_start+0x194>
     e52:	07d00513          	li	a0,125
     e56:	33bd                	c.jal	bc4 <analog_write_reg8>
     e58:	801406b7          	lui	a3,0x80140
     e5c:	10268783          	lb	a5,258(a3) # 80140102 <_DATA_LMA_START+0x60137d0a>
     e60:	fe07fe5b          	bbs	a5,0,e5c <pm_sleep_start+0x24>
     e64:	10168783          	lb	a5,257(a3)
     e68:	80140737          	lui	a4,0x80140
     e6c:	0ff7f793          	andi	a5,a5,255
     e70:	0107e793          	ori	a5,a5,16
     e74:	10f680a3          	sb	a5,257(a3)
     e78:	32870783          	lb	a5,808(a4) # 80140328 <_DATA_LMA_START+0x60137f30>
     e7c:	be37fe5b          	bbc	a5,3,e78 <pm_sleep_start+0x40>
     e80:	10170783          	lb	a5,257(a4)
     e84:	80140437          	lui	s0,0x80140
     e88:	0fd7f793          	andi	a5,a5,253
     e8c:	10f700a3          	sb	a5,257(a4)
     e90:	10170783          	lb	a5,257(a4)
     e94:	0ef7f793          	andi	a5,a5,239
     e98:	10f700a3          	sb	a5,257(a4)
     e9c:	fb900793          	li	a5,-71
     ea0:	10f70023          	sb	a5,256(a4)
     ea4:	10240783          	lb	a5,258(s0) # 80140102 <_DATA_LMA_START+0x60137d0a>
     ea8:	fe07fe5b          	bbs	a5,0,ea4 <pm_sleep_start+0x6c>
     eac:	10140783          	lb	a5,257(s0)
     eb0:	452d                	c.li	a0,11
     eb2:	0ff7f793          	andi	a5,a5,255
     eb6:	0107e793          	ori	a5,a5,16
     eba:	10f400a3          	sb	a5,257(s0)
     ebe:	320404a3          	sb	zero,809(s0)
     ec2:	3b3d                	c.jal	c00 <analog_read_reg8>
     ec4:	0fc57593          	andi	a1,a0,252
     ec8:	452d                	c.li	a0,11
     eca:	39ed                	c.jal	bc4 <analog_write_reg8>
     ecc:	08100513          	li	a0,129
     ed0:	d31ff0ef          	jal	ra,c00 <analog_read_reg8>
     ed4:	f8056593          	ori	a1,a0,-128
     ed8:	0ff5f593          	andi	a1,a1,255
     edc:	08100513          	li	a0,129
     ee0:	ce5ff0ef          	jal	ra,bc4 <analog_write_reg8>
     ee4:	f8000793          	li	a5,-128
     ee8:	1ef407a3          	sb	a5,495(s0)
     eec:	c402                	c.swsp	zero,8(sp)
     eee:	4722                	c.lwsp	a4,8(sp)
     ef0:	03f00793          	li	a5,63
     ef4:	00e7ec63          	bltu	a5,a4,f0c <pm_sleep_start+0xd4>
     ef8:	03f00713          	li	a4,63
     efc:	0001                	c.nop
     efe:	47a2                	c.lwsp	a5,8(sp)
     f00:	0785                	c.addi	a5,1
     f02:	c43e                	c.swsp	a5,8(sp)
     f04:	00812783          	lw	a5,8(sp)
     f08:	fef77ae3          	bgeu	a4,a5,efc <pm_sleep_start+0xc4>
     f0c:	08100513          	li	a0,129
     f10:	cf1ff0ef          	jal	ra,c00 <analog_read_reg8>
     f14:	07f57593          	andi	a1,a0,127
     f18:	08100513          	li	a0,129
     f1c:	ca9ff0ef          	jal	ra,bc4 <analog_write_reg8>
     f20:	00b00513          	li	a0,11
     f24:	cddff0ef          	jal	ra,c00 <analog_read_reg8>
     f28:	00356593          	ori	a1,a0,3
     f2c:	0ff5f593          	andi	a1,a1,255
     f30:	452d                	c.li	a0,11
     f32:	3949                	c.jal	bc4 <analog_write_reg8>
     f34:	08000593          	li	a1,128
     f38:	07d00513          	li	a0,125
     f3c:	c89ff0ef          	jal	ra,bc4 <analog_write_reg8>
     f40:	c602                	c.swsp	zero,12(sp)
     f42:	4732                	c.lwsp	a4,12(sp)
     f44:	12b00793          	li	a5,299
     f48:	00e7ec63          	bltu	a5,a4,f60 <pm_sleep_start+0x128>
     f4c:	12b00713          	li	a4,299
     f50:	0001                	c.nop
     f52:	47b2                	c.lwsp	a5,12(sp)
     f54:	0785                	c.addi	a5,1
     f56:	c63e                	c.swsp	a5,12(sp)
     f58:	00c12783          	lw	a5,12(sp)
     f5c:	fef77ae3          	bgeu	a4,a5,f50 <pm_sleep_start+0x118>
     f60:	08800513          	li	a0,136
     f64:	c9dff0ef          	jal	ra,c00 <analog_read_reg8>
     f68:	be757c5b          	bbc	a0,7,f60 <pm_sleep_start+0x128>
     f6c:	08800513          	li	a0,136
     f70:	c91ff0ef          	jal	ra,c00 <analog_read_reg8>
     f74:	be757c5b          	bbc	a0,7,f6c <pm_sleep_start+0x134>
     f78:	08800513          	li	a0,136
     f7c:	c85ff0ef          	jal	ra,c00 <analog_read_reg8>
     f80:	be757c5b          	bbc	a0,7,f78 <pm_sleep_start+0x140>
     f84:	e01ff0ef          	jal	ra,d84 <pm_wait_bbpll_done>
     f88:	801407b7          	lui	a5,0x80140
     f8c:	03f00713          	li	a4,63
     f90:	32e784a3          	sb	a4,809(a5) # 80140329 <_DATA_LMA_START+0x60137f31>
     f94:	10178683          	lb	a3,257(a5)
     f98:	80140737          	lui	a4,0x80140
     f9c:	0ef6f693          	andi	a3,a3,239
     fa0:	10d780a3          	sb	a3,257(a5)
     fa4:	fab00693          	li	a3,-85
     fa8:	10d78023          	sb	a3,256(a5)
     fac:	10270783          	lb	a5,258(a4) # 80140102 <_DATA_LMA_START+0x60137d0a>
     fb0:	fe07fe5b          	bbs	a5,0,fac <pm_sleep_start+0x174>
     fb4:	10170783          	lb	a5,257(a4)
     fb8:	0ff7f793          	andi	a5,a5,255
     fbc:	0107e793          	ori	a5,a5,16
     fc0:	10f700a3          	sb	a5,257(a4)
     fc4:	40f2                	c.lwsp	ra,28(sp)
     fc6:	4462                	c.lwsp	s0,24(sp)
     fc8:	6105                	c.addi16sp	sp,32
     fca:	8082                	c.jr	ra
     fcc:	0fe5f593          	andi	a1,a1,254
     fd0:	07d00513          	li	a0,125
     fd4:	bf1ff0ef          	jal	ra,bc4 <analog_write_reg8>
     fd8:	e81ff06f          	j	e58 <pm_sleep_start+0x20>

00000fdc <cpu_sleep_wakeup_32k_rc_ram>:
     fdc:	7179                	c.addi16sp	sp,-48
     fde:	d422                	c.swsp	s0,40(sp)
     fe0:	d226                	c.swsp	s1,36(sp)
     fe2:	ce4e                	c.swsp	s3,28(sp)
     fe4:	cc52                	c.swsp	s4,24(sp)
     fe6:	ca56                	c.swsp	s5,20(sp)
     fe8:	c266                	c.swsp	s9,4(sp)
     fea:	c06a                	c.swsp	s10,0(sp)
     fec:	d606                	c.swsp	ra,44(sp)
     fee:	8d2e                	c.mv	s10,a1
     ff0:	d04a                	c.swsp	s2,32(sp)
     ff2:	c85a                	c.swsp	s6,16(sp)
     ff4:	c65e                	c.swsp	s7,12(sp)
     ff6:	c462                	c.swsp	s8,8(sp)
     ff8:	89aa                	c.mv	s3,a0
     ffa:	8ab2                	c.mv	s5,a2
     ffc:	f34ff0ef          	jal	ra,730 <pm_get_32k_rc_calib>
    1000:	801407b7          	lui	a5,0x80140
    1004:	00000437          	lui	s0,0x0
    1008:	15840413          	addi	s0,s0,344 # 158 <_AES_VMA_END>
    100c:	2007a483          	lw	s1,512(a5) # 80140200 <_DATA_LMA_START+0x60137e08>
    1010:	020d7a13          	andi	s4,s10,32
    1014:	10a42423          	sw	a0,264(s0)
    1018:	00a00cb3          	add	s9,zero,a0
    101c:	020a0063          	beqz	s4,103c <cpu_sleep_wakeup_32k_rc_ram+0x60>
    1020:	409a84b3          	sub	s1,s5,s1
    1024:	e0000737          	lui	a4,0xe0000
    1028:	34976063          	bltu	a4,s1,1368 <cpu_sleep_wakeup_32k_rc_ram+0x38c>
    102c:	809f970b          	addigp	a4,-2040 # 80008 <g_pm_early_wakeup_time_us>
    1030:	00671703          	lh	a4,6(a4) # e0000006 <_DATA_LMA_START+0xbfff7c0e>
    1034:	1137275b          	bfoz	a4,a4,4,19
    1038:	34e4e063          	bltu	s1,a4,1378 <cpu_sleep_wakeup_32k_rc_ram+0x39c>
    103c:	300024f3          	csrr	s1,mstatus
    1040:	88a1                	c.andi	s1,8
    1042:	e88d                	c.bnez	s1,1074 <cpu_sleep_wakeup_32k_rc_ram+0x98>
    1044:	12042783          	lw	a5,288(s0)
    1048:	cb95                	c.beqz	a5,107c <cpu_sleep_wakeup_32k_rc_ram+0xa0>
    104a:	9782                	c.jalr	a5
    104c:	e905                	c.bnez	a0,107c <cpu_sleep_wakeup_32k_rc_ram+0xa0>
    104e:	4521                	c.li	a0,8
    1050:	00048463          	beqz	s1,1058 <cpu_sleep_wakeup_32k_rc_ram+0x7c>
    1054:	3004a4f3          	csrrs	s1,mstatus,s1
    1058:	50b2                	c.lwsp	ra,44(sp)
    105a:	5422                	c.lwsp	s0,40(sp)
    105c:	5492                	c.lwsp	s1,36(sp)
    105e:	5902                	c.lwsp	s2,32(sp)
    1060:	49f2                	c.lwsp	s3,28(sp)
    1062:	4a62                	c.lwsp	s4,24(sp)
    1064:	4ad2                	c.lwsp	s5,20(sp)
    1066:	4b42                	c.lwsp	s6,16(sp)
    1068:	4bb2                	c.lwsp	s7,12(sp)
    106a:	4c22                	c.lwsp	s8,8(sp)
    106c:	4c92                	c.lwsp	s9,4(sp)
    106e:	4d02                	c.lwsp	s10,0(sp)
    1070:	6145                	c.addi16sp	sp,48
    1072:	8082                	c.jr	ra
    1074:	300477f3          	csrrci	a5,mstatus,8
    1078:	fcdff06f          	j	1044 <cpu_sleep_wakeup_32k_rc_ram+0x68>
    107c:	80140937          	lui	s2,0x80140
    1080:	1e890b03          	lb	s6,488(s2) # 801401e8 <_DATA_LMA_START+0x60137df0>
    1084:	00f9fc13          	andi	s8,s3,15
    1088:	08fb7793          	andi	a5,s6,143
    108c:	1ef90423          	sb	a5,488(s2)
    1090:	1d890b83          	lb	s7,472(s2)
    1094:	0f8bf793          	andi	a5,s7,248
    1098:	1cf90c23          	sb	a5,472(s2)
    109c:	20890783          	lb	a5,520(s2)
    10a0:	0fe7f793          	andi	a5,a5,254
    10a4:	20f90423          	sb	a5,520(s2)
    10a8:	4785                	c.li	a5,1
    10aa:	20f90c23          	sb	a5,536(s2)
    10ae:	20a90783          	lb	a5,522(s2)
    10b2:	0f77f793          	andi	a5,a5,247
    10b6:	20f90523          	sb	a5,522(s2)
    10ba:	3ce9                	c.jal	b94 <clock_get_32k_tick>
    10bc:	4789                	c.li	a5,2
    10be:	20f905a3          	sb	a5,523(s2)
    10c2:	20092783          	lw	a5,512(s2)
    10c6:	12a42223          	sw	a0,292(s0)
    10ca:	85be                	c.mv	a1,a5
    10cc:	12f42423          	sw	a5,296(s0)
    10d0:	ea8ff0ef          	jal	ra,778 <pm_update_32k_rc_sleep_tick>
    10d4:	0ffd7593          	andi	a1,s10,255
    10d8:	04b00513          	li	a0,75
    10dc:	ae9ff0ef          	jal	ra,bc4 <analog_write_reg8>
    10e0:	45fd                	c.li	a1,31
    10e2:	06400513          	li	a0,100
    10e6:	3cf9                	c.jal	bc4 <analog_write_reg8>
    10e8:	0ff9f593          	andi	a1,s3,255
    10ec:	07e00513          	li	a0,126
    10f0:	ad5ff0ef          	jal	ra,bc4 <analog_write_reg8>
    10f4:	040d7793          	andi	a5,s10,64
    10f8:	1a0c1c63          	bnez	s8,12b0 <cpu_sleep_wakeup_32k_rc_ram+0x2d4>
    10fc:	2f09d4db          	beqc	s3,48,13e4 <cpu_sleep_wakeup_32k_rc_ram+0x408>
    1100:	32078063          	beqz	a5,1420 <cpu_sleep_wakeup_32k_rc_ram+0x444>
    1104:	06000593          	li	a1,96
    1108:	04d00513          	li	a0,77
    110c:	ab9ff0ef          	jal	ra,bc4 <analog_write_reg8>
    1110:	4585                	c.li	a1,1
    1112:	07f00513          	li	a0,127
    1116:	347d                	c.jal	bc4 <analog_write_reg8>
    1118:	809f992b          	lhgp	s2,-2040 # 80008 <g_pm_early_wakeup_time_us>
    111c:	3c09295b          	bfoz	s2,s2,15,0
    1120:	00491913          	slli	s2,s2,0x4
    1124:	0e0d7d13          	andi	s10,s10,224
    1128:	412a8933          	sub	s2,s5,s2
    112c:	1a0d0e63          	beqz	s10,12e8 <cpu_sleep_wakeup_32k_rc_ram+0x30c>
    1130:	0ee00593          	li	a1,238
    1134:	04c00513          	li	a0,76
    1138:	a8dff0ef          	jal	ra,bc4 <analog_write_reg8>
    113c:	1b09dedb          	beqc	s3,48,12f8 <cpu_sleep_wakeup_32k_rc_ram+0x31c>
    1140:	811f978b          	addigp	a5,-2032 # 80010 <g_pm_r_delay_cycle>
    1144:	00279583          	lh	a1,2(a5)
    1148:	04000513          	li	a0,64
    114c:	0ff5f593          	andi	a1,a1,255
    1150:	a75ff0ef          	jal	ra,bc4 <analog_write_reg8>
    1154:	0dc42783          	lw	a5,220(s0)
    1158:	40f907b3          	sub	a5,s2,a5
    115c:	1a0a0c63          	beqz	s4,1314 <cpu_sleep_wakeup_32k_rc_ram+0x338>
    1160:	0ff00737          	lui	a4,0xff00
    1164:	26f77463          	bgeu	a4,a5,13cc <cpu_sleep_wakeup_32k_rc_ram+0x3f0>
    1168:	00100713          	li	a4,1
    116c:	10e40623          	sb	a4,268(s0)
    1170:	10842683          	lw	a3,264(s0)
    1174:	0e042583          	lw	a1,224(s0)
    1178:	02d7d533          	divu	a0,a5,a3
    117c:	12442703          	lw	a4,292(s0)
    1180:	40000637          	lui	a2,0x40000
    1184:	00370793          	addi	a5,a4,3 # ff00003 <FLASH_SIZE+0xfe00003>
    1188:	0512                	c.slli	a0,0x4
    118a:	952e                	c.add	a0,a1
    118c:	8f89                	c.sub	a5,a0
    118e:	02c7f163          	bgeu	a5,a2,11b0 <cpu_sleep_wakeup_32k_rc_ram+0x1d4>
    1192:	12842783          	lw	a5,296(s0)
    1196:	0ee42023          	sw	a4,224(s0)
    119a:	0017e793          	ori	a5,a5,1
    119e:	40f90533          	sub	a0,s2,a5
    11a2:	02d55533          	divu	a0,a0,a3
    11a6:	0cf42e23          	sw	a5,220(s0)
    11aa:	0512                	c.slli	a0,0x4
    11ac:	00e50533          	add	a0,a0,a4
    11b0:	985ff0ef          	jal	ra,b34 <clock_set_32k_tick>
    11b4:	06400513          	li	a0,100
    11b8:	a49ff0ef          	jal	ra,c00 <analog_read_reg8>
    11bc:	01f57513          	andi	a0,a0,31
    11c0:	00051a63          	bnez	a0,11d4 <cpu_sleep_wakeup_32k_rc_ram+0x1f8>
    11c4:	240c1663          	bnez	s8,1410 <cpu_sleep_wakeup_32k_rc_ram+0x434>
    11c8:	c71ff0ef          	jal	ra,e38 <pm_sleep_start>
    11cc:	4585                	c.li	a1,1
    11ce:	07f00513          	li	a0,127
    11d2:	3acd                	c.jal	bc4 <analog_write_reg8>
    11d4:	0109e8db          	bnec	s3,48,11e4 <cpu_sleep_wakeup_32k_rc_ram+0x208>
    11d8:	801407b7          	lui	a5,0x80140
    11dc:	02000713          	li	a4,32
    11e0:	1ee787a3          	sb	a4,495(a5) # 801401ef <_DATA_LMA_START+0x60137df7>
    11e4:	801407b7          	lui	a5,0x80140
    11e8:	20878703          	lb	a4,520(a5) # 80140208 <_DATA_LMA_START+0x60137e10>
    11ec:	0ff77713          	andi	a4,a4,255
    11f0:	00176713          	ori	a4,a4,1
    11f4:	20e78423          	sb	a4,520(a5)
    11f8:	4709                	c.li	a4,2
    11fa:	20e78c23          	sb	a4,536(a5)
    11fe:	20a78703          	lb	a4,522(a5)
    1202:	0ff77713          	andi	a4,a4,255
    1206:	00c76713          	ori	a4,a4,12
    120a:	20e78523          	sb	a4,522(a5)
    120e:	3259                	c.jal	b94 <clock_get_32k_tick>
    1210:	10c44783          	lbu	a5,268(s0)
    1214:	0505                	c.addi	a0,1
    1216:	18078b63          	beqz	a5,13ac <cpu_sleep_wakeup_32k_rc_ram+0x3d0>
    121a:	12442703          	lw	a4,292(s0)
    121e:	12842783          	lw	a5,296(s0)
    1222:	10842683          	lw	a3,264(s0)
    1226:	40e50733          	sub	a4,a0,a4
    122a:	8311                	c.srli	a4,0x4
    122c:	c4d717ff          	maddr32	a5,a4,a3
    1230:	12f42423          	sw	a5,296(s0)
    1234:	0e042683          	lw	a3,224(s0)
    1238:	00178793          	addi	a5,a5,1
    123c:	40d506b3          	sub	a3,a0,a3
    1240:	0ed42a23          	sw	a3,244(s0)
    1244:	0ea42c23          	sw	a0,248(s0)
    1248:	801406b7          	lui	a3,0x80140
    124c:	80140737          	lui	a4,0x80140
    1250:	20f6a023          	sw	a5,512(a3) # 80140200 <_DATA_LMA_START+0x60137e08>
    1254:	20b70783          	lb	a5,523(a4) # 8014020b <_DATA_LMA_START+0x60137e13>
    1258:	be77fe5b          	bbc	a5,7,1254 <cpu_sleep_wakeup_32k_rc_ram+0x278>
    125c:	06400513          	li	a0,100
    1260:	20070c23          	sb	zero,536(a4)
    1264:	99dff0ef          	jal	ra,c00 <analog_read_reg8>
    1268:	00a00733          	add	a4,zero,a0
    126c:	00157e5b          	bbc	a0,1,1288 <cpu_sleep_wakeup_32k_rc_ram+0x2ac>
    1270:	000a0c63          	beqz	s4,1288 <cpu_sleep_wakeup_32k_rc_ram+0x2ac>
    1274:	80140637          	lui	a2,0x80140
    1278:	400006b7          	lui	a3,0x40000
    127c:	20062783          	lw	a5,512(a2) # 80140200 <_DATA_LMA_START+0x60137e08>
    1280:	415787b3          	sub	a5,a5,s5
    1284:	fef6ece3          	bltu	a3,a5,127c <cpu_sleep_wakeup_32k_rc_ram+0x2a0>
    1288:	801407b7          	lui	a5,0x80140
    128c:	1d778c23          	sb	s7,472(a5) # 801401d8 <_DATA_LMA_START+0x60137de0>
    1290:	1f678423          	sb	s6,488(a5)
    1294:	00048463          	beqz	s1,129c <cpu_sleep_wakeup_32k_rc_ram+0x2c0>
    1298:	3004a4f3          	csrrs	s1,mstatus,s1
    129c:	08000513          	li	a0,128
    12a0:	da070ce3          	beqz	a4,1058 <cpu_sleep_wakeup_32k_rc_ram+0x7c>
    12a4:	400007b7          	lui	a5,0x40000
    12a8:	00f76533          	or	a0,a4,a5
    12ac:	dadff06f          	j	1058 <cpu_sleep_wakeup_32k_rc_ram+0x7c>
    12b0:	12078263          	beqz	a5,13d4 <cpu_sleep_wakeup_32k_rc_ram+0x3f8>
    12b4:	0d000593          	li	a1,208
    12b8:	04d00513          	li	a0,77
    12bc:	909ff0ef          	jal	ra,bc4 <analog_write_reg8>
    12c0:	801407b7          	lui	a5,0x80140
    12c4:	1047a703          	lw	a4,260(a5) # 80140104 <_DATA_LMA_START+0x60137d0c>
    12c8:	809f978b          	addigp	a5,-2040 # 80008 <g_pm_early_wakeup_time_us>
    12cc:	00279903          	lh	s2,2(a5)
    12d0:	12e42623          	sw	a4,300(s0)
    12d4:	3c09295b          	bfoz	s2,s2,15,0
    12d8:	00491913          	slli	s2,s2,0x4
    12dc:	0e0d7d13          	andi	s10,s10,224
    12e0:	412a8933          	sub	s2,s5,s2
    12e4:	e40d16e3          	bnez	s10,1130 <cpu_sleep_wakeup_32k_rc_ram+0x154>
    12e8:	0ef00593          	li	a1,239
    12ec:	04c00513          	li	a0,76
    12f0:	8d5ff0ef          	jal	ra,bc4 <analog_write_reg8>
    12f4:	a509e6db          	bnec	s3,48,1140 <cpu_sleep_wakeup_32k_rc_ram+0x164>
    12f8:	811f95ab          	lhgp	a1,-2032 # 80010 <g_pm_r_delay_cycle>
    12fc:	04000513          	li	a0,64
    1300:	0ff5f593          	andi	a1,a1,255
    1304:	8c1ff0ef          	jal	ra,bc4 <analog_write_reg8>
    1308:	0dc42783          	lw	a5,220(s0)
    130c:	40f907b3          	sub	a5,s2,a5
    1310:	e40a18e3          	bnez	s4,1160 <cpu_sleep_wakeup_32k_rc_ram+0x184>
    1314:	10c44703          	lbu	a4,268(s0)
    1318:	e4071ce3          	bnez	a4,1170 <cpu_sleep_wakeup_32k_rc_ram+0x194>
    131c:	00479513          	slli	a0,a5,0x4
    1320:	001cdc93          	srli	s9,s9,0x1
    1324:	10842683          	lw	a3,264(s0)
    1328:	9566                	c.add	a0,s9
    132a:	02d55533          	divu	a0,a0,a3
    132e:	0e042583          	lw	a1,224(s0)
    1332:	12442703          	lw	a4,292(s0)
    1336:	40000637          	lui	a2,0x40000
    133a:	00370793          	addi	a5,a4,3
    133e:	952e                	c.add	a0,a1
    1340:	8f89                	c.sub	a5,a0
    1342:	e6c7f7e3          	bgeu	a5,a2,11b0 <cpu_sleep_wakeup_32k_rc_ram+0x1d4>
    1346:	12842783          	lw	a5,296(s0)
    134a:	0ee42023          	sw	a4,224(s0)
    134e:	0017e793          	ori	a5,a5,1
    1352:	40f90933          	sub	s2,s2,a5
    1356:	00491513          	slli	a0,s2,0x4
    135a:	9caa                	c.add	s9,a0
    135c:	02dcd533          	divu	a0,s9,a3
    1360:	0cf42e23          	sw	a5,220(s0)
    1364:	953a                	c.add	a0,a4
    1366:	b5a9                	c.j	11b0 <cpu_sleep_wakeup_32k_rc_ram+0x1d4>
    1368:	06400513          	li	a0,100
    136c:	895ff0ef          	jal	ra,c00 <analog_read_reg8>
    1370:	01f57513          	andi	a0,a0,31
    1374:	ce5ff06f          	j	1058 <cpu_sleep_wakeup_32k_rc_ram+0x7c>
    1378:	01d00593          	li	a1,29
    137c:	06400513          	li	a0,100
    1380:	80140937          	lui	s2,0x80140
    1384:	2007a403          	lw	s0,512(a5)
    1388:	83dff0ef          	jal	ra,bc4 <analog_write_reg8>
    138c:	0080006f          	j	1394 <cpu_sleep_wakeup_32k_rc_ram+0x3b8>
    1390:	cc0514e3          	bnez	a0,1058 <cpu_sleep_wakeup_32k_rc_ram+0x7c>
    1394:	06400513          	li	a0,100
    1398:	869ff0ef          	jal	ra,c00 <analog_read_reg8>
    139c:	20092783          	lw	a5,512(s2) # 80140200 <_DATA_LMA_START+0x60137e08>
    13a0:	8975                	c.andi	a0,29
    13a2:	8f81                	c.sub	a5,s0
    13a4:	fe97e6e3          	bltu	a5,s1,1390 <cpu_sleep_wakeup_32k_rc_ram+0x3b4>
    13a8:	cb1ff06f          	j	1058 <cpu_sleep_wakeup_32k_rc_ram+0x7c>
    13ac:	12442783          	lw	a5,292(s0)
    13b0:	10842703          	lw	a4,264(s0)
    13b4:	40f507b3          	sub	a5,a0,a5
    13b8:	02e787b3          	mul	a5,a5,a4
    13bc:	12842703          	lw	a4,296(s0)
    13c0:	8391                	c.srli	a5,0x4
    13c2:	97ba                	c.add	a5,a4
    13c4:	12f42423          	sw	a5,296(s0)
    13c8:	e6dff06f          	j	1234 <cpu_sleep_wakeup_32k_rc_ram+0x258>
    13cc:	10040623          	sb	zero,268(s0)
    13d0:	f4dff06f          	j	131c <cpu_sleep_wakeup_32k_rc_ram+0x340>
    13d4:	0d100593          	li	a1,209
    13d8:	04d00513          	li	a0,77
    13dc:	fe8ff0ef          	jal	ra,bc4 <analog_write_reg8>
    13e0:	ee1ff06f          	j	12c0 <cpu_sleep_wakeup_32k_rc_ram+0x2e4>
    13e4:	04079663          	bnez	a5,1430 <cpu_sleep_wakeup_32k_rc_ram+0x454>
    13e8:	0f900593          	li	a1,249
    13ec:	04d00513          	li	a0,77
    13f0:	fd4ff0ef          	jal	ra,bc4 <analog_write_reg8>
    13f4:	00100593          	li	a1,1
    13f8:	07f00513          	li	a0,127
    13fc:	fc8ff0ef          	jal	ra,bc4 <analog_write_reg8>
    1400:	809f978b          	addigp	a5,-2040 # 80008 <g_pm_early_wakeup_time_us>
    1404:	00479903          	lh	s2,4(a5)
    1408:	3c09295b          	bfoz	s2,s2,15,0
    140c:	d15ff06f          	j	1120 <cpu_sleep_wakeup_32k_rc_ram+0x144>
    1410:	00000593          	li	a1,0
    1414:	07f00513          	li	a0,127
    1418:	facff0ef          	jal	ra,bc4 <analog_write_reg8>
    141c:	dadff06f          	j	11c8 <cpu_sleep_wakeup_32k_rc_ram+0x1ec>
    1420:	06100593          	li	a1,97
    1424:	04d00513          	li	a0,77
    1428:	f9cff0ef          	jal	ra,bc4 <analog_write_reg8>
    142c:	ce5ff06f          	j	1110 <cpu_sleep_wakeup_32k_rc_ram+0x134>
    1430:	0f800593          	li	a1,248
    1434:	04d00513          	li	a0,77
    1438:	f8cff0ef          	jal	ra,bc4 <analog_write_reg8>
    143c:	fb9ff06f          	j	13f4 <cpu_sleep_wakeup_32k_rc_ram+0x418>

00001440 <clock_cal_24m_rc>:
    1440:	1141                	c.addi	sp,-16
    1442:	08000593          	li	a1,128
    1446:	0c800513          	li	a0,200
    144a:	c606                	c.swsp	ra,12(sp)
    144c:	f78ff0ef          	jal	ra,bc4 <analog_write_reg8>
    1450:	04f00513          	li	a0,79
    1454:	facff0ef          	jal	ra,c00 <analog_read_reg8>
    1458:	f8056593          	ori	a1,a0,-128
    145c:	0ff5f593          	andi	a1,a1,255
    1460:	04f00513          	li	a0,79
    1464:	f60ff0ef          	jal	ra,bc4 <analog_write_reg8>
    1468:	00e00593          	li	a1,14
    146c:	0c700513          	li	a0,199
    1470:	f54ff0ef          	jal	ra,bc4 <analog_write_reg8>
    1474:	00f00593          	li	a1,15
    1478:	0c700513          	li	a0,199
    147c:	f48ff0ef          	jal	ra,bc4 <analog_write_reg8>
    1480:	0cf00513          	li	a0,207
    1484:	f7cff0ef          	jal	ra,c00 <analog_read_reg8>
    1488:	be757c5b          	bbc	a0,7,1480 <clock_cal_24m_rc+0x40>
    148c:	0cb00513          	li	a0,203
    1490:	f70ff0ef          	jal	ra,c00 <analog_read_reg8>
    1494:	00a005b3          	add	a1,zero,a0
    1498:	05200513          	li	a0,82
    149c:	f28ff0ef          	jal	ra,bc4 <analog_write_reg8>
    14a0:	04f00513          	li	a0,79
    14a4:	f5cff0ef          	jal	ra,c00 <analog_read_reg8>
    14a8:	07f57593          	andi	a1,a0,127
    14ac:	04f00513          	li	a0,79
    14b0:	f14ff0ef          	jal	ra,bc4 <analog_write_reg8>
    14b4:	0c700513          	li	a0,199
    14b8:	00e00593          	li	a1,14
    14bc:	f08ff0ef          	jal	ra,bc4 <analog_write_reg8>
    14c0:	40b2                	c.lwsp	ra,12(sp)
    14c2:	05200513          	li	a0,82
    14c6:	0141                	c.addi	sp,16
    14c8:	f38ff06f          	j	c00 <analog_read_reg8>

000014cc <dr_putchar>:
    14cc:	801407b7          	lui	a5,0x80140
    14d0:	30378803          	lb	a6,771(a5) # 80140303 <_DATA_LMA_START+0x60137f0b>
    14d4:	30378783          	lb	a5,771(a5)
    14d8:	1141                	c.addi	sp,-16
    14da:	07f87813          	andi	a6,a6,127
    14de:	f807e793          	ori	a5,a5,-128
    14e2:	0ff7f793          	andi	a5,a5,255
    14e6:	01010223          	sb	a6,4(sp)
    14ea:	873e                	c.mv	a4,a5
    14ec:	4005745b          	bbs	a0,0,14f4 <dr_putchar+0x28>
    14f0:	01000733          	add	a4,zero,a6
    14f4:	00e102a3          	sb	a4,5(sp)
    14f8:	8742                	c.mv	a4,a6
    14fa:	0015735b          	bbc	a0,1,1500 <dr_putchar+0x34>
    14fe:	873e                	c.mv	a4,a5
    1500:	00e10323          	sb	a4,6(sp)
    1504:	8742                	c.mv	a4,a6
    1506:	0025735b          	bbc	a0,2,150c <dr_putchar+0x40>
    150a:	873e                	c.mv	a4,a5
    150c:	00e103a3          	sb	a4,7(sp)
    1510:	8742                	c.mv	a4,a6
    1512:	0035735b          	bbc	a0,3,1518 <dr_putchar+0x4c>
    1516:	873e                	c.mv	a4,a5
    1518:	00e10423          	sb	a4,8(sp)
    151c:	8742                	c.mv	a4,a6
    151e:	0045735b          	bbc	a0,4,1524 <dr_putchar+0x58>
    1522:	873e                	c.mv	a4,a5
    1524:	00e104a3          	sb	a4,9(sp)
    1528:	8742                	c.mv	a4,a6
    152a:	0055735b          	bbc	a0,5,1530 <dr_putchar+0x64>
    152e:	873e                	c.mv	a4,a5
    1530:	00e10523          	sb	a4,10(sp)
    1534:	8742                	c.mv	a4,a6
    1536:	0065735b          	bbc	a0,6,153c <dr_putchar+0x70>
    153a:	873e                	c.mv	a4,a5
    153c:	00e105a3          	sb	a4,11(sp)
    1540:	811d                	c.srli	a0,0x7
    1542:	8742                	c.mv	a4,a6
    1544:	c111                	c.beqz	a0,1548 <dr_putchar+0x7c>
    1546:	873e                	c.mv	a4,a5
    1548:	00e10623          	sb	a4,12(sp)
    154c:	00f106a3          	sb	a5,13(sp)
    1550:	30002373          	csrr	t1,mstatus
    1554:	00837313          	andi	t1,t1,8
    1558:	00030463          	beqz	t1,1560 <dr_putchar+0x94>
    155c:	300477f3          	csrrci	a5,mstatus,8
    1560:	801407b7          	lui	a5,0x80140
    1564:	2007a603          	lw	a2,512(a5) # 80140200 <_DATA_LMA_START+0x60137e08>
    1568:	00510513          	addi	a0,sp,5
    156c:	00e10893          	addi	a7,sp,14
    1570:	801406b7          	lui	a3,0x80140
    1574:	08900593          	li	a1,137
    1578:	2006a783          	lw	a5,512(a3) # 80140200 <_DATA_LMA_START+0x60137e08>
    157c:	40c78733          	sub	a4,a5,a2
    1580:	fee5fce3          	bgeu	a1,a4,1578 <dr_putchar+0xac>
    1584:	310681a3          	sb	a6,771(a3)
    1588:	01150863          	beq	a0,a7,1598 <dr_putchar+0xcc>
    158c:	00054803          	lbu	a6,0(a0)
    1590:	863e                	c.mv	a2,a5
    1592:	0505                	c.addi	a0,1
    1594:	fe5ff06f          	j	1578 <dr_putchar+0xac>
    1598:	00030463          	beqz	t1,15a0 <dr_putchar+0xd4>
    159c:	30032373          	csrrs	t1,mstatus,t1
    15a0:	0141                	c.addi	sp,16
    15a2:	8082                	c.jr	ra

000015a4 <sys_init.constprop.0>:
    15a4:	1141                	c.addi	sp,-16
    15a6:	ffbc07b7          	lui	a5,0xffbc0
    15aa:	c606                	c.swsp	ra,12(sp)
    15ac:	17fd                	c.addi	a5,-1
    15ae:	80140737          	lui	a4,0x80140
    15b2:	c422                	c.swsp	s0,8(sp)
    15b4:	c226                	c.swsp	s1,4(sp)
    15b6:	c04a                	c.swsp	s2,0(sp)
    15b8:	1ef72023          	sw	a5,480(a4) # 801401e0 <_DATA_LMA_START+0x60137de8>
    15bc:	00200593          	li	a1,2
    15c0:	08c00513          	li	a0,140
    15c4:	1ef72223          	sw	a5,484(a4)
    15c8:	dfcff0ef          	jal	ra,bc4 <analog_write_reg8>
    15cc:	04000593          	li	a1,64
    15d0:	00c00513          	li	a0,12
    15d4:	df0ff0ef          	jal	ra,bc4 <analog_write_reg8>
    15d8:	08000593          	li	a1,128
    15dc:	07d00513          	li	a0,125
    15e0:	de4ff0ef          	jal	ra,bc4 <analog_write_reg8>
    15e4:	801607b7          	lui	a5,0x80160
    15e8:	20000737          	lui	a4,0x20000
    15ec:	458d                	c.li	a1,3
    15ee:	4529                	c.li	a0,10
    15f0:	00e7a023          	sw	a4,0(a5) # 80160000 <_DATA_LMA_START+0x60157c08>
    15f4:	dd0ff0ef          	jal	ra,bc4 <analog_write_reg8>
    15f8:	04500593          	li	a1,69
    15fc:	00100513          	li	a0,1
    1600:	dc4ff0ef          	jal	ra,bc4 <analog_write_reg8>
    1604:	03b00593          	li	a1,59
    1608:	00b00513          	li	a0,11
    160c:	db8ff0ef          	jal	ra,bc4 <analog_write_reg8>
    1610:	00600513          	li	a0,6
    1614:	decff0ef          	jal	ra,c00 <analog_read_reg8>
    1618:	03e57593          	andi	a1,a0,62
    161c:	00600513          	li	a0,6
    1620:	da4ff0ef          	jal	ra,bc4 <analog_write_reg8>
    1624:	00500513          	li	a0,5
    1628:	dd8ff0ef          	jal	ra,c00 <analog_read_reg8>
    162c:	0f757593          	andi	a1,a0,247
    1630:	00500513          	li	a0,5
    1634:	d90ff0ef          	jal	ra,bc4 <analog_write_reg8>
    1638:	801007b7          	lui	a5,0x80100
    163c:	50078623          	sb	zero,1292(a5) # 8010050c <_DATA_LMA_START+0x600f8114>
    1640:	7c00d073          	csrwi	milmb,1
    1644:	000807b7          	lui	a5,0x80
    1648:	00178793          	addi	a5,a5,1 # 80001 <_DATA_VMA_START+0x1>
    164c:	7c179073          	csrw	mdlmb,a5
    1650:	07f00513          	li	a0,127
    1654:	dacff0ef          	jal	ra,c00 <analog_read_reg8>
    1658:	00a004b3          	add	s1,zero,a0
    165c:	03800513          	li	a0,56
    1660:	da0ff0ef          	jal	ra,c00 <analog_read_reg8>
    1664:	00a00433          	add	s0,zero,a0
    1668:	03900513          	li	a0,57
    166c:	d94ff0ef          	jal	ra,c00 <analog_read_reg8>
    1670:	0c047e5b          	bbc	s0,0,174c <sys_init.constprop.0+0x1a8>
    1674:	892a                	c.mv	s2,a0
    1676:	0fe47593          	andi	a1,s0,254
    167a:	851f940b          	addigp	s0,-1968 # 80050 <g_pm_status_info>
    167e:	03800513          	li	a0,56
    1682:	14097b5b          	bbc	s2,0,17d8 <sys_init.constprop.0+0x234>
    1686:	4791                	c.li	a5,4
    1688:	00f40123          	sb	a5,2(s0)
    168c:	d38ff0ef          	jal	ra,bc4 <analog_write_reg8>
    1690:	0014e593          	ori	a1,s1,1
    1694:	0ff5f593          	andi	a1,a1,255
    1698:	07f00513          	li	a0,127
    169c:	d28ff0ef          	jal	ra,bc4 <analog_write_reg8>
    16a0:	08800513          	li	a0,136
    16a4:	d5cff0ef          	jal	ra,c00 <analog_read_reg8>
    16a8:	be757c5b          	bbc	a0,7,16a0 <sys_init.constprop.0+0xfc>
    16ac:	ed8ff0ef          	jal	ra,d84 <pm_wait_bbpll_done>
    16b0:	00244783          	lbu	a5,2(s0)
    16b4:	0a87d85b          	beqc	a5,8,1764 <sys_init.constprop.0+0x1c0>
    16b8:	80140737          	lui	a4,0x80140
    16bc:	20a70783          	lb	a5,522(a4) # 8014020a <_DATA_LMA_START+0x60137e12>
    16c0:	0ff7f793          	andi	a5,a5,255
    16c4:	00c7e793          	ori	a5,a5,12
    16c8:	20f70523          	sb	a5,522(a4)
    16cc:	00100793          	li	a5,1
    16d0:	20f72023          	sw	a5,512(a4)
    16d4:	20002097          	auipc	ra,0x20002
    16d8:	2f4080e7          	jalr	756(ra) # 200039c8 <cpu_wakeup_no_deepretn_back_init>
    16dc:	d65ff0ef          	jal	ra,1440 <clock_cal_24m_rc>
    16e0:	80140737          	lui	a4,0x80140
    16e4:	20870783          	lb	a5,520(a4) # 80140208 <_DATA_LMA_START+0x60137e10>
    16e8:	0ff7f793          	andi	a5,a5,255
    16ec:	0017e793          	ori	a5,a5,1
    16f0:	20f70423          	sb	a5,520(a4)
    16f4:	1fd70783          	lb	a5,509(a4)
    16f8:	00244683          	lbu	a3,2(s0)
    16fc:	0ff7f793          	andi	a5,a5,255
    1700:	84ffc7ab          	swgp	a5,-1972 # 8004c <g_chip_version>
    1704:	0246e25b          	bnec	a3,4,1728 <sys_init.constprop.0+0x184>
    1708:	000007b7          	lui	a5,0x0
    170c:	20072603          	lw	a2,512(a4)
    1710:	2987a703          	lw	a4,664(a5) # 298 <cpu_sleep_wakeup>
    1714:	67d1                	c.lui	a5,0x14
    1716:	88078793          	addi	a5,a5,-1920 # 13880 <BIN_SIZE+0xb454>
    171a:	963e                	c.add	a2,a5
    171c:	02000593          	li	a1,32
    1720:	03000513          	li	a0,48
    1724:	000700e7          	jalr	a4
    1728:	04400593          	li	a1,68
    172c:	00c00513          	li	a0,12
    1730:	c94ff0ef          	jal	ra,bc4 <analog_write_reg8>
    1734:	801417b7          	lui	a5,0x80141
    1738:	c0000737          	lui	a4,0xc0000
    173c:	b0e7a223          	sw	a4,-1276(a5) # 80140b04 <_DATA_LMA_START+0x6013870c>
    1740:	40b2                	c.lwsp	ra,12(sp)
    1742:	4422                	c.lwsp	s0,8(sp)
    1744:	4492                	c.lwsp	s1,4(sp)
    1746:	4902                	c.lwsp	s2,0(sp)
    1748:	0141                	c.addi	sp,16
    174a:	8082                	c.jr	ra
    174c:	851f940b          	addigp	s0,-1968 # 80050 <g_pm_status_info>
    1750:	4004f65b          	bbs	s1,0,175c <sys_init.constprop.0+0x1b8>
    1754:	47a1                	c.li	a5,8
    1756:	00f40123          	sb	a5,2(s0)
    175a:	bf1d                	c.j	1690 <sys_init.constprop.0+0xec>
    175c:	47c1                	c.li	a5,16
    175e:	00f40123          	sb	a5,2(s0)
    1762:	b73d                	c.j	1690 <sys_init.constprop.0+0xec>
    1764:	06400513          	li	a0,100
    1768:	c98ff0ef          	jal	ra,c00 <analog_read_reg8>
    176c:	00a400a3          	sb	a0,1(s0)
    1770:	06400513          	li	a0,100
    1774:	c8cff0ef          	jal	ra,c00 <analog_read_reg8>
    1778:	8929                	c.andi	a0,10
    177a:	0085655b          	bnec	a0,8,1784 <sys_init.constprop.0+0x1e0>
    177e:	4785                	c.li	a5,1
    1780:	00f40023          	sb	a5,0(s0)
    1784:	801404b7          	lui	s1,0x80140
    1788:	20848783          	lb	a5,520(s1) # 80140208 <_DATA_LMA_START+0x60137e10>
    178c:	0fe7f793          	andi	a5,a5,254
    1790:	20f48423          	sb	a5,520(s1)
    1794:	00200793          	li	a5,2
    1798:	20f48c23          	sb	a5,536(s1)
    179c:	20a48783          	lb	a5,522(s1)
    17a0:	0ff7f793          	andi	a5,a5,255
    17a4:	00c7e793          	ori	a5,a5,12
    17a8:	20f48523          	sb	a5,522(s1)
    17ac:	be8ff0ef          	jal	ra,b94 <clock_get_32k_tick>
    17b0:	000007b7          	lui	a5,0x0
    17b4:	2947a783          	lw	a5,660(a5) # 294 <pm_tim_recover>
    17b8:	0505                	c.addi	a0,1
    17ba:	9782                	c.jalr	a5
    17bc:	80140737          	lui	a4,0x80140
    17c0:	00150513          	addi	a0,a0,1
    17c4:	20a4a023          	sw	a0,512(s1)
    17c8:	20b70783          	lb	a5,523(a4) # 8014020b <_DATA_LMA_START+0x60137e13>
    17cc:	be77fe5b          	bbc	a5,7,17c8 <sys_init.constprop.0+0x224>
    17d0:	20070c23          	sb	zero,536(a4)
    17d4:	f0dff06f          	j	16e0 <sys_init.constprop.0+0x13c>
    17d8:	00100793          	li	a5,1
    17dc:	00f40123          	sb	a5,2(s0)
    17e0:	be4ff0ef          	jal	ra,bc4 <analog_write_reg8>
    17e4:	00196593          	ori	a1,s2,1
    17e8:	0ff5f593          	andi	a1,a1,255
    17ec:	03900513          	li	a0,57
    17f0:	bd4ff0ef          	jal	ra,bc4 <analog_write_reg8>
    17f4:	e9dff06f          	j	1690 <sys_init.constprop.0+0xec>

000017f8 <gpio_irq_handler>:
    17f8:	801f97ab          	lhgp	a5,-2048 # 80000 <_DATA_VMA_START>
    17fc:	4027fe5b          	bbs	a5,2,1818 <gpio_irq_handler+0x20>
    1800:	801407b7          	lui	a5,0x80140
    1804:	35278703          	lb	a4,850(a5) # 80140352 <_DATA_LMA_START+0x60137f5a>
    1808:	0fe77713          	andi	a4,a4,254
    180c:	34e78923          	sb	a4,850(a5)
    1810:	4705                	c.li	a4,1
    1812:	34e78c23          	sb	a4,856(a5)
    1816:	8082                	c.jr	ra
    1818:	20008537          	lui	a0,0x20008
    181c:	1141                	c.addi	sp,-16
    181e:	0d850513          	addi	a0,a0,216 # 200080d8 <month_names.5678+0x44>
    1822:	c606                	c.swsp	ra,12(sp)
    1824:	00812423          	sw	s0,8(sp)
    1828:	20004097          	auipc	ra,0x20004
    182c:	a94080e7          	jalr	-1388(ra) # 200052bc <printf>
    1830:	20008437          	lui	s0,0x20008
    1834:	02f00593          	li	a1,47
    1838:	0bc40513          	addi	a0,s0,188 # 200080bc <month_names.5678+0x28>
    183c:	20004097          	auipc	ra,0x20004
    1840:	b38080e7          	jalr	-1224(ra) # 20005374 <strrchr>
    1844:	0bc40593          	addi	a1,s0,188
    1848:	00050c63          	beqz	a0,1860 <gpio_irq_handler+0x68>
    184c:	02f00593          	li	a1,47
    1850:	0bc40513          	addi	a0,s0,188
    1854:	20004097          	auipc	ra,0x20004
    1858:	b20080e7          	jalr	-1248(ra) # 20005374 <strrchr>
    185c:	00150593          	addi	a1,a0,1
    1860:	20008637          	lui	a2,0x20008
    1864:	20008537          	lui	a0,0x20008
    1868:	05800693          	li	a3,88
    186c:	00460613          	addi	a2,a2,4 # 20008004 <__FUNCTION__.13237>
    1870:	0e050513          	addi	a0,a0,224 # 200080e0 <month_names.5678+0x4c>
    1874:	20004097          	auipc	ra,0x20004
    1878:	a48080e7          	jalr	-1464(ra) # 200052bc <printf>
    187c:	20008537          	lui	a0,0x20008
    1880:	10050513          	addi	a0,a0,256 # 20008100 <month_names.5678+0x6c>
    1884:	20004097          	auipc	ra,0x20004
    1888:	a38080e7          	jalr	-1480(ra) # 200052bc <printf>
    188c:	801407b7          	lui	a5,0x80140
    1890:	35278703          	lb	a4,850(a5) # 80140352 <_DATA_LMA_START+0x60137f5a>
    1894:	0fe77713          	andi	a4,a4,254
    1898:	34e78923          	sb	a4,850(a5)
    189c:	4705                	c.li	a4,1
    189e:	34e78c23          	sb	a4,856(a5)
    18a2:	40b2                	c.lwsp	ra,12(sp)
    18a4:	4422                	c.lwsp	s0,8(sp)
    18a6:	0141                	c.addi	sp,16
    18a8:	00008067          	ret

000018ac <main>:
    18ac:	7179                	c.addi16sp	sp,-48
    18ae:	d226                	c.swsp	s1,36(sp)
    18b0:	200037b7          	lui	a5,0x20003
    18b4:	000004b7          	lui	s1,0x0
    18b8:	15848493          	addi	s1,s1,344 # 158 <_AES_VMA_END>
    18bc:	25878793          	addi	a5,a5,600 # 20003258 <cpu_sleep_wakeup_32k_rc>
    18c0:	14f4a023          	sw	a5,320(s1)
    18c4:	000007b7          	lui	a5,0x0
    18c8:	6e878793          	addi	a5,a5,1768 # 6e8 <pm_tim_recover_32k_rc>
    18cc:	12f4ae23          	sw	a5,316(s1)
    18d0:	4785                	c.li	a5,1
    18d2:	12f48923          	sb	a5,306(s1)
    18d6:	d606                	c.swsp	ra,44(sp)
    18d8:	d422                	c.swsp	s0,40(sp)
    18da:	d04a                	c.swsp	s2,32(sp)
    18dc:	ce4e                	c.swsp	s3,28(sp)
    18de:	cc52                	c.swsp	s4,24(sp)
    18e0:	ca56                	c.swsp	s5,20(sp)
    18e2:	31c9                	c.jal	15a4 <sys_init.constprop.0>
    18e4:	801406b7          	lui	a3,0x80140
    18e8:	1e268703          	lb	a4,482(a3) # 801401e2 <_DATA_LMA_START+0x60137dea>
    18ec:	801027b7          	lui	a5,0x80102
    18f0:	0ff77713          	andi	a4,a4,255
    18f4:	00476713          	ori	a4,a4,4
    18f8:	1ee68123          	sb	a4,482(a3)
    18fc:	1e668703          	lb	a4,486(a3)
    1900:	80102637          	lui	a2,0x80102
    1904:	0ff77713          	andi	a4,a4,255
    1908:	00476713          	ori	a4,a4,4
    190c:	1ee68323          	sb	a4,486(a3)
    1910:	80078703          	lb	a4,-2048(a5) # 80101800 <_DATA_LMA_START+0x600f9408>
    1914:	0fe77713          	andi	a4,a4,254
    1918:	80e78023          	sb	a4,-2048(a5)
    191c:	8007a223          	sw	zero,-2044(a5)
    1920:	80078703          	lb	a4,-2048(a5)
    1924:	0ff77713          	andi	a4,a4,255
    1928:	00176713          	ori	a4,a4,1
    192c:	80e78023          	sb	a4,-2048(a5)
    1930:	80860783          	lb	a5,-2040(a2) # 80101808 <_DATA_LMA_START+0x600f9410>
    1934:	be07fe5b          	bbc	a5,0,1930 <main+0x84>
    1938:	80c62783          	lw	a5,-2036(a2)
    193c:	801027b7          	lui	a5,0x80102
    1940:	80878703          	lb	a4,-2040(a5) # 80101808 <_DATA_LMA_START+0x600f9410>
    1944:	be077e5b          	bbc	a4,0,1940 <main+0x94>
    1948:	80140437          	lui	s0,0x80140
    194c:	80c7a703          	lw	a4,-2036(a5)
    1950:	1e240703          	lb	a4,482(s0) # 801401e2 <_DATA_LMA_START+0x60137dea>
    1954:	0fb77713          	andi	a4,a4,251
    1958:	853f890b          	lbgp	s2,-1966 # 80052 <g_pm_status_info+0x2>
    195c:	1ee40123          	sb	a4,482(s0)
    1960:	1e640703          	lb	a4,486(s0)
    1964:	00ff0ab7          	lui	s5,0xff0
    1968:	0fb77713          	andi	a4,a4,251
    196c:	1ee40323          	sb	a4,486(s0)
    1970:	80078703          	lb	a4,-2048(a5)
    1974:	010009b7          	lui	s3,0x1000
    1978:	0e077713          	andi	a4,a4,224
    197c:	80e78023          	sb	a4,-2048(a5)
    1980:	ac4ff0ef          	jal	ra,c44 <clock_init.constprop.4>
    1984:	807f87b7          	lui	a5,0x807f8
    1988:	30f42023          	sw	a5,768(s0)
    198c:	008007b7          	lui	a5,0x800
    1990:	f0078793          	addi	a5,a5,-256 # 7fff00 <FLASH_SIZE+0x6fff00>
    1994:	30f42223          	sw	a5,772(s0)
    1998:	f0098993          	addi	s3,s3,-256 # ffff00 <FLASH_SIZE+0xefff00>
    199c:	31542423          	sw	s5,776(s0)
    19a0:	4581                	c.li	a1,0
    19a2:	0bd00513          	li	a0,189
    19a6:	5a7d                	c.li	s4,-1
    19a8:	31342623          	sw	s3,780(s0)
    19ac:	a18ff0ef          	jal	ra,bc4 <analog_write_reg8>
    19b0:	0ff00593          	li	a1,255
    19b4:	31440923          	sb	s4,786(s0)
    19b8:	0bf00513          	li	a0,191
    19bc:	300409a3          	sb	zero,787(s0)
    19c0:	a04ff0ef          	jal	ra,bc4 <analog_write_reg8>
    19c4:	00000593          	li	a1,0
    19c8:	0c000513          	li	a0,192
    19cc:	31440b23          	sb	s4,790(s0)
    19d0:	9f4ff0ef          	jal	ra,bc4 <analog_write_reg8>
    19d4:	0ff00593          	li	a1,255
    19d8:	31440d23          	sb	s4,794(s0)
    19dc:	0c200513          	li	a0,194
    19e0:	30040da3          	sb	zero,795(s0)
    19e4:	9e0ff0ef          	jal	ra,bc4 <analog_write_reg8>
    19e8:	31440f23          	sb	s4,798(s0)
    19ec:	33542023          	sw	s5,800(s0)
    19f0:	00897913          	andi	s2,s2,8
    19f4:	33342223          	sw	s3,804(s0)
    19f8:	16090c63          	beqz	s2,1b70 <main+0x2c4>
    19fc:	30640783          	lb	a5,774(s0)
    1a00:	00100593          	li	a1,1
    1a04:	f807e793          	ori	a5,a5,-128
    1a08:	0ff7f793          	andi	a5,a5,255
    1a0c:	30f40323          	sb	a5,774(s0)
    1a10:	30240783          	lb	a5,770(s0)
    1a14:	08000513          	li	a0,128
    1a18:	07f7f793          	andi	a5,a5,127
    1a1c:	30f40123          	sb	a5,770(s0)
    1a20:	20002097          	auipc	ra,0x20002
    1a24:	150080e7          	jalr	336(ra) # 20003b70 <gpio_set_up_down_res>
    1a28:	20008737          	lui	a4,0x20008
    1a2c:	30340783          	lb	a5,771(s0)
    1a30:	2f072603          	lw	a2,752(a4) # 200082f0 <_hw>
    1a34:	20008737          	lui	a4,0x20008
    1a38:	2ec72583          	lw	a1,748(a4) # 200082ec <_fw>
    1a3c:	20008737          	lui	a4,0x20008
    1a40:	2e872503          	lw	a0,744(a4) # 200082e8 <_bootloader>
    1a44:	f807e793          	ori	a5,a5,-128
    1a48:	0ff7f793          	andi	a5,a5,255
    1a4c:	30f401a3          	sb	a5,771(s0)
    1a50:	20002097          	auipc	ra,0x20002
    1a54:	434080e7          	jalr	1076(ra) # 20003e84 <PLOG_DEVICE_PROFILE>
    1a58:	1104a503          	lw	a0,272(s1)
    1a5c:	06050663          	beqz	a0,1ac8 <main+0x21c>
    1a60:	1304c783          	lbu	a5,304(s1)
    1a64:	ef81                	c.bnez	a5,1a7c <main+0x1d0>
    1a66:	1444a783          	lw	a5,324(s1)
    1a6a:	0030                	c.addi4spn	a2,sp,8
    1a6c:	4585                	c.li	a1,1
    1a6e:	9782                	c.jalr	a5
    1a70:	00814703          	lbu	a4,8(sp)
    1a74:	0ff00793          	li	a5,255
    1a78:	1af71e63          	bne	a4,a5,1c34 <main+0x388>
    1a7c:	1384d783          	lhu	a5,312(s1)
    1a80:	c402                	c.swsp	zero,8(sp)
    1a82:	00011623          	sh	zero,12(sp)
    1a86:	00010723          	sb	zero,14(sp)
    1a8a:	cf8d                	c.beqz	a5,1ac4 <main+0x218>
    1a8c:	1104a503          	lw	a0,272(s1)
    1a90:	1444a783          	lw	a5,324(s1)
    1a94:	0030                	c.addi4spn	a2,sp,8
    1a96:	459d                	c.li	a1,7
    1a98:	0c050513          	addi	a0,a0,192
    1a9c:	9782                	c.jalr	a5
    1a9e:	00c14703          	lbu	a4,12(sp)
    1aa2:	0ff00793          	li	a5,255
    1aa6:	02f70b63          	beq	a4,a5,1adc <main+0x230>
    1aaa:	67c1                	c.lui	a5,0x10
    1aac:	00d15603          	lhu	a2,13(sp)
    1ab0:	fff78793          	addi	a5,a5,-1 # ffff <BIN_SIZE+0x7bd3>
    1ab4:	00d14683          	lbu	a3,13(sp)
    1ab8:	02f60263          	beq	a2,a5,1adc <main+0x230>
    1abc:	1c0737db          	bfos	a5,a4,7,0
    1ac0:	1807dc63          	bgez	a5,1c58 <main+0x3ac>
    1ac4:	04090c63          	beqz	s2,1b1c <main+0x270>
    1ac8:	50b2                	c.lwsp	ra,44(sp)
    1aca:	5422                	c.lwsp	s0,40(sp)
    1acc:	5492                	c.lwsp	s1,36(sp)
    1ace:	5902                	c.lwsp	s2,32(sp)
    1ad0:	49f2                	c.lwsp	s3,28(sp)
    1ad2:	4a62                	c.lwsp	s4,24(sp)
    1ad4:	4ad2                	c.lwsp	s5,20(sp)
    1ad6:	4501                	c.li	a0,0
    1ad8:	6145                	c.addi16sp	sp,48
    1ada:	8082                	c.jr	ra
    1adc:	1334c783          	lbu	a5,307(s1)
    1ae0:	f3f5                	c.bnez	a5,1ac4 <main+0x218>
    1ae2:	6741                	c.lui	a4,0x10
    1ae4:	00815603          	lhu	a2,8(sp)
    1ae8:	177d                	c.addi	a4,-1
    1aea:	00914683          	lbu	a3,9(sp)
    1aee:	00814783          	lbu	a5,8(sp)
    1af2:	fce609e3          	beq	a2,a4,1ac4 <main+0x218>
    1af6:	97b6                	c.add	a5,a3
    1af8:	39878713          	addi	a4,a5,920
    1afc:	f8078793          	addi	a5,a5,-128
    1b00:	12e49a23          	sh	a4,308(s1)
    1b04:	3c07a7db          	bfoz	a5,a5,15,0
    1b08:	0fd00713          	li	a4,253
    1b0c:	faf77ce3          	bgeu	a4,a5,1ac4 <main+0x218>
    1b10:	49700793          	li	a5,1175
    1b14:	12f49a23          	sh	a5,308(s1)
    1b18:	fa0918e3          	bnez	s2,1ac8 <main+0x21c>
    1b1c:	20008537          	lui	a0,0x20008
    1b20:	eec50513          	addi	a0,a0,-276 # 20007eec <__clzsi2+0xfc>
    1b24:	20003097          	auipc	ra,0x20003
    1b28:	798080e7          	jalr	1944(ra) # 200052bc <printf>
    1b2c:	20008537          	lui	a0,0x20008
    1b30:	10850513          	addi	a0,a0,264 # 20008108 <month_names.5678+0x74>
    1b34:	20003097          	auipc	ra,0x20003
    1b38:	788080e7          	jalr	1928(ra) # 200052bc <printf>
    1b3c:	20008537          	lui	a0,0x20008
    1b40:	10050513          	addi	a0,a0,256 # 20008100 <month_names.5678+0x6c>
    1b44:	20003097          	auipc	ra,0x20003
    1b48:	778080e7          	jalr	1912(ra) # 200052bc <printf>
    1b4c:	20003097          	auipc	ra,0x20003
    1b50:	8bc080e7          	jalr	-1860(ra) # 20004408 <firmware_check>
    1b54:	300467f3          	csrrsi	a5,mstatus,8
    1b58:	000017b7          	lui	a5,0x1
    1b5c:	88878793          	addi	a5,a5,-1912 # 888 <flash_send_cmd+0x28>
    1b60:	3047a7f3          	csrrs	a5,mie,a5
    1b64:	20003097          	auipc	ra,0x20003
    1b68:	ddc080e7          	jalr	-548(ra) # 20004940 <dfu_uart_process>
    1b6c:	ff9ff06f          	j	1b64 <main+0x2b8>
    1b70:	4581                	c.li	a1,0
    1b72:	4539                	c.li	a0,14
    1b74:	850ff0ef          	jal	ra,bc4 <analog_write_reg8>
    1b78:	0c000593          	li	a1,192
    1b7c:	00f00513          	li	a0,15
    1b80:	844ff0ef          	jal	ra,bc4 <analog_write_reg8>
    1b84:	4581                	c.li	a1,0
    1b86:	4541                	c.li	a0,16
    1b88:	83cff0ef          	jal	ra,bc4 <analog_write_reg8>
    1b8c:	4581                	c.li	a1,0
    1b8e:	4545                	c.li	a0,17
    1b90:	834ff0ef          	jal	ra,bc4 <analog_write_reg8>
    1b94:	4581                	c.li	a1,0
    1b96:	4549                	c.li	a0,18
    1b98:	82cff0ef          	jal	ra,bc4 <analog_write_reg8>
    1b9c:	4581                	c.li	a1,0
    1b9e:	454d                	c.li	a0,19
    1ba0:	824ff0ef          	jal	ra,bc4 <analog_write_reg8>
    1ba4:	4581                	c.li	a1,0
    1ba6:	4551                	c.li	a0,20
    1ba8:	81cff0ef          	jal	ra,bc4 <analog_write_reg8>
    1bac:	4581                	c.li	a1,0
    1bae:	4555                	c.li	a0,21
    1bb0:	814ff0ef          	jal	ra,bc4 <analog_write_reg8>
    1bb4:	4581                	c.li	a1,0
    1bb6:	4559                	c.li	a0,22
    1bb8:	80cff0ef          	jal	ra,bc4 <analog_write_reg8>
    1bbc:	4581                	c.li	a1,0
    1bbe:	455d                	c.li	a0,23
    1bc0:	804ff0ef          	jal	ra,bc4 <analog_write_reg8>
    1bc4:	30640783          	lb	a5,774(s0)
    1bc8:	00100593          	li	a1,1
    1bcc:	f807e793          	ori	a5,a5,-128
    1bd0:	0ff7f793          	andi	a5,a5,255
    1bd4:	30f40323          	sb	a5,774(s0)
    1bd8:	30240783          	lb	a5,770(s0)
    1bdc:	08000513          	li	a0,128
    1be0:	07f7f793          	andi	a5,a5,127
    1be4:	30f40123          	sb	a5,770(s0)
    1be8:	20002097          	auipc	ra,0x20002
    1bec:	f88080e7          	jalr	-120(ra) # 20003b70 <gpio_set_up_down_res>
    1bf0:	20008737          	lui	a4,0x20008
    1bf4:	30340783          	lb	a5,771(s0)
    1bf8:	2f072603          	lw	a2,752(a4) # 200082f0 <_hw>
    1bfc:	20008737          	lui	a4,0x20008
    1c00:	2ec72583          	lw	a1,748(a4) # 200082ec <_fw>
    1c04:	20008737          	lui	a4,0x20008
    1c08:	2e872503          	lw	a0,744(a4) # 200082e8 <_bootloader>
    1c0c:	f807e793          	ori	a5,a5,-128
    1c10:	0ff7f793          	andi	a5,a5,255
    1c14:	30f401a3          	sb	a5,771(s0)
    1c18:	20002097          	auipc	ra,0x20002
    1c1c:	26c080e7          	jalr	620(ra) # 20003e84 <PLOG_DEVICE_PROFILE>
    1c20:	20002097          	auipc	ra,0x20002
    1c24:	894080e7          	jalr	-1900(ra) # 200034b4 <blc_readFlashSize_autoConfigCustomFlashSector>
    1c28:	1104a503          	lw	a0,272(s1)
    1c2c:	e2051ae3          	bnez	a0,1a60 <main+0x1b4>
    1c30:	eedff06f          	j	1b1c <main+0x270>
    1c34:	08a00513          	li	a0,138
    1c38:	fc9fe0ef          	jal	ra,c00 <analog_read_reg8>
    1c3c:	00810783          	lb	a5,8(sp)
    1c40:	0c057593          	andi	a1,a0,192
    1c44:	03f7f793          	andi	a5,a5,63
    1c48:	08a00513          	li	a0,138
    1c4c:	00f5e5b3          	or	a1,a1,a5
    1c50:	f75fe0ef          	jal	ra,bc4 <analog_write_reg8>
    1c54:	e29ff06f          	j	1a7c <main+0x1d0>
    1c58:	00e14783          	lbu	a5,14(sp)
    1c5c:	1731                	c.addi	a4,-20
    1c5e:	07a2                	c.slli	a5,0x8
    1c60:	8fd5                	c.or	a5,a3
    1c62:	3e878793          	addi	a5,a5,1000
    1c66:	12f49a23          	sh	a5,308(s1)
    1c6a:	12e49b23          	sh	a4,310(s1)
    1c6e:	bd99                	c.j	1ac4 <main+0x218>

00001c70 <entry_irq63>:
    1c70:	1141                	c.addi	sp,-16
    1c72:	c632                	c.swsp	a2,12(sp)
    1c74:	c436                	c.swsp	a3,8(sp)
    1c76:	c23a                	c.swsp	a4,4(sp)
    1c78:	c03e                	c.swsp	a5,0(sp)
    1c7a:	34102773          	csrr	a4,mepc
    1c7e:	300026f3          	csrr	a3,mstatus
    1c82:	7c4027f3          	csrr	a5,mxstatus
    1c86:	30046673          	csrrsi	a2,mstatus,8
    1c8a:	30047673          	csrrci	a2,mstatus,8
    1c8e:	30069073          	csrw	mstatus,a3
    1c92:	34171073          	csrw	mepc,a4
    1c96:	7c479073          	csrw	mxstatus,a5
    1c9a:	e42007b7          	lui	a5,0xe4200
    1c9e:	03f00713          	li	a4,63
    1ca2:	c3d8                	c.sw	a4,4(a5)
    1ca4:	0ff0000f          	fence
    1ca8:	4632                	c.lwsp	a2,12(sp)
    1caa:	46a2                	c.lwsp	a3,8(sp)
    1cac:	4712                	c.lwsp	a4,4(sp)
    1cae:	4782                	c.lwsp	a5,0(sp)
    1cb0:	01010113          	addi	sp,sp,16
    1cb4:	30200073          	mret

00001cb8 <entry_irq62>:
    1cb8:	1141                	c.addi	sp,-16
    1cba:	c632                	c.swsp	a2,12(sp)
    1cbc:	c436                	c.swsp	a3,8(sp)
    1cbe:	c23a                	c.swsp	a4,4(sp)
    1cc0:	c03e                	c.swsp	a5,0(sp)
    1cc2:	34102773          	csrr	a4,mepc
    1cc6:	300026f3          	csrr	a3,mstatus
    1cca:	7c4027f3          	csrr	a5,mxstatus
    1cce:	30046673          	csrrsi	a2,mstatus,8
    1cd2:	30047673          	csrrci	a2,mstatus,8
    1cd6:	30069073          	csrw	mstatus,a3
    1cda:	34171073          	csrw	mepc,a4
    1cde:	7c479073          	csrw	mxstatus,a5
    1ce2:	e42007b7          	lui	a5,0xe4200
    1ce6:	03e00713          	li	a4,62
    1cea:	c3d8                	c.sw	a4,4(a5)
    1cec:	0ff0000f          	fence
    1cf0:	4632                	c.lwsp	a2,12(sp)
    1cf2:	46a2                	c.lwsp	a3,8(sp)
    1cf4:	4712                	c.lwsp	a4,4(sp)
    1cf6:	4782                	c.lwsp	a5,0(sp)
    1cf8:	01010113          	addi	sp,sp,16
    1cfc:	30200073          	mret

00001d00 <entry_irq61>:
    1d00:	1141                	c.addi	sp,-16
    1d02:	c632                	c.swsp	a2,12(sp)
    1d04:	c436                	c.swsp	a3,8(sp)
    1d06:	c23a                	c.swsp	a4,4(sp)
    1d08:	c03e                	c.swsp	a5,0(sp)
    1d0a:	34102773          	csrr	a4,mepc
    1d0e:	300026f3          	csrr	a3,mstatus
    1d12:	7c4027f3          	csrr	a5,mxstatus
    1d16:	30046673          	csrrsi	a2,mstatus,8
    1d1a:	30047673          	csrrci	a2,mstatus,8
    1d1e:	30069073          	csrw	mstatus,a3
    1d22:	34171073          	csrw	mepc,a4
    1d26:	7c479073          	csrw	mxstatus,a5
    1d2a:	e42007b7          	lui	a5,0xe4200
    1d2e:	03d00713          	li	a4,61
    1d32:	c3d8                	c.sw	a4,4(a5)
    1d34:	0ff0000f          	fence
    1d38:	4632                	c.lwsp	a2,12(sp)
    1d3a:	46a2                	c.lwsp	a3,8(sp)
    1d3c:	4712                	c.lwsp	a4,4(sp)
    1d3e:	4782                	c.lwsp	a5,0(sp)
    1d40:	01010113          	addi	sp,sp,16
    1d44:	30200073          	mret

00001d48 <entry_irq60>:
    1d48:	1141                	c.addi	sp,-16
    1d4a:	c632                	c.swsp	a2,12(sp)
    1d4c:	c436                	c.swsp	a3,8(sp)
    1d4e:	c23a                	c.swsp	a4,4(sp)
    1d50:	c03e                	c.swsp	a5,0(sp)
    1d52:	34102773          	csrr	a4,mepc
    1d56:	300026f3          	csrr	a3,mstatus
    1d5a:	7c4027f3          	csrr	a5,mxstatus
    1d5e:	30046673          	csrrsi	a2,mstatus,8
    1d62:	30047673          	csrrci	a2,mstatus,8
    1d66:	30069073          	csrw	mstatus,a3
    1d6a:	34171073          	csrw	mepc,a4
    1d6e:	7c479073          	csrw	mxstatus,a5
    1d72:	e42007b7          	lui	a5,0xe4200
    1d76:	03c00713          	li	a4,60
    1d7a:	c3d8                	c.sw	a4,4(a5)
    1d7c:	0ff0000f          	fence
    1d80:	4632                	c.lwsp	a2,12(sp)
    1d82:	46a2                	c.lwsp	a3,8(sp)
    1d84:	4712                	c.lwsp	a4,4(sp)
    1d86:	4782                	c.lwsp	a5,0(sp)
    1d88:	01010113          	addi	sp,sp,16
    1d8c:	30200073          	mret

00001d90 <entry_irq59>:
    1d90:	1141                	c.addi	sp,-16
    1d92:	c632                	c.swsp	a2,12(sp)
    1d94:	c436                	c.swsp	a3,8(sp)
    1d96:	c23a                	c.swsp	a4,4(sp)
    1d98:	c03e                	c.swsp	a5,0(sp)
    1d9a:	34102773          	csrr	a4,mepc
    1d9e:	300026f3          	csrr	a3,mstatus
    1da2:	7c4027f3          	csrr	a5,mxstatus
    1da6:	30046673          	csrrsi	a2,mstatus,8
    1daa:	30047673          	csrrci	a2,mstatus,8
    1dae:	30069073          	csrw	mstatus,a3
    1db2:	34171073          	csrw	mepc,a4
    1db6:	7c479073          	csrw	mxstatus,a5
    1dba:	e42007b7          	lui	a5,0xe4200
    1dbe:	03b00713          	li	a4,59
    1dc2:	c3d8                	c.sw	a4,4(a5)
    1dc4:	0ff0000f          	fence
    1dc8:	4632                	c.lwsp	a2,12(sp)
    1dca:	46a2                	c.lwsp	a3,8(sp)
    1dcc:	4712                	c.lwsp	a4,4(sp)
    1dce:	4782                	c.lwsp	a5,0(sp)
    1dd0:	01010113          	addi	sp,sp,16
    1dd4:	30200073          	mret

00001dd8 <entry_irq58>:
    1dd8:	1141                	c.addi	sp,-16
    1dda:	c632                	c.swsp	a2,12(sp)
    1ddc:	c436                	c.swsp	a3,8(sp)
    1dde:	c23a                	c.swsp	a4,4(sp)
    1de0:	c03e                	c.swsp	a5,0(sp)
    1de2:	34102773          	csrr	a4,mepc
    1de6:	300026f3          	csrr	a3,mstatus
    1dea:	7c4027f3          	csrr	a5,mxstatus
    1dee:	30046673          	csrrsi	a2,mstatus,8
    1df2:	30047673          	csrrci	a2,mstatus,8
    1df6:	30069073          	csrw	mstatus,a3
    1dfa:	34171073          	csrw	mepc,a4
    1dfe:	7c479073          	csrw	mxstatus,a5
    1e02:	e42007b7          	lui	a5,0xe4200
    1e06:	03a00713          	li	a4,58
    1e0a:	c3d8                	c.sw	a4,4(a5)
    1e0c:	0ff0000f          	fence
    1e10:	4632                	c.lwsp	a2,12(sp)
    1e12:	46a2                	c.lwsp	a3,8(sp)
    1e14:	4712                	c.lwsp	a4,4(sp)
    1e16:	4782                	c.lwsp	a5,0(sp)
    1e18:	01010113          	addi	sp,sp,16
    1e1c:	30200073          	mret

00001e20 <entry_irq57>:
    1e20:	1141                	c.addi	sp,-16
    1e22:	c632                	c.swsp	a2,12(sp)
    1e24:	c436                	c.swsp	a3,8(sp)
    1e26:	c23a                	c.swsp	a4,4(sp)
    1e28:	c03e                	c.swsp	a5,0(sp)
    1e2a:	34102773          	csrr	a4,mepc
    1e2e:	300026f3          	csrr	a3,mstatus
    1e32:	7c4027f3          	csrr	a5,mxstatus
    1e36:	30046673          	csrrsi	a2,mstatus,8
    1e3a:	30047673          	csrrci	a2,mstatus,8
    1e3e:	30069073          	csrw	mstatus,a3
    1e42:	34171073          	csrw	mepc,a4
    1e46:	7c479073          	csrw	mxstatus,a5
    1e4a:	e42007b7          	lui	a5,0xe4200
    1e4e:	03900713          	li	a4,57
    1e52:	c3d8                	c.sw	a4,4(a5)
    1e54:	0ff0000f          	fence
    1e58:	4632                	c.lwsp	a2,12(sp)
    1e5a:	46a2                	c.lwsp	a3,8(sp)
    1e5c:	4712                	c.lwsp	a4,4(sp)
    1e5e:	4782                	c.lwsp	a5,0(sp)
    1e60:	01010113          	addi	sp,sp,16
    1e64:	30200073          	mret

00001e68 <entry_irq56>:
    1e68:	1141                	c.addi	sp,-16
    1e6a:	c632                	c.swsp	a2,12(sp)
    1e6c:	c436                	c.swsp	a3,8(sp)
    1e6e:	c23a                	c.swsp	a4,4(sp)
    1e70:	c03e                	c.swsp	a5,0(sp)
    1e72:	34102773          	csrr	a4,mepc
    1e76:	300026f3          	csrr	a3,mstatus
    1e7a:	7c4027f3          	csrr	a5,mxstatus
    1e7e:	30046673          	csrrsi	a2,mstatus,8
    1e82:	30047673          	csrrci	a2,mstatus,8
    1e86:	30069073          	csrw	mstatus,a3
    1e8a:	34171073          	csrw	mepc,a4
    1e8e:	7c479073          	csrw	mxstatus,a5
    1e92:	e42007b7          	lui	a5,0xe4200
    1e96:	03800713          	li	a4,56
    1e9a:	c3d8                	c.sw	a4,4(a5)
    1e9c:	0ff0000f          	fence
    1ea0:	4632                	c.lwsp	a2,12(sp)
    1ea2:	46a2                	c.lwsp	a3,8(sp)
    1ea4:	4712                	c.lwsp	a4,4(sp)
    1ea6:	4782                	c.lwsp	a5,0(sp)
    1ea8:	01010113          	addi	sp,sp,16
    1eac:	30200073          	mret

00001eb0 <entry_irq55>:
    1eb0:	1141                	c.addi	sp,-16
    1eb2:	c632                	c.swsp	a2,12(sp)
    1eb4:	c436                	c.swsp	a3,8(sp)
    1eb6:	c23a                	c.swsp	a4,4(sp)
    1eb8:	c03e                	c.swsp	a5,0(sp)
    1eba:	34102773          	csrr	a4,mepc
    1ebe:	300026f3          	csrr	a3,mstatus
    1ec2:	7c4027f3          	csrr	a5,mxstatus
    1ec6:	30046673          	csrrsi	a2,mstatus,8
    1eca:	30047673          	csrrci	a2,mstatus,8
    1ece:	30069073          	csrw	mstatus,a3
    1ed2:	34171073          	csrw	mepc,a4
    1ed6:	7c479073          	csrw	mxstatus,a5
    1eda:	e42007b7          	lui	a5,0xe4200
    1ede:	03700713          	li	a4,55
    1ee2:	c3d8                	c.sw	a4,4(a5)
    1ee4:	0ff0000f          	fence
    1ee8:	4632                	c.lwsp	a2,12(sp)
    1eea:	46a2                	c.lwsp	a3,8(sp)
    1eec:	4712                	c.lwsp	a4,4(sp)
    1eee:	4782                	c.lwsp	a5,0(sp)
    1ef0:	01010113          	addi	sp,sp,16
    1ef4:	30200073          	mret

00001ef8 <entry_irq54>:
    1ef8:	1141                	c.addi	sp,-16
    1efa:	c632                	c.swsp	a2,12(sp)
    1efc:	c436                	c.swsp	a3,8(sp)
    1efe:	c23a                	c.swsp	a4,4(sp)
    1f00:	c03e                	c.swsp	a5,0(sp)
    1f02:	34102773          	csrr	a4,mepc
    1f06:	300026f3          	csrr	a3,mstatus
    1f0a:	7c4027f3          	csrr	a5,mxstatus
    1f0e:	30046673          	csrrsi	a2,mstatus,8
    1f12:	30047673          	csrrci	a2,mstatus,8
    1f16:	30069073          	csrw	mstatus,a3
    1f1a:	34171073          	csrw	mepc,a4
    1f1e:	7c479073          	csrw	mxstatus,a5
    1f22:	e42007b7          	lui	a5,0xe4200
    1f26:	03600713          	li	a4,54
    1f2a:	c3d8                	c.sw	a4,4(a5)
    1f2c:	0ff0000f          	fence
    1f30:	4632                	c.lwsp	a2,12(sp)
    1f32:	46a2                	c.lwsp	a3,8(sp)
    1f34:	4712                	c.lwsp	a4,4(sp)
    1f36:	4782                	c.lwsp	a5,0(sp)
    1f38:	01010113          	addi	sp,sp,16
    1f3c:	30200073          	mret

00001f40 <entry_irq53>:
    1f40:	1141                	c.addi	sp,-16
    1f42:	c632                	c.swsp	a2,12(sp)
    1f44:	c436                	c.swsp	a3,8(sp)
    1f46:	c23a                	c.swsp	a4,4(sp)
    1f48:	c03e                	c.swsp	a5,0(sp)
    1f4a:	34102773          	csrr	a4,mepc
    1f4e:	300026f3          	csrr	a3,mstatus
    1f52:	7c4027f3          	csrr	a5,mxstatus
    1f56:	30046673          	csrrsi	a2,mstatus,8
    1f5a:	30047673          	csrrci	a2,mstatus,8
    1f5e:	30069073          	csrw	mstatus,a3
    1f62:	34171073          	csrw	mepc,a4
    1f66:	7c479073          	csrw	mxstatus,a5
    1f6a:	e42007b7          	lui	a5,0xe4200
    1f6e:	03500713          	li	a4,53
    1f72:	c3d8                	c.sw	a4,4(a5)
    1f74:	0ff0000f          	fence
    1f78:	4632                	c.lwsp	a2,12(sp)
    1f7a:	46a2                	c.lwsp	a3,8(sp)
    1f7c:	4712                	c.lwsp	a4,4(sp)
    1f7e:	4782                	c.lwsp	a5,0(sp)
    1f80:	01010113          	addi	sp,sp,16
    1f84:	30200073          	mret

00001f88 <entry_irq52>:
    1f88:	1141                	c.addi	sp,-16
    1f8a:	c632                	c.swsp	a2,12(sp)
    1f8c:	c436                	c.swsp	a3,8(sp)
    1f8e:	c23a                	c.swsp	a4,4(sp)
    1f90:	c03e                	c.swsp	a5,0(sp)
    1f92:	34102773          	csrr	a4,mepc
    1f96:	300026f3          	csrr	a3,mstatus
    1f9a:	7c4027f3          	csrr	a5,mxstatus
    1f9e:	30046673          	csrrsi	a2,mstatus,8
    1fa2:	30047673          	csrrci	a2,mstatus,8
    1fa6:	30069073          	csrw	mstatus,a3
    1faa:	34171073          	csrw	mepc,a4
    1fae:	7c479073          	csrw	mxstatus,a5
    1fb2:	e42007b7          	lui	a5,0xe4200
    1fb6:	03400713          	li	a4,52
    1fba:	c3d8                	c.sw	a4,4(a5)
    1fbc:	0ff0000f          	fence
    1fc0:	4632                	c.lwsp	a2,12(sp)
    1fc2:	46a2                	c.lwsp	a3,8(sp)
    1fc4:	4712                	c.lwsp	a4,4(sp)
    1fc6:	4782                	c.lwsp	a5,0(sp)
    1fc8:	01010113          	addi	sp,sp,16
    1fcc:	30200073          	mret

00001fd0 <entry_irq51>:
    1fd0:	1141                	c.addi	sp,-16
    1fd2:	c632                	c.swsp	a2,12(sp)
    1fd4:	c436                	c.swsp	a3,8(sp)
    1fd6:	c23a                	c.swsp	a4,4(sp)
    1fd8:	c03e                	c.swsp	a5,0(sp)
    1fda:	34102773          	csrr	a4,mepc
    1fde:	300026f3          	csrr	a3,mstatus
    1fe2:	7c4027f3          	csrr	a5,mxstatus
    1fe6:	30046673          	csrrsi	a2,mstatus,8
    1fea:	30047673          	csrrci	a2,mstatus,8
    1fee:	30069073          	csrw	mstatus,a3
    1ff2:	34171073          	csrw	mepc,a4
    1ff6:	7c479073          	csrw	mxstatus,a5
    1ffa:	e42007b7          	lui	a5,0xe4200
    1ffe:	03300713          	li	a4,51
    2002:	c3d8                	c.sw	a4,4(a5)
    2004:	0ff0000f          	fence
    2008:	4632                	c.lwsp	a2,12(sp)
    200a:	46a2                	c.lwsp	a3,8(sp)
    200c:	4712                	c.lwsp	a4,4(sp)
    200e:	4782                	c.lwsp	a5,0(sp)
    2010:	01010113          	addi	sp,sp,16
    2014:	30200073          	mret

00002018 <entry_irq50>:
    2018:	1141                	c.addi	sp,-16
    201a:	c632                	c.swsp	a2,12(sp)
    201c:	c436                	c.swsp	a3,8(sp)
    201e:	c23a                	c.swsp	a4,4(sp)
    2020:	c03e                	c.swsp	a5,0(sp)
    2022:	34102773          	csrr	a4,mepc
    2026:	300026f3          	csrr	a3,mstatus
    202a:	7c4027f3          	csrr	a5,mxstatus
    202e:	30046673          	csrrsi	a2,mstatus,8
    2032:	30047673          	csrrci	a2,mstatus,8
    2036:	30069073          	csrw	mstatus,a3
    203a:	34171073          	csrw	mepc,a4
    203e:	7c479073          	csrw	mxstatus,a5
    2042:	e42007b7          	lui	a5,0xe4200
    2046:	03200713          	li	a4,50
    204a:	c3d8                	c.sw	a4,4(a5)
    204c:	0ff0000f          	fence
    2050:	4632                	c.lwsp	a2,12(sp)
    2052:	46a2                	c.lwsp	a3,8(sp)
    2054:	4712                	c.lwsp	a4,4(sp)
    2056:	4782                	c.lwsp	a5,0(sp)
    2058:	01010113          	addi	sp,sp,16
    205c:	30200073          	mret

00002060 <entry_irq49>:
    2060:	30200073          	mret

00002064 <entry_irq48>:
    2064:	30200073          	mret

00002068 <entry_irq47>:
    2068:	30200073          	mret

0000206c <entry_irq46>:
    206c:	1141                	c.addi	sp,-16
    206e:	c632                	c.swsp	a2,12(sp)
    2070:	c436                	c.swsp	a3,8(sp)
    2072:	c23a                	c.swsp	a4,4(sp)
    2074:	c03e                	c.swsp	a5,0(sp)
    2076:	34102773          	csrr	a4,mepc
    207a:	300026f3          	csrr	a3,mstatus
    207e:	7c4027f3          	csrr	a5,mxstatus
    2082:	30046673          	csrrsi	a2,mstatus,8
    2086:	30047673          	csrrci	a2,mstatus,8
    208a:	30069073          	csrw	mstatus,a3
    208e:	34171073          	csrw	mepc,a4
    2092:	7c479073          	csrw	mxstatus,a5
    2096:	e42007b7          	lui	a5,0xe4200
    209a:	02e00713          	li	a4,46
    209e:	c3d8                	c.sw	a4,4(a5)
    20a0:	0ff0000f          	fence
    20a4:	4632                	c.lwsp	a2,12(sp)
    20a6:	46a2                	c.lwsp	a3,8(sp)
    20a8:	4712                	c.lwsp	a4,4(sp)
    20aa:	4782                	c.lwsp	a5,0(sp)
    20ac:	01010113          	addi	sp,sp,16
    20b0:	30200073          	mret

000020b4 <entry_irq45>:
    20b4:	30200073          	mret

000020b8 <entry_irq44>:
    20b8:	1141                	c.addi	sp,-16
    20ba:	c632                	c.swsp	a2,12(sp)
    20bc:	c436                	c.swsp	a3,8(sp)
    20be:	c23a                	c.swsp	a4,4(sp)
    20c0:	c03e                	c.swsp	a5,0(sp)
    20c2:	34102773          	csrr	a4,mepc
    20c6:	300026f3          	csrr	a3,mstatus
    20ca:	7c4027f3          	csrr	a5,mxstatus
    20ce:	30046673          	csrrsi	a2,mstatus,8
    20d2:	30047673          	csrrci	a2,mstatus,8
    20d6:	30069073          	csrw	mstatus,a3
    20da:	34171073          	csrw	mepc,a4
    20de:	7c479073          	csrw	mxstatus,a5
    20e2:	e42007b7          	lui	a5,0xe4200
    20e6:	02c00713          	li	a4,44
    20ea:	c3d8                	c.sw	a4,4(a5)
    20ec:	0ff0000f          	fence
    20f0:	4632                	c.lwsp	a2,12(sp)
    20f2:	46a2                	c.lwsp	a3,8(sp)
    20f4:	4712                	c.lwsp	a4,4(sp)
    20f6:	4782                	c.lwsp	a5,0(sp)
    20f8:	01010113          	addi	sp,sp,16
    20fc:	30200073          	mret

00002100 <entry_irq43>:
    2100:	1141                	c.addi	sp,-16
    2102:	c632                	c.swsp	a2,12(sp)
    2104:	c436                	c.swsp	a3,8(sp)
    2106:	c23a                	c.swsp	a4,4(sp)
    2108:	c03e                	c.swsp	a5,0(sp)
    210a:	34102773          	csrr	a4,mepc
    210e:	300026f3          	csrr	a3,mstatus
    2112:	7c4027f3          	csrr	a5,mxstatus
    2116:	30046673          	csrrsi	a2,mstatus,8
    211a:	30047673          	csrrci	a2,mstatus,8
    211e:	30069073          	csrw	mstatus,a3
    2122:	34171073          	csrw	mepc,a4
    2126:	7c479073          	csrw	mxstatus,a5
    212a:	e42007b7          	lui	a5,0xe4200
    212e:	02b00713          	li	a4,43
    2132:	c3d8                	c.sw	a4,4(a5)
    2134:	0ff0000f          	fence
    2138:	4632                	c.lwsp	a2,12(sp)
    213a:	46a2                	c.lwsp	a3,8(sp)
    213c:	4712                	c.lwsp	a4,4(sp)
    213e:	4782                	c.lwsp	a5,0(sp)
    2140:	01010113          	addi	sp,sp,16
    2144:	30200073          	mret

00002148 <entry_irq42>:
    2148:	1141                	c.addi	sp,-16
    214a:	c632                	c.swsp	a2,12(sp)
    214c:	c436                	c.swsp	a3,8(sp)
    214e:	c23a                	c.swsp	a4,4(sp)
    2150:	c03e                	c.swsp	a5,0(sp)
    2152:	34102773          	csrr	a4,mepc
    2156:	300026f3          	csrr	a3,mstatus
    215a:	7c4027f3          	csrr	a5,mxstatus
    215e:	30046673          	csrrsi	a2,mstatus,8
    2162:	30047673          	csrrci	a2,mstatus,8
    2166:	30069073          	csrw	mstatus,a3
    216a:	34171073          	csrw	mepc,a4
    216e:	7c479073          	csrw	mxstatus,a5
    2172:	e42007b7          	lui	a5,0xe4200
    2176:	02a00713          	li	a4,42
    217a:	c3d8                	c.sw	a4,4(a5)
    217c:	0ff0000f          	fence
    2180:	4632                	c.lwsp	a2,12(sp)
    2182:	46a2                	c.lwsp	a3,8(sp)
    2184:	4712                	c.lwsp	a4,4(sp)
    2186:	4782                	c.lwsp	a5,0(sp)
    2188:	01010113          	addi	sp,sp,16
    218c:	30200073          	mret

00002190 <entry_irq41>:
    2190:	30200073          	mret

00002194 <entry_irq40>:
    2194:	30200073          	mret

00002198 <entry_irq39>:
    2198:	30200073          	mret

0000219c <entry_irq38>:
    219c:	30200073          	mret

000021a0 <entry_irq37>:
    21a0:	1141                	c.addi	sp,-16
    21a2:	c632                	c.swsp	a2,12(sp)
    21a4:	c436                	c.swsp	a3,8(sp)
    21a6:	c23a                	c.swsp	a4,4(sp)
    21a8:	c03e                	c.swsp	a5,0(sp)
    21aa:	34102773          	csrr	a4,mepc
    21ae:	300026f3          	csrr	a3,mstatus
    21b2:	7c4027f3          	csrr	a5,mxstatus
    21b6:	30046673          	csrrsi	a2,mstatus,8
    21ba:	30047673          	csrrci	a2,mstatus,8
    21be:	30069073          	csrw	mstatus,a3
    21c2:	34171073          	csrw	mepc,a4
    21c6:	7c479073          	csrw	mxstatus,a5
    21ca:	e42007b7          	lui	a5,0xe4200
    21ce:	02500713          	li	a4,37
    21d2:	c3d8                	c.sw	a4,4(a5)
    21d4:	0ff0000f          	fence
    21d8:	4632                	c.lwsp	a2,12(sp)
    21da:	46a2                	c.lwsp	a3,8(sp)
    21dc:	4712                	c.lwsp	a4,4(sp)
    21de:	4782                	c.lwsp	a5,0(sp)
    21e0:	01010113          	addi	sp,sp,16
    21e4:	30200073          	mret

000021e8 <entry_irq36>:
    21e8:	1141                	c.addi	sp,-16
    21ea:	c632                	c.swsp	a2,12(sp)
    21ec:	c436                	c.swsp	a3,8(sp)
    21ee:	c23a                	c.swsp	a4,4(sp)
    21f0:	c03e                	c.swsp	a5,0(sp)
    21f2:	34102773          	csrr	a4,mepc
    21f6:	300026f3          	csrr	a3,mstatus
    21fa:	7c4027f3          	csrr	a5,mxstatus
    21fe:	30046673          	csrrsi	a2,mstatus,8
    2202:	30047673          	csrrci	a2,mstatus,8
    2206:	30069073          	csrw	mstatus,a3
    220a:	34171073          	csrw	mepc,a4
    220e:	7c479073          	csrw	mxstatus,a5
    2212:	e42007b7          	lui	a5,0xe4200
    2216:	02400713          	li	a4,36
    221a:	c3d8                	c.sw	a4,4(a5)
    221c:	0ff0000f          	fence
    2220:	4632                	c.lwsp	a2,12(sp)
    2222:	46a2                	c.lwsp	a3,8(sp)
    2224:	4712                	c.lwsp	a4,4(sp)
    2226:	4782                	c.lwsp	a5,0(sp)
    2228:	01010113          	addi	sp,sp,16
    222c:	30200073          	mret

00002230 <entry_irq35>:
    2230:	1141                	c.addi	sp,-16
    2232:	c632                	c.swsp	a2,12(sp)
    2234:	c436                	c.swsp	a3,8(sp)
    2236:	c23a                	c.swsp	a4,4(sp)
    2238:	c03e                	c.swsp	a5,0(sp)
    223a:	34102773          	csrr	a4,mepc
    223e:	300026f3          	csrr	a3,mstatus
    2242:	7c4027f3          	csrr	a5,mxstatus
    2246:	30046673          	csrrsi	a2,mstatus,8
    224a:	30047673          	csrrci	a2,mstatus,8
    224e:	30069073          	csrw	mstatus,a3
    2252:	34171073          	csrw	mepc,a4
    2256:	7c479073          	csrw	mxstatus,a5
    225a:	e42007b7          	lui	a5,0xe4200
    225e:	02300713          	li	a4,35
    2262:	c3d8                	c.sw	a4,4(a5)
    2264:	0ff0000f          	fence
    2268:	4632                	c.lwsp	a2,12(sp)
    226a:	46a2                	c.lwsp	a3,8(sp)
    226c:	4712                	c.lwsp	a4,4(sp)
    226e:	4782                	c.lwsp	a5,0(sp)
    2270:	01010113          	addi	sp,sp,16
    2274:	30200073          	mret

00002278 <entry_irq34>:
    2278:	1141                	c.addi	sp,-16
    227a:	c632                	c.swsp	a2,12(sp)
    227c:	c436                	c.swsp	a3,8(sp)
    227e:	c23a                	c.swsp	a4,4(sp)
    2280:	c03e                	c.swsp	a5,0(sp)
    2282:	34102773          	csrr	a4,mepc
    2286:	300026f3          	csrr	a3,mstatus
    228a:	7c4027f3          	csrr	a5,mxstatus
    228e:	30046673          	csrrsi	a2,mstatus,8
    2292:	30047673          	csrrci	a2,mstatus,8
    2296:	30069073          	csrw	mstatus,a3
    229a:	34171073          	csrw	mepc,a4
    229e:	7c479073          	csrw	mxstatus,a5
    22a2:	e42007b7          	lui	a5,0xe4200
    22a6:	02200713          	li	a4,34
    22aa:	c3d8                	c.sw	a4,4(a5)
    22ac:	0ff0000f          	fence
    22b0:	4632                	c.lwsp	a2,12(sp)
    22b2:	46a2                	c.lwsp	a3,8(sp)
    22b4:	4712                	c.lwsp	a4,4(sp)
    22b6:	4782                	c.lwsp	a5,0(sp)
    22b8:	01010113          	addi	sp,sp,16
    22bc:	30200073          	mret

000022c0 <entry_irq33>:
    22c0:	1141                	c.addi	sp,-16
    22c2:	c632                	c.swsp	a2,12(sp)
    22c4:	c436                	c.swsp	a3,8(sp)
    22c6:	c23a                	c.swsp	a4,4(sp)
    22c8:	c03e                	c.swsp	a5,0(sp)
    22ca:	34102773          	csrr	a4,mepc
    22ce:	300026f3          	csrr	a3,mstatus
    22d2:	7c4027f3          	csrr	a5,mxstatus
    22d6:	30046673          	csrrsi	a2,mstatus,8
    22da:	30047673          	csrrci	a2,mstatus,8
    22de:	30069073          	csrw	mstatus,a3
    22e2:	34171073          	csrw	mepc,a4
    22e6:	7c479073          	csrw	mxstatus,a5
    22ea:	e42007b7          	lui	a5,0xe4200
    22ee:	02100713          	li	a4,33
    22f2:	c3d8                	c.sw	a4,4(a5)
    22f4:	0ff0000f          	fence
    22f8:	4632                	c.lwsp	a2,12(sp)
    22fa:	46a2                	c.lwsp	a3,8(sp)
    22fc:	4712                	c.lwsp	a4,4(sp)
    22fe:	4782                	c.lwsp	a5,0(sp)
    2300:	01010113          	addi	sp,sp,16
    2304:	30200073          	mret

00002308 <entry_irq32>:
    2308:	1141                	c.addi	sp,-16
    230a:	c632                	c.swsp	a2,12(sp)
    230c:	c436                	c.swsp	a3,8(sp)
    230e:	c23a                	c.swsp	a4,4(sp)
    2310:	c03e                	c.swsp	a5,0(sp)
    2312:	34102773          	csrr	a4,mepc
    2316:	300026f3          	csrr	a3,mstatus
    231a:	7c4027f3          	csrr	a5,mxstatus
    231e:	30046673          	csrrsi	a2,mstatus,8
    2322:	30047673          	csrrci	a2,mstatus,8
    2326:	30069073          	csrw	mstatus,a3
    232a:	34171073          	csrw	mepc,a4
    232e:	7c479073          	csrw	mxstatus,a5
    2332:	e42007b7          	lui	a5,0xe4200
    2336:	02000713          	li	a4,32
    233a:	c3d8                	c.sw	a4,4(a5)
    233c:	0ff0000f          	fence
    2340:	4632                	c.lwsp	a2,12(sp)
    2342:	46a2                	c.lwsp	a3,8(sp)
    2344:	4712                	c.lwsp	a4,4(sp)
    2346:	4782                	c.lwsp	a5,0(sp)
    2348:	01010113          	addi	sp,sp,16
    234c:	30200073          	mret

00002350 <entry_irq31>:
    2350:	1141                	c.addi	sp,-16
    2352:	c632                	c.swsp	a2,12(sp)
    2354:	c436                	c.swsp	a3,8(sp)
    2356:	c23a                	c.swsp	a4,4(sp)
    2358:	c03e                	c.swsp	a5,0(sp)
    235a:	34102773          	csrr	a4,mepc
    235e:	300026f3          	csrr	a3,mstatus
    2362:	7c4027f3          	csrr	a5,mxstatus
    2366:	30046673          	csrrsi	a2,mstatus,8
    236a:	30047673          	csrrci	a2,mstatus,8
    236e:	30069073          	csrw	mstatus,a3
    2372:	34171073          	csrw	mepc,a4
    2376:	7c479073          	csrw	mxstatus,a5
    237a:	e42007b7          	lui	a5,0xe4200
    237e:	477d                	c.li	a4,31
    2380:	c3d8                	c.sw	a4,4(a5)
    2382:	0ff0000f          	fence
    2386:	4632                	c.lwsp	a2,12(sp)
    2388:	46a2                	c.lwsp	a3,8(sp)
    238a:	4712                	c.lwsp	a4,4(sp)
    238c:	4782                	c.lwsp	a5,0(sp)
    238e:	0141                	c.addi	sp,16
    2390:	30200073          	mret

00002394 <entry_irq30>:
    2394:	1141                	c.addi	sp,-16
    2396:	c632                	c.swsp	a2,12(sp)
    2398:	c436                	c.swsp	a3,8(sp)
    239a:	c23a                	c.swsp	a4,4(sp)
    239c:	c03e                	c.swsp	a5,0(sp)
    239e:	34102773          	csrr	a4,mepc
    23a2:	300026f3          	csrr	a3,mstatus
    23a6:	7c4027f3          	csrr	a5,mxstatus
    23aa:	30046673          	csrrsi	a2,mstatus,8
    23ae:	30047673          	csrrci	a2,mstatus,8
    23b2:	30069073          	csrw	mstatus,a3
    23b6:	34171073          	csrw	mepc,a4
    23ba:	7c479073          	csrw	mxstatus,a5
    23be:	e42007b7          	lui	a5,0xe4200
    23c2:	4779                	c.li	a4,30
    23c4:	c3d8                	c.sw	a4,4(a5)
    23c6:	0ff0000f          	fence
    23ca:	4632                	c.lwsp	a2,12(sp)
    23cc:	46a2                	c.lwsp	a3,8(sp)
    23ce:	4712                	c.lwsp	a4,4(sp)
    23d0:	4782                	c.lwsp	a5,0(sp)
    23d2:	0141                	c.addi	sp,16
    23d4:	30200073          	mret

000023d8 <entry_irq29>:
    23d8:	1141                	c.addi	sp,-16
    23da:	c632                	c.swsp	a2,12(sp)
    23dc:	c436                	c.swsp	a3,8(sp)
    23de:	c23a                	c.swsp	a4,4(sp)
    23e0:	c03e                	c.swsp	a5,0(sp)
    23e2:	34102773          	csrr	a4,mepc
    23e6:	300026f3          	csrr	a3,mstatus
    23ea:	7c4027f3          	csrr	a5,mxstatus
    23ee:	30046673          	csrrsi	a2,mstatus,8
    23f2:	30047673          	csrrci	a2,mstatus,8
    23f6:	30069073          	csrw	mstatus,a3
    23fa:	34171073          	csrw	mepc,a4
    23fe:	7c479073          	csrw	mxstatus,a5
    2402:	e42007b7          	lui	a5,0xe4200
    2406:	4775                	c.li	a4,29
    2408:	c3d8                	c.sw	a4,4(a5)
    240a:	0ff0000f          	fence
    240e:	4632                	c.lwsp	a2,12(sp)
    2410:	46a2                	c.lwsp	a3,8(sp)
    2412:	4712                	c.lwsp	a4,4(sp)
    2414:	4782                	c.lwsp	a5,0(sp)
    2416:	0141                	c.addi	sp,16
    2418:	30200073          	mret

0000241c <entry_irq28>:
    241c:	1141                	c.addi	sp,-16
    241e:	c632                	c.swsp	a2,12(sp)
    2420:	c436                	c.swsp	a3,8(sp)
    2422:	c23a                	c.swsp	a4,4(sp)
    2424:	c03e                	c.swsp	a5,0(sp)
    2426:	34102773          	csrr	a4,mepc
    242a:	300026f3          	csrr	a3,mstatus
    242e:	7c4027f3          	csrr	a5,mxstatus
    2432:	30046673          	csrrsi	a2,mstatus,8
    2436:	30047673          	csrrci	a2,mstatus,8
    243a:	30069073          	csrw	mstatus,a3
    243e:	34171073          	csrw	mepc,a4
    2442:	7c479073          	csrw	mxstatus,a5
    2446:	e42007b7          	lui	a5,0xe4200
    244a:	4771                	c.li	a4,28
    244c:	c3d8                	c.sw	a4,4(a5)
    244e:	0ff0000f          	fence
    2452:	4632                	c.lwsp	a2,12(sp)
    2454:	46a2                	c.lwsp	a3,8(sp)
    2456:	4712                	c.lwsp	a4,4(sp)
    2458:	4782                	c.lwsp	a5,0(sp)
    245a:	0141                	c.addi	sp,16
    245c:	30200073          	mret

00002460 <entry_irq27>:
    2460:	1141                	c.addi	sp,-16
    2462:	c632                	c.swsp	a2,12(sp)
    2464:	c436                	c.swsp	a3,8(sp)
    2466:	c23a                	c.swsp	a4,4(sp)
    2468:	c03e                	c.swsp	a5,0(sp)
    246a:	34102773          	csrr	a4,mepc
    246e:	300026f3          	csrr	a3,mstatus
    2472:	7c4027f3          	csrr	a5,mxstatus
    2476:	30046673          	csrrsi	a2,mstatus,8
    247a:	30047673          	csrrci	a2,mstatus,8
    247e:	30069073          	csrw	mstatus,a3
    2482:	34171073          	csrw	mepc,a4
    2486:	7c479073          	csrw	mxstatus,a5
    248a:	e42007b7          	lui	a5,0xe4200
    248e:	476d                	c.li	a4,27
    2490:	c3d8                	c.sw	a4,4(a5)
    2492:	0ff0000f          	fence
    2496:	4632                	c.lwsp	a2,12(sp)
    2498:	46a2                	c.lwsp	a3,8(sp)
    249a:	4712                	c.lwsp	a4,4(sp)
    249c:	4782                	c.lwsp	a5,0(sp)
    249e:	0141                	c.addi	sp,16
    24a0:	30200073          	mret

000024a4 <entry_irq26>:
    24a4:	1141                	c.addi	sp,-16
    24a6:	c632                	c.swsp	a2,12(sp)
    24a8:	c436                	c.swsp	a3,8(sp)
    24aa:	c23a                	c.swsp	a4,4(sp)
    24ac:	c03e                	c.swsp	a5,0(sp)
    24ae:	34102773          	csrr	a4,mepc
    24b2:	300026f3          	csrr	a3,mstatus
    24b6:	7c4027f3          	csrr	a5,mxstatus
    24ba:	30046673          	csrrsi	a2,mstatus,8
    24be:	30047673          	csrrci	a2,mstatus,8
    24c2:	30069073          	csrw	mstatus,a3
    24c6:	34171073          	csrw	mepc,a4
    24ca:	7c479073          	csrw	mxstatus,a5
    24ce:	e42007b7          	lui	a5,0xe4200
    24d2:	4769                	c.li	a4,26
    24d4:	c3d8                	c.sw	a4,4(a5)
    24d6:	0ff0000f          	fence
    24da:	4632                	c.lwsp	a2,12(sp)
    24dc:	46a2                	c.lwsp	a3,8(sp)
    24de:	4712                	c.lwsp	a4,4(sp)
    24e0:	4782                	c.lwsp	a5,0(sp)
    24e2:	0141                	c.addi	sp,16
    24e4:	30200073          	mret

000024e8 <entry_irq25>:
    24e8:	7135                	c.addi16sp	sp,-160
    24ea:	cf06                	c.swsp	ra,156(sp)
    24ec:	cd16                	c.swsp	t0,152(sp)
    24ee:	cb1a                	c.swsp	t1,148(sp)
    24f0:	c91e                	c.swsp	t2,144(sp)
    24f2:	c722                	c.swsp	s0,140(sp)
    24f4:	c526                	c.swsp	s1,136(sp)
    24f6:	c32a                	c.swsp	a0,132(sp)
    24f8:	c12e                	c.swsp	a1,128(sp)
    24fa:	deb2                	c.swsp	a2,124(sp)
    24fc:	dcb6                	c.swsp	a3,120(sp)
    24fe:	daba                	c.swsp	a4,116(sp)
    2500:	d8be                	c.swsp	a5,112(sp)
    2502:	d6c2                	c.swsp	a6,108(sp)
    2504:	d4c6                	c.swsp	a7,104(sp)
    2506:	d2ca                	c.swsp	s2,100(sp)
    2508:	d0f2                	c.swsp	t3,96(sp)
    250a:	cef6                	c.swsp	t4,92(sp)
    250c:	ccfa                	c.swsp	t5,88(sp)
    250e:	cafe                	c.swsp	t6,84(sp)
    2510:	e682                	c.fswsp	ft0,76(sp)
    2512:	e486                	c.fswsp	ft1,72(sp)
    2514:	e28a                	c.fswsp	ft2,68(sp)
    2516:	e08e                	c.fswsp	ft3,64(sp)
    2518:	fe12                	c.fswsp	ft4,60(sp)
    251a:	fc16                	c.fswsp	ft5,56(sp)
    251c:	fa1a                	c.fswsp	ft6,52(sp)
    251e:	f81e                	c.fswsp	ft7,48(sp)
    2520:	f62a                	c.fswsp	fa0,44(sp)
    2522:	f42e                	c.fswsp	fa1,40(sp)
    2524:	f232                	c.fswsp	fa2,36(sp)
    2526:	f036                	c.fswsp	fa3,32(sp)
    2528:	ee3a                	c.fswsp	fa4,28(sp)
    252a:	ec3e                	c.fswsp	fa5,24(sp)
    252c:	ea42                	c.fswsp	fa6,20(sp)
    252e:	e846                	c.fswsp	fa7,16(sp)
    2530:	e672                	c.fswsp	ft8,12(sp)
    2532:	e476                	c.fswsp	ft9,8(sp)
    2534:	e27a                	c.fswsp	ft10,4(sp)
    2536:	e07e                	c.fswsp	ft11,0(sp)
    2538:	341024f3          	csrr	s1,mepc
    253c:	30002973          	csrr	s2,mstatus
    2540:	7c402473          	csrr	s0,mxstatus
    2544:	300467f3          	csrrsi	a5,mstatus,8
    2548:	ab0ff0ef          	jal	ra,17f8 <gpio_irq_handler>
    254c:	300477f3          	csrrci	a5,mstatus,8
    2550:	30091073          	csrw	mstatus,s2
    2554:	34149073          	csrw	mepc,s1
    2558:	7c441073          	csrw	mxstatus,s0
    255c:	e42007b7          	lui	a5,0xe4200
    2560:	4765                	c.li	a4,25
    2562:	c3d8                	c.sw	a4,4(a5)
    2564:	0ff0000f          	fence
    2568:	443a                	c.lwsp	s0,140(sp)
    256a:	40fa                	c.lwsp	ra,156(sp)
    256c:	42ea                	c.lwsp	t0,152(sp)
    256e:	435a                	c.lwsp	t1,148(sp)
    2570:	43ca                	c.lwsp	t2,144(sp)
    2572:	44aa                	c.lwsp	s1,136(sp)
    2574:	451a                	c.lwsp	a0,132(sp)
    2576:	458a                	c.lwsp	a1,128(sp)
    2578:	5676                	c.lwsp	a2,124(sp)
    257a:	56e6                	c.lwsp	a3,120(sp)
    257c:	5756                	c.lwsp	a4,116(sp)
    257e:	57c6                	c.lwsp	a5,112(sp)
    2580:	5836                	c.lwsp	a6,108(sp)
    2582:	58a6                	c.lwsp	a7,104(sp)
    2584:	5916                	c.lwsp	s2,100(sp)
    2586:	5e06                	c.lwsp	t3,96(sp)
    2588:	4ef6                	c.lwsp	t4,92(sp)
    258a:	4f66                	c.lwsp	t5,88(sp)
    258c:	4fd6                	c.lwsp	t6,84(sp)
    258e:	6036                	c.flwsp	ft0,76(sp)
    2590:	60a6                	c.flwsp	ft1,72(sp)
    2592:	6116                	c.flwsp	ft2,68(sp)
    2594:	6186                	c.flwsp	ft3,64(sp)
    2596:	7272                	c.flwsp	ft4,60(sp)
    2598:	72e2                	c.flwsp	ft5,56(sp)
    259a:	7352                	c.flwsp	ft6,52(sp)
    259c:	73c2                	c.flwsp	ft7,48(sp)
    259e:	7532                	c.flwsp	fa0,44(sp)
    25a0:	75a2                	c.flwsp	fa1,40(sp)
    25a2:	7612                	c.flwsp	fa2,36(sp)
    25a4:	7682                	c.flwsp	fa3,32(sp)
    25a6:	6772                	c.flwsp	fa4,28(sp)
    25a8:	67e2                	c.flwsp	fa5,24(sp)
    25aa:	6852                	c.flwsp	fa6,20(sp)
    25ac:	68c2                	c.flwsp	fa7,16(sp)
    25ae:	6e32                	c.flwsp	ft8,12(sp)
    25b0:	6ea2                	c.flwsp	ft9,8(sp)
    25b2:	6f12                	c.flwsp	ft10,4(sp)
    25b4:	6f82                	c.flwsp	ft11,0(sp)
    25b6:	610d                	c.addi16sp	sp,160
    25b8:	30200073          	mret

000025bc <entry_irq24>:
    25bc:	1141                	c.addi	sp,-16
    25be:	c632                	c.swsp	a2,12(sp)
    25c0:	c436                	c.swsp	a3,8(sp)
    25c2:	c23a                	c.swsp	a4,4(sp)
    25c4:	c03e                	c.swsp	a5,0(sp)
    25c6:	34102773          	csrr	a4,mepc
    25ca:	300026f3          	csrr	a3,mstatus
    25ce:	7c4027f3          	csrr	a5,mxstatus
    25d2:	30046673          	csrrsi	a2,mstatus,8
    25d6:	30047673          	csrrci	a2,mstatus,8
    25da:	30069073          	csrw	mstatus,a3
    25de:	34171073          	csrw	mepc,a4
    25e2:	7c479073          	csrw	mxstatus,a5
    25e6:	e42007b7          	lui	a5,0xe4200
    25ea:	4761                	c.li	a4,24
    25ec:	c3d8                	c.sw	a4,4(a5)
    25ee:	0ff0000f          	fence
    25f2:	4632                	c.lwsp	a2,12(sp)
    25f4:	46a2                	c.lwsp	a3,8(sp)
    25f6:	4712                	c.lwsp	a4,4(sp)
    25f8:	4782                	c.lwsp	a5,0(sp)
    25fa:	0141                	c.addi	sp,16
    25fc:	30200073          	mret

00002600 <entry_irq23>:
    2600:	1141                	c.addi	sp,-16
    2602:	c632                	c.swsp	a2,12(sp)
    2604:	c436                	c.swsp	a3,8(sp)
    2606:	c23a                	c.swsp	a4,4(sp)
    2608:	c03e                	c.swsp	a5,0(sp)
    260a:	34102773          	csrr	a4,mepc
    260e:	300026f3          	csrr	a3,mstatus
    2612:	7c4027f3          	csrr	a5,mxstatus
    2616:	30046673          	csrrsi	a2,mstatus,8
    261a:	30047673          	csrrci	a2,mstatus,8
    261e:	30069073          	csrw	mstatus,a3
    2622:	34171073          	csrw	mepc,a4
    2626:	7c479073          	csrw	mxstatus,a5
    262a:	e42007b7          	lui	a5,0xe4200
    262e:	475d                	c.li	a4,23
    2630:	c3d8                	c.sw	a4,4(a5)
    2632:	0ff0000f          	fence
    2636:	4632                	c.lwsp	a2,12(sp)
    2638:	46a2                	c.lwsp	a3,8(sp)
    263a:	4712                	c.lwsp	a4,4(sp)
    263c:	4782                	c.lwsp	a5,0(sp)
    263e:	0141                	c.addi	sp,16
    2640:	30200073          	mret

00002644 <entry_irq22>:
    2644:	1141                	c.addi	sp,-16
    2646:	c632                	c.swsp	a2,12(sp)
    2648:	c436                	c.swsp	a3,8(sp)
    264a:	c23a                	c.swsp	a4,4(sp)
    264c:	c03e                	c.swsp	a5,0(sp)
    264e:	34102773          	csrr	a4,mepc
    2652:	300026f3          	csrr	a3,mstatus
    2656:	7c4027f3          	csrr	a5,mxstatus
    265a:	30046673          	csrrsi	a2,mstatus,8
    265e:	30047673          	csrrci	a2,mstatus,8
    2662:	30069073          	csrw	mstatus,a3
    2666:	34171073          	csrw	mepc,a4
    266a:	7c479073          	csrw	mxstatus,a5
    266e:	e42007b7          	lui	a5,0xe4200
    2672:	4759                	c.li	a4,22
    2674:	c3d8                	c.sw	a4,4(a5)
    2676:	0ff0000f          	fence
    267a:	4632                	c.lwsp	a2,12(sp)
    267c:	46a2                	c.lwsp	a3,8(sp)
    267e:	4712                	c.lwsp	a4,4(sp)
    2680:	4782                	c.lwsp	a5,0(sp)
    2682:	0141                	c.addi	sp,16
    2684:	30200073          	mret

00002688 <entry_irq21>:
    2688:	1141                	c.addi	sp,-16
    268a:	c632                	c.swsp	a2,12(sp)
    268c:	c436                	c.swsp	a3,8(sp)
    268e:	c23a                	c.swsp	a4,4(sp)
    2690:	c03e                	c.swsp	a5,0(sp)
    2692:	34102773          	csrr	a4,mepc
    2696:	300026f3          	csrr	a3,mstatus
    269a:	7c4027f3          	csrr	a5,mxstatus
    269e:	30046673          	csrrsi	a2,mstatus,8
    26a2:	30047673          	csrrci	a2,mstatus,8
    26a6:	30069073          	csrw	mstatus,a3
    26aa:	34171073          	csrw	mepc,a4
    26ae:	7c479073          	csrw	mxstatus,a5
    26b2:	e42007b7          	lui	a5,0xe4200
    26b6:	4755                	c.li	a4,21
    26b8:	c3d8                	c.sw	a4,4(a5)
    26ba:	0ff0000f          	fence
    26be:	4632                	c.lwsp	a2,12(sp)
    26c0:	46a2                	c.lwsp	a3,8(sp)
    26c2:	4712                	c.lwsp	a4,4(sp)
    26c4:	4782                	c.lwsp	a5,0(sp)
    26c6:	0141                	c.addi	sp,16
    26c8:	30200073          	mret

000026cc <entry_irq20>:
    26cc:	1141                	c.addi	sp,-16
    26ce:	c632                	c.swsp	a2,12(sp)
    26d0:	c436                	c.swsp	a3,8(sp)
    26d2:	c23a                	c.swsp	a4,4(sp)
    26d4:	c03e                	c.swsp	a5,0(sp)
    26d6:	34102773          	csrr	a4,mepc
    26da:	300026f3          	csrr	a3,mstatus
    26de:	7c4027f3          	csrr	a5,mxstatus
    26e2:	30046673          	csrrsi	a2,mstatus,8
    26e6:	30047673          	csrrci	a2,mstatus,8
    26ea:	30069073          	csrw	mstatus,a3
    26ee:	34171073          	csrw	mepc,a4
    26f2:	7c479073          	csrw	mxstatus,a5
    26f6:	e42007b7          	lui	a5,0xe4200
    26fa:	4751                	c.li	a4,20
    26fc:	c3d8                	c.sw	a4,4(a5)
    26fe:	0ff0000f          	fence
    2702:	4632                	c.lwsp	a2,12(sp)
    2704:	46a2                	c.lwsp	a3,8(sp)
    2706:	4712                	c.lwsp	a4,4(sp)
    2708:	4782                	c.lwsp	a5,0(sp)
    270a:	0141                	c.addi	sp,16
    270c:	30200073          	mret

00002710 <entry_irq19>:
    2710:	1141                	c.addi	sp,-16
    2712:	c632                	c.swsp	a2,12(sp)
    2714:	c436                	c.swsp	a3,8(sp)
    2716:	c23a                	c.swsp	a4,4(sp)
    2718:	c03e                	c.swsp	a5,0(sp)
    271a:	34102773          	csrr	a4,mepc
    271e:	300026f3          	csrr	a3,mstatus
    2722:	7c4027f3          	csrr	a5,mxstatus
    2726:	30046673          	csrrsi	a2,mstatus,8
    272a:	30047673          	csrrci	a2,mstatus,8
    272e:	30069073          	csrw	mstatus,a3
    2732:	34171073          	csrw	mepc,a4
    2736:	7c479073          	csrw	mxstatus,a5
    273a:	e42007b7          	lui	a5,0xe4200
    273e:	474d                	c.li	a4,19
    2740:	c3d8                	c.sw	a4,4(a5)
    2742:	0ff0000f          	fence
    2746:	4632                	c.lwsp	a2,12(sp)
    2748:	46a2                	c.lwsp	a3,8(sp)
    274a:	4712                	c.lwsp	a4,4(sp)
    274c:	4782                	c.lwsp	a5,0(sp)
    274e:	0141                	c.addi	sp,16
    2750:	30200073          	mret

00002754 <entry_irq18>:
    2754:	7135                	c.addi16sp	sp,-160
    2756:	cf06                	c.swsp	ra,156(sp)
    2758:	cd16                	c.swsp	t0,152(sp)
    275a:	cb1a                	c.swsp	t1,148(sp)
    275c:	c91e                	c.swsp	t2,144(sp)
    275e:	c722                	c.swsp	s0,140(sp)
    2760:	c526                	c.swsp	s1,136(sp)
    2762:	c32a                	c.swsp	a0,132(sp)
    2764:	c12e                	c.swsp	a1,128(sp)
    2766:	deb2                	c.swsp	a2,124(sp)
    2768:	dcb6                	c.swsp	a3,120(sp)
    276a:	daba                	c.swsp	a4,116(sp)
    276c:	d8be                	c.swsp	a5,112(sp)
    276e:	d6c2                	c.swsp	a6,108(sp)
    2770:	d4c6                	c.swsp	a7,104(sp)
    2772:	d2ca                	c.swsp	s2,100(sp)
    2774:	d0ce                	c.swsp	s3,96(sp)
    2776:	cef2                	c.swsp	t3,92(sp)
    2778:	ccf6                	c.swsp	t4,88(sp)
    277a:	cafa                	c.swsp	t5,84(sp)
    277c:	c8fe                	c.swsp	t6,80(sp)
    277e:	e682                	c.fswsp	ft0,76(sp)
    2780:	e486                	c.fswsp	ft1,72(sp)
    2782:	e28a                	c.fswsp	ft2,68(sp)
    2784:	e08e                	c.fswsp	ft3,64(sp)
    2786:	fe12                	c.fswsp	ft4,60(sp)
    2788:	fc16                	c.fswsp	ft5,56(sp)
    278a:	fa1a                	c.fswsp	ft6,52(sp)
    278c:	f81e                	c.fswsp	ft7,48(sp)
    278e:	f62a                	c.fswsp	fa0,44(sp)
    2790:	f42e                	c.fswsp	fa1,40(sp)
    2792:	f232                	c.fswsp	fa2,36(sp)
    2794:	f036                	c.fswsp	fa3,32(sp)
    2796:	ee3a                	c.fswsp	fa4,28(sp)
    2798:	ec3e                	c.fswsp	fa5,24(sp)
    279a:	ea42                	c.fswsp	fa6,20(sp)
    279c:	e846                	c.fswsp	fa7,16(sp)
    279e:	e672                	c.fswsp	ft8,12(sp)
    27a0:	e476                	c.fswsp	ft9,8(sp)
    27a2:	e27a                	c.fswsp	ft10,4(sp)
    27a4:	e07e                	c.fswsp	ft11,0(sp)
    27a6:	34102973          	csrr	s2,mepc
    27aa:	300029f3          	csrr	s3,mstatus
    27ae:	7c4024f3          	csrr	s1,mxstatus
    27b2:	300467f3          	csrrsi	a5,mstatus,8
    27b6:	80140437          	lui	s0,0x80140
    27ba:	0ce40703          	lb	a4,206(s0) # 801400ce <_DATA_LMA_START+0x60137cd6>
    27be:	0ff77793          	andi	a5,a4,255
    27c2:	4a37f35b          	bbs	a5,3,2868 <entry_irq18+0x114>
    27c6:	4007ff5b          	bbs	a5,0,27e4 <entry_irq18+0x90>
    27ca:	4a27ff5b          	bbs	a5,2,2888 <entry_irq18+0x134>
    27ce:	0277735b          	bbc	a4,7,27f4 <entry_irq18+0xa0>
    27d2:	0cd40783          	lb	a5,205(s0)
    27d6:	0ff7f793          	andi	a5,a5,255
    27da:	0407e793          	ori	a5,a5,64
    27de:	0cf406a3          	sb	a5,205(s0)
    27e2:	a809                	c.j	27f4 <entry_irq18+0xa0>
    27e4:	0cf40783          	lb	a5,207(s0)
    27e8:	f807e793          	ori	a5,a5,-128
    27ec:	0ff7f793          	andi	a5,a5,255
    27f0:	0cf407a3          	sb	a5,207(s0)
    27f4:	300477f3          	csrrci	a5,mstatus,8
    27f8:	30099073          	csrw	mstatus,s3
    27fc:	34191073          	csrw	mepc,s2
    2800:	7c449073          	csrw	mxstatus,s1
    2804:	e42007b7          	lui	a5,0xe4200
    2808:	4749                	c.li	a4,18
    280a:	c3d8                	c.sw	a4,4(a5)
    280c:	0ff0000f          	fence
    2810:	443a                	c.lwsp	s0,140(sp)
    2812:	40fa                	c.lwsp	ra,156(sp)
    2814:	42ea                	c.lwsp	t0,152(sp)
    2816:	435a                	c.lwsp	t1,148(sp)
    2818:	43ca                	c.lwsp	t2,144(sp)
    281a:	44aa                	c.lwsp	s1,136(sp)
    281c:	451a                	c.lwsp	a0,132(sp)
    281e:	458a                	c.lwsp	a1,128(sp)
    2820:	5676                	c.lwsp	a2,124(sp)
    2822:	56e6                	c.lwsp	a3,120(sp)
    2824:	5756                	c.lwsp	a4,116(sp)
    2826:	57c6                	c.lwsp	a5,112(sp)
    2828:	5836                	c.lwsp	a6,108(sp)
    282a:	58a6                	c.lwsp	a7,104(sp)
    282c:	5916                	c.lwsp	s2,100(sp)
    282e:	5986                	c.lwsp	s3,96(sp)
    2830:	4e76                	c.lwsp	t3,92(sp)
    2832:	4ee6                	c.lwsp	t4,88(sp)
    2834:	4f56                	c.lwsp	t5,84(sp)
    2836:	4fc6                	c.lwsp	t6,80(sp)
    2838:	6036                	c.flwsp	ft0,76(sp)
    283a:	60a6                	c.flwsp	ft1,72(sp)
    283c:	6116                	c.flwsp	ft2,68(sp)
    283e:	6186                	c.flwsp	ft3,64(sp)
    2840:	7272                	c.flwsp	ft4,60(sp)
    2842:	72e2                	c.flwsp	ft5,56(sp)
    2844:	7352                	c.flwsp	ft6,52(sp)
    2846:	73c2                	c.flwsp	ft7,48(sp)
    2848:	7532                	c.flwsp	fa0,44(sp)
    284a:	75a2                	c.flwsp	fa1,40(sp)
    284c:	7612                	c.flwsp	fa2,36(sp)
    284e:	7682                	c.flwsp	fa3,32(sp)
    2850:	6772                	c.flwsp	fa4,28(sp)
    2852:	67e2                	c.flwsp	fa5,24(sp)
    2854:	6852                	c.flwsp	fa6,20(sp)
    2856:	68c2                	c.flwsp	fa7,16(sp)
    2858:	6e32                	c.flwsp	ft8,12(sp)
    285a:	6ea2                	c.flwsp	ft9,8(sp)
    285c:	6f12                	c.flwsp	ft10,4(sp)
    285e:	6f82                	c.flwsp	ft11,0(sp)
    2860:	0a010113          	addi	sp,sp,160
    2864:	30200073          	mret
    2868:	0cd40783          	lb	a5,205(s0)
    286c:	0ff7f793          	andi	a5,a5,255
    2870:	0407e793          	ori	a5,a5,64
    2874:	0cf406a3          	sb	a5,205(s0)
    2878:	0cb40783          	lb	a5,203(s0)
    287c:	0bf7f793          	andi	a5,a5,191
    2880:	0cf405a3          	sb	a5,203(s0)
    2884:	f71ff06f          	j	27f4 <entry_irq18+0xa0>
    2888:	20001097          	auipc	ra,0x20001
    288c:	71c080e7          	jalr	1820(ra) # 20003fa4 <dfu_uart_receive>
    2890:	0cd40783          	lb	a5,205(s0)
    2894:	0ff7f793          	andi	a5,a5,255
    2898:	0407e793          	ori	a5,a5,64
    289c:	0cf406a3          	sb	a5,205(s0)
    28a0:	f55ff06f          	j	27f4 <entry_irq18+0xa0>

000028a4 <entry_irq17>:
    28a4:	1141                	c.addi	sp,-16
    28a6:	c632                	c.swsp	a2,12(sp)
    28a8:	c436                	c.swsp	a3,8(sp)
    28aa:	c23a                	c.swsp	a4,4(sp)
    28ac:	c03e                	c.swsp	a5,0(sp)
    28ae:	34102773          	csrr	a4,mepc
    28b2:	300026f3          	csrr	a3,mstatus
    28b6:	7c4027f3          	csrr	a5,mxstatus
    28ba:	30046673          	csrrsi	a2,mstatus,8
    28be:	30047673          	csrrci	a2,mstatus,8
    28c2:	30069073          	csrw	mstatus,a3
    28c6:	34171073          	csrw	mepc,a4
    28ca:	7c479073          	csrw	mxstatus,a5
    28ce:	e42007b7          	lui	a5,0xe4200
    28d2:	4745                	c.li	a4,17
    28d4:	c3d8                	c.sw	a4,4(a5)
    28d6:	0ff0000f          	fence
    28da:	4632                	c.lwsp	a2,12(sp)
    28dc:	46a2                	c.lwsp	a3,8(sp)
    28de:	4712                	c.lwsp	a4,4(sp)
    28e0:	4782                	c.lwsp	a5,0(sp)
    28e2:	0141                	c.addi	sp,16
    28e4:	30200073          	mret

000028e8 <entry_irq16>:
    28e8:	1141                	c.addi	sp,-16
    28ea:	c632                	c.swsp	a2,12(sp)
    28ec:	c436                	c.swsp	a3,8(sp)
    28ee:	c23a                	c.swsp	a4,4(sp)
    28f0:	c03e                	c.swsp	a5,0(sp)
    28f2:	34102773          	csrr	a4,mepc
    28f6:	300026f3          	csrr	a3,mstatus
    28fa:	7c4027f3          	csrr	a5,mxstatus
    28fe:	30046673          	csrrsi	a2,mstatus,8
    2902:	30047673          	csrrci	a2,mstatus,8
    2906:	30069073          	csrw	mstatus,a3
    290a:	34171073          	csrw	mepc,a4
    290e:	7c479073          	csrw	mxstatus,a5
    2912:	e42007b7          	lui	a5,0xe4200
    2916:	4741                	c.li	a4,16
    2918:	c3d8                	c.sw	a4,4(a5)
    291a:	0ff0000f          	fence
    291e:	4632                	c.lwsp	a2,12(sp)
    2920:	46a2                	c.lwsp	a3,8(sp)
    2922:	4712                	c.lwsp	a4,4(sp)
    2924:	4782                	c.lwsp	a5,0(sp)
    2926:	0141                	c.addi	sp,16
    2928:	30200073          	mret

0000292c <entry_irq15>:
    292c:	7135                	c.addi16sp	sp,-160
    292e:	cf06                	c.swsp	ra,156(sp)
    2930:	cd16                	c.swsp	t0,152(sp)
    2932:	cb1a                	c.swsp	t1,148(sp)
    2934:	c91e                	c.swsp	t2,144(sp)
    2936:	c722                	c.swsp	s0,140(sp)
    2938:	c526                	c.swsp	s1,136(sp)
    293a:	c32a                	c.swsp	a0,132(sp)
    293c:	c12e                	c.swsp	a1,128(sp)
    293e:	deb2                	c.swsp	a2,124(sp)
    2940:	dcb6                	c.swsp	a3,120(sp)
    2942:	daba                	c.swsp	a4,116(sp)
    2944:	d8be                	c.swsp	a5,112(sp)
    2946:	d6c2                	c.swsp	a6,108(sp)
    2948:	d4c6                	c.swsp	a7,104(sp)
    294a:	d2ca                	c.swsp	s2,100(sp)
    294c:	d0f2                	c.swsp	t3,96(sp)
    294e:	cef6                	c.swsp	t4,92(sp)
    2950:	ccfa                	c.swsp	t5,88(sp)
    2952:	cafe                	c.swsp	t6,84(sp)
    2954:	e682                	c.fswsp	ft0,76(sp)
    2956:	e486                	c.fswsp	ft1,72(sp)
    2958:	e28a                	c.fswsp	ft2,68(sp)
    295a:	e08e                	c.fswsp	ft3,64(sp)
    295c:	fe12                	c.fswsp	ft4,60(sp)
    295e:	fc16                	c.fswsp	ft5,56(sp)
    2960:	fa1a                	c.fswsp	ft6,52(sp)
    2962:	f81e                	c.fswsp	ft7,48(sp)
    2964:	f62a                	c.fswsp	fa0,44(sp)
    2966:	f42e                	c.fswsp	fa1,40(sp)
    2968:	f232                	c.fswsp	fa2,36(sp)
    296a:	f036                	c.fswsp	fa3,32(sp)
    296c:	ee3a                	c.fswsp	fa4,28(sp)
    296e:	ec3e                	c.fswsp	fa5,24(sp)
    2970:	ea42                	c.fswsp	fa6,20(sp)
    2972:	e846                	c.fswsp	fa7,16(sp)
    2974:	e672                	c.fswsp	ft8,12(sp)
    2976:	e476                	c.fswsp	ft9,8(sp)
    2978:	e27a                	c.fswsp	ft10,4(sp)
    297a:	e07e                	c.fswsp	ft11,0(sp)
    297c:	341024f3          	csrr	s1,mepc
    2980:	30002973          	csrr	s2,mstatus
    2984:	7c402473          	csrr	s0,mxstatus
    2988:	300467f3          	csrrsi	a5,mstatus,8
    298c:	e4dfd0ef          	jal	ra,7d8 <rf_irq_handler>
    2990:	300477f3          	csrrci	a5,mstatus,8
    2994:	30091073          	csrw	mstatus,s2
    2998:	34149073          	csrw	mepc,s1
    299c:	7c441073          	csrw	mxstatus,s0
    29a0:	e42007b7          	lui	a5,0xe4200
    29a4:	473d                	c.li	a4,15
    29a6:	c3d8                	c.sw	a4,4(a5)
    29a8:	0ff0000f          	fence
    29ac:	443a                	c.lwsp	s0,140(sp)
    29ae:	40fa                	c.lwsp	ra,156(sp)
    29b0:	42ea                	c.lwsp	t0,152(sp)
    29b2:	435a                	c.lwsp	t1,148(sp)
    29b4:	43ca                	c.lwsp	t2,144(sp)
    29b6:	44aa                	c.lwsp	s1,136(sp)
    29b8:	451a                	c.lwsp	a0,132(sp)
    29ba:	458a                	c.lwsp	a1,128(sp)
    29bc:	5676                	c.lwsp	a2,124(sp)
    29be:	56e6                	c.lwsp	a3,120(sp)
    29c0:	5756                	c.lwsp	a4,116(sp)
    29c2:	57c6                	c.lwsp	a5,112(sp)
    29c4:	5836                	c.lwsp	a6,108(sp)
    29c6:	58a6                	c.lwsp	a7,104(sp)
    29c8:	5916                	c.lwsp	s2,100(sp)
    29ca:	5e06                	c.lwsp	t3,96(sp)
    29cc:	4ef6                	c.lwsp	t4,92(sp)
    29ce:	4f66                	c.lwsp	t5,88(sp)
    29d0:	4fd6                	c.lwsp	t6,84(sp)
    29d2:	6036                	c.flwsp	ft0,76(sp)
    29d4:	60a6                	c.flwsp	ft1,72(sp)
    29d6:	6116                	c.flwsp	ft2,68(sp)
    29d8:	6186                	c.flwsp	ft3,64(sp)
    29da:	7272                	c.flwsp	ft4,60(sp)
    29dc:	72e2                	c.flwsp	ft5,56(sp)
    29de:	7352                	c.flwsp	ft6,52(sp)
    29e0:	73c2                	c.flwsp	ft7,48(sp)
    29e2:	7532                	c.flwsp	fa0,44(sp)
    29e4:	75a2                	c.flwsp	fa1,40(sp)
    29e6:	7612                	c.flwsp	fa2,36(sp)
    29e8:	7682                	c.flwsp	fa3,32(sp)
    29ea:	6772                	c.flwsp	fa4,28(sp)
    29ec:	67e2                	c.flwsp	fa5,24(sp)
    29ee:	6852                	c.flwsp	fa6,20(sp)
    29f0:	68c2                	c.flwsp	fa7,16(sp)
    29f2:	6e32                	c.flwsp	ft8,12(sp)
    29f4:	6ea2                	c.flwsp	ft9,8(sp)
    29f6:	6f12                	c.flwsp	ft10,4(sp)
    29f8:	6f82                	c.flwsp	ft11,0(sp)
    29fa:	610d                	c.addi16sp	sp,160
    29fc:	30200073          	mret

00002a00 <entry_irq14>:
    2a00:	1141                	c.addi	sp,-16
    2a02:	c632                	c.swsp	a2,12(sp)
    2a04:	c436                	c.swsp	a3,8(sp)
    2a06:	c23a                	c.swsp	a4,4(sp)
    2a08:	c03e                	c.swsp	a5,0(sp)
    2a0a:	34102773          	csrr	a4,mepc
    2a0e:	300026f3          	csrr	a3,mstatus
    2a12:	7c4027f3          	csrr	a5,mxstatus
    2a16:	30046673          	csrrsi	a2,mstatus,8
    2a1a:	30047673          	csrrci	a2,mstatus,8
    2a1e:	30069073          	csrw	mstatus,a3
    2a22:	34171073          	csrw	mepc,a4
    2a26:	7c479073          	csrw	mxstatus,a5
    2a2a:	e42007b7          	lui	a5,0xe4200
    2a2e:	4739                	c.li	a4,14
    2a30:	c3d8                	c.sw	a4,4(a5)
    2a32:	0ff0000f          	fence
    2a36:	4632                	c.lwsp	a2,12(sp)
    2a38:	46a2                	c.lwsp	a3,8(sp)
    2a3a:	4712                	c.lwsp	a4,4(sp)
    2a3c:	4782                	c.lwsp	a5,0(sp)
    2a3e:	0141                	c.addi	sp,16
    2a40:	30200073          	mret

00002a44 <entry_irq13>:
    2a44:	1141                	c.addi	sp,-16
    2a46:	c632                	c.swsp	a2,12(sp)
    2a48:	c436                	c.swsp	a3,8(sp)
    2a4a:	c23a                	c.swsp	a4,4(sp)
    2a4c:	c03e                	c.swsp	a5,0(sp)
    2a4e:	34102773          	csrr	a4,mepc
    2a52:	300026f3          	csrr	a3,mstatus
    2a56:	7c4027f3          	csrr	a5,mxstatus
    2a5a:	30046673          	csrrsi	a2,mstatus,8
    2a5e:	30047673          	csrrci	a2,mstatus,8
    2a62:	30069073          	csrw	mstatus,a3
    2a66:	34171073          	csrw	mepc,a4
    2a6a:	7c479073          	csrw	mxstatus,a5
    2a6e:	e42007b7          	lui	a5,0xe4200
    2a72:	4735                	c.li	a4,13
    2a74:	c3d8                	c.sw	a4,4(a5)
    2a76:	0ff0000f          	fence
    2a7a:	4632                	c.lwsp	a2,12(sp)
    2a7c:	46a2                	c.lwsp	a3,8(sp)
    2a7e:	4712                	c.lwsp	a4,4(sp)
    2a80:	4782                	c.lwsp	a5,0(sp)
    2a82:	0141                	c.addi	sp,16
    2a84:	30200073          	mret

00002a88 <entry_irq12>:
    2a88:	1141                	c.addi	sp,-16
    2a8a:	c632                	c.swsp	a2,12(sp)
    2a8c:	c436                	c.swsp	a3,8(sp)
    2a8e:	c23a                	c.swsp	a4,4(sp)
    2a90:	c03e                	c.swsp	a5,0(sp)
    2a92:	34102773          	csrr	a4,mepc
    2a96:	300026f3          	csrr	a3,mstatus
    2a9a:	7c4027f3          	csrr	a5,mxstatus
    2a9e:	30046673          	csrrsi	a2,mstatus,8
    2aa2:	30047673          	csrrci	a2,mstatus,8
    2aa6:	30069073          	csrw	mstatus,a3
    2aaa:	34171073          	csrw	mepc,a4
    2aae:	7c479073          	csrw	mxstatus,a5
    2ab2:	e42007b7          	lui	a5,0xe4200
    2ab6:	4731                	c.li	a4,12
    2ab8:	c3d8                	c.sw	a4,4(a5)
    2aba:	0ff0000f          	fence
    2abe:	4632                	c.lwsp	a2,12(sp)
    2ac0:	46a2                	c.lwsp	a3,8(sp)
    2ac2:	4712                	c.lwsp	a4,4(sp)
    2ac4:	4782                	c.lwsp	a5,0(sp)
    2ac6:	0141                	c.addi	sp,16
    2ac8:	30200073          	mret

00002acc <entry_irq11>:
    2acc:	1141                	c.addi	sp,-16
    2ace:	c632                	c.swsp	a2,12(sp)
    2ad0:	c436                	c.swsp	a3,8(sp)
    2ad2:	c23a                	c.swsp	a4,4(sp)
    2ad4:	c03e                	c.swsp	a5,0(sp)
    2ad6:	34102773          	csrr	a4,mepc
    2ada:	300026f3          	csrr	a3,mstatus
    2ade:	7c4027f3          	csrr	a5,mxstatus
    2ae2:	30046673          	csrrsi	a2,mstatus,8
    2ae6:	30047673          	csrrci	a2,mstatus,8
    2aea:	30069073          	csrw	mstatus,a3
    2aee:	34171073          	csrw	mepc,a4
    2af2:	7c479073          	csrw	mxstatus,a5
    2af6:	e42007b7          	lui	a5,0xe4200
    2afa:	472d                	c.li	a4,11
    2afc:	c3d8                	c.sw	a4,4(a5)
    2afe:	0ff0000f          	fence
    2b02:	4632                	c.lwsp	a2,12(sp)
    2b04:	46a2                	c.lwsp	a3,8(sp)
    2b06:	4712                	c.lwsp	a4,4(sp)
    2b08:	4782                	c.lwsp	a5,0(sp)
    2b0a:	0141                	c.addi	sp,16
    2b0c:	30200073          	mret

00002b10 <entry_irq10>:
    2b10:	1141                	c.addi	sp,-16
    2b12:	c632                	c.swsp	a2,12(sp)
    2b14:	c436                	c.swsp	a3,8(sp)
    2b16:	c23a                	c.swsp	a4,4(sp)
    2b18:	c03e                	c.swsp	a5,0(sp)
    2b1a:	34102773          	csrr	a4,mepc
    2b1e:	300026f3          	csrr	a3,mstatus
    2b22:	7c4027f3          	csrr	a5,mxstatus
    2b26:	30046673          	csrrsi	a2,mstatus,8
    2b2a:	30047673          	csrrci	a2,mstatus,8
    2b2e:	30069073          	csrw	mstatus,a3
    2b32:	34171073          	csrw	mepc,a4
    2b36:	7c479073          	csrw	mxstatus,a5
    2b3a:	e42007b7          	lui	a5,0xe4200
    2b3e:	4729                	c.li	a4,10
    2b40:	c3d8                	c.sw	a4,4(a5)
    2b42:	0ff0000f          	fence
    2b46:	4632                	c.lwsp	a2,12(sp)
    2b48:	46a2                	c.lwsp	a3,8(sp)
    2b4a:	4712                	c.lwsp	a4,4(sp)
    2b4c:	4782                	c.lwsp	a5,0(sp)
    2b4e:	0141                	c.addi	sp,16
    2b50:	30200073          	mret

00002b54 <entry_irq9>:
    2b54:	1141                	c.addi	sp,-16
    2b56:	c632                	c.swsp	a2,12(sp)
    2b58:	c436                	c.swsp	a3,8(sp)
    2b5a:	c23a                	c.swsp	a4,4(sp)
    2b5c:	c03e                	c.swsp	a5,0(sp)
    2b5e:	34102773          	csrr	a4,mepc
    2b62:	300026f3          	csrr	a3,mstatus
    2b66:	7c4027f3          	csrr	a5,mxstatus
    2b6a:	30046673          	csrrsi	a2,mstatus,8
    2b6e:	30047673          	csrrci	a2,mstatus,8
    2b72:	30069073          	csrw	mstatus,a3
    2b76:	34171073          	csrw	mepc,a4
    2b7a:	7c479073          	csrw	mxstatus,a5
    2b7e:	e42007b7          	lui	a5,0xe4200
    2b82:	4725                	c.li	a4,9
    2b84:	c3d8                	c.sw	a4,4(a5)
    2b86:	0ff0000f          	fence
    2b8a:	4632                	c.lwsp	a2,12(sp)
    2b8c:	46a2                	c.lwsp	a3,8(sp)
    2b8e:	4712                	c.lwsp	a4,4(sp)
    2b90:	4782                	c.lwsp	a5,0(sp)
    2b92:	0141                	c.addi	sp,16
    2b94:	30200073          	mret

00002b98 <entry_irq8>:
    2b98:	1141                	c.addi	sp,-16
    2b9a:	c632                	c.swsp	a2,12(sp)
    2b9c:	c436                	c.swsp	a3,8(sp)
    2b9e:	c23a                	c.swsp	a4,4(sp)
    2ba0:	c03e                	c.swsp	a5,0(sp)
    2ba2:	34102773          	csrr	a4,mepc
    2ba6:	300026f3          	csrr	a3,mstatus
    2baa:	7c4027f3          	csrr	a5,mxstatus
    2bae:	30046673          	csrrsi	a2,mstatus,8
    2bb2:	30047673          	csrrci	a2,mstatus,8
    2bb6:	30069073          	csrw	mstatus,a3
    2bba:	34171073          	csrw	mepc,a4
    2bbe:	7c479073          	csrw	mxstatus,a5
    2bc2:	e42007b7          	lui	a5,0xe4200
    2bc6:	4721                	c.li	a4,8
    2bc8:	c3d8                	c.sw	a4,4(a5)
    2bca:	0ff0000f          	fence
    2bce:	4632                	c.lwsp	a2,12(sp)
    2bd0:	46a2                	c.lwsp	a3,8(sp)
    2bd2:	4712                	c.lwsp	a4,4(sp)
    2bd4:	4782                	c.lwsp	a5,0(sp)
    2bd6:	0141                	c.addi	sp,16
    2bd8:	30200073          	mret

00002bdc <entry_irq7>:
    2bdc:	1141                	c.addi	sp,-16
    2bde:	c632                	c.swsp	a2,12(sp)
    2be0:	c436                	c.swsp	a3,8(sp)
    2be2:	c23a                	c.swsp	a4,4(sp)
    2be4:	c03e                	c.swsp	a5,0(sp)
    2be6:	34102773          	csrr	a4,mepc
    2bea:	300026f3          	csrr	a3,mstatus
    2bee:	7c4027f3          	csrr	a5,mxstatus
    2bf2:	30046673          	csrrsi	a2,mstatus,8
    2bf6:	30047673          	csrrci	a2,mstatus,8
    2bfa:	30069073          	csrw	mstatus,a3
    2bfe:	34171073          	csrw	mepc,a4
    2c02:	7c479073          	csrw	mxstatus,a5
    2c06:	e42007b7          	lui	a5,0xe4200
    2c0a:	471d                	c.li	a4,7
    2c0c:	c3d8                	c.sw	a4,4(a5)
    2c0e:	0ff0000f          	fence
    2c12:	4632                	c.lwsp	a2,12(sp)
    2c14:	46a2                	c.lwsp	a3,8(sp)
    2c16:	4712                	c.lwsp	a4,4(sp)
    2c18:	4782                	c.lwsp	a5,0(sp)
    2c1a:	0141                	c.addi	sp,16
    2c1c:	30200073          	mret

00002c20 <entry_irq6>:
    2c20:	1141                	c.addi	sp,-16
    2c22:	c632                	c.swsp	a2,12(sp)
    2c24:	c436                	c.swsp	a3,8(sp)
    2c26:	c23a                	c.swsp	a4,4(sp)
    2c28:	c03e                	c.swsp	a5,0(sp)
    2c2a:	34102773          	csrr	a4,mepc
    2c2e:	300026f3          	csrr	a3,mstatus
    2c32:	7c4027f3          	csrr	a5,mxstatus
    2c36:	30046673          	csrrsi	a2,mstatus,8
    2c3a:	30047673          	csrrci	a2,mstatus,8
    2c3e:	30069073          	csrw	mstatus,a3
    2c42:	34171073          	csrw	mepc,a4
    2c46:	7c479073          	csrw	mxstatus,a5
    2c4a:	e42007b7          	lui	a5,0xe4200
    2c4e:	4719                	c.li	a4,6
    2c50:	c3d8                	c.sw	a4,4(a5)
    2c52:	0ff0000f          	fence
    2c56:	4632                	c.lwsp	a2,12(sp)
    2c58:	46a2                	c.lwsp	a3,8(sp)
    2c5a:	4712                	c.lwsp	a4,4(sp)
    2c5c:	4782                	c.lwsp	a5,0(sp)
    2c5e:	0141                	c.addi	sp,16
    2c60:	30200073          	mret

00002c64 <entry_irq5>:
    2c64:	1141                	c.addi	sp,-16
    2c66:	c632                	c.swsp	a2,12(sp)
    2c68:	c436                	c.swsp	a3,8(sp)
    2c6a:	c23a                	c.swsp	a4,4(sp)
    2c6c:	c03e                	c.swsp	a5,0(sp)
    2c6e:	34102773          	csrr	a4,mepc
    2c72:	300026f3          	csrr	a3,mstatus
    2c76:	7c4027f3          	csrr	a5,mxstatus
    2c7a:	30046673          	csrrsi	a2,mstatus,8
    2c7e:	30047673          	csrrci	a2,mstatus,8
    2c82:	30069073          	csrw	mstatus,a3
    2c86:	34171073          	csrw	mepc,a4
    2c8a:	7c479073          	csrw	mxstatus,a5
    2c8e:	e42007b7          	lui	a5,0xe4200
    2c92:	4715                	c.li	a4,5
    2c94:	c3d8                	c.sw	a4,4(a5)
    2c96:	0ff0000f          	fence
    2c9a:	4632                	c.lwsp	a2,12(sp)
    2c9c:	46a2                	c.lwsp	a3,8(sp)
    2c9e:	4712                	c.lwsp	a4,4(sp)
    2ca0:	4782                	c.lwsp	a5,0(sp)
    2ca2:	0141                	c.addi	sp,16
    2ca4:	30200073          	mret

00002ca8 <entry_irq4>:
    2ca8:	1141                	c.addi	sp,-16
    2caa:	c632                	c.swsp	a2,12(sp)
    2cac:	c436                	c.swsp	a3,8(sp)
    2cae:	c23a                	c.swsp	a4,4(sp)
    2cb0:	c03e                	c.swsp	a5,0(sp)
    2cb2:	34102773          	csrr	a4,mepc
    2cb6:	300026f3          	csrr	a3,mstatus
    2cba:	7c4027f3          	csrr	a5,mxstatus
    2cbe:	30046673          	csrrsi	a2,mstatus,8
    2cc2:	30047673          	csrrci	a2,mstatus,8
    2cc6:	30069073          	csrw	mstatus,a3
    2cca:	34171073          	csrw	mepc,a4
    2cce:	7c479073          	csrw	mxstatus,a5
    2cd2:	e42007b7          	lui	a5,0xe4200
    2cd6:	4711                	c.li	a4,4
    2cd8:	c3d8                	c.sw	a4,4(a5)
    2cda:	0ff0000f          	fence
    2cde:	4632                	c.lwsp	a2,12(sp)
    2ce0:	46a2                	c.lwsp	a3,8(sp)
    2ce2:	4712                	c.lwsp	a4,4(sp)
    2ce4:	4782                	c.lwsp	a5,0(sp)
    2ce6:	0141                	c.addi	sp,16
    2ce8:	30200073          	mret

00002cec <entry_irq3>:
    2cec:	1141                	c.addi	sp,-16
    2cee:	c632                	c.swsp	a2,12(sp)
    2cf0:	c436                	c.swsp	a3,8(sp)
    2cf2:	c23a                	c.swsp	a4,4(sp)
    2cf4:	c03e                	c.swsp	a5,0(sp)
    2cf6:	34102773          	csrr	a4,mepc
    2cfa:	300026f3          	csrr	a3,mstatus
    2cfe:	7c4027f3          	csrr	a5,mxstatus
    2d02:	30046673          	csrrsi	a2,mstatus,8
    2d06:	30047673          	csrrci	a2,mstatus,8
    2d0a:	30069073          	csrw	mstatus,a3
    2d0e:	34171073          	csrw	mepc,a4
    2d12:	7c479073          	csrw	mxstatus,a5
    2d16:	e42007b7          	lui	a5,0xe4200
    2d1a:	470d                	c.li	a4,3
    2d1c:	c3d8                	c.sw	a4,4(a5)
    2d1e:	0ff0000f          	fence
    2d22:	4632                	c.lwsp	a2,12(sp)
    2d24:	46a2                	c.lwsp	a3,8(sp)
    2d26:	4712                	c.lwsp	a4,4(sp)
    2d28:	4782                	c.lwsp	a5,0(sp)
    2d2a:	0141                	c.addi	sp,16
    2d2c:	30200073          	mret

00002d30 <entry_irq2>:
    2d30:	1141                	c.addi	sp,-16
    2d32:	c632                	c.swsp	a2,12(sp)
    2d34:	c436                	c.swsp	a3,8(sp)
    2d36:	c23a                	c.swsp	a4,4(sp)
    2d38:	c03e                	c.swsp	a5,0(sp)
    2d3a:	34102773          	csrr	a4,mepc
    2d3e:	300026f3          	csrr	a3,mstatus
    2d42:	7c4027f3          	csrr	a5,mxstatus
    2d46:	30046673          	csrrsi	a2,mstatus,8
    2d4a:	30047673          	csrrci	a2,mstatus,8
    2d4e:	30069073          	csrw	mstatus,a3
    2d52:	34171073          	csrw	mepc,a4
    2d56:	7c479073          	csrw	mxstatus,a5
    2d5a:	e42007b7          	lui	a5,0xe4200
    2d5e:	4709                	c.li	a4,2
    2d60:	c3d8                	c.sw	a4,4(a5)
    2d62:	0ff0000f          	fence
    2d66:	4632                	c.lwsp	a2,12(sp)
    2d68:	46a2                	c.lwsp	a3,8(sp)
    2d6a:	4712                	c.lwsp	a4,4(sp)
    2d6c:	4782                	c.lwsp	a5,0(sp)
    2d6e:	0141                	c.addi	sp,16
    2d70:	30200073          	mret

00002d74 <entry_irq1>:
    2d74:	7135                	c.addi16sp	sp,-160
    2d76:	cf06                	c.swsp	ra,156(sp)
    2d78:	cd16                	c.swsp	t0,152(sp)
    2d7a:	cb1a                	c.swsp	t1,148(sp)
    2d7c:	c91e                	c.swsp	t2,144(sp)
    2d7e:	c722                	c.swsp	s0,140(sp)
    2d80:	c526                	c.swsp	s1,136(sp)
    2d82:	c32a                	c.swsp	a0,132(sp)
    2d84:	c12e                	c.swsp	a1,128(sp)
    2d86:	deb2                	c.swsp	a2,124(sp)
    2d88:	dcb6                	c.swsp	a3,120(sp)
    2d8a:	daba                	c.swsp	a4,116(sp)
    2d8c:	d8be                	c.swsp	a5,112(sp)
    2d8e:	d6c2                	c.swsp	a6,108(sp)
    2d90:	d4c6                	c.swsp	a7,104(sp)
    2d92:	d2ca                	c.swsp	s2,100(sp)
    2d94:	d0f2                	c.swsp	t3,96(sp)
    2d96:	cef6                	c.swsp	t4,92(sp)
    2d98:	ccfa                	c.swsp	t5,88(sp)
    2d9a:	cafe                	c.swsp	t6,84(sp)
    2d9c:	e682                	c.fswsp	ft0,76(sp)
    2d9e:	e486                	c.fswsp	ft1,72(sp)
    2da0:	e28a                	c.fswsp	ft2,68(sp)
    2da2:	e08e                	c.fswsp	ft3,64(sp)
    2da4:	fe12                	c.fswsp	ft4,60(sp)
    2da6:	fc16                	c.fswsp	ft5,56(sp)
    2da8:	fa1a                	c.fswsp	ft6,52(sp)
    2daa:	f81e                	c.fswsp	ft7,48(sp)
    2dac:	f62a                	c.fswsp	fa0,44(sp)
    2dae:	f42e                	c.fswsp	fa1,40(sp)
    2db0:	f232                	c.fswsp	fa2,36(sp)
    2db2:	f036                	c.fswsp	fa3,32(sp)
    2db4:	ee3a                	c.fswsp	fa4,28(sp)
    2db6:	ec3e                	c.fswsp	fa5,24(sp)
    2db8:	ea42                	c.fswsp	fa6,20(sp)
    2dba:	e846                	c.fswsp	fa7,16(sp)
    2dbc:	e672                	c.fswsp	ft8,12(sp)
    2dbe:	e476                	c.fswsp	ft9,8(sp)
    2dc0:	e27a                	c.fswsp	ft10,4(sp)
    2dc2:	e07e                	c.fswsp	ft11,0(sp)
    2dc4:	341024f3          	csrr	s1,mepc
    2dc8:	30002973          	csrr	s2,mstatus
    2dcc:	7c402473          	csrr	s0,mxstatus
    2dd0:	300467f3          	csrrsi	a5,mstatus,8
    2dd4:	a01fd0ef          	jal	ra,7d4 <stimer_irq_handler>
    2dd8:	300477f3          	csrrci	a5,mstatus,8
    2ddc:	30091073          	csrw	mstatus,s2
    2de0:	34149073          	csrw	mepc,s1
    2de4:	7c441073          	csrw	mxstatus,s0
    2de8:	e42007b7          	lui	a5,0xe4200
    2dec:	4705                	c.li	a4,1
    2dee:	c3d8                	c.sw	a4,4(a5)
    2df0:	0ff0000f          	fence
    2df4:	443a                	c.lwsp	s0,140(sp)
    2df6:	40fa                	c.lwsp	ra,156(sp)
    2df8:	42ea                	c.lwsp	t0,152(sp)
    2dfa:	435a                	c.lwsp	t1,148(sp)
    2dfc:	43ca                	c.lwsp	t2,144(sp)
    2dfe:	44aa                	c.lwsp	s1,136(sp)
    2e00:	451a                	c.lwsp	a0,132(sp)
    2e02:	458a                	c.lwsp	a1,128(sp)
    2e04:	5676                	c.lwsp	a2,124(sp)
    2e06:	56e6                	c.lwsp	a3,120(sp)
    2e08:	5756                	c.lwsp	a4,116(sp)
    2e0a:	57c6                	c.lwsp	a5,112(sp)
    2e0c:	5836                	c.lwsp	a6,108(sp)
    2e0e:	58a6                	c.lwsp	a7,104(sp)
    2e10:	5916                	c.lwsp	s2,100(sp)
    2e12:	5e06                	c.lwsp	t3,96(sp)
    2e14:	4ef6                	c.lwsp	t4,92(sp)
    2e16:	4f66                	c.lwsp	t5,88(sp)
    2e18:	4fd6                	c.lwsp	t6,84(sp)
    2e1a:	6036                	c.flwsp	ft0,76(sp)
    2e1c:	60a6                	c.flwsp	ft1,72(sp)
    2e1e:	6116                	c.flwsp	ft2,68(sp)
    2e20:	6186                	c.flwsp	ft3,64(sp)
    2e22:	7272                	c.flwsp	ft4,60(sp)
    2e24:	72e2                	c.flwsp	ft5,56(sp)
    2e26:	7352                	c.flwsp	ft6,52(sp)
    2e28:	73c2                	c.flwsp	ft7,48(sp)
    2e2a:	7532                	c.flwsp	fa0,44(sp)
    2e2c:	75a2                	c.flwsp	fa1,40(sp)
    2e2e:	7612                	c.flwsp	fa2,36(sp)
    2e30:	7682                	c.flwsp	fa3,32(sp)
    2e32:	6772                	c.flwsp	fa4,28(sp)
    2e34:	67e2                	c.flwsp	fa5,24(sp)
    2e36:	6852                	c.flwsp	fa6,20(sp)
    2e38:	68c2                	c.flwsp	fa7,16(sp)
    2e3a:	6e32                	c.flwsp	ft8,12(sp)
    2e3c:	6ea2                	c.flwsp	ft9,8(sp)
    2e3e:	6f12                	c.flwsp	ft10,4(sp)
    2e40:	6f82                	c.flwsp	ft11,0(sp)
    2e42:	610d                	c.addi16sp	sp,160
    2e44:	30200073          	mret

00002e48 <trap_entry>:
    2e48:	1101                	c.addi	sp,-32
    2e4a:	ce36                	c.swsp	a3,28(sp)
    2e4c:	cc3a                	c.swsp	a4,24(sp)
    2e4e:	ca3e                	c.swsp	a5,20(sp)
    2e50:	34202773          	csrr	a4,mcause
    2e54:	84efcdab          	swgp	a4,-1960 # 80058 <mcause>
    2e58:	341026f3          	csrr	a3,mepc
    2e5c:	6741                	c.lui	a4,0x10
    2e5e:	1779                	c.addi	a4,-2
    2e60:	84dfcfab          	swgp	a3,-1956 # 8005c <mepc>
    2e64:	c602                	c.swsp	zero,12(sp)
    2e66:	47b2                	c.lwsp	a5,12(sp)
    2e68:	fef76ee3          	bltu	a4,a5,2e64 <trap_entry+0x1c>
    2e6c:	0001                	c.nop
    2e6e:	47b2                	c.lwsp	a5,12(sp)
    2e70:	0785                	c.addi	a5,1
    2e72:	c63e                	c.swsp	a5,12(sp)
    2e74:	47b2                	c.lwsp	a5,12(sp)
    2e76:	fef77be3          	bgeu	a4,a5,2e6c <trap_entry+0x24>
    2e7a:	b7ed                	c.j	2e64 <trap_entry+0x1c>
	...

00002f00 <__vectors>:
    2f00:	2e48                	c.fld	fa0,152(a2)
    2f02:	0000                	unimp
    2f04:	2d74                	c.fld	fa3,216(a0)
    2f06:	0000                	unimp
    2f08:	2d30                	c.fld	fa2,88(a0)
    2f0a:	0000                	unimp
    2f0c:	2cec                	c.fld	fa1,216(s1)
    2f0e:	0000                	unimp
    2f10:	2ca8                	c.fld	fa0,88(s1)
    2f12:	0000                	unimp
    2f14:	2c64                	c.fld	fs1,216(s0)
    2f16:	0000                	unimp
    2f18:	2c20                	c.fld	fs0,88(s0)
    2f1a:	0000                	unimp
    2f1c:	2bdc                	c.fld	fa5,144(a5)
    2f1e:	0000                	unimp
    2f20:	2b98                	c.fld	fa4,16(a5)
    2f22:	0000                	unimp
    2f24:	2b54                	c.fld	fa3,144(a4)
    2f26:	0000                	unimp
    2f28:	2b10                	c.fld	fa2,16(a4)
    2f2a:	0000                	unimp
    2f2c:	2acc                	c.fld	fa1,144(a3)
    2f2e:	0000                	unimp
    2f30:	2a88                	c.fld	fa0,16(a3)
    2f32:	0000                	unimp
    2f34:	2a44                	c.fld	fs1,144(a2)
    2f36:	0000                	unimp
    2f38:	2a00                	c.fld	fs0,16(a2)
    2f3a:	0000                	unimp
    2f3c:	292c                	c.fld	fa1,80(a0)
    2f3e:	0000                	unimp
    2f40:	28e8                	c.fld	fa0,208(s1)
    2f42:	0000                	unimp
    2f44:	28a4                	c.fld	fs1,80(s1)
    2f46:	0000                	unimp
    2f48:	2754                	c.fld	fa3,136(a4)
    2f4a:	0000                	unimp
    2f4c:	2710                	c.fld	fa2,8(a4)
    2f4e:	0000                	unimp
    2f50:	26cc                	c.fld	fa1,136(a3)
    2f52:	0000                	unimp
    2f54:	2688                	c.fld	fa0,8(a3)
    2f56:	0000                	unimp
    2f58:	2644                	c.fld	fs1,136(a2)
    2f5a:	0000                	unimp
    2f5c:	2600                	c.fld	fs0,8(a2)
    2f5e:	0000                	unimp
    2f60:	25bc                	c.fld	fa5,72(a1)
    2f62:	0000                	unimp
    2f64:	24e8                	c.fld	fa0,200(s1)
    2f66:	0000                	unimp
    2f68:	24a4                	c.fld	fs1,72(s1)
    2f6a:	0000                	unimp
    2f6c:	2460                	c.fld	fs0,200(s0)
    2f6e:	0000                	unimp
    2f70:	241c                	c.fld	fa5,8(s0)
    2f72:	0000                	unimp
    2f74:	23d8                	c.fld	fa4,128(a5)
    2f76:	0000                	unimp
    2f78:	2394                	c.fld	fa3,0(a5)
    2f7a:	0000                	unimp
    2f7c:	2350                	c.fld	fa2,128(a4)
    2f7e:	0000                	unimp
    2f80:	2308                	c.fld	fa0,0(a4)
    2f82:	0000                	unimp
    2f84:	22c0                	c.fld	fs0,128(a3)
    2f86:	0000                	unimp
    2f88:	2278                	c.fld	fa4,192(a2)
    2f8a:	0000                	unimp
    2f8c:	2230                	c.fld	fa2,64(a2)
    2f8e:	0000                	unimp
    2f90:	21e8                	c.fld	fa0,192(a1)
    2f92:	0000                	unimp
    2f94:	21a0                	c.fld	fs0,64(a1)
    2f96:	0000                	unimp
    2f98:	219c                	c.fld	fa5,0(a1)
    2f9a:	0000                	unimp
    2f9c:	2198                	c.fld	fa4,0(a1)
    2f9e:	0000                	unimp
    2fa0:	2194                	c.fld	fa3,0(a1)
    2fa2:	0000                	unimp
    2fa4:	2190                	c.fld	fa2,0(a1)
    2fa6:	0000                	unimp
    2fa8:	2148                	c.fld	fa0,128(a0)
    2faa:	0000                	unimp
    2fac:	2100                	c.fld	fs0,0(a0)
    2fae:	0000                	unimp
    2fb0:	20b8                	c.fld	fa4,64(s1)
    2fb2:	0000                	unimp
    2fb4:	20b4                	c.fld	fa3,64(s1)
    2fb6:	0000                	unimp
    2fb8:	206c                	c.fld	fa1,192(s0)
    2fba:	0000                	unimp
    2fbc:	2068                	c.fld	fa0,192(s0)
    2fbe:	0000                	unimp
    2fc0:	2064                	c.fld	fs1,192(s0)
    2fc2:	0000                	unimp
    2fc4:	2060                	c.fld	fs0,192(s0)
    2fc6:	0000                	unimp
    2fc8:	2018                	c.fld	fa4,0(s0)
    2fca:	0000                	unimp
    2fcc:	1fd0                	c.addi4spn	a2,sp,1012
    2fce:	0000                	unimp
    2fd0:	1f88                	c.addi4spn	a0,sp,1008
    2fd2:	0000                	unimp
    2fd4:	1f40                	c.addi4spn	s0,sp,948
    2fd6:	0000                	unimp
    2fd8:	1ef8                	c.addi4spn	a4,sp,892
    2fda:	0000                	unimp
    2fdc:	1eb0                	c.addi4spn	a2,sp,888
    2fde:	0000                	unimp
    2fe0:	1e68                	c.addi4spn	a0,sp,828
    2fe2:	0000                	unimp
    2fe4:	1e20                	c.addi4spn	s0,sp,824
    2fe6:	0000                	unimp
    2fe8:	1dd8                	c.addi4spn	a4,sp,756
    2fea:	0000                	unimp
    2fec:	1d90                	c.addi4spn	a2,sp,752
    2fee:	0000                	unimp
    2ff0:	1d48                	c.addi4spn	a0,sp,692
    2ff2:	0000                	unimp
    2ff4:	1d00                	c.addi4spn	s0,sp,688
    2ff6:	0000                	unimp
    2ff8:	1cb8                	c.addi4spn	a4,sp,632
    2ffa:	0000                	unimp
    2ffc:	1c70                	c.addi4spn	a2,sp,572
    2ffe:	0000                	unimp
    3000:	0001                	c.nop

Disassembly of section .text:

20003140 <flash_read_status>:
20003140:	1101                	c.addi	sp,-32
20003142:	ce06                	c.swsp	ra,28(sp)
20003144:	000107a3          	sb	zero,15(sp)
20003148:	7d047073          	csrci	mmisc_ctl,8
2000314c:	4785                	c.li	a5,1
2000314e:	00f10713          	addi	a4,sp,15
20003152:	4681                	c.li	a3,0
20003154:	4601                	c.li	a2,0
20003156:	4581                	c.li	a1,0
20003158:	dfffd097          	auipc	ra,0xdfffd
2000315c:	754080e7          	jalr	1876(ra) # 8ac <flash_mspi_read_ram>
20003160:	7d046073          	csrsi	mmisc_ctl,8
20003164:	40f2                	c.lwsp	ra,28(sp)
20003166:	00f14503          	lbu	a0,15(sp)
2000316a:	6105                	c.addi16sp	sp,32
2000316c:	00008067          	ret

20003170 <flash_read_mid>:
20003170:	1101                	c.addi	sp,-32
20003172:	ce06                	c.swsp	ra,28(sp)
20003174:	c602                	c.swsp	zero,12(sp)
20003176:	7d047073          	csrci	mmisc_ctl,8
2000317a:	478d                	c.li	a5,3
2000317c:	0078                	c.addi4spn	a4,sp,12
2000317e:	4681                	c.li	a3,0
20003180:	4601                	c.li	a2,0
20003182:	4581                	c.li	a1,0
20003184:	09f00513          	li	a0,159
20003188:	dfffd097          	auipc	ra,0xdfffd
2000318c:	724080e7          	jalr	1828(ra) # 8ac <flash_mspi_read_ram>
20003190:	7d046073          	csrsi	mmisc_ctl,8
20003194:	40f2                	c.lwsp	ra,28(sp)
20003196:	4532                	c.lwsp	a0,12(sp)
20003198:	6105                	c.addi16sp	sp,32
2000319a:	8082                	c.jr	ra

2000319c <flash_page_program>:
2000319c:	1101                	c.addi	sp,-32
2000319e:	0ff57713          	andi	a4,a0,255
200031a2:	10000793          	li	a5,256
200031a6:	ca26                	c.swsp	s1,20(sp)
200031a8:	c84a                	c.swsp	s2,16(sp)
200031aa:	c64e                	c.swsp	s3,12(sp)
200031ac:	892a                	c.mv	s2,a0
200031ae:	84ae                	c.mv	s1,a1
200031b0:	89b2                	c.mv	s3,a2
200031b2:	8f99                	c.sub	a5,a4
200031b4:	ce06                	c.swsp	ra,28(sp)
200031b6:	cc22                	c.swsp	s0,24(sp)
200031b8:	8426                	c.mv	s0,s1
200031ba:	0097f363          	bgeu	a5,s1,200031c0 <flash_page_program+0x24>
200031be:	843e                	c.mv	s0,a5
200031c0:	7d047073          	csrci	mmisc_ctl,8
200031c4:	4605                	c.li	a2,1
200031c6:	8722                	c.mv	a4,s0
200031c8:	86ce                	c.mv	a3,s3
200031ca:	85ca                	c.mv	a1,s2
200031cc:	00200513          	li	a0,2
200031d0:	dfffe097          	auipc	ra,0xdfffe
200031d4:	88c080e7          	jalr	-1908(ra) # a5c <flash_mspi_write_ram>
200031d8:	7d046073          	csrsi	mmisc_ctl,8
200031dc:	8c81                	c.sub	s1,s0
200031de:	9922                	c.add	s2,s0
200031e0:	99a2                	c.add	s3,s0
200031e2:	10000793          	li	a5,256
200031e6:	f8e9                	c.bnez	s1,200031b8 <flash_page_program+0x1c>
200031e8:	40f2                	c.lwsp	ra,28(sp)
200031ea:	4462                	c.lwsp	s0,24(sp)
200031ec:	44d2                	c.lwsp	s1,20(sp)
200031ee:	4942                	c.lwsp	s2,16(sp)
200031f0:	49b2                	c.lwsp	s3,12(sp)
200031f2:	6105                	c.addi16sp	sp,32
200031f4:	00008067          	ret

200031f8 <flash_dread>:
200031f8:	1141                	c.addi	sp,-16
200031fa:	c606                	c.swsp	ra,12(sp)
200031fc:	87ae                	c.mv	a5,a1
200031fe:	8732                	c.mv	a4,a2
20003200:	7d047073          	csrci	mmisc_ctl,8
20003204:	4685                	c.li	a3,1
20003206:	85aa                	c.mv	a1,a0
20003208:	00100613          	li	a2,1
2000320c:	03b00513          	li	a0,59
20003210:	dfffd097          	auipc	ra,0xdfffd
20003214:	69c080e7          	jalr	1692(ra) # 8ac <flash_mspi_read_ram>
20003218:	7d046073          	csrsi	mmisc_ctl,8
2000321c:	40b2                	c.lwsp	ra,12(sp)
2000321e:	0141                	c.addi	sp,16
20003220:	00008067          	ret

20003224 <flash_erase_sector>:
20003224:	1141                	c.addi	sp,-16
20003226:	c606                	c.swsp	ra,12(sp)
20003228:	801407b7          	lui	a5,0x80140
2000322c:	4731                	c.li	a4,12
2000322e:	14e781a3          	sb	a4,323(a5) # 80140143 <_DATA_LMA_START+0x60137d4b>
20003232:	85aa                	c.mv	a1,a0
20003234:	7d047073          	csrci	mmisc_ctl,8
20003238:	4701                	c.li	a4,0
2000323a:	4681                	c.li	a3,0
2000323c:	00100613          	li	a2,1
20003240:	02000513          	li	a0,32
20003244:	dfffe097          	auipc	ra,0xdfffe
20003248:	818080e7          	jalr	-2024(ra) # a5c <flash_mspi_write_ram>
2000324c:	7d046073          	csrsi	mmisc_ctl,8
20003250:	40b2                	c.lwsp	ra,12(sp)
20003252:	0141                	c.addi	sp,16
20003254:	00008067          	ret

20003258 <cpu_sleep_wakeup_32k_rc>:
20003258:	1141                	c.addi	sp,-16
2000325a:	c606                	c.swsp	ra,12(sp)
2000325c:	7d047073          	csrci	mmisc_ctl,8
20003260:	dfffe097          	auipc	ra,0xdfffe
20003264:	d7c080e7          	jalr	-644(ra) # fdc <cpu_sleep_wakeup_32k_rc_ram>
20003268:	7d046073          	csrsi	mmisc_ctl,8
2000326c:	40b2                	c.lwsp	ra,12(sp)
2000326e:	0141                	c.addi	sp,16
20003270:	8082                	c.jr	ra
	...

20003274 <uart_receive_dma.constprop.24>:
20003274:	86dfe78b          	lbugp	a5,-1939 # 8006d <uart_dma_rx_chn+0x1>
20003278:	4751                	c.li	a4,20
2000327a:	02e787b3          	mul	a5,a5,a4
2000327e:	001006b7          	lui	a3,0x100
20003282:	44468713          	addi	a4,a3,1092 # 100444 <FLASH_SIZE+0x444>
20003286:	800005b7          	lui	a1,0x80000
2000328a:	44868693          	addi	a3,a3,1096
2000328e:	973e                	c.add	a4,a5
20003290:	8f4d                	c.or	a4,a1
20003292:	00070603          	lb	a2,0(a4) # 10000 <BIN_SIZE+0x7bd4>
20003296:	96be                	c.add	a3,a5
20003298:	0fe67613          	andi	a2,a2,254
2000329c:	8ecd                	c.or	a3,a1
2000329e:	00c70023          	sb	a2,0(a4)
200032a2:	4589                	c.li	a1,2
200032a4:	86bfc5ab          	swgp	a1,-1944 # 80068 <uart_dma_rev_size+0x4>
200032a8:	801405b7          	lui	a1,0x80140
200032ac:	0c058593          	addi	a1,a1,192 # 801400c0 <_DATA_LMA_START+0x60137cc8>
200032b0:	c28c                	c.sw	a1,0(a3)
200032b2:	871f960b          	addigp	a2,-1936 # 80070 <uart_rx_addr>
200032b6:	000a06b7          	lui	a3,0xa0
200032ba:	00d67563          	bgeu	a2,a3,200032c4 <uart_receive_dma.constprop.24+0x50>
200032be:	c01806b7          	lui	a3,0xc0180
200032c2:	9636                	c.add	a2,a3
200032c4:	001005b7          	lui	a1,0x100
200032c8:	44c58693          	addi	a3,a1,1100 # 10044c <FLASH_SIZE+0x44c>
200032cc:	80000537          	lui	a0,0x80000
200032d0:	96be                	c.add	a3,a5
200032d2:	8ec9                	c.or	a3,a0
200032d4:	45058593          	addi	a1,a1,1104
200032d8:	c290                	c.sw	a2,0(a3)
200032da:	97ae                	c.add	a5,a1
200032dc:	008006b7          	lui	a3,0x800
200032e0:	8fc9                	c.or	a5,a0
200032e2:	0685                	c.addi	a3,1
200032e4:	c394                	c.sw	a3,0(a5)
200032e6:	00070783          	lb	a5,0(a4)
200032ea:	0ff7f793          	andi	a5,a5,255
200032ee:	0017e793          	ori	a5,a5,1
200032f2:	00f70023          	sb	a5,0(a4)
200032f6:	8082                	c.jr	ra

200032f8 <uart_send.constprop.16>:
200032f8:	15fd                	c.addi	a1,-1
200032fa:	875f930b          	addigp	t1,-1932 # 80074 <uart_tx_byte_index>
200032fe:	0ff5f593          	andi	a1,a1,255
20003302:	95aa                	c.add	a1,a0
20003304:	80140737          	lui	a4,0x80140
20003308:	00134603          	lbu	a2,1(t1)
2000330c:	0585                	c.addi	a1,1
2000330e:	469d                	c.li	a3,7
20003310:	0c070e13          	addi	t3,a4,192 # 801400c0 <_DATA_LMA_START+0x60137cc8>
20003314:	00054803          	lbu	a6,0(a0) # 80000000 <_DATA_LMA_START+0x5fff7c08>
20003318:	0cc70783          	lb	a5,204(a4)
2000331c:	1c47a7db          	bfoz	a5,a5,7,4
20003320:	fef6cce3          	blt	a3,a5,20003318 <uart_send.constprop.16+0x20>
20003324:	00160893          	addi	a7,a2,1
20003328:	01c607b3          	add	a5,a2,t3
2000332c:	0038f613          	andi	a2,a7,3
20003330:	01078023          	sb	a6,0(a5)
20003334:	00c300a3          	sb	a2,1(t1)
20003338:	0505                	c.addi	a0,1
2000333a:	fca59de3          	bne	a1,a0,20003314 <uart_send.constprop.16+0x1c>
2000333e:	4505                	c.li	a0,1
20003340:	8082                	c.jr	ra
	...

20003344 <uart_send_byte.constprop.15>:
20003344:	80140737          	lui	a4,0x80140
20003348:	00700693          	li	a3,7
2000334c:	0cc70783          	lb	a5,204(a4) # 801400cc <_DATA_LMA_START+0x60137cd4>
20003350:	1c47a7db          	bfoz	a5,a5,7,4
20003354:	fef6cce3          	blt	a3,a5,2000334c <uart_send_byte.constprop.15+0x8>
20003358:	875f978b          	addigp	a5,-1932 # 80074 <uart_tx_byte_index>
2000335c:	0017c683          	lbu	a3,1(a5)
20003360:	0c070713          	addi	a4,a4,192
20003364:	00168613          	addi	a2,a3,1 # 800001 <FLASH_SIZE+0x700001>
20003368:	9736                	c.add	a4,a3
2000336a:	00367693          	andi	a3,a2,3
2000336e:	00a70023          	sb	a0,0(a4)
20003372:	00d780a3          	sb	a3,1(a5)
20003376:	8082                	c.jr	ra
20003378:	0001                	c.nop
	...

2000337c <queue_available_data.constprop.11>:
2000337c:	8adf978b          	addigp	a5,-1876 # 800ac <dfu_uart_queue>
20003380:	0027d503          	lhu	a0,2(a5)
20003384:	0047d703          	lhu	a4,4(a5)
20003388:	00a76863          	bltu	a4,a0,20003398 <queue_available_data.constprop.11+0x1c>
2000338c:	00e50c63          	beq	a0,a4,200033a4 <queue_available_data.constprop.11+0x28>
20003390:	00079783          	lh	a5,0(a5)
20003394:	00f50533          	add	a0,a0,a5
20003398:	40e50533          	sub	a0,a0,a4
2000339c:	3c05255b          	bfoz	a0,a0,15,0
200033a0:	00008067          	ret
200033a4:	00a7a703          	lw	a4,10(a5)
200033a8:	4501                	c.li	a0,0
200033aa:	be276b5b          	bnec	a4,2,200033a0 <queue_available_data.constprop.11+0x24>
200033ae:	0007d503          	lhu	a0,0(a5)
200033b2:	8082                	c.jr	ra
200033b4:	0001                	c.nop
	...

200033b8 <uart_is_prime>:
200033b8:	470d                	c.li	a4,3
200033ba:	87aa                	c.mv	a5,a0
200033bc:	08a77263          	bgeu	a4,a0,20003440 <uart_is_prime+0x88>
200033c0:	4501                	c.li	a0,0
200033c2:	0807f35b          	bbc	a5,0,20003448 <uart_is_prime+0x90>
200033c6:	aaaab737          	lui	a4,0xaaaab
200033ca:	aab70713          	addi	a4,a4,-1365 # aaaaaaab <_DATA_LMA_START+0x8aaa26b3>
200033ce:	02e7b733          	mulhu	a4,a5,a4
200033d2:	8305                	c.srli	a4,0x1
200033d4:	0ae7075b          	lea.h	a4,a4,a4
200033d8:	06e78863          	beq	a5,a4,20003448 <uart_is_prime+0x90>
200033dc:	4765                	c.li	a4,25
200033de:	06f77163          	bgeu	a4,a5,20003440 <uart_is_prime+0x88>
200033e2:	ccccd737          	lui	a4,0xccccd
200033e6:	ccd70713          	addi	a4,a4,-819 # cccccccd <_DATA_LMA_START+0xaccc48d5>
200033ea:	02e7b733          	mulhu	a4,a5,a4
200033ee:	8309                	c.srli	a4,0x2
200033f0:	0ce7075b          	lea.w	a4,a4,a4
200033f4:	04e78a63          	beq	a5,a4,20003448 <uart_is_prime+0x90>
200033f8:	24925737          	lui	a4,0x24925
200033fc:	92570713          	addi	a4,a4,-1755 # 24924925 <_DATA_LMA_START+0x491c52d>
20003400:	02e7b733          	mulhu	a4,a5,a4
20003404:	40e786b3          	sub	a3,a5,a4
20003408:	8285                	c.srli	a3,0x1
2000340a:	9736                	c.add	a4,a3
2000340c:	8309                	c.srli	a4,0x2
2000340e:	00371693          	slli	a3,a4,0x3
20003412:	40e68733          	sub	a4,a3,a4
20003416:	02e78963          	beq	a5,a4,20003448 <uart_is_prime+0x90>
2000341a:	4615                	c.li	a2,5
2000341c:	0100006f          	j	2000342c <uart_is_prime+0x74>
20003420:	02e7f733          	remu	a4,a5,a4
20003424:	c305                	c.beqz	a4,20003444 <uart_is_prime+0x8c>
20003426:	02d7f6b3          	remu	a3,a5,a3
2000342a:	ce89                	c.beqz	a3,20003444 <uart_is_prime+0x8c>
2000342c:	00660713          	addi	a4,a2,6
20003430:	02e705b3          	mul	a1,a4,a4
20003434:	00860693          	addi	a3,a2,8
20003438:	00e00633          	add	a2,zero,a4
2000343c:	fef5e2e3          	bltu	a1,a5,20003420 <uart_is_prime+0x68>
20003440:	4505                	c.li	a0,1
20003442:	8082                	c.jr	ra
20003444:	00000513          	li	a0,0
20003448:	8082                	c.jr	ra
	...

2000344c <pwm_kick_32k_pad.constprop.2>:
2000344c:	1141                	c.addi	sp,-16
2000344e:	c422                	c.swsp	s0,8(sp)
20003450:	c606                	c.swsp	ra,12(sp)
20003452:	80140437          	lui	s0,0x80140
20003456:	57f9                	c.li	a5,-2
20003458:	30f40f23          	sb	a5,798(s0) # 8014031e <_DATA_LMA_START+0x60137f26>
2000345c:	4789                	c.li	a5,2
2000345e:	32f40b23          	sb	a5,822(s0)
20003462:	4785                	c.li	a5,1
20003464:	34f40aa3          	sb	a5,853(s0)
20003468:	4785                	c.li	a5,1
2000346a:	40f41a23          	sh	a5,1044(s0)
2000346e:	4709                	c.li	a4,2
20003470:	40e41b23          	sh	a4,1046(s0)
20003474:	fb600713          	li	a4,-74
20003478:	40e40123          	sb	a4,1026(s0)
2000347c:	00a00513          	li	a0,10
20003480:	40f400a3          	sb	a5,1025(s0)
20003484:	dfffd097          	auipc	ra,0xdfffd
20003488:	358080e7          	jalr	856(ra) # 7dc <delay_ms>
2000348c:	57fd                	c.li	a5,-1
2000348e:	30f40f23          	sb	a5,798(s0)
20003492:	57c1                	c.li	a5,-16
20003494:	32f40b23          	sb	a5,822(s0)
20003498:	34040aa3          	sb	zero,853(s0)
2000349c:	40041c23          	sh	zero,1048(s0)
200034a0:	40041d23          	sh	zero,1050(s0)
200034a4:	40040023          	sb	zero,1024(s0)
200034a8:	40040123          	sb	zero,1026(s0)
200034ac:	40b2                	c.lwsp	ra,12(sp)
200034ae:	4422                	c.lwsp	s0,8(sp)
200034b0:	0141                	c.addi	sp,16
200034b2:	8082                	c.jr	ra

200034b4 <blc_readFlashSize_autoConfigCustomFlashSector>:
200034b4:	1141                	c.addi	sp,-16
200034b6:	c606                	c.swsp	ra,12(sp)
200034b8:	cb9ff0ef          	jal	ra,20003170 <flash_read_mid>
200034bc:	5d05255b          	bfoz	a0,a0,23,16
200034c0:	03355c5b          	beqc	a0,19,200034f8 <blc_readFlashSize_autoConfigCustomFlashSector+0x44>
200034c4:	0345525b          	beqc	a0,20,200034e8 <blc_readFlashSize_autoConfigCustomFlashSector+0x34>
200034c8:	0155565b          	beqc	a0,21,200034d4 <blc_readFlashSize_autoConfigCustomFlashSector+0x20>
200034cc:	03655e5b          	beqc	a0,22,20003508 <blc_readFlashSize_autoConfigCustomFlashSector+0x54>
200034d0:	0000006f          	j	200034d0 <blc_readFlashSize_autoConfigCustomFlashSector+0x1c>
200034d4:	000007b7          	lui	a5,0x0
200034d8:	001fe737          	lui	a4,0x1fe
200034dc:	26e7a423          	sw	a4,616(a5) # 268 <flash_sector_calibration>
200034e0:	40b2                	c.lwsp	ra,12(sp)
200034e2:	0141                	c.addi	sp,16
200034e4:	00008067          	ret
200034e8:	000007b7          	lui	a5,0x0
200034ec:	000fe737          	lui	a4,0xfe
200034f0:	26e7a423          	sw	a4,616(a5) # 268 <flash_sector_calibration>
200034f4:	fedff06f          	j	200034e0 <blc_readFlashSize_autoConfigCustomFlashSector+0x2c>
200034f8:	000007b7          	lui	a5,0x0
200034fc:	0007e737          	lui	a4,0x7e
20003500:	26e7a423          	sw	a4,616(a5) # 268 <flash_sector_calibration>
20003504:	fddff06f          	j	200034e0 <blc_readFlashSize_autoConfigCustomFlashSector+0x2c>
20003508:	000007b7          	lui	a5,0x0
2000350c:	003fe737          	lui	a4,0x3fe
20003510:	26e7a423          	sw	a4,616(a5) # 268 <flash_sector_calibration>
20003514:	b7f1                	c.j	200034e0 <blc_readFlashSize_autoConfigCustomFlashSector+0x2c>
	...

20003518 <response_ack>:
20003518:	1141                	c.addi	sp,-16
2000351a:	c422                	c.swsp	s0,8(sp)
2000351c:	842a                	c.mv	s0,a0
2000351e:	05500513          	li	a0,85
20003522:	c606                	c.swsp	ra,12(sp)
20003524:	e21ff0ef          	jal	ra,20003344 <uart_send_byte.constprop.15>
20003528:	0aa00513          	li	a0,170
2000352c:	e19ff0ef          	jal	ra,20003344 <uart_send_byte.constprop.15>
20003530:	00000513          	li	a0,0
20003534:	e11ff0ef          	jal	ra,20003344 <uart_send_byte.constprop.15>
20003538:	4525                	c.li	a0,9
2000353a:	0094535b          	beqc	s0,9,20003540 <response_ack+0x28>
2000353e:	4529                	c.li	a0,10
20003540:	4422                	c.lwsp	s0,8(sp)
20003542:	40b2                	c.lwsp	ra,12(sp)
20003544:	0141                	c.addi	sp,16
20003546:	bbfd                	c.j	20003344 <uart_send_byte.constprop.15>

20003548 <program_array>:
20003548:	1141                	c.addi	sp,-16
2000354a:	c422                	c.swsp	s0,8(sp)
2000354c:	815f940b          	addigp	s0,-2028 # 80014 <program_address>
20003550:	000007b7          	lui	a5,0x0
20003554:	c226                	c.swsp	s1,4(sp)
20003556:	c606                	c.swsp	ra,12(sp)
20003558:	862a                	c.mv	a2,a0
2000355a:	26c7a783          	lw	a5,620(a5) # 26c <flash_write_page>
2000355e:	4008                	c.lw	a0,0(s0)
20003560:	84ae                	c.mv	s1,a1
20003562:	9782                	c.jalr	a5
20003564:	400c                	c.lw	a1,0(s0)
20003566:	4525                	c.li	a0,9
20003568:	95a6                	c.add	a1,s1
2000356a:	c00c                	c.sw	a1,0(s0)
2000356c:	4422                	c.lwsp	s0,8(sp)
2000356e:	40b2                	c.lwsp	ra,12(sp)
20003570:	4492                	c.lwsp	s1,4(sp)
20003572:	0141                	c.addi	sp,16
20003574:	b755                	c.j	20003518 <response_ack>
20003576:	0001                	c.nop

20003578 <writeSPIByte>:
20003578:	820007b7          	lui	a5,0x82000
2000357c:	fc778703          	lb	a4,-57(a5) # 81ffffc7 <_DATA_LMA_START+0x61ff7bcf>
20003580:	820006b7          	lui	a3,0x82000
20003584:	07f77713          	andi	a4,a4,127
20003588:	fce783a3          	sb	a4,-57(a5)
2000358c:	fc778703          	lb	a4,-57(a5)
20003590:	0bf77713          	andi	a4,a4,191
20003594:	fce783a3          	sb	a4,-57(a5)
20003598:	fcd78703          	lb	a4,-51(a5)
2000359c:	0ff77713          	andi	a4,a4,255
200035a0:	00876713          	ori	a4,a4,8
200035a4:	fce786a3          	sb	a4,-51(a5)
200035a8:	fcd78703          	lb	a4,-51(a5)
200035ac:	0ff77713          	andi	a4,a4,255
200035b0:	00476713          	ori	a4,a4,4
200035b4:	fce786a3          	sb	a4,-51(a5)
200035b8:	fe0780a3          	sb	zero,-31(a5)
200035bc:	fe078023          	sb	zero,-32(a5)
200035c0:	fc0781a3          	sb	zero,-61(a5)
200035c4:	fc078fa3          	sb	zero,-33(a5)
200035c8:	fc078f23          	sb	zero,-34(a5)
200035cc:	fc078223          	sb	zero,-60(a5)
200035d0:	fc578703          	lb	a4,-59(a5)
200035d4:	00f77713          	andi	a4,a4,15
200035d8:	fce782a3          	sb	a4,-59(a5)
200035dc:	fc078323          	sb	zero,-58(a5)
200035e0:	fcd68783          	lb	a5,-51(a3) # 81ffffcd <_DATA_LMA_START+0x61ff7bd5>
200035e4:	fe67fe5b          	bbs	a5,6,200035e0 <writeSPIByte+0x68>
200035e8:	82000737          	lui	a4,0x82000
200035ec:	fca68423          	sb	a0,-56(a3)
200035f0:	fcd70783          	lb	a5,-51(a4) # 81ffffcd <_DATA_LMA_START+0x61ff7bd5>
200035f4:	fe57fe5b          	bbs	a5,5,200035f0 <writeSPIByte+0x78>
200035f8:	fc870503          	lb	a0,-56(a4)
200035fc:	82000737          	lui	a4,0x82000
20003600:	0ff57513          	andi	a0,a0,255
20003604:	fcf70783          	lb	a5,-49(a4) # 81ffffcf <_DATA_LMA_START+0x61ff7bd7>
20003608:	fe77fe5b          	bbs	a5,7,20003604 <writeSPIByte+0x8c>
2000360c:	8082                	c.jr	ra
	...

20003610 <W25XXX_Read>:
20003610:	1141                	c.addi	sp,-16
20003612:	80140737          	lui	a4,0x80140
20003616:	c606                	c.swsp	ra,12(sp)
20003618:	c422                	c.swsp	s0,8(sp)
2000361a:	c226                	c.swsp	s1,4(sp)
2000361c:	c04a                	c.swsp	s2,0(sp)
2000361e:	30b70783          	lb	a5,779(a4) # 8014030b <_DATA_LMA_START+0x60137f13>
20003622:	842a                	c.mv	s0,a0
20003624:	0fe7f793          	andi	a5,a5,254
20003628:	450d                	c.li	a0,3
2000362a:	892e                	c.mv	s2,a1
2000362c:	84b2                	c.mv	s1,a2
2000362e:	30f705a3          	sb	a5,779(a4)
20003632:	3799                	c.jal	20003578 <writeSPIByte>
20003634:	5d09255b          	bfoz	a0,s2,23,16
20003638:	f41ff0ef          	jal	ra,20003578 <writeSPIByte>
2000363c:	3c89255b          	bfoz	a0,s2,15,8
20003640:	f39ff0ef          	jal	ra,20003578 <writeSPIByte>
20003644:	0ff97513          	andi	a0,s2,255
20003648:	94a2                	c.add	s1,s0
2000364a:	373d                	c.jal	20003578 <writeSPIByte>
2000364c:	0405                	c.addi	s0,1
2000364e:	4501                	c.li	a0,0
20003650:	f29ff0ef          	jal	ra,20003578 <writeSPIByte>
20003654:	fea40fa3          	sb	a0,-1(s0)
20003658:	fe941ae3          	bne	s0,s1,2000364c <W25XXX_Read+0x3c>
2000365c:	80140737          	lui	a4,0x80140
20003660:	30b70783          	lb	a5,779(a4) # 8014030b <_DATA_LMA_START+0x60137f13>
20003664:	0ff7f793          	andi	a5,a5,255
20003668:	0017e793          	ori	a5,a5,1
2000366c:	30f705a3          	sb	a5,779(a4)
20003670:	40b2                	c.lwsp	ra,12(sp)
20003672:	4422                	c.lwsp	s0,8(sp)
20003674:	4492                	c.lwsp	s1,4(sp)
20003676:	4902                	c.lwsp	s2,0(sp)
20003678:	0141                	c.addi	sp,16
2000367a:	8082                	c.jr	ra

2000367c <FLASH_ReadStatusReg>:
2000367c:	1141                	c.addi	sp,-16
2000367e:	c422                	c.swsp	s0,8(sp)
20003680:	80140437          	lui	s0,0x80140
20003684:	c606                	c.swsp	ra,12(sp)
20003686:	30b40783          	lb	a5,779(s0) # 8014030b <_DATA_LMA_START+0x60137f13>
2000368a:	4515                	c.li	a0,5
2000368c:	0fe7f793          	andi	a5,a5,254
20003690:	30f405a3          	sb	a5,779(s0)
20003694:	ee5ff0ef          	jal	ra,20003578 <writeSPIByte>
20003698:	00000513          	li	a0,0
2000369c:	eddff0ef          	jal	ra,20003578 <writeSPIByte>
200036a0:	30b40783          	lb	a5,779(s0)
200036a4:	0ff7f793          	andi	a5,a5,255
200036a8:	0017e793          	ori	a5,a5,1
200036ac:	30f405a3          	sb	a5,779(s0)
200036b0:	40b2                	c.lwsp	ra,12(sp)
200036b2:	4422                	c.lwsp	s0,8(sp)
200036b4:	0141                	c.addi	sp,16
200036b6:	8082                	c.jr	ra

200036b8 <W25XXX_WR_Page>:
200036b8:	1101                	c.addi	sp,-32
200036ba:	ca26                	c.swsp	s1,20(sp)
200036bc:	801404b7          	lui	s1,0x80140
200036c0:	ce06                	c.swsp	ra,28(sp)
200036c2:	cc22                	c.swsp	s0,24(sp)
200036c4:	c84a                	c.swsp	s2,16(sp)
200036c6:	c64e                	c.swsp	s3,12(sp)
200036c8:	30b48783          	lb	a5,779(s1) # 8014030b <_DATA_LMA_START+0x60137f13>
200036cc:	842a                	c.mv	s0,a0
200036ce:	0fe7f793          	andi	a5,a5,254
200036d2:	4519                	c.li	a0,6
200036d4:	89ae                	c.mv	s3,a1
200036d6:	8932                	c.mv	s2,a2
200036d8:	30f485a3          	sb	a5,779(s1)
200036dc:	e9dff0ef          	jal	ra,20003578 <writeSPIByte>
200036e0:	30b48783          	lb	a5,779(s1)
200036e4:	4509                	c.li	a0,2
200036e6:	0ff7f793          	andi	a5,a5,255
200036ea:	0017e793          	ori	a5,a5,1
200036ee:	30f485a3          	sb	a5,779(s1)
200036f2:	30b48783          	lb	a5,779(s1)
200036f6:	0fe7f793          	andi	a5,a5,254
200036fa:	30f485a3          	sb	a5,779(s1)
200036fe:	3dad                	c.jal	20003578 <writeSPIByte>
20003700:	5d09a55b          	bfoz	a0,s3,23,16
20003704:	e75ff0ef          	jal	ra,20003578 <writeSPIByte>
20003708:	3c89a55b          	bfoz	a0,s3,15,8
2000370c:	e6dff0ef          	jal	ra,20003578 <writeSPIByte>
20003710:	0ff9f513          	andi	a0,s3,255
20003714:	e65ff0ef          	jal	ra,20003578 <writeSPIByte>
20003718:	10000793          	li	a5,256
2000371c:	10000493          	li	s1,256
20003720:	0127e463          	bltu	a5,s2,20003728 <W25XXX_WR_Page+0x70>
20003724:	012004b3          	add	s1,zero,s2
20003728:	00090a63          	beqz	s2,2000373c <W25XXX_WR_Page+0x84>
2000372c:	008484b3          	add	s1,s1,s0
20003730:	0405                	c.addi	s0,1
20003732:	fff44503          	lbu	a0,-1(s0)
20003736:	3589                	c.jal	20003578 <writeSPIByte>
20003738:	fe941ce3          	bne	s0,s1,20003730 <W25XXX_WR_Page+0x78>
2000373c:	80140737          	lui	a4,0x80140
20003740:	30b70783          	lb	a5,779(a4) # 8014030b <_DATA_LMA_START+0x60137f13>
20003744:	0ff7f793          	andi	a5,a5,255
20003748:	0017e793          	ori	a5,a5,1
2000374c:	30f705a3          	sb	a5,779(a4)
20003750:	f2dff0ef          	jal	ra,2000367c <FLASH_ReadStatusReg>
20003754:	fe057e5b          	bbs	a0,0,20003750 <W25XXX_WR_Page+0x98>
20003758:	40f2                	c.lwsp	ra,28(sp)
2000375a:	4462                	c.lwsp	s0,24(sp)
2000375c:	44d2                	c.lwsp	s1,20(sp)
2000375e:	4942                	c.lwsp	s2,16(sp)
20003760:	49b2                	c.lwsp	s3,12(sp)
20003762:	6105                	c.addi16sp	sp,32
20003764:	8082                	c.jr	ra
	...

20003768 <W25XXX_WR_Block>:
20003768:	1101                	c.addi	sp,-32
2000376a:	ca26                	c.swsp	s1,20(sp)
2000376c:	c84a                	c.swsp	s2,16(sp)
2000376e:	c452                	c.swsp	s4,8(sp)
20003770:	ce06                	c.swsp	ra,28(sp)
20003772:	cc22                	c.swsp	s0,24(sp)
20003774:	c64e                	c.swsp	s3,12(sp)
20003776:	c256                	c.swsp	s5,4(sp)
20003778:	c05a                	c.swsp	s6,0(sp)
2000377a:	0ff5f713          	andi	a4,a1,255
2000377e:	892e                	c.mv	s2,a1
20003780:	8a32                	c.mv	s4,a2
20003782:	84aa                	c.mv	s1,a0
20003784:	00865793          	srli	a5,a2,0x8
20003788:	eb31                	c.bnez	a4,200037dc <W25XXX_WR_Block+0x74>
2000378a:	cfad                	c.beqz	a5,20003804 <W25XXX_WR_Block+0x9c>
2000378c:	17fd                	c.addi	a5,-1
2000378e:	0ff7f993          	andi	s3,a5,255
20003792:	00198793          	addi	a5,s3,1
20003796:	07a2                	c.slli	a5,0x8
20003798:	00a00433          	add	s0,zero,a0
2000379c:	00f504b3          	add	s1,a0,a5
200037a0:	40a58ab3          	sub	s5,a1,a0
200037a4:	015405b3          	add	a1,s0,s5
200037a8:	8522                	c.mv	a0,s0
200037aa:	10000613          	li	a2,256
200037ae:	10040413          	addi	s0,s0,256
200037b2:	3719                	c.jal	200036b8 <W25XXX_WR_Page>
200037b4:	fe9418e3          	bne	s0,s1,200037a4 <W25XXX_WR_Block+0x3c>
200037b8:	10090593          	addi	a1,s2,256
200037bc:	09a2                	c.slli	s3,0x8
200037be:	0ffa7613          	andi	a2,s4,255
200037c2:	95ce                	c.add	a1,s3
200037c4:	00800533          	add	a0,zero,s0
200037c8:	4462                	c.lwsp	s0,24(sp)
200037ca:	40f2                	c.lwsp	ra,28(sp)
200037cc:	44d2                	c.lwsp	s1,20(sp)
200037ce:	4942                	c.lwsp	s2,16(sp)
200037d0:	49b2                	c.lwsp	s3,12(sp)
200037d2:	4a22                	c.lwsp	s4,8(sp)
200037d4:	4a92                	c.lwsp	s5,4(sp)
200037d6:	4b02                	c.lwsp	s6,0(sp)
200037d8:	6105                	c.addi16sp	sp,32
200037da:	bdf9                	c.j	200036b8 <W25XXX_WR_Page>
200037dc:	40e009b3          	neg	s3,a4
200037e0:	0ff9f993          	andi	s3,s3,255
200037e4:	e785                	c.bnez	a5,2000380c <W25XXX_WR_Block+0xa4>
200037e6:	0ff67413          	andi	s0,a2,255
200037ea:	0089fd63          	bgeu	s3,s0,20003804 <W25XXX_WR_Block+0x9c>
200037ee:	9722                	c.add	a4,s0
200037f0:	864e                	c.mv	a2,s3
200037f2:	0ff77413          	andi	s0,a4,255
200037f6:	35c9                	c.jal	200036b8 <W25XXX_WR_Page>
200037f8:	8622                	c.mv	a2,s0
200037fa:	012985b3          	add	a1,s3,s2
200037fe:	01348533          	add	a0,s1,s3
20003802:	b7d9                	c.j	200037c8 <W25XXX_WR_Block+0x60>
20003804:	8652                	c.mv	a2,s4
20003806:	85ca                	c.mv	a1,s2
20003808:	8526                	c.mv	a0,s1
2000380a:	bf7d                	c.j	200037c8 <W25XXX_WR_Block+0x60>
2000380c:	41360a33          	sub	s4,a2,s3
20003810:	008a5a93          	srli	s5,s4,0x8
20003814:	0ffaf413          	andi	s0,s5,255
20003818:	864e                	c.mv	a2,s3
2000381a:	147d                	c.addi	s0,-1
2000381c:	994e                	c.add	s2,s3
2000381e:	94ce                	c.add	s1,s3
20003820:	e99ff0ef          	jal	ra,200036b8 <W25XXX_WR_Page>
20003824:	0ffa7b13          	andi	s6,s4,255
20003828:	0ff47993          	andi	s3,s0,255
2000382c:	040a8863          	beqz	s5,2000387c <W25XXX_WR_Block+0x114>
20003830:	00198793          	addi	a5,s3,1
20003834:	8426                	c.mv	s0,s1
20003836:	07a2                	c.slli	a5,0x8
20003838:	00f484b3          	add	s1,s1,a5
2000383c:	40890ab3          	sub	s5,s2,s0
20003840:	015405b3          	add	a1,s0,s5
20003844:	8522                	c.mv	a0,s0
20003846:	10000613          	li	a2,256
2000384a:	10040413          	addi	s0,s0,256
2000384e:	35ad                	c.jal	200036b8 <W25XXX_WR_Page>
20003850:	fe9418e3          	bne	s0,s1,20003840 <W25XXX_WR_Block+0xd8>
20003854:	10090913          	addi	s2,s2,256
20003858:	09a2                	c.slli	s3,0x8
2000385a:	994e                	c.add	s2,s3
2000385c:	000b1c63          	bnez	s6,20003874 <W25XXX_WR_Block+0x10c>
20003860:	40f2                	c.lwsp	ra,28(sp)
20003862:	4462                	c.lwsp	s0,24(sp)
20003864:	44d2                	c.lwsp	s1,20(sp)
20003866:	4942                	c.lwsp	s2,16(sp)
20003868:	49b2                	c.lwsp	s3,12(sp)
2000386a:	4a22                	c.lwsp	s4,8(sp)
2000386c:	4a92                	c.lwsp	s5,4(sp)
2000386e:	4b02                	c.lwsp	s6,0(sp)
20003870:	6105                	c.addi16sp	sp,32
20003872:	8082                	c.jr	ra
20003874:	0ffa7613          	andi	a2,s4,255
20003878:	85ca                	c.mv	a1,s2
2000387a:	b7a9                	c.j	200037c4 <W25XXX_WR_Block+0x5c>
2000387c:	8426                	c.mv	s0,s1
2000387e:	bff9                	c.j	2000385c <W25XXX_WR_Block+0xf4>

20003880 <FLASH_Erase_Sector>:
20003880:	1141                	c.addi	sp,-16
20003882:	c422                	c.swsp	s0,8(sp)
20003884:	80140437          	lui	s0,0x80140
20003888:	c606                	c.swsp	ra,12(sp)
2000388a:	c226                	c.swsp	s1,4(sp)
2000388c:	30b40783          	lb	a5,779(s0) # 8014030b <_DATA_LMA_START+0x60137f13>
20003890:	84aa                	c.mv	s1,a0
20003892:	0fe7f793          	andi	a5,a5,254
20003896:	4519                	c.li	a0,6
20003898:	30f405a3          	sb	a5,779(s0)
2000389c:	cddff0ef          	jal	ra,20003578 <writeSPIByte>
200038a0:	30b40783          	lb	a5,779(s0)
200038a4:	02000513          	li	a0,32
200038a8:	0ff7f793          	andi	a5,a5,255
200038ac:	0017e793          	ori	a5,a5,1
200038b0:	30f405a3          	sb	a5,779(s0)
200038b4:	30b40783          	lb	a5,779(s0)
200038b8:	0fe7f793          	andi	a5,a5,254
200038bc:	30f405a3          	sb	a5,779(s0)
200038c0:	cb9ff0ef          	jal	ra,20003578 <writeSPIByte>
200038c4:	5d04a55b          	bfoz	a0,s1,23,16
200038c8:	cb1ff0ef          	jal	ra,20003578 <writeSPIByte>
200038cc:	3c84a55b          	bfoz	a0,s1,15,8
200038d0:	ca9ff0ef          	jal	ra,20003578 <writeSPIByte>
200038d4:	00000513          	li	a0,0
200038d8:	ca1ff0ef          	jal	ra,20003578 <writeSPIByte>
200038dc:	30b40783          	lb	a5,779(s0)
200038e0:	0ff7f793          	andi	a5,a5,255
200038e4:	0017e793          	ori	a5,a5,1
200038e8:	30f405a3          	sb	a5,779(s0)
200038ec:	d91ff0ef          	jal	ra,2000367c <FLASH_ReadStatusReg>
200038f0:	fe057e5b          	bbs	a0,0,200038ec <FLASH_Erase_Sector+0x6c>
200038f4:	40b2                	c.lwsp	ra,12(sp)
200038f6:	4422                	c.lwsp	s0,8(sp)
200038f8:	4492                	c.lwsp	s1,4(sp)
200038fa:	0141                	c.addi	sp,16
200038fc:	8082                	c.jr	ra
	...

20003900 <analog_read_reg32.constprop.5>:
20003900:	300026f3          	csrr	a3,mstatus
20003904:	8aa1                	c.andi	a3,8
20003906:	c299                	c.beqz	a3,2000390c <analog_read_reg32.constprop.5+0xc>
20003908:	300477f3          	csrrci	a5,mstatus,8
2000390c:	801407b7          	lui	a5,0x80140
20003910:	00400713          	li	a4,4
20003914:	18e781a3          	sb	a4,387(a5) # 80140183 <_DATA_LMA_START+0x60137d8b>
20003918:	06000713          	li	a4,96
2000391c:	18e78023          	sb	a4,384(a5)
20003920:	04000613          	li	a2,64
20003924:	80140737          	lui	a4,0x80140
20003928:	18c78123          	sb	a2,386(a5)
2000392c:	18270783          	lb	a5,386(a4) # 80140182 <_DATA_LMA_START+0x60137d8a>
20003930:	fe77fe5b          	bbs	a5,7,2000392c <analog_read_reg32.constprop.5+0x2c>
20003934:	18472503          	lw	a0,388(a4)
20003938:	00068463          	beqz	a3,20003940 <analog_read_reg32.constprop.5+0x40>
2000393c:	3006a6f3          	csrrs	a3,mstatus,a3
20003940:	8082                	c.jr	ra
20003942:	0001                	c.nop

20003944 <pwm_kick_32k_pad_times.constprop.1>:
20003944:	1141                	c.addi	sp,-16
20003946:	09500593          	li	a1,149
2000394a:	04e00513          	li	a0,78
2000394e:	c606                	c.swsp	ra,12(sp)
20003950:	c422                	c.swsp	s0,8(sp)
20003952:	c226                	c.swsp	s1,4(sp)
20003954:	01212023          	sw	s2,0(sp)
20003958:	dfffd097          	auipc	ra,0xdfffd
2000395c:	26c080e7          	jalr	620(ra) # bc4 <analog_write_reg8>
20003960:	4581                	c.li	a1,0
20003962:	4515                	c.li	a0,5
20003964:	dfffd097          	auipc	ra,0xdfffd
20003968:	260080e7          	jalr	608(ra) # bc4 <analog_write_reg8>
2000396c:	801407b7          	lui	a5,0x80140
20003970:	4705                	c.li	a4,1
20003972:	00000437          	lui	s0,0x0
20003976:	1ce78c23          	sb	a4,472(a5) # 801401d8 <_DATA_LMA_START+0x60137de0>
2000397a:	4505                	c.li	a0,1
2000397c:	4749                	c.li	a4,18
2000397e:	44ad                	c.li	s1,11
20003980:	15840413          	addi	s0,s0,344 # 158 <_AES_VMA_END>
20003984:	1ee78423          	sb	a4,488(a5)
20003988:	dfffd097          	auipc	ra,0xdfffd
2000398c:	e54080e7          	jalr	-428(ra) # 7dc <delay_ms>
20003990:	14fd                	c.addi	s1,-1
20003992:	c09d                	c.beqz	s1,200039b8 <pwm_kick_32k_pad_times.constprop.1+0x74>
20003994:	ab9ff0ef          	jal	ra,2000344c <pwm_kick_32k_pad.constprop.2>
20003998:	11842783          	lw	a5,280(s0)
2000399c:	9782                	c.jalr	a5
2000399e:	892a                	c.mv	s2,a0
200039a0:	13100513          	li	a0,305
200039a4:	dfffd097          	auipc	ra,0xdfffd
200039a8:	e5c080e7          	jalr	-420(ra) # 800 <delay_us>
200039ac:	11842783          	lw	a5,280(s0)
200039b0:	000780e7          	jalr	a5
200039b4:	fca90ee3          	beq	s2,a0,20003990 <pwm_kick_32k_pad_times.constprop.1+0x4c>
200039b8:	40b2                	c.lwsp	ra,12(sp)
200039ba:	4422                	c.lwsp	s0,8(sp)
200039bc:	4492                	c.lwsp	s1,4(sp)
200039be:	4902                	c.lwsp	s2,0(sp)
200039c0:	0141                	c.addi	sp,16
200039c2:	8082                	c.jr	ra
200039c4:	0001                	c.nop
	...

200039c8 <cpu_wakeup_no_deepretn_back_init>:
200039c8:	1141                	c.addi	sp,-16
200039ca:	c422                	c.swsp	s0,8(sp)
200039cc:	00000437          	lui	s0,0x0
200039d0:	15840413          	addi	s0,s0,344 # 158 <_AES_VMA_END>
200039d4:	c606                	c.swsp	ra,12(sp)
200039d6:	c226                	c.swsp	s1,4(sp)
200039d8:	13144783          	lbu	a5,305(s0)
200039dc:	08078463          	beqz	a5,20003a64 <cpu_wakeup_no_deepretn_back_init+0x9c>
200039e0:	03900513          	li	a0,57
200039e4:	dfffd097          	auipc	ra,0xdfffd
200039e8:	21c080e7          	jalr	540(ra) # c00 <analog_read_reg8>
200039ec:	5615725b          	bbs	a0,1,20003b50 <cpu_wakeup_no_deepretn_back_init+0x188>
200039f0:	03900513          	li	a0,57
200039f4:	dfffd097          	auipc	ra,0xdfffd
200039f8:	20c080e7          	jalr	524(ra) # c00 <analog_read_reg8>
200039fc:	00256593          	ori	a1,a0,2
20003a00:	0ff5f593          	andi	a1,a1,255
20003a04:	03900513          	li	a0,57
20003a08:	dfffd097          	auipc	ra,0xdfffd
20003a0c:	1bc080e7          	jalr	444(ra) # bc4 <analog_write_reg8>
20003a10:	f35ff0ef          	jal	ra,20003944 <pwm_kick_32k_pad_times.constprop.1>
20003a14:	80140737          	lui	a4,0x80140
20003a18:	06500793          	li	a5,101
20003a1c:	1ef70a23          	sb	a5,500(a4) # 801401f4 <_DATA_LMA_START+0x60137dfc>
20003a20:	1c872783          	lw	a5,456(a4)
20003a24:	1e070a23          	sb	zero,500(a4)
20003a28:	4c47a7db          	bfoz	a5,a5,19,4
20003a2c:	3807a75b          	bfoz	a4,a5,14,0
20003a30:	00070663          	beqz	a4,20003a3c <cpu_wakeup_no_deepretn_back_init+0x74>
20003a34:	13845683          	lhu	a3,312(s0)
20003a38:	0e069e63          	bnez	a3,20003b34 <cpu_wakeup_no_deepretn_back_init+0x16c>
20003a3c:	80140737          	lui	a4,0x80140
20003a40:	10471783          	lh	a5,260(a4) # 80140104 <_DATA_LMA_START+0x60137d0c>
20003a44:	06500793          	li	a5,101
20003a48:	1ef70a23          	sb	a5,500(a4)
20003a4c:	1c872783          	lw	a5,456(a4)
20003a50:	1e070a23          	sb	zero,500(a4)
20003a54:	8bbd                	c.andi	a5,15
20003a56:	0037d55b          	beqc	a5,3,20003a60 <cpu_wakeup_no_deepretn_back_init+0x98>
20003a5a:	4725                	c.li	a4,9
20003a5c:	10f77463          	bgeu	a4,a5,20003b64 <cpu_wakeup_no_deepretn_back_init+0x19c>
20003a60:	0000006f          	j	20003a60 <cpu_wakeup_no_deepretn_back_init+0x98>
20003a64:	04f00513          	li	a0,79
20003a68:	dfffd097          	auipc	ra,0xdfffd
20003a6c:	198080e7          	jalr	408(ra) # c00 <analog_read_reg8>
20003a70:	03f57593          	andi	a1,a0,63
20003a74:	0405e593          	ori	a1,a1,64
20003a78:	04f00513          	li	a0,79
20003a7c:	dfffd097          	auipc	ra,0xdfffd
20003a80:	148080e7          	jalr	328(ra) # bc4 <analog_write_reg8>
20003a84:	0f600593          	li	a1,246
20003a88:	0c600513          	li	a0,198
20003a8c:	dfffd097          	auipc	ra,0xdfffd
20003a90:	138080e7          	jalr	312(ra) # bc4 <analog_write_reg8>
20003a94:	0f700593          	li	a1,247
20003a98:	0c600513          	li	a0,198
20003a9c:	dfffd097          	auipc	ra,0xdfffd
20003aa0:	128080e7          	jalr	296(ra) # bc4 <analog_write_reg8>
20003aa4:	0cf00513          	li	a0,207
20003aa8:	dfffd097          	auipc	ra,0xdfffd
20003aac:	158080e7          	jalr	344(ra) # c00 <analog_read_reg8>
20003ab0:	be657a5b          	bbc	a0,6,20003aa4 <cpu_wakeup_no_deepretn_back_init+0xdc>
20003ab4:	0c900513          	li	a0,201
20003ab8:	dfffd097          	auipc	ra,0xdfffd
20003abc:	148080e7          	jalr	328(ra) # c00 <analog_read_reg8>
20003ac0:	00a005b3          	add	a1,zero,a0
20003ac4:	05100513          	li	a0,81
20003ac8:	dfffd097          	auipc	ra,0xdfffd
20003acc:	0fc080e7          	jalr	252(ra) # bc4 <analog_write_reg8>
20003ad0:	0ca00513          	li	a0,202
20003ad4:	dfffd097          	auipc	ra,0xdfffd
20003ad8:	12c080e7          	jalr	300(ra) # c00 <analog_read_reg8>
20003adc:	00a004b3          	add	s1,zero,a0
20003ae0:	04f00513          	li	a0,79
20003ae4:	dfffd097          	auipc	ra,0xdfffd
20003ae8:	11c080e7          	jalr	284(ra) # c00 <analog_read_reg8>
20003aec:	fc057593          	andi	a1,a0,-64
20003af0:	0095e5b3          	or	a1,a1,s1
20003af4:	0ff5f593          	andi	a1,a1,255
20003af8:	04f00513          	li	a0,79
20003afc:	dfffd097          	auipc	ra,0xdfffd
20003b00:	0c8080e7          	jalr	200(ra) # bc4 <analog_write_reg8>
20003b04:	0f600593          	li	a1,246
20003b08:	0c600513          	li	a0,198
20003b0c:	dfffd097          	auipc	ra,0xdfffd
20003b10:	0b8080e7          	jalr	184(ra) # bc4 <analog_write_reg8>
20003b14:	04f00513          	li	a0,79
20003b18:	dfffd097          	auipc	ra,0xdfffd
20003b1c:	0e8080e7          	jalr	232(ra) # c00 <analog_read_reg8>
20003b20:	03f57593          	andi	a1,a0,63
20003b24:	04f00513          	li	a0,79
20003b28:	dfffd097          	auipc	ra,0xdfffd
20003b2c:	09c080e7          	jalr	156(ra) # bc4 <analog_write_reg8>
20003b30:	ee5ff06f          	j	20003a14 <cpu_wakeup_no_deepretn_back_init+0x4c>
20003b34:	1ff7f793          	andi	a5,a5,511
20003b38:	3e878793          	addi	a5,a5,1000
20003b3c:	8325                	c.srli	a4,0x9
20003b3e:	1731                	c.addi	a4,-20
20003b40:	12f41a23          	sh	a5,308(s0)
20003b44:	4785                	c.li	a5,1
20003b46:	12e41b23          	sh	a4,310(s0)
20003b4a:	12f409a3          	sb	a5,307(s0)
20003b4e:	b5fd                	c.j	20003a3c <cpu_wakeup_no_deepretn_back_init+0x74>
20003b50:	00001537          	lui	a0,0x1
20003b54:	77050513          	addi	a0,a0,1904 # 1770 <sys_init.constprop.0+0x1cc>
20003b58:	dfffd097          	auipc	ra,0xdfffd
20003b5c:	ca8080e7          	jalr	-856(ra) # 800 <delay_us>
20003b60:	eb5ff06f          	j	20003a14 <cpu_wakeup_no_deepretn_back_init+0x4c>
20003b64:	40b2                	c.lwsp	ra,12(sp)
20003b66:	4422                	c.lwsp	s0,8(sp)
20003b68:	4492                	c.lwsp	s1,4(sp)
20003b6a:	0141                	c.addi	sp,16
20003b6c:	8082                	c.jr	ra
	...

20003b70 <gpio_set_up_down_res>:
20003b70:	1101                	c.addi	sp,-32
20003b72:	0f057793          	andi	a5,a0,240
20003b76:	00f037b3          	snez	a5,a5
20003b7a:	cc22                	c.swsp	s0,24(sp)
20003b7c:	00855413          	srli	s0,a0,0x8
20003b80:	0a87845b          	lea.h	s0,a5,s0
20003b84:	0439                	c.addi	s0,14
20003b86:	ce06                	c.swsp	ra,28(sp)
20003b88:	ca26                	c.swsp	s1,20(sp)
20003b8a:	c84a                	c.swsp	s2,16(sp)
20003b8c:	c64e                	c.swsp	s3,12(sp)
20003b8e:	01157793          	andi	a5,a0,17
20003b92:	0ff47413          	andi	s0,s0,255
20003b96:	eba9                	c.bnez	a5,20003be8 <gpio_set_up_down_res+0x78>
20003b98:	02257793          	andi	a5,a0,34
20003b9c:	cf85                	c.beqz	a5,20003bd4 <gpio_set_up_down_res+0x64>
20003b9e:	4989                	c.li	s3,2
20003ba0:	0f300913          	li	s2,243
20003ba4:	8522                	c.mv	a0,s0
20003ba6:	84ae                	c.mv	s1,a1
20003ba8:	dfffd097          	auipc	ra,0xdfffd
20003bac:	058080e7          	jalr	88(ra) # c00 <analog_read_reg8>
20003bb0:	013495b3          	sll	a1,s1,s3
