
B91_DFU.elf:     file format elf32-littleriscv
B91_DFU.elf
architecture: riscv:rv32, flags 0x00000112:
EXEC_P, HAS_SYMS, D_PAGED
start address 0x20000000

Program Header:
    LOAD off    0x00001000 vaddr 0x20000000 paddr 0x20000000 align 2**12
         filesz 0x0000018a memsz 0x0000018a flags r-x
    LOAD off    0x00002000 vaddr 0x00000000 paddr 0x20000190 align 2**12
         filesz 0x000003a6 memsz 0x000003a6 flags rwx
    LOAD off    0x00002400 vaddr 0x00000400 paddr 0x20000538 align 2**12
         filesz 0x00003102 memsz 0x00003102 flags r-x
    LOAD off    0x00005640 vaddr 0x20003640 paddr 0x20003640 align 2**12
         filesz 0x00002118 memsz 0x00002118 flags r-x
    LOAD off    0x00008000 vaddr 0x00080000 paddr 0x20005758 align 2**12
         filesz 0x00000016 memsz 0x00000048 flags rw-
0x70000000 off    0x0002027e vaddr 0x00000000 paddr 0x00000000 align 2**0
         filesz 0x0000003b memsz 0x00000000 flags r--

Sections:
Idx Name          Size      VMA       LMA       File off  Algn
  0 .vectors      0000018a  20000000  20000000  00001000  2**2
                  CONTENTS, ALLOC, LOAD, READONLY, CODE
  1 .retention_reset 00000154  00000000  20000190  00002000  2**2
                  CONTENTS, ALLOC, LOAD, READONLY, CODE
  2 .retention_data 0000024e  00000158  200002e8  00002158  2**2
                  CONTENTS, ALLOC, LOAD, DATA
  3 .ram_code     00003102  00000400  20000538  00002400  2**8
                  CONTENTS, ALLOC, LOAD, READONLY, CODE
  4 .text         00001e28  20003640  20003640  00005640  2**2
                  CONTENTS, ALLOC, LOAD, READONLY, CODE
  5 .rodata       000001f1  20005468  20005468  00007468  2**2
                  CONTENTS, ALLOC, LOAD, READONLY, DATA
  6 .eh_frame     000000f8  20005660  20005660  00007660  2**2
                  CONTENTS, ALLOC, LOAD, READONLY, DATA
  7 .data         00000016  00080000  20005758  00008000  2**2
                  CONTENTS, ALLOC, LOAD, DATA
  8 .sbss         0000001c  00080018  20005770  00008016  2**2
                  ALLOC
  9 .bss          00000014  00080034  2000578c  00008016  2**2
                  ALLOC
 10 .debug_info   00009719  00000000  00000000  00008016  2**0
                  CONTENTS, READONLY, DEBUGGING
 11 .debug_abbrev 00000b32  00000000  00000000  0001172f  2**0
                  CONTENTS, READONLY, DEBUGGING
 12 .debug_loc    00003fcc  00000000  00000000  00012261  2**0
                  CONTENTS, READONLY, DEBUGGING
 13 .debug_aranges 00000448  00000000  00000000  00016230  2**3
                  CONTENTS, READONLY, DEBUGGING
 14 .debug_ranges 00001020  00000000  00000000  00016678  2**3
                  CONTENTS, READONLY, DEBUGGING
 15 .debug_line   000049ed  00000000  00000000  00017698  2**0
                  CONTENTS, READONLY, DEBUGGING
 16 .debug_str    000041c2  00000000  00000000  0001c085  2**0
                  CONTENTS, READONLY, DEBUGGING
 17 .comment      00000037  00000000  00000000  00020247  2**0
                  CONTENTS, READONLY
 18 .riscv.attributes 0000003b  00000000  00000000  0002027e  2**0
                  CONTENTS, READONLY
 19 .debug_frame  00001274  00000000  00000000  000202bc  2**2
                  CONTENTS, READONLY, DEBUGGING
SYMBOL TABLE:
20000000 l    d  .vectors	00000000 .vectors
00000000 l    d  .retention_reset	00000000 .retention_reset
00000158 l    d  .retention_data	00000000 .retention_data
00000400 l    d  .ram_code	00000000 .ram_code
20003640 l    d  .text	00000000 .text
20005468 l    d  .rodata	00000000 .rodata
20005660 l    d  .eh_frame	00000000 .eh_frame
00080000 l    d  .data	00000000 .data
00080018 l    d  .sbss	00000000 .sbss
00080034 l    d  .bss	00000000 .bss
00000000 l    d  .debug_info	00000000 .debug_info
00000000 l    d  .debug_abbrev	00000000 .debug_abbrev
00000000 l    d  .debug_loc	00000000 .debug_loc
00000000 l    d  .debug_aranges	00000000 .debug_aranges
00000000 l    d  .debug_ranges	00000000 .debug_ranges
00000000 l    d  .debug_line	00000000 .debug_line
00000000 l    d  .debug_str	00000000 .debug_str
00000000 l    d  .comment	00000000 .comment
00000000 l    d  .riscv.attributes	00000000 .riscv.attributes
00000000 l    d  .debug_frame	00000000 .debug_frame
00000000 l    df *ABS*	00000000 ./boot/B91/cstartup_B91.o
20000028 l       .vectors	00000000 _START
20000030 l       .vectors	00000000 _SWS_USB_DIS
2000008e l       .vectors	00000000 _RETENTION_RESET_INIT
200000a6 l       .vectors	00000000 _RETENTION_RESET_BEGIN
200000b8 l       .vectors	00000000 _RETENTION_DATA_INIT
200000cc l       .vectors	00000000 _RETENTION_DATA_INIT_BEGIN
200000de l       .vectors	00000000 _RAMCODE_INIT
200000f6 l       .vectors	00000000 _RAMCODE_INIT_BEGIN
20000108 l       .vectors	00000000 _DATA_INIT
20000120 l       .vectors	00000000 _DATA_INIT_BEGIN
20000132 l       .vectors	00000000 _ZERO_BSS
20000146 l       .vectors	00000000 _ZERO_BSS_BEGIN
20000152 l       .vectors	00000000 _ZERO_AES
20000166 l       .vectors	00000000 _ZERO_AES_BEGIN
20000172 l       .vectors	00000000 _FILL_STK
20000172 l       .vectors	00000000 _MAIN_FUNC
20000188 l       .vectors	00000000 _END
00000022 l       .retention_reset	00000000 _ISTART
0000002a l       .retention_reset	00000000 _ISWS_USB_DIS
00000088 l       .retention_reset	00000000 _WAKEUP_FLASH
000000a2 l       .retention_reset	00000000 _MSPI_WAIT
000000bc l       .retention_reset	00000000 _WAIT_EFUSE_LOAD_FINISH
000000c2 l       .retention_reset	00000000 _MULTI_ADDRESS_BEGIN
000000d2 l       .retention_reset	00000000 _IDATA_INIT
000000ea l       .retention_reset	00000000 _IDATA_INIT_BEGIN
000000fc l       .retention_reset	00000000 _IZERO_BSS
00000110 l       .retention_reset	00000000 _IZERO_BSS_BEGIN
0000011c l       .retention_reset	00000000 _IZERO_AES
00000130 l       .retention_reset	00000000 _IZERO_AES_BEGIN
0000013c l       .retention_reset	00000000 _IFILL_STK
0000013c l       .retention_reset	00000000 _IMAIN_FUNC
00000152 l       .retention_reset	00000000 _IEND
00000040 l       *ABS*	00000000 irqno
00000000 l    df *ABS*	00000000 
00000400 l     F .ram_code	00000048 ble_rf_set_rx_dma
00000448 l     F .ram_code	00000024 irq_ll_system_timer
0000046c l     F .ram_code	000001dc irq_blc_ll_rx
00000648 l     F .ram_code	000001a0 irq_blt_sdk_handler
000007e8 l     F .ram_code	0000004c trng_rand
00000834 l     F .ram_code	00000048 pm_tim_recover_32k_rc
0000087c l     F .ram_code	00000048 pm_get_32k_rc_calib
000008c4 l     F .ram_code	0000005c pm_update_32k_rc_sleep_tick
00000920 l     F .ram_code	00000004 stimer_irq_handler
00000924 l     F .ram_code	00000004 rf_irq_handler
00000928 l     F .ram_code	00000024 delay_ms
20003774 l     F .text	00000068 pwm_kick_32k_pad.constprop.2
0000094c l     F .ram_code	0000001c delay_us
00000968 l     F .ram_code	00000044 flash_send_addr
000009ac l     F .ram_code	0000004c flash_send_cmd
000009f8 l     F .ram_code	00000168 flash_mspi_read_ram
20003640 l     F .text	00000030 flash_read_status
00000b60 l     F .ram_code	00000048 flash_wait_done
00000ba8 l     F .ram_code	000000d8 flash_mspi_write_ram
20003670 l     F .text	0000002c flash_read_mid
200037dc l     F .text	00000066 blc_readFlashSize_autoConfigCustomFlashSector
2000369c l     F .text	0000005c flash_page_program
200036f8 l     F .text	0000002c flash_dread
20003724 l     F .text	00000034 flash_erase_sector
00000c80 l     F .ram_code	00000060 clock_set_32k_tick
20003844 l     F .text	00000096 writeSPIByte
200038dc l     F .text	0000006c W25XXX_Read
20003948 l     F .text	0000003c FLASH_ReadStatusReg
20003984 l     F .text	000000ae W25XXX_WR_Page
20003a34 l     F .text	00000118 W25XXX_WR_Block
20003b4c l     F .text	00000042 analog_read_reg32.constprop.7
00000ce0 l     F .ram_code	00000030 clock_get_32k_tick
00000d10 l     F .ram_code	0000003c analog_write_reg8
20003b90 l     F .text	00000080 pwm_kick_32k_pad_times.constprop.1
00000d4c l     F .ram_code	00000044 analog_read_reg8
00000d90 l     F .ram_code	00000140 clock_init.constprop.6
00000ed0 l     F .ram_code	000000b4 pm_wait_bbpll_done
00000f84 l     F .ram_code	000001a4 pm_sleep_start
00001128 l     F .ram_code	00000464 cpu_sleep_wakeup_32k_rc_ram
20003758 l     F .text	0000001a cpu_sleep_wakeup_32k_rc
20003c14 l     F .text	000001a6 cpu_wakeup_no_deepretn_back_init
20003dbc l     F .text	00000096 gpio_set_up_down_res
20003e54 l     F .text	000001f4 hspi_set_pin_mux.part.0
0000158c l     F .ram_code	0000008c clock_cal_24m_rc
00001618 l     F .ram_code	000000d8 dr_putchar
000016f0 l     F .ram_code	00000254 sys_init.constprop.0
00001944 l     F .ram_code	000000b4 gpio_irq_handler
20004048 l     F .text	00000216 main_loop
20004260 l     F .text	00000058 flash_unlock_mid146085
200042bc l     F .text	0000039a fw_copy
00080034 l     O .bss	00000010 crc128
00000158 l     O .retention_data	0000002c bltParam
00000184 l     O .retention_data	00000004 ll_irq_systemTick_conn_cb
00000188 l     O .retention_data	00000010 blt_rxfifo
00000198 l     O .retention_data	0000000c blt_conn_phy
000001a4 l     O .retention_data	00000014 bltData
000001b8 l     O .retention_data	00000058 blttcon
00000210 l     O .retention_data	00000004 ll_irq_rx_data_cb
00000214 l     O .retention_data	00000004 blc_tlkEvent_pending
00000218 l     O .retention_data	00000004 ll_irq_scan_rx_pri_chn_cb
0000021c l     O .retention_data	00000004 blc_rf_pa_cb
00000220 l     O .retention_data	00000004 ll_irq_tx_cb
00000224 l     O .retention_data	00000010 blt_txfifo
00000234 l     O .retention_data	00000004 g_rnd_m_w
00000238 l     O .retention_data	00000004 g_rnd_m_z
0000023c l     O .retention_data	00000029 pmcd
00000268 l     O .retention_data	00000004 g_pm_tick_32k_calib
0000026c l     O .retention_data	00000001 g_pm_long_suspend
00000270 l     O .retention_data	00000004 flash_sector_calibration
00000274 l     O .retention_data	00000004 pm_get_32k_tick
00000278 l     O .retention_data	00000001 g_pm_suspend_power_cfg
0000027c l     O .retention_data	00000004 func_before_suspend
00000280 l     O .retention_data	00000004 g_pm_tick_32k_cur
00000284 l     O .retention_data	00000004 g_pm_tick_cur
0000028c l     O .retention_data	00000004 blt_miscParam
00000290 l     O .retention_data	00000006 adc_vref_cfg
00000298 l     O .retention_data	00000004 pm_tim_recover
0000029c l     O .retention_data	00000004 cpu_sleep_wakeup
000002a0 l     O .retention_data	000000f1 blt_timer
00000394 l     O .retention_data	00000004 flash_write_page
00000398 l     O .retention_data	00000004 flash_read_page
0000039c l     O .retention_data	00000001 F_SENDING_STATE
000003a0 l     O .retention_data	00000005 ORIGINAL_MASTER_TIME
000003a5 l     O .retention_data	00000001 g_plic_preempt_en
20005478 l     O .rodata	00000017 __FUNCTION__.13001
20005490 l     O .rodata	00000011 __FUNCTION__.13158
00080018 l     O .sbss	00000004 g_chip_version
0008001c l     O .sbss	00000004 g_pm_status_info
00080020 l     O .sbss	00000004 mcause
00080024 l     O .sbss	00000004 mepc
00080000 l     O .data	00000002 FmDebug
00080004 l     O .data	00000008 g_pm_early_wakeup_time_us
0008000c l     O .data	00000004 g_pm_r_delay_cycle
00080010 l     O .data	00000006 sys_clk
20005654 l     O .rodata	00000005 __FUNCTION__.13195
00000000 l    df *ABS*	00000000 memcpy.c
00000000 l    df *ABS*	00000000 printf.c
00000000 l    df *ABS*	00000000 strrchr.c
00000000 l    df *ABS*	00000000 vprintf.c
200048e2 l     F .text	00000038 __vprintf_help
00080028 l     O .sbss	00000004 __vprintf_buf
0008002c l     O .sbss	00000004 __vprintf_buf_len
00000000 l    df *ABS*	00000000 printf_impl.c
00000000 l    df *ABS*	00000000 printf_impl_float.c
00000000 l    df *ABS*	00000000 strcpy.c
00000000 l    df *ABS*	00000000 strnlen.c
00000000 l    df *ABS*	00000000 libgcc2.c
00000000 l    df *ABS*	00000000 libgcc2.c
00000000 l    df *ABS*	00000000 printf_data.c
00002524 g     F .ram_code	00000048 entry_irq55
00002fac g     F .ram_code	00000044 entry_irq13
20005310 g     F .text	0000007c strcpy
00002e94 g     F .ram_code	000000d4 entry_irq15
200053d8 g     F .text	0000002e .hidden __ashldi3
00002ad4 g     F .ram_code	00000044 entry_irq27
000023bc g     F .ram_code	00000048 entry_irq60
000032dc g     F .ram_code	000000d4 entry_irq1
000025fc g     F .ram_code	00000048 entry_irq52
0000268c g     F .ram_code	00000048 entry_irq50
0000232c g     F .ram_code	00000048 entry_irq62
20004898 g     F .text	0000001e printf
00080800 g       .data	00000000 __global_pointer$
20005410 g       .text	00000000 .hidden __riscv_save_8
0000244c g     F .ram_code	00000048 entry_irq58
2000545c g       .text	00000000 .hidden __riscv_restore_3
000003a6 g       .retention_data	00000000 _RETENTION_DATA_VMA_END
20005448 g       .text	00000000 .hidden __riscv_restore_10
20005410 g       .text	00000000 .hidden __riscv_save_11
20004964 g     F .text	0000004c __print_integral
00000000 g       .retention_reset	00000000 _RETENTION_RESET_VMA_START
00003078 g     F .ram_code	00000044 entry_irq10
00002cfc g     F .ram_code	00000044 entry_irq21
00000158 g       .retention_data	00000000 _AES_VMA_START
000026d8 g     F .ram_code	00000004 entry_irq48
2000545c g       .text	00000000 .hidden __riscv_restore_2
00003100 g     F .ram_code	00000044 entry_irq8
00002934 g     F .ram_code	00000048 entry_irq33
00080048 g       .bss	00000000 _BSS_VMA_END
200046f4 g     F .text	000000fa memcpy
20000190 g       *ABS*	00000000 _RETENTION_RESET_LMA_START
200049b0 g     F .text	0000047a __printf_impl
00002ff0 g     F .ram_code	00000044 entry_irq12
00002f68 g     F .ram_code	00000044 entry_irq14
20005408 g       .text	00000000 .hidden __riscv_save_12
00003298 g     F .ram_code	00000044 entry_irq2
00002644 g     F .ram_code	00000048 entry_irq51
20005448 g       .text	00000000 .hidden __riscv_restore_11
00002a90 g     F .ram_code	00000044 entry_irq28
00002774 g     F .ram_code	00000048 entry_irq43
20005438 g       .text	00000000 .hidden __riscv_save_1
2000545c g       .text	00000000 .hidden __riscv_restore_0
00002d40 g     F .ram_code	00000044 entry_irq20
2000541e g       .text	00000000 .hidden __riscv_save_7
00080018 g       .sbss	00000000 _BSS_VMA_START
000022e4 g     F .ram_code	00000048 entry_irq63
00080016 g       .data	00000000 _DATA_VMA_END
000026e0 g     F .ram_code	00000048 entry_irq46
000029c4 g     F .ram_code	00000044 entry_irq31
00002e50 g     F .ram_code	00000044 entry_irq16
00100000 g       *ABS*	00000000 FLASH_SIZE
20005452 g       .text	00000000 .hidden __riscv_restore_5
00080000 g       .data	00000000 _DATA_VMA_START
000025b4 g     F .ram_code	00000048 entry_irq53
00003034 g     F .ram_code	00000044 entry_irq11
00000154 g       .retention_reset	00000000 _RETENTION_RESET_VMA_END
2000538e g     F .text	00000018 strnlen
20005452 g       .text	00000000 .hidden __riscv_restore_6
200048b6 g     F .text	0000002c strrchr
000031cc g     F .ram_code	00000044 entry_irq5
00002c74 g     F .ram_code	00000044 entry_irq23
000028ec g     F .ram_code	00000048 entry_irq34
200053a8 g     F .text	0000002e .hidden __lshrdi3
0000285c g     F .ram_code	00000048 entry_irq36
20005410 g       .text	00000000 .hidden __riscv_save_9
0000272c g     F .ram_code	00000048 entry_irq44
2000491a g     F .text	0000004a vprintf
00002728 g     F .ram_code	00000004 entry_irq45
00002b18 g     F .ram_code	00000044 entry_irq26
2000541e g       .text	00000000 .hidden __riscv_save_4
00002804 g     F .ram_code	00000004 entry_irq41
00002374 g     F .ram_code	00000048 entry_irq61
20000000 g       .vectors	00000000 BIN_BEGIN
20005438 g       .text	00000000 .hidden __riscv_save_3
00002810 g     F .ram_code	00000004 entry_irq38
00003400 g       .ram_code	00000000 __vectors
0000576e g       *ABS*	00000000 BIN_SIZE
2000563c g     O .rodata	00000010 __digits
20000538 g       *ABS*	00000000 _RAMCODE_LMA_START
00080030 g     O .sbss	00000004 __printf_count
00002404 g     F .ram_code	00000048 entry_irq59
200046a4 g     F .text	0000004e memcmp
00003188 g     F .ram_code	00000044 entry_irq6
20005410 g       .text	00000000 .hidden __riscv_save_10
20005758 g       *ABS*	00000000 _DATA_LMA_START
20004e4a g     F .text	00000090 __print_integral_poly
20000000 g       *ABS*	00000000 NDS_SAG_LMA_FLASH
20005452 g       .text	00000000 .hidden __riscv_restore_4
20005448 g       .text	00000000 .hidden __riscv_restore_8
2000541e g       .text	00000000 .hidden __riscv_save_6
20000000  w      .vectors	00000000 _RELAX_END_
20004eda g     F .text	00000402 __printf_float_impl
200047ee g     F .text	000000aa memset
20005448 g       .text	00000000 .hidden __riscv_restore_9
20005452 g       .text	00000000 .hidden __riscv_restore_7
000019f8 g     F .ram_code	000008ec main
00003254 g     F .ram_code	00000044 entry_irq3
000033b0 g     F .ram_code	00000034 trap_entry
00000158 g       .retention_data	00000000 _AES_VMA_END
0000280c g     F .ram_code	00000004 entry_irq39
000026d4 g     F .ram_code	00000004 entry_irq49
00000288 g     O .retention_data	00000004 g_pm_multi_addr
00002494 g     F .ram_code	00000048 entry_irq57
000026dc g     F .ram_code	00000004 entry_irq47
200002e8 g       *ABS*	00000000 _RETENTION_DATA_LMA_START
20000000 g     F .vectors	00000000 _RESET_ENTRY
00000158 g       .retention_data	00000000 _RETENTION_DATA_VMA_START
00003210 g     F .ram_code	00000044 entry_irq4
000a0000 g       *ABS*	00000000 _STACK_TOP
00002cb8 g     F .ram_code	00000044 entry_irq22
00002a08 g     F .ram_code	00000044 entry_irq30
000027bc g     F .ram_code	00000048 entry_irq42
00002c30 g     F .ram_code	00000044 entry_irq24
20005438 g       .text	00000000 .hidden __riscv_save_2
00003502 g       .ram_code	00000000 _RAMCODE_VMA_END
00000000  w      *ABS*	00000000 _ITB_BASE_
2000541e g       .text	00000000 .hidden __riscv_save_5
00002d84 g     F .ram_code	00000044 entry_irq19
20004658 g     F .text	0000004c _write
00080048 g       .bss	00000000 _end
00002e0c g     F .ram_code	00000044 entry_irq17
000030bc g     F .ram_code	00000044 entry_irq9
000024dc g     F .ram_code	00000048 entry_irq56
000028a4 g     F .ram_code	00000048 entry_irq35
00002814 g     F .ram_code	00000048 entry_irq37
0000256c g     F .ram_code	00000048 entry_irq54
00002808 g     F .ram_code	00000004 entry_irq40
20005444 g       .text	00000000 .hidden __riscv_restore_12
00000400 g       .ram_code	00000000 _RAMCODE_VMA_START
20005438 g       .text	00000000 .hidden __riscv_save_0
00002a4c g     F .ram_code	00000044 entry_irq29
200052dc g     F .text	00000030 strchr
2000545c g       .text	00000000 .hidden __riscv_restore_1
00003144 g     F .ram_code	00000044 entry_irq7
0000297c g     F .ram_code	00000048 entry_irq32
00000000 g     F .retention_reset	00000000 _IRESET_ENTRY
00002dc8 g     F .ram_code	00000044 entry_irq18
20004e2a g     F .text	00000020 __int_to_poly
00002b5c g     F .ram_code	000000d4 entry_irq25



Disassembly of section .vectors:

20000000 <_RESET_ENTRY>:
20000000:	a025                	c.j	20000028 <_START>
	...
20000016:	0000                	unimp
20000018:	576e                	c.lwsp	a4,248(sp)
2000001a:	0000                	unimp
2000001c:	0000                	unimp
2000001e:	0000                	unimp
20000020:	544c4e4b          	fnmsub.h	ft8,fs8,ft4,fa0,rmm
20000024:	0000                	unimp
20000026:	          	sllw	a4,zero,zero

20000028 <_START>:
20000028:	e0080197          	auipc	gp,0xe0080
2000002c:	7d818193          	addi	gp,gp,2008 # 80800 <__global_pointer$>

20000030 <_SWS_USB_DIS>:
20000030:	801002b7          	lui	t0,0x80100
20000034:	70028293          	addi	t0,t0,1792 # 80100700 <_DATA_LMA_START+0x600fafa8>
20000038:	04000313          	li	t1,64
2000003c:	506280a3          	sb	t1,1281(t0)
20000040:	e00a0297          	auipc	t0,0xe00a0
20000044:	fc028293          	addi	t0,t0,-64 # a0000 <_STACK_TOP>
20000048:	8116                	c.mv	sp,t0
2000004a:	e0000297          	auipc	t0,0xe0000
2000004e:	fb628293          	addi	t0,t0,-74 # 0 <_ITB_BASE_>
20000052:	80029073          	csrw	uitb,t0
20000056:	6299                	c.lui	t0,0x6
20000058:	3002a2f3          	csrrs	t0,mstatus,t0
2000005c:	00301073          	fssr	zero
20000060:	e0003297          	auipc	t0,0xe0003
20000064:	3a028293          	addi	t0,t0,928 # 3400 <__vectors>
20000068:	30529073          	csrw	mtvec,t0
2000006c:	7d016073          	csrsi	mmisc_ctl,2
20000070:	e40002b7          	lui	t0,0xe4000
20000074:	430d                	c.li	t1,3
20000076:	0062a023          	sw	t1,0(t0) # e4000000 <_DATA_LMA_START+0xc3ffa8a8>
2000007a:	7ca022f3          	csrr	t0,mcache_ctl
2000007e:	0012e293          	ori	t0,t0,1
20000082:	0022e293          	ori	t0,t0,2
20000086:	7ca29073          	csrw	mcache_ctl,t0
2000008a:	0000100f          	fence.i

2000008e <_RETENTION_RESET_INIT>:
2000008e:	00000317          	auipc	t1,0x0
20000092:	10230313          	addi	t1,t1,258 # 20000190 <_RETENTION_RESET_LMA_START>
20000096:	e0000397          	auipc	t2,0xe0000
2000009a:	f6a38393          	addi	t2,t2,-150 # 0 <_ITB_BASE_>
2000009e:	e0000e17          	auipc	t3,0xe0000
200000a2:	0b6e0e13          	addi	t3,t3,182 # 154 <_RETENTION_RESET_VMA_END>

200000a6 <_RETENTION_RESET_BEGIN>:
200000a6:	01c3f963          	bgeu	t2,t3,200000b8 <_RETENTION_DATA_INIT>
200000aa:	00032283          	lw	t0,0(t1)
200000ae:	0053a023          	sw	t0,0(t2)
200000b2:	0311                	c.addi	t1,4
200000b4:	0391                	c.addi	t2,4
200000b6:	bfc5                	c.j	200000a6 <_RETENTION_RESET_BEGIN>

200000b8 <_RETENTION_DATA_INIT>:
200000b8:	00000317          	auipc	t1,0x0
200000bc:	23030313          	addi	t1,t1,560 # 200002e8 <_RETENTION_DATA_LMA_START>
200000c0:	15800393          	li	t2,344
200000c4:	e0000e17          	auipc	t3,0xe0000
200000c8:	2e2e0e13          	addi	t3,t3,738 # 3a6 <_RETENTION_DATA_VMA_END>

200000cc <_RETENTION_DATA_INIT_BEGIN>:
200000cc:	01c3f963          	bgeu	t2,t3,200000de <_RAMCODE_INIT>
200000d0:	00032283          	lw	t0,0(t1)
200000d4:	0053a023          	sw	t0,0(t2)
200000d8:	0311                	c.addi	t1,4
200000da:	0391                	c.addi	t2,4
200000dc:	bfc5                	c.j	200000cc <_RETENTION_DATA_INIT_BEGIN>

200000de <_RAMCODE_INIT>:
200000de:	00000317          	auipc	t1,0x0
200000e2:	45a30313          	addi	t1,t1,1114 # 20000538 <_RAMCODE_LMA_START>
200000e6:	e0000397          	auipc	t2,0xe0000
200000ea:	31a38393          	addi	t2,t2,794 # 400 <ble_rf_set_rx_dma>
200000ee:	e0003e17          	auipc	t3,0xe0003
200000f2:	414e0e13          	addi	t3,t3,1044 # 3502 <_RAMCODE_VMA_END>

200000f6 <_RAMCODE_INIT_BEGIN>:
200000f6:	01c3f963          	bgeu	t2,t3,20000108 <_DATA_INIT>
200000fa:	00032283          	lw	t0,0(t1)
200000fe:	0053a023          	sw	t0,0(t2)
20000102:	0311                	c.addi	t1,4
20000104:	0391                	c.addi	t2,4
20000106:	bfc5                	c.j	200000f6 <_RAMCODE_INIT_BEGIN>

20000108 <_DATA_INIT>:
20000108:	00005317          	auipc	t1,0x5
2000010c:	65030313          	addi	t1,t1,1616 # 20005758 <_DATA_LMA_START>
20000110:	e0080397          	auipc	t2,0xe0080
20000114:	ef038393          	addi	t2,t2,-272 # 80000 <_DATA_VMA_START>
20000118:	e0080e17          	auipc	t3,0xe0080
2000011c:	efee0e13          	addi	t3,t3,-258 # 80016 <_DATA_VMA_END>

20000120 <_DATA_INIT_BEGIN>:
20000120:	01c3f963          	bgeu	t2,t3,20000132 <_ZERO_BSS>
20000124:	00032283          	lw	t0,0(t1)
20000128:	0053a023          	sw	t0,0(t2)
2000012c:	0311                	c.addi	t1,4
2000012e:	0391                	c.addi	t2,4
20000130:	bfc5                	c.j	20000120 <_DATA_INIT_BEGIN>

20000132 <_ZERO_BSS>:
20000132:	000002b7          	lui	t0,0x0
20000136:	e0080397          	auipc	t2,0xe0080
2000013a:	ee238393          	addi	t2,t2,-286 # 80018 <_BSS_VMA_START>
2000013e:	e0080e17          	auipc	t3,0xe0080
20000142:	f0ae0e13          	addi	t3,t3,-246 # 80048 <_BSS_VMA_END>

20000146 <_ZERO_BSS_BEGIN>:
20000146:	01c3f663          	bgeu	t2,t3,20000152 <_ZERO_AES>
2000014a:	0053a023          	sw	t0,0(t2)
2000014e:	0391                	c.addi	t2,4
20000150:	bfdd                	c.j	20000146 <_ZERO_BSS_BEGIN>

20000152 <_ZERO_AES>:
20000152:	000002b7          	lui	t0,0x0
20000156:	e0000397          	auipc	t2,0xe0000
2000015a:	00238393          	addi	t2,t2,2 # 158 <_AES_VMA_END>
2000015e:	e0000e17          	auipc	t3,0xe0000
20000162:	ffae0e13          	addi	t3,t3,-6 # 158 <_AES_VMA_END>

20000166 <_ZERO_AES_BEGIN>:
20000166:	01c3f663          	bgeu	t2,t3,20000172 <_FILL_STK>
2000016a:	0053a023          	sw	t0,0(t2)
2000016e:	0391                	c.addi	t2,4
20000170:	bfdd                	c.j	20000166 <_ZERO_AES_BEGIN>

20000172 <_FILL_STK>:
20000172:	0001                	c.nop
20000174:	e0002297          	auipc	t0,0xe0002
20000178:	88428293          	addi	t0,t0,-1916 # 19f8 <main>
2000017c:	9282                	c.jalr	t0
2000017e:	0001                	c.nop
20000180:	0001                	c.nop
20000182:	0001                	c.nop
20000184:	0001                	c.nop
20000186:	0001                	c.nop

20000188 <_END>:
20000188:	a001                	c.j	20000188 <_END>

Disassembly of section .retention_reset:

00000000 <_IRESET_ENTRY>:
   0:	a00d                	c.j	22 <_ISTART>
	...

00000022 <_ISTART>:
  22:	00080197          	auipc	gp,0x80
  26:	7de18193          	addi	gp,gp,2014 # 80800 <__global_pointer$>

0000002a <_ISWS_USB_DIS>:
  2a:	801002b7          	lui	t0,0x80100
  2e:	70028293          	addi	t0,t0,1792 # 80100700 <_DATA_LMA_START+0x600fafa8>
  32:	04000313          	li	t1,64
  36:	506280a3          	sb	t1,1281(t0)
  3a:	000a0297          	auipc	t0,0xa0
  3e:	fc628293          	addi	t0,t0,-58 # a0000 <_STACK_TOP>
  42:	8116                	c.mv	sp,t0
  44:	00000297          	auipc	t0,0x0
  48:	fbc28293          	addi	t0,t0,-68 # 0 <_IRESET_ENTRY>
  4c:	80029073          	csrw	uitb,t0
  50:	6299                	c.lui	t0,0x6
  52:	3002a2f3          	csrrs	t0,mstatus,t0
  56:	00301073          	fssr	zero
  5a:	00003297          	auipc	t0,0x3
  5e:	3a628293          	addi	t0,t0,934 # 3400 <__vectors>
  62:	30529073          	csrw	mtvec,t0
  66:	7d016073          	csrsi	mmisc_ctl,2
  6a:	e40002b7          	lui	t0,0xe4000
  6e:	430d                	c.li	t1,3
  70:	0062a023          	sw	t1,0(t0) # e4000000 <_DATA_LMA_START+0xc3ffa8a8>
  74:	7ca022f3          	csrr	t0,mcache_ctl
  78:	0012e293          	ori	t0,t0,1
  7c:	0022e293          	ori	t0,t0,2
  80:	7ca29073          	csrw	mcache_ctl,t0
  84:	0000100f          	fence.i

00000088 <_WAKEUP_FLASH>:
  88:	801402b7          	lui	t0,0x80140
  8c:	0ff00313          	li	t1,255
  90:	4381                	c.li	t2,0
  92:	0ab00e13          	li	t3,171
  96:	326284a3          	sb	t1,809(t0) # 80140329 <_DATA_LMA_START+0x6013abd1>
  9a:	107280a3          	sb	t2,257(t0)
  9e:	11c28023          	sb	t3,256(t0)

000000a2 <_MSPI_WAIT>:
  a2:	801402b7          	lui	t0,0x80140
  a6:	10228383          	lb	t2,258(t0) # 80140102 <_DATA_LMA_START+0x6013a9aa>
  aa:	4e05                	c.li	t3,1
  ac:	4ec1                	c.li	t4,16
  ae:	fe7e0ae3          	beq	t3,t2,a2 <_MSPI_WAIT>
  b2:	11d280a3          	sb	t4,257(t0)
  b6:	4281                	c.li	t0,0
  b8:	0e200313          	li	t1,226

000000bc <_WAIT_EFUSE_LOAD_FINISH>:
  bc:	0285                	c.addi	t0,1
  be:	fe537fe3          	bgeu	t1,t0,bc <_WAIT_EFUSE_LOAD_FINISH>

000000c2 <_MULTI_ADDRESS_BEGIN>:
  c2:	801402b7          	lui	t0,0x80140
  c6:	28800313          	li	t1,648
  ca:	00032383          	lw	t2,0(t1)
  ce:	1072a223          	sw	t2,260(t0) # 80140104 <_DATA_LMA_START+0x6013a9ac>

000000d2 <_IDATA_INIT>:
  d2:	20005317          	auipc	t1,0x20005
  d6:	68630313          	addi	t1,t1,1670 # 20005758 <_DATA_LMA_START>
  da:	00080397          	auipc	t2,0x80
  de:	f2638393          	addi	t2,t2,-218 # 80000 <_DATA_VMA_START>
  e2:	00080e17          	auipc	t3,0x80
  e6:	f34e0e13          	addi	t3,t3,-204 # 80016 <_DATA_VMA_END>

000000ea <_IDATA_INIT_BEGIN>:
  ea:	01c3f963          	bgeu	t2,t3,fc <_IZERO_BSS>
  ee:	00032283          	lw	t0,0(t1)
  f2:	0053a023          	sw	t0,0(t2)
  f6:	0311                	c.addi	t1,4
  f8:	0391                	c.addi	t2,4
  fa:	bfc5                	c.j	ea <_IDATA_INIT_BEGIN>

000000fc <_IZERO_BSS>:
  fc:	000002b7          	lui	t0,0x0
 100:	00080397          	auipc	t2,0x80
 104:	f1838393          	addi	t2,t2,-232 # 80018 <_BSS_VMA_START>
 108:	00080e17          	auipc	t3,0x80
 10c:	f40e0e13          	addi	t3,t3,-192 # 80048 <_BSS_VMA_END>

00000110 <_IZERO_BSS_BEGIN>:
 110:	01c3f663          	bgeu	t2,t3,11c <_IZERO_AES>
 114:	0053a023          	sw	t0,0(t2)
 118:	0391                	c.addi	t2,4
 11a:	bfdd                	c.j	110 <_IZERO_BSS_BEGIN>

0000011c <_IZERO_AES>:
 11c:	000002b7          	lui	t0,0x0
 120:	00000397          	auipc	t2,0x0
 124:	03838393          	addi	t2,t2,56 # 158 <_AES_VMA_END>
 128:	00000e17          	auipc	t3,0x0
 12c:	030e0e13          	addi	t3,t3,48 # 158 <_AES_VMA_END>

00000130 <_IZERO_AES_BEGIN>:
 130:	01c3f663          	bgeu	t2,t3,13c <_IFILL_STK>
 134:	0053a023          	sw	t0,0(t2)
 138:	0391                	c.addi	t2,4
 13a:	bfdd                	c.j	130 <_IZERO_AES_BEGIN>

0000013c <_IFILL_STK>:
 13c:	0001                	c.nop
 13e:	00002297          	auipc	t0,0x2
 142:	8ba28293          	addi	t0,t0,-1862 # 19f8 <main>
 146:	9282                	c.jalr	t0
 148:	0001                	c.nop
 14a:	0001                	c.nop
 14c:	0001                	c.nop
 14e:	0001                	c.nop
 150:	0001                	c.nop

00000152 <_IEND>:
 152:	a001                	c.j	152 <_IEND>

Disassembly of section .ram_code:

00000400 <ble_rf_set_rx_dma>:
     400:	801007b7          	lui	a5,0x80100
     404:	50c78703          	lb	a4,1292(a5) # 8010050c <_DATA_LMA_START+0x600fadb4>
     408:	0511                	c.addi	a0,4
     40a:	0ff77713          	andi	a4,a4,255
     40e:	00676713          	ori	a4,a4,6
     412:	50e78623          	sb	a4,1292(a5)
     416:	500786a3          	sb	zero,1293(a5)
     41a:	00141737          	lui	a4,0x141
     41e:	4eb78b23          	sb	a1,1270(a5)
     422:	88070713          	addi	a4,a4,-1920 # 140880 <FLASH_SIZE+0x40880>
     426:	44e7ae23          	sw	a4,1116(a5)
     42a:	000a07b7          	lui	a5,0xa0
     42e:	00f57563          	bgeu	a0,a5,438 <ble_rf_set_rx_dma+0x38>
     432:	c01807b7          	lui	a5,0xc0180
     436:	953e                	c.add	a0,a5
     438:	801007b7          	lui	a5,0x80100
     43c:	46a7a023          	sw	a0,1120(a5) # 80100460 <_DATA_LMA_START+0x600fad08>
     440:	577d                	c.li	a4,-1
     442:	46e7a223          	sw	a4,1124(a5)
     446:	8082                	c.jr	ra

00000448 <irq_ll_system_timer>:
     448:	000007b7          	lui	a5,0x0
     44c:	15878793          	addi	a5,a5,344 # 158 <_AES_VMA_END>
     450:	01178703          	lb	a4,17(a5)
     454:	0ff77713          	andi	a4,a4,255
     458:	0087545b          	beqc	a4,8,460 <irq_ll_system_timer+0x18>
     45c:	00008067          	ret
     460:	02c7a303          	lw	t1,44(a5)
     464:	fe030ce3          	beqz	t1,45c <irq_ll_system_timer+0x14>
     468:	00030067          	jr	t1

0000046c <irq_blc_ll_rx>:
     46c:	1141                	c.addi	sp,-16
     46e:	c422                	c.swsp	s0,8(sp)
     470:	00000437          	lui	s0,0x0
     474:	15840413          	addi	s0,s0,344 # 158 <_AES_VMA_END>
     478:	c606                	c.swsp	ra,12(sp)
     47a:	c226                	c.swsp	s1,4(sp)
     47c:	03644703          	lbu	a4,54(s0)
     480:	5c44                	c.lw	s1,60(s0)
     482:	03544603          	lbu	a2,53(s0)
     486:	03045683          	lhu	a3,48(s0)
     48a:	00170793          	addi	a5,a4,1
     48e:	0ff7f793          	andi	a5,a5,255
     492:	00c7f5b3          	and	a1,a5,a2
     496:	8526                	c.mv	a0,s1
     498:	c4d5957f          	maddr32	a0,a1,a3
     49c:	8f71                	c.and	a4,a2
     49e:	d048                	c.sw	a0,36(s0)
     4a0:	5048                	c.lw	a0,36(s0)
     4a2:	01740583          	lb	a1,23(s0)
     4a6:	c4d714ff          	maddr32	s1,a4,a3
     4aa:	0ff5f593          	andi	a1,a1,255
     4ae:	02f40b23          	sb	a5,54(s0)
     4b2:	37b9                	c.jal	400 <ble_rf_set_rx_dma>
     4b4:	801417b7          	lui	a5,0x80141
     4b8:	00100713          	li	a4,1
     4bc:	a2e79023          	sh	a4,-1504(a5) # 80140a20 <_DATA_LMA_START+0x6013b2c8>
     4c0:	801407b7          	lui	a5,0x80140
     4c4:	2007a583          	lw	a1,512(a5) # 80140200 <_DATA_LMA_START+0x6013aaa8>
     4c8:	00048123          	sb	zero,2(s1)
     4cc:	01240783          	lb	a5,18(s0)
     4d0:	0ff7f793          	andi	a5,a5,255
     4d4:	1057d25b          	beqc	a5,5,5d8 <irq_blc_ll_rx+0x16c>
     4d8:	801417b7          	lui	a5,0x80141
     4dc:	83178783          	lb	a5,-1999(a5) # 80140831 <_DATA_LMA_START+0x6013b0d9>
     4e0:	0054c703          	lbu	a4,5(s1)
     4e4:	0ff7f793          	andi	a5,a5,255
     4e8:	00e7e863          	bltu	a5,a4,4f8 <irq_blc_ll_rx+0x8c>
     4ec:	00970733          	add	a4,a4,s1
     4f0:	01070783          	lb	a5,16(a4)
     4f4:	0207f85b          	bbc	a5,0,524 <irq_blc_ll_rx+0xb8>
     4f8:	06440783          	lb	a5,100(s0)
     4fc:	00178793          	addi	a5,a5,1
     500:	06f40223          	sb	a5,100(s0)
     504:	03640783          	lb	a5,54(s0)
     508:	d044                	c.sw	s1,36(s0)
     50a:	17fd                	c.addi	a5,-1
     50c:	02f40b23          	sb	a5,54(s0)
     510:	5048                	c.lw	a0,36(s0)
     512:	01740583          	lb	a1,23(s0)
     516:	4422                	c.lwsp	s0,8(sp)
     518:	40b2                	c.lwsp	ra,12(sp)
     51a:	4492                	c.lwsp	s1,4(sp)
     51c:	0ff5f593          	andi	a1,a1,255
     520:	0141                	c.addi	sp,16
     522:	bdf9                	c.j	400 <ble_rf_set_rx_dma>
     524:	01140783          	lb	a5,17(s0)
     528:	00000513          	li	a0,0
     52c:	0ff7f793          	andi	a5,a5,255
     530:	0647d45b          	beqc	a5,4,598 <irq_blc_ll_rx+0x12c>
     534:	01140783          	lb	a5,17(s0)
     538:	0ff7f793          	andi	a5,a5,255
     53c:	0487ee5b          	bnec	a5,8,598 <irq_blc_ll_rx+0x12c>
     540:	01240783          	lb	a5,18(s0)
     544:	0ff7f793          	andi	a5,a5,255
     548:	0057d85b          	beqc	a5,5,558 <irq_blc_ll_rx+0xec>
     54c:	01240783          	lb	a5,18(s0)
     550:	0ff7f793          	andi	a5,a5,255
     554:	0437e25b          	bnec	a5,3,598 <irq_blc_ll_rx+0x12c>
     558:	0b842703          	lw	a4,184(s0)
     55c:	4501                	c.li	a0,0
     55e:	cf0d                	c.beqz	a4,598 <irq_blc_ll_rx+0x12c>
     560:	00840783          	lb	a5,8(s0)
     564:	0ff7f793          	andi	a5,a5,255
     568:	0c078463          	beqz	a5,630 <irq_blc_ll_rx+0x1c4>
     56c:	00840783          	lb	a5,8(s0)
     570:	06444683          	lbu	a3,100(s0)
     574:	0ff7f793          	andi	a5,a5,255
     578:	0af6ec63          	bltu	a3,a5,630 <irq_blc_ll_rx+0x1c4>
     57c:	0bc42783          	lw	a5,188(s0)
     580:	00100693          	li	a3,1
     584:	0407e793          	ori	a5,a5,64
     588:	00d404a3          	sb	a3,9(s0)
     58c:	0af42e23          	sw	a5,188(s0)
     590:	8526                	c.mv	a0,s1
     592:	9702                	c.jalr	a4
     594:	0ff57513          	andi	a0,a0,255
     598:	000404a3          	sb	zero,9(s0)
     59c:	00440703          	lb	a4,4(s0)
     5a0:	0054c783          	lbu	a5,5(s1)
     5a4:	0ff77713          	andi	a4,a4,255
     5a8:	97a6                	c.add	a5,s1
     5aa:	00f7c683          	lbu	a3,15(a5)
     5ae:	cf39                	c.beqz	a4,60c <irq_blc_ll_rx+0x1a0>
     5b0:	00440783          	lb	a5,4(s0)
     5b4:	0ff7f793          	andi	a5,a5,255
     5b8:	97b6                	c.add	a5,a3
     5ba:	8385                	c.srli	a5,0x1
     5bc:	00f40223          	sb	a5,4(s0)
     5c0:	06440783          	lb	a5,100(s0)
     5c4:	0785                	c.addi	a5,1
     5c6:	06f40223          	sb	a5,100(s0)
     5ca:	dd0d                	c.beqz	a0,504 <irq_blc_ll_rx+0x98>
     5cc:	40b2                	c.lwsp	ra,12(sp)
     5ce:	4422                	c.lwsp	s0,8(sp)
     5d0:	4492                	c.lwsp	s1,4(sp)
     5d2:	0141                	c.addi	sp,16
     5d4:	00008067          	ret
     5d8:	04144783          	lbu	a5,65(s0)
     5dc:	0437d65b          	beqc	a5,3,628 <irq_blc_ll_rx+0x1bc>
     5e0:	05f44783          	lbu	a5,95(s0)
     5e4:	cb85                	c.beqz	a5,614 <irq_blc_ll_rx+0x1a8>
     5e6:	80100737          	lui	a4,0x80100
     5ea:	50070683          	lb	a3,1280(a4) # 80100500 <_DATA_LMA_START+0x600fada8>
     5ee:	50170703          	lb	a4,1281(a4)
     5f2:	0ff6f693          	andi	a3,a3,255
     5f6:	0ff77713          	andi	a4,a4,255
     5fa:	00e68d63          	beq	a3,a4,614 <irq_blc_ll_rx+0x1a8>
     5fe:	6705                	c.lui	a4,0x1
     600:	83470713          	addi	a4,a4,-1996 # 834 <pm_tim_recover_32k_rc>
     604:	0ef707db          	lea.d	a5,a4,a5
     608:	0792                	c.slli	a5,0x4
     60a:	a809                	c.j	61c <irq_blc_ll_rx+0x1b0>
     60c:	00d40223          	sb	a3,4(s0)
     610:	fb1ff06f          	j	5c0 <irq_blc_ll_rx+0x154>
     614:	000087b7          	lui	a5,0x8
     618:	34078793          	addi	a5,a5,832 # 8340 <BIN_SIZE+0x2bd2>
     61c:	97ae                	c.add	a5,a1
     61e:	80140737          	lui	a4,0x80140
     622:	20f72223          	sw	a5,516(a4) # 80140204 <_DATA_LMA_START+0x6013aaac>
     626:	bd4d                	c.j	4d8 <irq_blc_ll_rx+0x6c>
     628:	67d5                	c.lui	a5,0x15
     62a:	b4078793          	addi	a5,a5,-1216 # 14b40 <BIN_SIZE+0xf3d2>
     62e:	b7fd                	c.j	61c <irq_blc_ll_rx+0x1b0>
     630:	03640783          	lb	a5,54(s0)
     634:	03740603          	lb	a2,55(s0)
     638:	03444683          	lbu	a3,52(s0)
     63c:	8f91                	c.sub	a5,a2
     63e:	03f7f793          	andi	a5,a5,63
     642:	f4d7e7e3          	bltu	a5,a3,590 <irq_blc_ll_rx+0x124>
     646:	bf1d                	c.j	57c <irq_blc_ll_rx+0x110>

00000648 <irq_blt_sdk_handler>:
     648:	1141                	c.addi	sp,-16
     64a:	c422                	c.swsp	s0,8(sp)
     64c:	00000437          	lui	s0,0x0
     650:	15840413          	addi	s0,s0,344 # 158 <_AES_VMA_END>
     654:	c606                	c.swsp	ra,12(sp)
     656:	c226                	c.swsp	s1,4(sp)
     658:	00240783          	lb	a5,2(s0)
     65c:	0ff7f793          	andi	a5,a5,255
     660:	efe1                	c.bnez	a5,738 <irq_blt_sdk_handler+0xf0>
     662:	801417b7          	lui	a5,0x80141
     666:	a2079483          	lh	s1,-1504(a5) # 80140a20 <_DATA_LMA_START+0x6013b2c8>
     66a:	3c04a4db          	bfoz	s1,s1,15,0
     66e:	0204f75b          	bbc	s1,0,69c <irq_blt_sdk_handler+0x54>
     672:	01240783          	lb	a5,18(s0)
     676:	0ff7f793          	andi	a5,a5,255
     67a:	1627e35b          	bnec	a5,2,7e0 <irq_blt_sdk_handler+0x198>
     67e:	0c042783          	lw	a5,192(s0)
     682:	9782                	c.jalr	a5
     684:	0c442703          	lw	a4,196(s0)
     688:	00070a63          	beqz	a4,69c <irq_blt_sdk_handler+0x54>
     68c:	01240783          	lb	a5,18(s0)
     690:	0ff7f793          	andi	a5,a5,255
     694:	1257ec5b          	bnec	a5,5,7cc <irq_blt_sdk_handler+0x184>
     698:	4505                	c.li	a0,1
     69a:	9702                	c.jalr	a4
     69c:	0414f25b          	bbc	s1,1,6e0 <irq_blt_sdk_handler+0x98>
     6a0:	0c442703          	lw	a4,196(s0)
     6a4:	801417b7          	lui	a5,0x80141
     6a8:	4689                	c.li	a3,2
     6aa:	a2d79023          	sh	a3,-1504(a5) # 80140a20 <_DATA_LMA_START+0x6013b2c8>
     6ae:	cb09                	c.beqz	a4,6c0 <irq_blt_sdk_handler+0x78>
     6b0:	01240783          	lb	a5,18(s0)
     6b4:	0ff7f793          	andi	a5,a5,255
     6b8:	1057e25b          	bnec	a5,5,7bc <irq_blt_sdk_handler+0x174>
     6bc:	4509                	c.li	a0,2
     6be:	9702                	c.jalr	a4
     6c0:	0c842703          	lw	a4,200(s0)
     6c4:	cb01                	c.beqz	a4,6d4 <irq_blt_sdk_handler+0x8c>
     6c6:	00640783          	lb	a5,6(s0)
     6ca:	0ff7f793          	andi	a5,a5,255
     6ce:	c399                	c.beqz	a5,6d4 <irq_blt_sdk_handler+0x8c>
     6d0:	000700e7          	jalr	a4
     6d4:	01140783          	lb	a5,17(s0)
     6d8:	0ff7f793          	andi	a5,a5,255
     6dc:	0887d45b          	beqc	a5,8,764 <irq_blt_sdk_handler+0x11c>
     6e0:	4744f493          	andi	s1,s1,1140
     6e4:	00048e63          	beqz	s1,700 <irq_blt_sdk_handler+0xb8>
     6e8:	801417b7          	lui	a5,0x80141
     6ec:	47400713          	li	a4,1140
     6f0:	a2e79023          	sh	a4,-1504(a5) # 80140a20 <_DATA_LMA_START+0x6013b2c8>
     6f4:	01240783          	lb	a5,18(s0)
     6f8:	0ff7f793          	andi	a5,a5,255
     6fc:	0a57d65b          	beqc	a5,5,7a8 <irq_blt_sdk_handler+0x160>
     700:	801407b7          	lui	a5,0x80140
     704:	20978703          	lb	a4,521(a5) # 80140209 <_DATA_LMA_START+0x6013aab1>
     708:	42077e5b          	bbs	a4,0,744 <irq_blt_sdk_handler+0xfc>
     70c:	80140737          	lui	a4,0x80140
     710:	20472783          	lw	a5,516(a4) # 80140204 <_DATA_LMA_START+0x6013aaac>
     714:	20072603          	lw	a2,512(a4)
     718:	400006b7          	lui	a3,0x40000
     71c:	40c787b3          	sub	a5,a5,a2
     720:	00f6fc63          	bgeu	a3,a5,738 <irq_blt_sdk_handler+0xf0>
     724:	01140783          	lb	a5,17(s0)
     728:	8bb9                	c.andi	a5,14
     72a:	c799                	c.beqz	a5,738 <irq_blt_sdk_handler+0xf0>
     72c:	20072783          	lw	a5,512(a4)
     730:	7d078793          	addi	a5,a5,2000
     734:	20f72223          	sw	a5,516(a4)
     738:	40b2                	c.lwsp	ra,12(sp)
     73a:	4422                	c.lwsp	s0,8(sp)
     73c:	4492                	c.lwsp	s1,4(sp)
     73e:	0141                	c.addi	sp,16
     740:	00008067          	ret
     744:	4705                	c.li	a4,1
     746:	20e784a3          	sb	a4,521(a5)
     74a:	39fd                	c.jal	448 <irq_ll_system_timer>
     74c:	80140737          	lui	a4,0x80140
     750:	20472783          	lw	a5,516(a4) # 80140204 <_DATA_LMA_START+0x6013aaac>
     754:	20072603          	lw	a2,512(a4)
     758:	400006b7          	lui	a3,0x40000
     75c:	8f91                	c.sub	a5,a2
     75e:	fcf6e3e3          	bltu	a3,a5,724 <irq_blt_sdk_handler+0xdc>
     762:	bfd9                	c.j	738 <irq_blt_sdk_handler+0xf0>
     764:	0d240783          	lb	a5,210(s0)
     768:	0d340683          	lb	a3,211(s0)
     76c:	8f95                	c.sub	a5,a3
     76e:	8bfd                	c.andi	a5,31
     770:	dba5                	c.beqz	a5,6e0 <irq_blt_sdk_handler+0x98>
     772:	80100637          	lui	a2,0x80100
     776:	50060703          	lb	a4,1280(a2) # 80100500 <_DATA_LMA_START+0x600fada8>
     77a:	50160503          	lb	a0,1281(a2)
     77e:	4585                	c.li	a1,1
     780:	8f09                	c.sub	a4,a0
     782:	8b7d                	c.andi	a4,31
     784:	177d                	c.addi	a4,-1
     786:	f4e5ede3          	bltu	a1,a4,6e0 <irq_blt_sdk_handler+0x98>
     78a:	50060703          	lb	a4,1280(a2)
     78e:	96be                	c.add	a3,a5
     790:	97ba                	c.add	a5,a4
     792:	0cd409a3          	sb	a3,211(s0)
     796:	0ff7f793          	andi	a5,a5,255
     79a:	50f60023          	sb	a5,1280(a2)
     79e:	50160783          	lb	a5,1281(a2)
     7a2:	50060783          	lb	a5,1280(a2)
     7a6:	bf2d                	c.j	6e0 <irq_blt_sdk_handler+0x98>
     7a8:	80140737          	lui	a4,0x80140
     7ac:	20072783          	lw	a5,512(a4) # 80140200 <_DATA_LMA_START+0x6013aaa8>
     7b0:	0c878793          	addi	a5,a5,200
     7b4:	20f72223          	sw	a5,516(a4)
     7b8:	f49ff06f          	j	700 <irq_blt_sdk_handler+0xb8>
     7bc:	01240783          	lb	a5,18(s0)
     7c0:	0ff7f793          	andi	a5,a5,255
     7c4:	ae37ee5b          	bnec	a5,3,6c0 <irq_blt_sdk_handler+0x78>
     7c8:	ef5ff06f          	j	6bc <irq_blt_sdk_handler+0x74>
     7cc:	01240783          	lb	a5,18(s0)
     7d0:	0ff7f793          	andi	a5,a5,255
     7d4:	ac37d25b          	beqc	a5,3,698 <irq_blt_sdk_handler+0x50>
     7d8:	b014f45b          	bbc	s1,1,6e0 <irq_blt_sdk_handler+0x98>
     7dc:	ec5ff06f          	j	6a0 <irq_blt_sdk_handler+0x58>
     7e0:	c8dff0ef          	jal	ra,46c <irq_blc_ll_rx>
     7e4:	ea1ff06f          	j	684 <irq_blt_sdk_handler+0x3c>

000007e8 <trng_rand>:
     7e8:	000006b7          	lui	a3,0x0
     7ec:	15868693          	addi	a3,a3,344 # 158 <_AES_VMA_END>
     7f0:	0e06a783          	lw	a5,224(a3)
     7f4:	6641                	c.lui	a2,0x10
     7f6:	167d                	c.addi	a2,-1
     7f8:	65a5                	c.lui	a1,0x9
     7fa:	0dc6a703          	lw	a4,220(a3)
     7fe:	00c7f533          	and	a0,a5,a2
     802:	06958593          	addi	a1,a1,105 # 9069 <BIN_SIZE+0x38fb>
     806:	83c1                	c.srli	a5,0x10
     808:	c4b517ff          	maddr32	a5,a0,a1
     80c:	6591                	c.lui	a1,0x4
     80e:	8e79                	c.and	a2,a4
     810:	65058593          	addi	a1,a1,1616 # 4650 <_RAMCODE_VMA_END+0x114e>
     814:	8341                	c.srli	a4,0x10
     816:	c4b6177f          	maddr32	a4,a2,a1
     81a:	80140637          	lui	a2,0x80140
     81e:	20062503          	lw	a0,512(a2) # 80140200 <_DATA_LMA_START+0x6013aaa8>
     822:	01079613          	slli	a2,a5,0x10
     826:	963a                	c.add	a2,a4
     828:	0ce6ae23          	sw	a4,220(a3)
     82c:	0ef6a023          	sw	a5,224(a3)
     830:	8d31                	c.xor	a0,a2
     832:	8082                	c.jr	ra

00000834 <pm_tim_recover_32k_rc>:
     834:	000007b7          	lui	a5,0x0
     838:	15878793          	addi	a5,a5,344 # 158 <_AES_VMA_END>
     83c:	0e87a703          	lw	a4,232(a5)
     840:	1147c603          	lbu	a2,276(a5)
     844:	0e47a583          	lw	a1,228(a5)
     848:	40e50733          	sub	a4,a0,a4
     84c:	1107a683          	lw	a3,272(a5)
     850:	ee01                	c.bnez	a2,868 <pm_tim_recover_32k_rc+0x34>
     852:	02d70633          	mul	a2,a4,a3
     856:	10a7a023          	sw	a0,256(a5)
     85a:	0ee7ae23          	sw	a4,252(a5)
     85e:	00465693          	srli	a3,a2,0x4
     862:	95b6                	c.add	a1,a3
     864:	852e                	c.mv	a0,a1
     866:	8082                	c.jr	ra
     868:	00475613          	srli	a2,a4,0x4
     86c:	c4d615ff          	maddr32	a1,a2,a3
     870:	10a7a023          	sw	a0,256(a5)
     874:	0ee7ae23          	sw	a4,252(a5)
     878:	852e                	c.mv	a0,a1
     87a:	8082                	c.jr	ra

0000087c <pm_get_32k_rc_calib>:
     87c:	801407b7          	lui	a5,0x80140
     880:	2147a703          	lw	a4,532(a5) # 80140214 <_DATA_LMA_START+0x6013aabc>
     884:	df75                	c.beqz	a4,880 <pm_get_32k_rc_calib+0x4>
     886:	2147a503          	lw	a0,532(a5)
     88a:	000007b7          	lui	a5,0x0
     88e:	15878793          	addi	a5,a5,344 # 158 <_AES_VMA_END>
     892:	0f87a703          	lw	a4,248(a5)
     896:	10a7a423          	sw	a0,264(a5)
     89a:	0512                	c.slli	a0,0x4
     89c:	cb11                	c.beqz	a4,8b0 <pm_get_32k_rc_calib+0x34>
     89e:	10c7c603          	lbu	a2,268(a5)
     8a2:	4691                	c.li	a3,4
     8a4:	8d19                	c.sub	a0,a4
     8a6:	8e91                	c.sub	a3,a2
     8a8:	40d55533          	sra	a0,a0,a3
     8ac:	00e50533          	add	a0,a0,a4
     8b0:	0ea7ac23          	sw	a0,248(a5)
     8b4:	0ec7a783          	lw	a5,236(a5)
     8b8:	8511                	c.srai	a0,0x4
     8ba:	02f507b3          	mul	a5,a0,a5
     8be:	87c9                	c.srai	a5,0x12
     8c0:	953e                	c.add	a0,a5
     8c2:	8082                	c.jr	ra

000008c4 <pm_update_32k_rc_sleep_tick>:
     8c4:	000007b7          	lui	a5,0x0
     8c8:	15878793          	addi	a5,a5,344 # 158 <_AES_VMA_END>
     8cc:	1007a703          	lw	a4,256(a5)
     8d0:	10c7c683          	lbu	a3,268(a5)
     8d4:	40e50733          	sub	a4,a0,a4
     8d8:	10e7a223          	sw	a4,260(a5)
     8dc:	e681                	c.bnez	a3,8e4 <pm_update_32k_rc_sleep_tick+0x20>
     8de:	0e47a703          	lw	a4,228(a5)
     8e2:	eb19                	c.bnez	a4,8f8 <pm_update_32k_rc_sleep_tick+0x34>
     8e4:	0015e593          	ori	a1,a1,1
     8e8:	10078623          	sb	zero,268(a5)
     8ec:	0ea7a423          	sw	a0,232(a5)
     8f0:	0eb7a223          	sw	a1,228(a5)
     8f4:	00008067          	ret
     8f8:	0e87a703          	lw	a4,232(a5)
     8fc:	6691                	c.lui	a3,0x4
     8fe:	40e50733          	sub	a4,a0,a4
     902:	6c07275b          	bfoz	a4,a4,27,0
     906:	e8068693          	addi	a3,a3,-384 # 3e80 <_RAMCODE_VMA_END+0x97e>
     90a:	fee6f5e3          	bgeu	a3,a4,8f4 <pm_update_32k_rc_sleep_tick+0x30>
     90e:	0015e593          	ori	a1,a1,1
     912:	10078623          	sb	zero,268(a5)
     916:	0ea7a423          	sw	a0,232(a5)
     91a:	0eb7a223          	sw	a1,228(a5)
     91e:	bfd9                	c.j	8f4 <pm_update_32k_rc_sleep_tick+0x30>

00000920 <stimer_irq_handler>:
     920:	d29ff06f          	j	648 <irq_blt_sdk_handler>

00000924 <rf_irq_handler>:
     924:	d25ff06f          	j	648 <irq_blt_sdk_handler>

00000928 <delay_ms>:
     928:	000047b7          	lui	a5,0x4
     92c:	e8078793          	addi	a5,a5,-384 # 3e80 <_RAMCODE_VMA_END+0x97e>
     930:	02f50533          	mul	a0,a0,a5
     934:	801407b7          	lui	a5,0x80140
     938:	2007a683          	lw	a3,512(a5) # 80140200 <_DATA_LMA_START+0x6013aaa8>
     93c:	80140737          	lui	a4,0x80140
     940:	20072783          	lw	a5,512(a4) # 80140200 <_DATA_LMA_START+0x6013aaa8>
     944:	8f95                	c.sub	a5,a3
     946:	fef57de3          	bgeu	a0,a5,940 <delay_ms+0x18>
     94a:	8082                	c.jr	ra

0000094c <delay_us>:
     94c:	801407b7          	lui	a5,0x80140
     950:	2007a683          	lw	a3,512(a5) # 80140200 <_DATA_LMA_START+0x6013aaa8>
     954:	00451513          	slli	a0,a0,0x4
     958:	80140737          	lui	a4,0x80140
     95c:	20072783          	lw	a5,512(a4) # 80140200 <_DATA_LMA_START+0x6013aaa8>
     960:	8f95                	c.sub	a5,a3
     962:	fef57de3          	bgeu	a0,a5,95c <delay_us+0x10>
     966:	8082                	c.jr	ra

00000968 <flash_send_addr>:
     968:	5d05275b          	bfoz	a4,a0,23,16
     96c:	801407b7          	lui	a5,0x80140
     970:	801406b7          	lui	a3,0x80140
     974:	10e78023          	sb	a4,256(a5) # 80140100 <_DATA_LMA_START+0x6013a9a8>
     978:	10268783          	lb	a5,258(a3) # 80140102 <_DATA_LMA_START+0x6013a9aa>
     97c:	fe07fe5b          	bbs	a5,0,978 <flash_send_addr+0x10>
     980:	3c8527db          	bfoz	a5,a0,15,8
     984:	80140737          	lui	a4,0x80140
     988:	10f68023          	sb	a5,256(a3)
     98c:	10270783          	lb	a5,258(a4) # 80140102 <_DATA_LMA_START+0x6013a9aa>
     990:	fe07fe5b          	bbs	a5,0,98c <flash_send_addr+0x24>
     994:	0ff57513          	andi	a0,a0,255
     998:	801406b7          	lui	a3,0x80140
     99c:	10a70023          	sb	a0,256(a4)
     9a0:	10268783          	lb	a5,258(a3) # 80140102 <_DATA_LMA_START+0x6013a9aa>
     9a4:	fe07fe5b          	bbs	a5,0,9a0 <flash_send_addr+0x38>
     9a8:	00008067          	ret

000009ac <flash_send_cmd>:
     9ac:	801407b7          	lui	a5,0x80140
     9b0:	10178703          	lb	a4,257(a5) # 80140101 <_DATA_LMA_START+0x6013a9a9>
     9b4:	0ff77713          	andi	a4,a4,255
     9b8:	01076713          	ori	a4,a4,16
     9bc:	10e780a3          	sb	a4,257(a5)
     9c0:	0001                	c.nop
     9c2:	0001                	c.nop
     9c4:	0001                	c.nop
     9c6:	0001                	c.nop
     9c8:	0001                	c.nop
     9ca:	0001                	c.nop
     9cc:	0001                	c.nop
     9ce:	0001                	c.nop
     9d0:	0001                	c.nop
     9d2:	0001                	c.nop
     9d4:	10178683          	lb	a3,257(a5)
     9d8:	0ff57513          	andi	a0,a0,255
     9dc:	0ef6f693          	andi	a3,a3,239
     9e0:	10d780a3          	sb	a3,257(a5)
     9e4:	80140737          	lui	a4,0x80140
     9e8:	10a78023          	sb	a0,256(a5)
     9ec:	10270783          	lb	a5,258(a4) # 80140102 <_DATA_LMA_START+0x6013a9aa>
     9f0:	fe07fe5b          	bbs	a5,0,9ec <flash_send_cmd+0x40>
     9f4:	00008067          	ret

000009f8 <flash_mspi_read_ram>:
     9f8:	1101                	c.addi	sp,-32
     9fa:	cc22                	c.swsp	s0,24(sp)
     9fc:	ca26                	c.swsp	s1,20(sp)
     9fe:	c84a                	c.swsp	s2,16(sp)
     a00:	c64e                	c.swsp	s3,12(sp)
     a02:	c452                	c.swsp	s4,8(sp)
     a04:	c256                	c.swsp	s5,4(sp)
     a06:	ce06                	c.swsp	ra,28(sp)
     a08:	89aa                	c.mv	s3,a0
     a0a:	843a                	c.mv	s0,a4
     a0c:	84be                	c.mv	s1,a5
     a0e:	4705                	c.li	a4,1
     a10:	e42007b7          	lui	a5,0xe4200
     a14:	8a2e                	c.mv	s4,a1
     a16:	8ab2                	c.mv	s5,a2
     a18:	8936                	c.mv	s2,a3
     a1a:	80140537          	lui	a0,0x80140
     a1e:	c398                	c.sw	a4,0(a5)
     a20:	10250703          	lb	a4,258(a0) # 80140102 <_DATA_LMA_START+0x6013a9aa>
     a24:	fe077e5b          	bbs	a4,0,a20 <flash_mspi_read_ram+0x28>
     a28:	10150783          	lb	a5,257(a0)
     a2c:	80140837          	lui	a6,0x80140
     a30:	0ff7f793          	andi	a5,a5,255
     a34:	0107e793          	ori	a5,a5,16
     a38:	10f500a3          	sb	a5,257(a0)
     a3c:	32880703          	lb	a4,808(a6) # 80140328 <_DATA_LMA_START+0x6013abd0>
     a40:	be377e5b          	bbc	a4,3,a3c <flash_mspi_read_ram+0x44>
     a44:	10180783          	lb	a5,257(a6)
     a48:	854e                	c.mv	a0,s3
     a4a:	0fd7f793          	andi	a5,a5,253
     a4e:	10f800a3          	sb	a5,257(a6)
     a52:	10180783          	lb	a5,257(a6)
     a56:	0f37f793          	andi	a5,a5,243
     a5a:	10f800a3          	sb	a5,257(a6)
     a5e:	37b9                	c.jal	9ac <flash_send_cmd>
     a60:	0e0a9c63          	bnez	s5,b58 <flash_mspi_read_ram+0x160>
     a64:	00000713          	li	a4,0
     a68:	801405b7          	lui	a1,0x80140
     a6c:	01277c63          	bgeu	a4,s2,a84 <flash_mspi_read_ram+0x8c>
     a70:	00100713          	li	a4,1
     a74:	10058023          	sb	zero,256(a1) # 80140100 <_DATA_LMA_START+0x6013a9a8>
     a78:	10258603          	lb	a2,258(a1)
     a7c:	fe067e5b          	bbs	a2,0,a78 <flash_mspi_read_ram+0x80>
     a80:	ff2768e3          	bltu	a4,s2,a70 <flash_mspi_read_ram+0x78>
     a84:	01b9ecdb          	bnec	s3,59,a9c <flash_mspi_read_ram+0xa4>
     a88:	80140737          	lui	a4,0x80140
     a8c:	10170783          	lb	a5,257(a4) # 80140101 <_DATA_LMA_START+0x6013a9a9>
     a90:	0f37f793          	andi	a5,a5,243
     a94:	0047e793          	ori	a5,a5,4
     a98:	10f700a3          	sb	a5,257(a4)
     a9c:	80140737          	lui	a4,0x80140
     aa0:	10170783          	lb	a5,257(a4) # 80140101 <_DATA_LMA_START+0x6013a9a9>
     aa4:	801406b7          	lui	a3,0x80140
     aa8:	0ff7f793          	andi	a5,a5,255
     aac:	0027e793          	ori	a5,a5,2
     ab0:	10f700a3          	sb	a5,257(a4)
     ab4:	10070023          	sb	zero,256(a4)
     ab8:	10268703          	lb	a4,258(a3) # 80140102 <_DATA_LMA_START+0x6013a9aa>
     abc:	fe077e5b          	bbs	a4,0,ab8 <flash_mspi_read_ram+0xc0>
     ac0:	10168703          	lb	a4,257(a3)
     ac4:	801407b7          	lui	a5,0x80140
     ac8:	0ff77713          	andi	a4,a4,255
     acc:	00176713          	ori	a4,a4,1
     ad0:	10e680a3          	sb	a4,257(a3)
     ad4:	10278703          	lb	a4,258(a5) # 80140102 <_DATA_LMA_START+0x6013a9aa>
     ad8:	fe077e5b          	bbs	a4,0,ad4 <flash_mspi_read_ram+0xdc>
     adc:	02048263          	beqz	s1,b00 <flash_mspi_read_ram+0x108>
     ae0:	00940733          	add	a4,s0,s1
     ae4:	801406b7          	lui	a3,0x80140
     ae8:	10068783          	lb	a5,256(a3) # 80140100 <_DATA_LMA_START+0x6013a9a8>
     aec:	00140413          	addi	s0,s0,1
     af0:	fef40fa3          	sb	a5,-1(s0)
     af4:	10268783          	lb	a5,258(a3)
     af8:	fe07fe5b          	bbs	a5,0,af4 <flash_mspi_read_ram+0xfc>
     afc:	fee416e3          	bne	s0,a4,ae8 <flash_mspi_read_ram+0xf0>
     b00:	801407b7          	lui	a5,0x80140
     b04:	10178703          	lb	a4,257(a5) # 80140101 <_DATA_LMA_START+0x6013a9a9>
     b08:	0fe77713          	andi	a4,a4,254
     b0c:	10e780a3          	sb	a4,257(a5)
     b10:	01b9e8db          	bnec	s3,59,b20 <flash_mspi_read_ram+0x128>
     b14:	10178703          	lb	a4,257(a5)
     b18:	0f377713          	andi	a4,a4,243
     b1c:	10e780a3          	sb	a4,257(a5)
     b20:	80140737          	lui	a4,0x80140
     b24:	10170783          	lb	a5,257(a4) # 80140101 <_DATA_LMA_START+0x6013a9a9>
     b28:	0ff7f793          	andi	a5,a5,255
     b2c:	0107e793          	ori	a5,a5,16
     b30:	10f700a3          	sb	a5,257(a4)
     b34:	0001                	c.nop
     b36:	0001                	c.nop
     b38:	0001                	c.nop
     b3a:	0001                	c.nop
     b3c:	0001                	c.nop
     b3e:	e42007b7          	lui	a5,0xe4200
     b42:	0007a023          	sw	zero,0(a5) # e4200000 <_DATA_LMA_START+0xc41fa8a8>
     b46:	40f2                	c.lwsp	ra,28(sp)
     b48:	4462                	c.lwsp	s0,24(sp)
     b4a:	44d2                	c.lwsp	s1,20(sp)
     b4c:	4942                	c.lwsp	s2,16(sp)
     b4e:	49b2                	c.lwsp	s3,12(sp)
     b50:	4a22                	c.lwsp	s4,8(sp)
     b52:	4a92                	c.lwsp	s5,4(sp)
     b54:	6105                	c.addi16sp	sp,32
     b56:	8082                	c.jr	ra
     b58:	8552                	c.mv	a0,s4
     b5a:	3539                	c.jal	968 <flash_send_addr>
     b5c:	f09ff06f          	j	a64 <flash_mspi_read_ram+0x6c>

00000b60 <flash_wait_done>:
     b60:	1141                	c.addi	sp,-16
     b62:	4515                	c.li	a0,5
     b64:	c606                	c.swsp	ra,12(sp)
     b66:	3599                	c.jal	9ac <flash_send_cmd>
     b68:	009896b7          	lui	a3,0x989
     b6c:	68068693          	addi	a3,a3,1664 # 989680 <FLASH_SIZE+0x889680>
     b70:	80140737          	lui	a4,0x80140
     b74:	10070023          	sb	zero,256(a4) # 80140100 <_DATA_LMA_START+0x6013a9a8>
     b78:	10270783          	lb	a5,258(a4)
     b7c:	fe07fe5b          	bbs	a5,0,b78 <flash_wait_done+0x18>
     b80:	10070783          	lb	a5,256(a4)
     b84:	0007f45b          	bbc	a5,0,b8c <flash_wait_done+0x2c>
     b88:	16fd                	c.addi	a3,-1
     b8a:	f6ed                	c.bnez	a3,b74 <flash_wait_done+0x14>
     b8c:	80140737          	lui	a4,0x80140
     b90:	10170783          	lb	a5,257(a4) # 80140101 <_DATA_LMA_START+0x6013a9a9>
     b94:	0ff7f793          	andi	a5,a5,255
     b98:	0107e793          	ori	a5,a5,16
     b9c:	10f700a3          	sb	a5,257(a4)
     ba0:	40b2                	c.lwsp	ra,12(sp)
     ba2:	0141                	c.addi	sp,16
     ba4:	00008067          	ret

00000ba8 <flash_mspi_write_ram>:
     ba8:	1101                	c.addi	sp,-32
     baa:	cc22                	c.swsp	s0,24(sp)
     bac:	ca26                	c.swsp	s1,20(sp)
     bae:	c84a                	c.swsp	s2,16(sp)
     bb0:	c64e                	c.swsp	s3,12(sp)
     bb2:	c452                	c.swsp	s4,8(sp)
     bb4:	ce06                	c.swsp	ra,28(sp)
     bb6:	8a2a                	c.mv	s4,a0
     bb8:	84ba                	c.mv	s1,a4
     bba:	e42007b7          	lui	a5,0xe4200
     bbe:	4705                	c.li	a4,1
     bc0:	892e                	c.mv	s2,a1
     bc2:	89b2                	c.mv	s3,a2
     bc4:	8436                	c.mv	s0,a3
     bc6:	80140537          	lui	a0,0x80140
     bca:	c398                	c.sw	a4,0(a5)
     bcc:	10250783          	lb	a5,258(a0) # 80140102 <_DATA_LMA_START+0x6013a9aa>
     bd0:	fe07fe5b          	bbs	a5,0,bcc <flash_mspi_write_ram+0x24>
     bd4:	10150783          	lb	a5,257(a0)
     bd8:	801406b7          	lui	a3,0x80140
     bdc:	0ff7f793          	andi	a5,a5,255
     be0:	0107e793          	ori	a5,a5,16
     be4:	10f500a3          	sb	a5,257(a0)
     be8:	32868783          	lb	a5,808(a3) # 80140328 <_DATA_LMA_START+0x6013abd0>
     bec:	be37fe5b          	bbc	a5,3,be8 <flash_mspi_write_ram+0x40>
     bf0:	10168783          	lb	a5,257(a3)
     bf4:	4519                	c.li	a0,6
     bf6:	0fd7f793          	andi	a5,a5,253
     bfa:	10f680a3          	sb	a5,257(a3)
     bfe:	10168783          	lb	a5,257(a3)
     c02:	0f37f793          	andi	a5,a5,243
     c06:	10f680a3          	sb	a5,257(a3)
     c0a:	334d                	c.jal	9ac <flash_send_cmd>
     c0c:	01400533          	add	a0,zero,s4
     c10:	d9dff0ef          	jal	ra,9ac <flash_send_cmd>
     c14:	06099263          	bnez	s3,c78 <flash_mspi_write_ram+0xd0>
     c18:	c095                	c.beqz	s1,c3c <flash_mspi_write_ram+0x94>
     c1a:	86a2                	c.mv	a3,s0
     c1c:	00940633          	add	a2,s0,s1
     c20:	80140737          	lui	a4,0x80140
     c24:	0006c783          	lbu	a5,0(a3)
     c28:	10f70023          	sb	a5,256(a4) # 80140100 <_DATA_LMA_START+0x6013a9a8>
     c2c:	10270783          	lb	a5,258(a4)
     c30:	fe07fe5b          	bbs	a5,0,c2c <flash_mspi_write_ram+0x84>
     c34:	00168693          	addi	a3,a3,1
     c38:	fed616e3          	bne	a2,a3,c24 <flash_mspi_write_ram+0x7c>
     c3c:	80140737          	lui	a4,0x80140
     c40:	10170783          	lb	a5,257(a4) # 80140101 <_DATA_LMA_START+0x6013a9a9>
     c44:	0ff7f793          	andi	a5,a5,255
     c48:	0107e793          	ori	a5,a5,16
     c4c:	10f700a3          	sb	a5,257(a4)
     c50:	f11ff0ef          	jal	ra,b60 <flash_wait_done>
     c54:	0001                	c.nop
     c56:	0001                	c.nop
     c58:	0001                	c.nop
     c5a:	0001                	c.nop
     c5c:	0001                	c.nop
     c5e:	e42007b7          	lui	a5,0xe4200
     c62:	0007a023          	sw	zero,0(a5) # e4200000 <_DATA_LMA_START+0xc41fa8a8>
     c66:	40f2                	c.lwsp	ra,28(sp)
     c68:	4462                	c.lwsp	s0,24(sp)
     c6a:	44d2                	c.lwsp	s1,20(sp)
     c6c:	4942                	c.lwsp	s2,16(sp)
     c6e:	49b2                	c.lwsp	s3,12(sp)
     c70:	4a22                	c.lwsp	s4,8(sp)
     c72:	6105                	c.addi16sp	sp,32
     c74:	00008067          	ret
     c78:	854a                	c.mv	a0,s2
     c7a:	31fd                	c.jal	968 <flash_send_addr>
     c7c:	f9dff06f          	j	c18 <flash_mspi_write_ram+0x70>

00000c80 <clock_set_32k_tick>:
     c80:	801406b7          	lui	a3,0x80140
     c84:	20a68703          	lb	a4,522(a3) # 8014020a <_DATA_LMA_START+0x6013aab2>
     c88:	801407b7          	lui	a5,0x80140
     c8c:	0ff77713          	andi	a4,a4,255
     c90:	00176713          	ori	a4,a4,1
     c94:	20e68523          	sb	a4,522(a3)
     c98:	20b78703          	lb	a4,523(a5) # 8014020b <_DATA_LMA_START+0x6013aab3>
     c9c:	20b78693          	addi	a3,a5,523
     ca0:	fe677c5b          	bbs	a4,6,c98 <clock_set_32k_tick+0x18>
     ca4:	20a7a623          	sw	a0,524(a5)
     ca8:	47a1                	c.li	a5,8
     caa:	00f68023          	sb	a5,0(a3)
     cae:	0001                	c.nop
     cb0:	0001                	c.nop
     cb2:	0001                	c.nop
     cb4:	0001                	c.nop
     cb6:	0001                	c.nop
     cb8:	0001                	c.nop
     cba:	0001                	c.nop
     cbc:	0001                	c.nop
     cbe:	0001                	c.nop
     cc0:	0001                	c.nop
     cc2:	0001                	c.nop
     cc4:	0001                	c.nop
     cc6:	0001                	c.nop
     cc8:	0001                	c.nop
     cca:	0001                	c.nop
     ccc:	00000013          	nop
     cd0:	80140737          	lui	a4,0x80140
     cd4:	20b70783          	lb	a5,523(a4) # 8014020b <_DATA_LMA_START+0x6013aab3>
     cd8:	fe37fe5b          	bbs	a5,3,cd4 <clock_set_32k_tick+0x54>
     cdc:	00008067          	ret

00000ce0 <clock_get_32k_tick>:
     ce0:	1141                	c.addi	sp,-16
     ce2:	c422                	c.swsp	s0,8(sp)
     ce4:	00112623          	sw	ra,12(sp)
     ce8:	20003097          	auipc	ra,0x20003
     cec:	e64080e7          	jalr	-412(ra) # 20003b4c <analog_read_reg32.constprop.7>
     cf0:	00a00433          	add	s0,zero,a0
     cf4:	20003097          	auipc	ra,0x20003
     cf8:	e58080e7          	jalr	-424(ra) # 20003b4c <analog_read_reg32.constprop.7>
     cfc:	40850733          	sub	a4,a0,s0
     d00:	842a                	c.mv	s0,a0
     d02:	be17695b          	bnec	a4,1,cf4 <clock_get_32k_tick+0x14>
     d06:	40b2                	c.lwsp	ra,12(sp)
     d08:	4422                	c.lwsp	s0,8(sp)
     d0a:	0141                	c.addi	sp,16
     d0c:	00008067          	ret

00000d10 <analog_write_reg8>:
     d10:	30002673          	csrr	a2,mstatus
     d14:	8a21                	c.andi	a2,8
     d16:	c219                	c.beqz	a2,d1c <analog_write_reg8+0xc>
     d18:	300477f3          	csrrci	a5,mstatus,8
     d1c:	80140737          	lui	a4,0x80140
     d20:	18a70023          	sb	a0,384(a4) # 80140180 <_DATA_LMA_START+0x6013aa28>
     d24:	18b70223          	sb	a1,388(a4)
     d28:	06000693          	li	a3,96
     d2c:	801407b7          	lui	a5,0x80140
     d30:	18d70123          	sb	a3,386(a4)
     d34:	18278703          	lb	a4,386(a5) # 80140182 <_DATA_LMA_START+0x6013aa2a>
     d38:	fe777e5b          	bbs	a4,7,d34 <analog_write_reg8+0x24>
     d3c:	18078123          	sb	zero,386(a5)
     d40:	00060463          	beqz	a2,d48 <analog_write_reg8+0x38>
     d44:	30062673          	csrrs	a2,mstatus,a2
     d48:	00008067          	ret

00000d4c <analog_read_reg8>:
     d4c:	300026f3          	csrr	a3,mstatus
     d50:	8aa1                	c.andi	a3,8
     d52:	c299                	c.beqz	a3,d58 <analog_read_reg8+0xc>
     d54:	300477f3          	csrrci	a5,mstatus,8
     d58:	801407b7          	lui	a5,0x80140
     d5c:	18a78023          	sb	a0,384(a5) # 80140180 <_DATA_LMA_START+0x6013aa28>
     d60:	00100713          	li	a4,1
     d64:	18e781a3          	sb	a4,387(a5)
     d68:	04000613          	li	a2,64
     d6c:	80140737          	lui	a4,0x80140
     d70:	18c78123          	sb	a2,386(a5)
     d74:	18270783          	lb	a5,386(a4) # 80140182 <_DATA_LMA_START+0x6013aa2a>
     d78:	fe77fe5b          	bbs	a5,7,d74 <analog_read_reg8+0x28>
     d7c:	18470503          	lb	a0,388(a4)
     d80:	0ff57513          	andi	a0,a0,255
     d84:	00068463          	beqz	a3,d8c <analog_read_reg8+0x40>
     d88:	3006a6f3          	csrrs	a3,mstatus,a3
     d8c:	00008067          	ret

00000d90 <clock_init.constprop.6>:
     d90:	1141                	c.addi	sp,-16
     d92:	08000513          	li	a0,128
     d96:	c606                	c.swsp	ra,12(sp)
     d98:	c422                	c.swsp	s0,8(sp)
     d9a:	3f4d                	c.jal	d4c <analog_read_reg8>
     d9c:	0e057593          	andi	a1,a0,224
     da0:	0105e593          	ori	a1,a1,16
     da4:	08000513          	li	a0,128
     da8:	f69ff0ef          	jal	ra,d10 <analog_write_reg8>
     dac:	00900513          	li	a0,9
     db0:	f9dff0ef          	jal	ra,d4c <analog_read_reg8>
     db4:	0f357593          	andi	a1,a0,243
     db8:	0085e593          	ori	a1,a1,8
     dbc:	4525                	c.li	a0,9
     dbe:	3f89                	c.jal	d10 <analog_write_reg8>
     dc0:	0c000793          	li	a5,192
     dc4:	811f940b          	addigp	s0,-2032 # 80010 <sys_clk>
     dc8:	00f41023          	sh	a5,0(s0)
     dcc:	4711                	c.li	a4,4
     dce:	801407b7          	lui	a5,0x80140
     dd2:	08100513          	li	a0,129
     dd6:	1ee78da3          	sb	a4,507(a5) # 801401fb <_DATA_LMA_START+0x6013aaa3>
     dda:	3f8d                	c.jal	d4c <analog_read_reg8>
     ddc:	04056593          	ori	a1,a0,64
     de0:	0ff5f593          	andi	a1,a1,255
     de4:	08100513          	li	a0,129
     de8:	f29ff0ef          	jal	ra,d10 <analog_write_reg8>
     dec:	08800513          	li	a0,136
     df0:	f5dff0ef          	jal	ra,d4c <analog_read_reg8>
     df4:	be557c5b          	bbc	a0,5,dec <clock_init.constprop.6+0x5c>
     df8:	08100513          	li	a0,129
     dfc:	f51ff0ef          	jal	ra,d4c <analog_read_reg8>
     e00:	0bf57593          	andi	a1,a0,191
     e04:	08100513          	li	a0,129
     e08:	f09ff0ef          	jal	ra,d10 <analog_write_reg8>
     e0c:	80140737          	lui	a4,0x80140
     e10:	10270783          	lb	a5,258(a4) # 80140102 <_DATA_LMA_START+0x6013a9aa>
     e14:	fe07fe5b          	bbs	a5,0,e10 <clock_init.constprop.6+0x80>
     e18:	10170683          	lb	a3,257(a4)
     e1c:	801407b7          	lui	a5,0x80140
     e20:	0ff6f693          	andi	a3,a3,255
     e24:	0106e693          	ori	a3,a3,16
     e28:	10d700a3          	sb	a3,257(a4)
     e2c:	32878703          	lb	a4,808(a5) # 80140328 <_DATA_LMA_START+0x6013abd0>
     e30:	be377e5b          	bbc	a4,3,e2c <clock_init.constprop.6+0x9c>
     e34:	1e978703          	lb	a4,489(a5)
     e38:	aaaab637          	lui	a2,0xaaaab
     e3c:	8b3d                	c.andi	a4,15
     e3e:	04076713          	ori	a4,a4,64
     e42:	1ee784a3          	sb	a4,489(a5)
     e46:	1e878703          	lb	a4,488(a5)
     e4a:	aab60613          	addi	a2,a2,-1365 # aaaaaaab <_DATA_LMA_START+0x8aaa5353>
     e4e:	f8076713          	ori	a4,a4,-128
     e52:	0ff77713          	andi	a4,a4,255
     e56:	1ee78423          	sb	a4,488(a5)
     e5a:	1e878703          	lb	a4,488(a5)
     e5e:	f8076713          	ori	a4,a4,-128
     e62:	0ff77713          	andi	a4,a4,255
     e66:	1ee78423          	sb	a4,488(a5)
     e6a:	1d878703          	lb	a4,472(a5)
     e6e:	00045683          	lhu	a3,0(s0)
     e72:	0fb77713          	andi	a4,a4,251
     e76:	1ce78c23          	sb	a4,472(a5)
     e7a:	1d878703          	lb	a4,472(a5)
     e7e:	8289                	c.srli	a3,0x2
     e80:	00d402a3          	sb	a3,5(s0)
     e84:	0fc77713          	andi	a4,a4,252
     e88:	1ce78c23          	sb	a4,472(a5)
     e8c:	1e878703          	lb	a4,488(a5)
     e90:	0f077713          	andi	a4,a4,240
     e94:	00c76713          	ori	a4,a4,12
     e98:	1ee78423          	sb	a4,488(a5)
     e9c:	00045703          	lhu	a4,0(s0)
     ea0:	1e878683          	lb	a3,488(a5)
     ea4:	02c73733          	mulhu	a4,a4,a2
     ea8:	08f6f693          	andi	a3,a3,143
     eac:	0206e693          	ori	a3,a3,32
     eb0:	1ed78423          	sb	a3,488(a5)
     eb4:	00375793          	srli	a5,a4,0x3
     eb8:	00f40123          	sb	a5,2(s0)
     ebc:	0ff7f793          	andi	a5,a5,255
     ec0:	00f401a3          	sb	a5,3(s0)
     ec4:	00f40223          	sb	a5,4(s0)
     ec8:	40b2                	c.lwsp	ra,12(sp)
     eca:	4422                	c.lwsp	s0,8(sp)
     ecc:	0141                	c.addi	sp,16
     ece:	8082                	c.jr	ra

00000ed0 <pm_wait_bbpll_done>:
     ed0:	1101                	c.addi	sp,-32
     ed2:	08100513          	li	a0,129
     ed6:	cc22                	c.swsp	s0,24(sp)
     ed8:	ca26                	c.swsp	s1,20(sp)
     eda:	c84a                	c.swsp	s2,16(sp)
     edc:	ce06                	c.swsp	ra,28(sp)
     ede:	35bd                	c.jal	d4c <analog_read_reg8>
     ee0:	04056593          	ori	a1,a0,64
     ee4:	892a                	c.mv	s2,a0
     ee6:	0ff5f593          	andi	a1,a1,255
     eea:	08100513          	li	a0,129
     eee:	0bf97913          	andi	s2,s2,191
     ef2:	4481                	c.li	s1,0
     ef4:	4475                	c.li	s0,29
     ef6:	3d29                	c.jal	d10 <analog_write_reg8>
     ef8:	000107a3          	sb	zero,15(sp)
     efc:	00f10783          	lb	a5,15(sp)
     f00:	0ff7f793          	andi	a5,a5,255
     f04:	02f46063          	bltu	s0,a5,f24 <pm_wait_bbpll_done+0x54>
     f08:	0001                	c.nop
     f0a:	00f10783          	lb	a5,15(sp)
     f0e:	0785                	c.addi	a5,1
     f10:	0ff7f793          	andi	a5,a5,255
     f14:	00f107a3          	sb	a5,15(sp)
     f18:	00f10783          	lb	a5,15(sp)
     f1c:	0ff7f793          	andi	a5,a5,255
     f20:	fef474e3          	bgeu	s0,a5,f08 <pm_wait_bbpll_done+0x38>
     f24:	08800513          	li	a0,136
     f28:	e25ff0ef          	jal	ra,d4c <analog_read_reg8>
     f2c:	4255765b          	bbs	a0,5,f58 <pm_wait_bbpll_done+0x88>
     f30:	cc95                	c.beqz	s1,f6c <pm_wait_bbpll_done+0x9c>
     f32:	0414d35b          	beqc	s1,1,f78 <pm_wait_bbpll_done+0xa8>
     f36:	85ca                	c.mv	a1,s2
     f38:	08100513          	li	a0,129
     f3c:	dd5ff0ef          	jal	ra,d10 <analog_write_reg8>
     f40:	0024d65b          	beqc	s1,2,f4c <pm_wait_bbpll_done+0x7c>
     f44:	0485                	c.addi	s1,1
     f46:	0ff4f493          	andi	s1,s1,255
     f4a:	b77d                	c.j	ef8 <pm_wait_bbpll_done+0x28>
     f4c:	40f2                	c.lwsp	ra,28(sp)
     f4e:	4462                	c.lwsp	s0,24(sp)
     f50:	44d2                	c.lwsp	s1,20(sp)
     f52:	4942                	c.lwsp	s2,16(sp)
     f54:	6105                	c.addi16sp	sp,32
     f56:	8082                	c.jr	ra
     f58:	4462                	c.lwsp	s0,24(sp)
     f5a:	40f2                	c.lwsp	ra,28(sp)
     f5c:	44d2                	c.lwsp	s1,20(sp)
     f5e:	85ca                	c.mv	a1,s2
     f60:	4942                	c.lwsp	s2,16(sp)
     f62:	08100513          	li	a0,129
     f66:	6105                	c.addi16sp	sp,32
     f68:	da9ff06f          	j	d10 <analog_write_reg8>
     f6c:	04600593          	li	a1,70
     f70:	4505                	c.li	a0,1
     f72:	3b79                	c.jal	d10 <analog_write_reg8>
     f74:	fd1ff06f          	j	f44 <pm_wait_bbpll_done+0x74>
     f78:	04300593          	li	a1,67
     f7c:	4505                	c.li	a0,1
     f7e:	3b49                	c.jal	d10 <analog_write_reg8>
     f80:	fc5ff06f          	j	f44 <pm_wait_bbpll_done+0x74>

00000f84 <pm_sleep_start>:
     f84:	1101                	c.addi	sp,-32
     f86:	81bfa72b          	lwgp	a4,-2024 # 80018 <_BSS_VMA_START>
     f8a:	000006b7          	lui	a3,0x0
     f8e:	ce06                	c.swsp	ra,28(sp)
     f90:	cc22                	c.swsp	s0,24(sp)
     f92:	0ff00793          	li	a5,255
     f96:	2786c583          	lbu	a1,632(a3) # 278 <g_pm_suspend_power_cfg>
     f9a:	16f70f63          	beq	a4,a5,1118 <pm_sleep_start+0x194>
     f9e:	07d00513          	li	a0,125
     fa2:	33bd                	c.jal	d10 <analog_write_reg8>
     fa4:	801406b7          	lui	a3,0x80140
     fa8:	10268783          	lb	a5,258(a3) # 80140102 <_DATA_LMA_START+0x6013a9aa>
     fac:	fe07fe5b          	bbs	a5,0,fa8 <pm_sleep_start+0x24>
     fb0:	10168783          	lb	a5,257(a3)
     fb4:	80140737          	lui	a4,0x80140
     fb8:	0ff7f793          	andi	a5,a5,255
     fbc:	0107e793          	ori	a5,a5,16
     fc0:	10f680a3          	sb	a5,257(a3)
     fc4:	32870783          	lb	a5,808(a4) # 80140328 <_DATA_LMA_START+0x6013abd0>
     fc8:	be37fe5b          	bbc	a5,3,fc4 <pm_sleep_start+0x40>
     fcc:	10170783          	lb	a5,257(a4)
     fd0:	80140437          	lui	s0,0x80140
     fd4:	0fd7f793          	andi	a5,a5,253
     fd8:	10f700a3          	sb	a5,257(a4)
     fdc:	10170783          	lb	a5,257(a4)
     fe0:	0ef7f793          	andi	a5,a5,239
     fe4:	10f700a3          	sb	a5,257(a4)
     fe8:	fb900793          	li	a5,-71
     fec:	10f70023          	sb	a5,256(a4)
     ff0:	10240783          	lb	a5,258(s0) # 80140102 <_DATA_LMA_START+0x6013a9aa>
     ff4:	fe07fe5b          	bbs	a5,0,ff0 <pm_sleep_start+0x6c>
     ff8:	10140783          	lb	a5,257(s0)
     ffc:	452d                	c.li	a0,11
     ffe:	0ff7f793          	andi	a5,a5,255
    1002:	0107e793          	ori	a5,a5,16
    1006:	10f400a3          	sb	a5,257(s0)
    100a:	320404a3          	sb	zero,809(s0)
    100e:	3b3d                	c.jal	d4c <analog_read_reg8>
    1010:	0fc57593          	andi	a1,a0,252
    1014:	452d                	c.li	a0,11
    1016:	39ed                	c.jal	d10 <analog_write_reg8>
    1018:	08100513          	li	a0,129
    101c:	d31ff0ef          	jal	ra,d4c <analog_read_reg8>
    1020:	f8056593          	ori	a1,a0,-128
    1024:	0ff5f593          	andi	a1,a1,255
    1028:	08100513          	li	a0,129
    102c:	ce5ff0ef          	jal	ra,d10 <analog_write_reg8>
    1030:	f8000793          	li	a5,-128
    1034:	1ef407a3          	sb	a5,495(s0)
    1038:	c402                	c.swsp	zero,8(sp)
    103a:	4722                	c.lwsp	a4,8(sp)
    103c:	03f00793          	li	a5,63
    1040:	00e7ec63          	bltu	a5,a4,1058 <pm_sleep_start+0xd4>
    1044:	03f00713          	li	a4,63
    1048:	0001                	c.nop
    104a:	47a2                	c.lwsp	a5,8(sp)
    104c:	0785                	c.addi	a5,1
    104e:	c43e                	c.swsp	a5,8(sp)
    1050:	00812783          	lw	a5,8(sp)
    1054:	fef77ae3          	bgeu	a4,a5,1048 <pm_sleep_start+0xc4>
    1058:	08100513          	li	a0,129
    105c:	cf1ff0ef          	jal	ra,d4c <analog_read_reg8>
    1060:	07f57593          	andi	a1,a0,127
    1064:	08100513          	li	a0,129
    1068:	ca9ff0ef          	jal	ra,d10 <analog_write_reg8>
    106c:	00b00513          	li	a0,11
    1070:	cddff0ef          	jal	ra,d4c <analog_read_reg8>
    1074:	00356593          	ori	a1,a0,3
    1078:	0ff5f593          	andi	a1,a1,255
    107c:	452d                	c.li	a0,11
    107e:	3949                	c.jal	d10 <analog_write_reg8>
    1080:	08000593          	li	a1,128
    1084:	07d00513          	li	a0,125
    1088:	c89ff0ef          	jal	ra,d10 <analog_write_reg8>
    108c:	c602                	c.swsp	zero,12(sp)
    108e:	4732                	c.lwsp	a4,12(sp)
    1090:	12b00793          	li	a5,299
    1094:	00e7ec63          	bltu	a5,a4,10ac <pm_sleep_start+0x128>
    1098:	12b00713          	li	a4,299
    109c:	0001                	c.nop
    109e:	47b2                	c.lwsp	a5,12(sp)
    10a0:	0785                	c.addi	a5,1
    10a2:	c63e                	c.swsp	a5,12(sp)
    10a4:	00c12783          	lw	a5,12(sp)
    10a8:	fef77ae3          	bgeu	a4,a5,109c <pm_sleep_start+0x118>
    10ac:	08800513          	li	a0,136
    10b0:	c9dff0ef          	jal	ra,d4c <analog_read_reg8>
    10b4:	be757c5b          	bbc	a0,7,10ac <pm_sleep_start+0x128>
    10b8:	08800513          	li	a0,136
    10bc:	c91ff0ef          	jal	ra,d4c <analog_read_reg8>
    10c0:	be757c5b          	bbc	a0,7,10b8 <pm_sleep_start+0x134>
    10c4:	08800513          	li	a0,136
    10c8:	c85ff0ef          	jal	ra,d4c <analog_read_reg8>
    10cc:	be757c5b          	bbc	a0,7,10c4 <pm_sleep_start+0x140>
    10d0:	e01ff0ef          	jal	ra,ed0 <pm_wait_bbpll_done>
    10d4:	801407b7          	lui	a5,0x80140
    10d8:	03f00713          	li	a4,63
    10dc:	32e784a3          	sb	a4,809(a5) # 80140329 <_DATA_LMA_START+0x6013abd1>
    10e0:	10178683          	lb	a3,257(a5)
    10e4:	80140737          	lui	a4,0x80140
    10e8:	0ef6f693          	andi	a3,a3,239
    10ec:	10d780a3          	sb	a3,257(a5)
    10f0:	fab00693          	li	a3,-85
    10f4:	10d78023          	sb	a3,256(a5)
    10f8:	10270783          	lb	a5,258(a4) # 80140102 <_DATA_LMA_START+0x6013a9aa>
    10fc:	fe07fe5b          	bbs	a5,0,10f8 <pm_sleep_start+0x174>
    1100:	10170783          	lb	a5,257(a4)
    1104:	0ff7f793          	andi	a5,a5,255
    1108:	0107e793          	ori	a5,a5,16
    110c:	10f700a3          	sb	a5,257(a4)
    1110:	40f2                	c.lwsp	ra,28(sp)
    1112:	4462                	c.lwsp	s0,24(sp)
    1114:	6105                	c.addi16sp	sp,32
    1116:	8082                	c.jr	ra
    1118:	0fe5f593          	andi	a1,a1,254
    111c:	07d00513          	li	a0,125
    1120:	bf1ff0ef          	jal	ra,d10 <analog_write_reg8>
    1124:	e81ff06f          	j	fa4 <pm_sleep_start+0x20>

00001128 <cpu_sleep_wakeup_32k_rc_ram>:
    1128:	7179                	c.addi16sp	sp,-48
    112a:	d422                	c.swsp	s0,40(sp)
    112c:	d226                	c.swsp	s1,36(sp)
    112e:	ce4e                	c.swsp	s3,28(sp)
    1130:	cc52                	c.swsp	s4,24(sp)
    1132:	ca56                	c.swsp	s5,20(sp)
    1134:	c266                	c.swsp	s9,4(sp)
    1136:	c06a                	c.swsp	s10,0(sp)
    1138:	d606                	c.swsp	ra,44(sp)
    113a:	8d2e                	c.mv	s10,a1
    113c:	d04a                	c.swsp	s2,32(sp)
    113e:	c85a                	c.swsp	s6,16(sp)
    1140:	c65e                	c.swsp	s7,12(sp)
    1142:	c462                	c.swsp	s8,8(sp)
    1144:	89aa                	c.mv	s3,a0
    1146:	8ab2                	c.mv	s5,a2
    1148:	f34ff0ef          	jal	ra,87c <pm_get_32k_rc_calib>
    114c:	801407b7          	lui	a5,0x80140
    1150:	00000437          	lui	s0,0x0
    1154:	15840413          	addi	s0,s0,344 # 158 <_AES_VMA_END>
    1158:	2007a483          	lw	s1,512(a5) # 80140200 <_DATA_LMA_START+0x6013aaa8>
    115c:	020d7a13          	andi	s4,s10,32
    1160:	10a42823          	sw	a0,272(s0)
    1164:	00a00cb3          	add	s9,zero,a0
    1168:	020a0063          	beqz	s4,1188 <cpu_sleep_wakeup_32k_rc_ram+0x60>
    116c:	409a84b3          	sub	s1,s5,s1
    1170:	e0000737          	lui	a4,0xe0000
    1174:	34976063          	bltu	a4,s1,14b4 <cpu_sleep_wakeup_32k_rc_ram+0x38c>
    1178:	805f970b          	addigp	a4,-2044 # 80004 <g_pm_early_wakeup_time_us>
    117c:	00671703          	lh	a4,6(a4) # e0000006 <_DATA_LMA_START+0xbfffa8ae>
    1180:	1137275b          	bfoz	a4,a4,4,19
    1184:	34e4e063          	bltu	s1,a4,14c4 <cpu_sleep_wakeup_32k_rc_ram+0x39c>
    1188:	300024f3          	csrr	s1,mstatus
    118c:	88a1                	c.andi	s1,8
    118e:	e88d                	c.bnez	s1,11c0 <cpu_sleep_wakeup_32k_rc_ram+0x98>
    1190:	12442783          	lw	a5,292(s0)
    1194:	cb95                	c.beqz	a5,11c8 <cpu_sleep_wakeup_32k_rc_ram+0xa0>
    1196:	9782                	c.jalr	a5
    1198:	e905                	c.bnez	a0,11c8 <cpu_sleep_wakeup_32k_rc_ram+0xa0>
    119a:	4521                	c.li	a0,8
    119c:	00048463          	beqz	s1,11a4 <cpu_sleep_wakeup_32k_rc_ram+0x7c>
    11a0:	3004a4f3          	csrrs	s1,mstatus,s1
    11a4:	50b2                	c.lwsp	ra,44(sp)
    11a6:	5422                	c.lwsp	s0,40(sp)
    11a8:	5492                	c.lwsp	s1,36(sp)
    11aa:	5902                	c.lwsp	s2,32(sp)
    11ac:	49f2                	c.lwsp	s3,28(sp)
    11ae:	4a62                	c.lwsp	s4,24(sp)
    11b0:	4ad2                	c.lwsp	s5,20(sp)
    11b2:	4b42                	c.lwsp	s6,16(sp)
    11b4:	4bb2                	c.lwsp	s7,12(sp)
    11b6:	4c22                	c.lwsp	s8,8(sp)
    11b8:	4c92                	c.lwsp	s9,4(sp)
    11ba:	4d02                	c.lwsp	s10,0(sp)
    11bc:	6145                	c.addi16sp	sp,48
    11be:	8082                	c.jr	ra
    11c0:	300477f3          	csrrci	a5,mstatus,8
    11c4:	fcdff06f          	j	1190 <cpu_sleep_wakeup_32k_rc_ram+0x68>
    11c8:	80140937          	lui	s2,0x80140
    11cc:	1e890b03          	lb	s6,488(s2) # 801401e8 <_DATA_LMA_START+0x6013aa90>
    11d0:	00f9fc13          	andi	s8,s3,15
    11d4:	08fb7793          	andi	a5,s6,143
    11d8:	1ef90423          	sb	a5,488(s2)
    11dc:	1d890b83          	lb	s7,472(s2)
    11e0:	0f8bf793          	andi	a5,s7,248
    11e4:	1cf90c23          	sb	a5,472(s2)
    11e8:	20890783          	lb	a5,520(s2)
    11ec:	0fe7f793          	andi	a5,a5,254
    11f0:	20f90423          	sb	a5,520(s2)
    11f4:	4785                	c.li	a5,1
    11f6:	20f90c23          	sb	a5,536(s2)
    11fa:	20a90783          	lb	a5,522(s2)
    11fe:	0f77f793          	andi	a5,a5,247
    1202:	20f90523          	sb	a5,522(s2)
    1206:	3ce9                	c.jal	ce0 <clock_get_32k_tick>
    1208:	4789                	c.li	a5,2
    120a:	20f905a3          	sb	a5,523(s2)
    120e:	20092783          	lw	a5,512(s2)
    1212:	12a42423          	sw	a0,296(s0)
    1216:	85be                	c.mv	a1,a5
    1218:	12f42623          	sw	a5,300(s0)
    121c:	ea8ff0ef          	jal	ra,8c4 <pm_update_32k_rc_sleep_tick>
    1220:	0ffd7593          	andi	a1,s10,255
    1224:	04b00513          	li	a0,75
    1228:	ae9ff0ef          	jal	ra,d10 <analog_write_reg8>
    122c:	45fd                	c.li	a1,31
    122e:	06400513          	li	a0,100
    1232:	3cf9                	c.jal	d10 <analog_write_reg8>
    1234:	0ff9f593          	andi	a1,s3,255
    1238:	07e00513          	li	a0,126
    123c:	ad5ff0ef          	jal	ra,d10 <analog_write_reg8>
    1240:	040d7793          	andi	a5,s10,64
    1244:	1a0c1c63          	bnez	s8,13fc <cpu_sleep_wakeup_32k_rc_ram+0x2d4>
    1248:	2f09d4db          	beqc	s3,48,1530 <cpu_sleep_wakeup_32k_rc_ram+0x408>
    124c:	32078063          	beqz	a5,156c <cpu_sleep_wakeup_32k_rc_ram+0x444>
    1250:	06000593          	li	a1,96
    1254:	04d00513          	li	a0,77
    1258:	ab9ff0ef          	jal	ra,d10 <analog_write_reg8>
    125c:	4585                	c.li	a1,1
    125e:	07f00513          	li	a0,127
    1262:	347d                	c.jal	d10 <analog_write_reg8>
    1264:	805f992b          	lhgp	s2,-2044 # 80004 <g_pm_early_wakeup_time_us>
    1268:	3c09295b          	bfoz	s2,s2,15,0
    126c:	00491913          	slli	s2,s2,0x4
    1270:	0e0d7d13          	andi	s10,s10,224
    1274:	412a8933          	sub	s2,s5,s2
    1278:	1a0d0e63          	beqz	s10,1434 <cpu_sleep_wakeup_32k_rc_ram+0x30c>
    127c:	0ee00593          	li	a1,238
    1280:	04c00513          	li	a0,76
    1284:	a8dff0ef          	jal	ra,d10 <analog_write_reg8>
    1288:	1b09dedb          	beqc	s3,48,1444 <cpu_sleep_wakeup_32k_rc_ram+0x31c>
    128c:	80df978b          	addigp	a5,-2036 # 8000c <g_pm_r_delay_cycle>
    1290:	00279583          	lh	a1,2(a5)
    1294:	04000513          	li	a0,64
    1298:	0ff5f593          	andi	a1,a1,255
    129c:	a75ff0ef          	jal	ra,d10 <analog_write_reg8>
    12a0:	0e442783          	lw	a5,228(s0)
    12a4:	40f907b3          	sub	a5,s2,a5
    12a8:	1a0a0c63          	beqz	s4,1460 <cpu_sleep_wakeup_32k_rc_ram+0x338>
    12ac:	0ff00737          	lui	a4,0xff00
    12b0:	26f77463          	bgeu	a4,a5,1518 <cpu_sleep_wakeup_32k_rc_ram+0x3f0>
    12b4:	00100713          	li	a4,1
    12b8:	10e40a23          	sb	a4,276(s0)
    12bc:	11042683          	lw	a3,272(s0)
    12c0:	0e842583          	lw	a1,232(s0)
    12c4:	02d7d533          	divu	a0,a5,a3
    12c8:	12842703          	lw	a4,296(s0)
    12cc:	40000637          	lui	a2,0x40000
    12d0:	00370793          	addi	a5,a4,3 # ff00003 <FLASH_SIZE+0xfe00003>
    12d4:	0512                	c.slli	a0,0x4
    12d6:	952e                	c.add	a0,a1
    12d8:	8f89                	c.sub	a5,a0
    12da:	02c7f163          	bgeu	a5,a2,12fc <cpu_sleep_wakeup_32k_rc_ram+0x1d4>
    12de:	12c42783          	lw	a5,300(s0)
    12e2:	0ee42423          	sw	a4,232(s0)
    12e6:	0017e793          	ori	a5,a5,1
    12ea:	40f90533          	sub	a0,s2,a5
    12ee:	02d55533          	divu	a0,a0,a3
    12f2:	0ef42223          	sw	a5,228(s0)
    12f6:	0512                	c.slli	a0,0x4
    12f8:	00e50533          	add	a0,a0,a4
    12fc:	985ff0ef          	jal	ra,c80 <clock_set_32k_tick>
    1300:	06400513          	li	a0,100
    1304:	a49ff0ef          	jal	ra,d4c <analog_read_reg8>
    1308:	01f57513          	andi	a0,a0,31
    130c:	00051a63          	bnez	a0,1320 <cpu_sleep_wakeup_32k_rc_ram+0x1f8>
    1310:	240c1663          	bnez	s8,155c <cpu_sleep_wakeup_32k_rc_ram+0x434>
    1314:	c71ff0ef          	jal	ra,f84 <pm_sleep_start>
    1318:	4585                	c.li	a1,1
    131a:	07f00513          	li	a0,127
    131e:	3acd                	c.jal	d10 <analog_write_reg8>
    1320:	0109e8db          	bnec	s3,48,1330 <cpu_sleep_wakeup_32k_rc_ram+0x208>
    1324:	801407b7          	lui	a5,0x80140
    1328:	02000713          	li	a4,32
    132c:	1ee787a3          	sb	a4,495(a5) # 801401ef <_DATA_LMA_START+0x6013aa97>
    1330:	801407b7          	lui	a5,0x80140
    1334:	20878703          	lb	a4,520(a5) # 80140208 <_DATA_LMA_START+0x6013aab0>
    1338:	0ff77713          	andi	a4,a4,255
    133c:	00176713          	ori	a4,a4,1
    1340:	20e78423          	sb	a4,520(a5)
    1344:	4709                	c.li	a4,2
    1346:	20e78c23          	sb	a4,536(a5)
    134a:	20a78703          	lb	a4,522(a5)
    134e:	0ff77713          	andi	a4,a4,255
    1352:	00c76713          	ori	a4,a4,12
    1356:	20e78523          	sb	a4,522(a5)
    135a:	3259                	c.jal	ce0 <clock_get_32k_tick>
    135c:	11444783          	lbu	a5,276(s0)
    1360:	0505                	c.addi	a0,1
    1362:	18078b63          	beqz	a5,14f8 <cpu_sleep_wakeup_32k_rc_ram+0x3d0>
    1366:	12842703          	lw	a4,296(s0)
    136a:	12c42783          	lw	a5,300(s0)
    136e:	11042683          	lw	a3,272(s0)
    1372:	40e50733          	sub	a4,a0,a4
    1376:	8311                	c.srli	a4,0x4
    1378:	c4d717ff          	maddr32	a5,a4,a3
    137c:	12f42623          	sw	a5,300(s0)
    1380:	0e842683          	lw	a3,232(s0)
    1384:	00178793          	addi	a5,a5,1
    1388:	40d506b3          	sub	a3,a0,a3
    138c:	0ed42e23          	sw	a3,252(s0)
    1390:	10a42023          	sw	a0,256(s0)
    1394:	801406b7          	lui	a3,0x80140
    1398:	80140737          	lui	a4,0x80140
    139c:	20f6a023          	sw	a5,512(a3) # 80140200 <_DATA_LMA_START+0x6013aaa8>
    13a0:	20b70783          	lb	a5,523(a4) # 8014020b <_DATA_LMA_START+0x6013aab3>
    13a4:	be77fe5b          	bbc	a5,7,13a0 <cpu_sleep_wakeup_32k_rc_ram+0x278>
    13a8:	06400513          	li	a0,100
    13ac:	20070c23          	sb	zero,536(a4)
    13b0:	99dff0ef          	jal	ra,d4c <analog_read_reg8>
    13b4:	00a00733          	add	a4,zero,a0
    13b8:	00157e5b          	bbc	a0,1,13d4 <cpu_sleep_wakeup_32k_rc_ram+0x2ac>
    13bc:	000a0c63          	beqz	s4,13d4 <cpu_sleep_wakeup_32k_rc_ram+0x2ac>
    13c0:	80140637          	lui	a2,0x80140
    13c4:	400006b7          	lui	a3,0x40000
    13c8:	20062783          	lw	a5,512(a2) # 80140200 <_DATA_LMA_START+0x6013aaa8>
    13cc:	415787b3          	sub	a5,a5,s5
    13d0:	fef6ece3          	bltu	a3,a5,13c8 <cpu_sleep_wakeup_32k_rc_ram+0x2a0>
    13d4:	801407b7          	lui	a5,0x80140
    13d8:	1d778c23          	sb	s7,472(a5) # 801401d8 <_DATA_LMA_START+0x6013aa80>
    13dc:	1f678423          	sb	s6,488(a5)
    13e0:	00048463          	beqz	s1,13e8 <cpu_sleep_wakeup_32k_rc_ram+0x2c0>
    13e4:	3004a4f3          	csrrs	s1,mstatus,s1
    13e8:	08000513          	li	a0,128
    13ec:	da070ce3          	beqz	a4,11a4 <cpu_sleep_wakeup_32k_rc_ram+0x7c>
    13f0:	400007b7          	lui	a5,0x40000
    13f4:	00f76533          	or	a0,a4,a5
    13f8:	dadff06f          	j	11a4 <cpu_sleep_wakeup_32k_rc_ram+0x7c>
    13fc:	12078263          	beqz	a5,1520 <cpu_sleep_wakeup_32k_rc_ram+0x3f8>
    1400:	0d000593          	li	a1,208
    1404:	04d00513          	li	a0,77
    1408:	909ff0ef          	jal	ra,d10 <analog_write_reg8>
    140c:	801407b7          	lui	a5,0x80140
    1410:	1047a703          	lw	a4,260(a5) # 80140104 <_DATA_LMA_START+0x6013a9ac>
    1414:	805f978b          	addigp	a5,-2044 # 80004 <g_pm_early_wakeup_time_us>
    1418:	00279903          	lh	s2,2(a5)
    141c:	12e42823          	sw	a4,304(s0)
    1420:	3c09295b          	bfoz	s2,s2,15,0
    1424:	00491913          	slli	s2,s2,0x4
    1428:	0e0d7d13          	andi	s10,s10,224
    142c:	412a8933          	sub	s2,s5,s2
    1430:	e40d16e3          	bnez	s10,127c <cpu_sleep_wakeup_32k_rc_ram+0x154>
    1434:	0ef00593          	li	a1,239
    1438:	04c00513          	li	a0,76
    143c:	8d5ff0ef          	jal	ra,d10 <analog_write_reg8>
    1440:	a509e6db          	bnec	s3,48,128c <cpu_sleep_wakeup_32k_rc_ram+0x164>
    1444:	80df95ab          	lhgp	a1,-2036 # 8000c <g_pm_r_delay_cycle>
    1448:	04000513          	li	a0,64
    144c:	0ff5f593          	andi	a1,a1,255
    1450:	8c1ff0ef          	jal	ra,d10 <analog_write_reg8>
    1454:	0e442783          	lw	a5,228(s0)
    1458:	40f907b3          	sub	a5,s2,a5
    145c:	e40a18e3          	bnez	s4,12ac <cpu_sleep_wakeup_32k_rc_ram+0x184>
    1460:	11444703          	lbu	a4,276(s0)
    1464:	e4071ce3          	bnez	a4,12bc <cpu_sleep_wakeup_32k_rc_ram+0x194>
    1468:	00479513          	slli	a0,a5,0x4
    146c:	001cdc93          	srli	s9,s9,0x1
    1470:	11042683          	lw	a3,272(s0)
    1474:	9566                	c.add	a0,s9
    1476:	02d55533          	divu	a0,a0,a3
    147a:	0e842583          	lw	a1,232(s0)
    147e:	12842703          	lw	a4,296(s0)
    1482:	40000637          	lui	a2,0x40000
    1486:	00370793          	addi	a5,a4,3
    148a:	952e                	c.add	a0,a1
    148c:	8f89                	c.sub	a5,a0
    148e:	e6c7f7e3          	bgeu	a5,a2,12fc <cpu_sleep_wakeup_32k_rc_ram+0x1d4>
    1492:	12c42783          	lw	a5,300(s0)
    1496:	0ee42423          	sw	a4,232(s0)
    149a:	0017e793          	ori	a5,a5,1
    149e:	40f90933          	sub	s2,s2,a5
    14a2:	00491513          	slli	a0,s2,0x4
    14a6:	9caa                	c.add	s9,a0
    14a8:	02dcd533          	divu	a0,s9,a3
    14ac:	0ef42223          	sw	a5,228(s0)
    14b0:	953a                	c.add	a0,a4
    14b2:	b5a9                	c.j	12fc <cpu_sleep_wakeup_32k_rc_ram+0x1d4>
    14b4:	06400513          	li	a0,100
    14b8:	895ff0ef          	jal	ra,d4c <analog_read_reg8>
    14bc:	01f57513          	andi	a0,a0,31
    14c0:	ce5ff06f          	j	11a4 <cpu_sleep_wakeup_32k_rc_ram+0x7c>
    14c4:	01d00593          	li	a1,29
    14c8:	06400513          	li	a0,100
    14cc:	80140937          	lui	s2,0x80140
    14d0:	2007a403          	lw	s0,512(a5)
    14d4:	83dff0ef          	jal	ra,d10 <analog_write_reg8>
    14d8:	0080006f          	j	14e0 <cpu_sleep_wakeup_32k_rc_ram+0x3b8>
    14dc:	cc0514e3          	bnez	a0,11a4 <cpu_sleep_wakeup_32k_rc_ram+0x7c>
    14e0:	06400513          	li	a0,100
    14e4:	869ff0ef          	jal	ra,d4c <analog_read_reg8>
    14e8:	20092783          	lw	a5,512(s2) # 80140200 <_DATA_LMA_START+0x6013aaa8>
    14ec:	8975                	c.andi	a0,29
    14ee:	8f81                	c.sub	a5,s0
    14f0:	fe97e6e3          	bltu	a5,s1,14dc <cpu_sleep_wakeup_32k_rc_ram+0x3b4>
    14f4:	cb1ff06f          	j	11a4 <cpu_sleep_wakeup_32k_rc_ram+0x7c>
    14f8:	12842783          	lw	a5,296(s0)
    14fc:	11042703          	lw	a4,272(s0)
    1500:	40f507b3          	sub	a5,a0,a5
    1504:	02e787b3          	mul	a5,a5,a4
    1508:	12c42703          	lw	a4,300(s0)
    150c:	8391                	c.srli	a5,0x4
    150e:	97ba                	c.add	a5,a4
    1510:	12f42623          	sw	a5,300(s0)
    1514:	e6dff06f          	j	1380 <cpu_sleep_wakeup_32k_rc_ram+0x258>
    1518:	10040a23          	sb	zero,276(s0)
    151c:	f4dff06f          	j	1468 <cpu_sleep_wakeup_32k_rc_ram+0x340>
    1520:	0d100593          	li	a1,209
    1524:	04d00513          	li	a0,77
    1528:	fe8ff0ef          	jal	ra,d10 <analog_write_reg8>
    152c:	ee1ff06f          	j	140c <cpu_sleep_wakeup_32k_rc_ram+0x2e4>
    1530:	04079663          	bnez	a5,157c <cpu_sleep_wakeup_32k_rc_ram+0x454>
    1534:	0f900593          	li	a1,249
    1538:	04d00513          	li	a0,77
    153c:	fd4ff0ef          	jal	ra,d10 <analog_write_reg8>
    1540:	00100593          	li	a1,1
    1544:	07f00513          	li	a0,127
    1548:	fc8ff0ef          	jal	ra,d10 <analog_write_reg8>
    154c:	805f978b          	addigp	a5,-2044 # 80004 <g_pm_early_wakeup_time_us>
    1550:	00479903          	lh	s2,4(a5)
    1554:	3c09295b          	bfoz	s2,s2,15,0
    1558:	d15ff06f          	j	126c <cpu_sleep_wakeup_32k_rc_ram+0x144>
    155c:	00000593          	li	a1,0
    1560:	07f00513          	li	a0,127
    1564:	facff0ef          	jal	ra,d10 <analog_write_reg8>
    1568:	dadff06f          	j	1314 <cpu_sleep_wakeup_32k_rc_ram+0x1ec>
    156c:	06100593          	li	a1,97
    1570:	04d00513          	li	a0,77
    1574:	f9cff0ef          	jal	ra,d10 <analog_write_reg8>
    1578:	ce5ff06f          	j	125c <cpu_sleep_wakeup_32k_rc_ram+0x134>
    157c:	0f800593          	li	a1,248
    1580:	04d00513          	li	a0,77
    1584:	f8cff0ef          	jal	ra,d10 <analog_write_reg8>
    1588:	fb9ff06f          	j	1540 <cpu_sleep_wakeup_32k_rc_ram+0x418>

0000158c <clock_cal_24m_rc>:
    158c:	1141                	c.addi	sp,-16
    158e:	08000593          	li	a1,128
    1592:	0c800513          	li	a0,200
    1596:	c606                	c.swsp	ra,12(sp)
    1598:	f78ff0ef          	jal	ra,d10 <analog_write_reg8>
    159c:	04f00513          	li	a0,79
    15a0:	facff0ef          	jal	ra,d4c <analog_read_reg8>
    15a4:	f8056593          	ori	a1,a0,-128
    15a8:	0ff5f593          	andi	a1,a1,255
    15ac:	04f00513          	li	a0,79
    15b0:	f60ff0ef          	jal	ra,d10 <analog_write_reg8>
    15b4:	00e00593          	li	a1,14
    15b8:	0c700513          	li	a0,199
    15bc:	f54ff0ef          	jal	ra,d10 <analog_write_reg8>
    15c0:	00f00593          	li	a1,15
    15c4:	0c700513          	li	a0,199
    15c8:	f48ff0ef          	jal	ra,d10 <analog_write_reg8>
    15cc:	0cf00513          	li	a0,207
    15d0:	f7cff0ef          	jal	ra,d4c <analog_read_reg8>
    15d4:	be757c5b          	bbc	a0,7,15cc <clock_cal_24m_rc+0x40>
    15d8:	0cb00513          	li	a0,203
    15dc:	f70ff0ef          	jal	ra,d4c <analog_read_reg8>
    15e0:	00a005b3          	add	a1,zero,a0
    15e4:	05200513          	li	a0,82
    15e8:	f28ff0ef          	jal	ra,d10 <analog_write_reg8>
    15ec:	04f00513          	li	a0,79
    15f0:	f5cff0ef          	jal	ra,d4c <analog_read_reg8>
    15f4:	07f57593          	andi	a1,a0,127
    15f8:	04f00513          	li	a0,79
    15fc:	f14ff0ef          	jal	ra,d10 <analog_write_reg8>
    1600:	0c700513          	li	a0,199
    1604:	00e00593          	li	a1,14
    1608:	f08ff0ef          	jal	ra,d10 <analog_write_reg8>
    160c:	40b2                	c.lwsp	ra,12(sp)
    160e:	05200513          	li	a0,82
    1612:	0141                	c.addi	sp,16
    1614:	f38ff06f          	j	d4c <analog_read_reg8>

00001618 <dr_putchar>:
    1618:	801407b7          	lui	a5,0x80140
    161c:	30378803          	lb	a6,771(a5) # 80140303 <_DATA_LMA_START+0x6013abab>
    1620:	30378783          	lb	a5,771(a5)
    1624:	1141                	c.addi	sp,-16
    1626:	07f87813          	andi	a6,a6,127
    162a:	f807e793          	ori	a5,a5,-128
    162e:	0ff7f793          	andi	a5,a5,255
    1632:	01010223          	sb	a6,4(sp)
    1636:	873e                	c.mv	a4,a5
    1638:	4005745b          	bbs	a0,0,1640 <dr_putchar+0x28>
    163c:	01000733          	add	a4,zero,a6
    1640:	00e102a3          	sb	a4,5(sp)
    1644:	8742                	c.mv	a4,a6
    1646:	0015735b          	bbc	a0,1,164c <dr_putchar+0x34>
    164a:	873e                	c.mv	a4,a5
    164c:	00e10323          	sb	a4,6(sp)
    1650:	8742                	c.mv	a4,a6
    1652:	0025735b          	bbc	a0,2,1658 <dr_putchar+0x40>
    1656:	873e                	c.mv	a4,a5
    1658:	00e103a3          	sb	a4,7(sp)
    165c:	8742                	c.mv	a4,a6
    165e:	0035735b          	bbc	a0,3,1664 <dr_putchar+0x4c>
    1662:	873e                	c.mv	a4,a5
    1664:	00e10423          	sb	a4,8(sp)
    1668:	8742                	c.mv	a4,a6
    166a:	0045735b          	bbc	a0,4,1670 <dr_putchar+0x58>
    166e:	873e                	c.mv	a4,a5
    1670:	00e104a3          	sb	a4,9(sp)
    1674:	8742                	c.mv	a4,a6
    1676:	0055735b          	bbc	a0,5,167c <dr_putchar+0x64>
    167a:	873e                	c.mv	a4,a5
    167c:	00e10523          	sb	a4,10(sp)
    1680:	8742                	c.mv	a4,a6
    1682:	0065735b          	bbc	a0,6,1688 <dr_putchar+0x70>
    1686:	873e                	c.mv	a4,a5
    1688:	00e105a3          	sb	a4,11(sp)
    168c:	811d                	c.srli	a0,0x7
    168e:	8742                	c.mv	a4,a6
    1690:	c111                	c.beqz	a0,1694 <dr_putchar+0x7c>
    1692:	873e                	c.mv	a4,a5
    1694:	00e10623          	sb	a4,12(sp)
    1698:	00f106a3          	sb	a5,13(sp)
    169c:	30002373          	csrr	t1,mstatus
    16a0:	00837313          	andi	t1,t1,8
    16a4:	00030463          	beqz	t1,16ac <dr_putchar+0x94>
    16a8:	300477f3          	csrrci	a5,mstatus,8
    16ac:	801407b7          	lui	a5,0x80140
    16b0:	2007a603          	lw	a2,512(a5) # 80140200 <_DATA_LMA_START+0x6013aaa8>
    16b4:	00510513          	addi	a0,sp,5
    16b8:	00e10893          	addi	a7,sp,14
    16bc:	801406b7          	lui	a3,0x80140
    16c0:	08900593          	li	a1,137
    16c4:	2006a783          	lw	a5,512(a3) # 80140200 <_DATA_LMA_START+0x6013aaa8>
    16c8:	40c78733          	sub	a4,a5,a2
    16cc:	fee5fce3          	bgeu	a1,a4,16c4 <dr_putchar+0xac>
    16d0:	310681a3          	sb	a6,771(a3)
    16d4:	01150863          	beq	a0,a7,16e4 <dr_putchar+0xcc>
    16d8:	00054803          	lbu	a6,0(a0)
    16dc:	863e                	c.mv	a2,a5
    16de:	0505                	c.addi	a0,1
    16e0:	fe5ff06f          	j	16c4 <dr_putchar+0xac>
    16e4:	00030463          	beqz	t1,16ec <dr_putchar+0xd4>
    16e8:	30032373          	csrrs	t1,mstatus,t1
    16ec:	0141                	c.addi	sp,16
    16ee:	8082                	c.jr	ra

000016f0 <sys_init.constprop.0>:
    16f0:	1141                	c.addi	sp,-16
    16f2:	ffbc07b7          	lui	a5,0xffbc0
    16f6:	c606                	c.swsp	ra,12(sp)
    16f8:	17fd                	c.addi	a5,-1
    16fa:	80140737          	lui	a4,0x80140
    16fe:	c422                	c.swsp	s0,8(sp)
    1700:	c226                	c.swsp	s1,4(sp)
    1702:	c04a                	c.swsp	s2,0(sp)
    1704:	1ef72023          	sw	a5,480(a4) # 801401e0 <_DATA_LMA_START+0x6013aa88>
    1708:	00200593          	li	a1,2
    170c:	08c00513          	li	a0,140
    1710:	1ef72223          	sw	a5,484(a4)
    1714:	dfcff0ef          	jal	ra,d10 <analog_write_reg8>
    1718:	04000593          	li	a1,64
    171c:	00c00513          	li	a0,12
    1720:	df0ff0ef          	jal	ra,d10 <analog_write_reg8>
    1724:	08000593          	li	a1,128
    1728:	07d00513          	li	a0,125
    172c:	de4ff0ef          	jal	ra,d10 <analog_write_reg8>
    1730:	801607b7          	lui	a5,0x80160
    1734:	20000737          	lui	a4,0x20000
    1738:	458d                	c.li	a1,3
    173a:	4529                	c.li	a0,10
    173c:	00e7a023          	sw	a4,0(a5) # 80160000 <_DATA_LMA_START+0x6015a8a8>
    1740:	dd0ff0ef          	jal	ra,d10 <analog_write_reg8>
    1744:	04500593          	li	a1,69
    1748:	00100513          	li	a0,1
    174c:	dc4ff0ef          	jal	ra,d10 <analog_write_reg8>
    1750:	03b00593          	li	a1,59
    1754:	00b00513          	li	a0,11
    1758:	db8ff0ef          	jal	ra,d10 <analog_write_reg8>
    175c:	00600513          	li	a0,6
    1760:	decff0ef          	jal	ra,d4c <analog_read_reg8>
    1764:	03e57593          	andi	a1,a0,62
    1768:	00600513          	li	a0,6
    176c:	da4ff0ef          	jal	ra,d10 <analog_write_reg8>
    1770:	00500513          	li	a0,5
    1774:	dd8ff0ef          	jal	ra,d4c <analog_read_reg8>
    1778:	0f757593          	andi	a1,a0,247
    177c:	00500513          	li	a0,5
    1780:	d90ff0ef          	jal	ra,d10 <analog_write_reg8>
    1784:	801007b7          	lui	a5,0x80100
    1788:	50078623          	sb	zero,1292(a5) # 8010050c <_DATA_LMA_START+0x600fadb4>
    178c:	7c00d073          	csrwi	milmb,1
    1790:	000807b7          	lui	a5,0x80
    1794:	00178793          	addi	a5,a5,1 # 80001 <_DATA_VMA_START+0x1>
    1798:	7c179073          	csrw	mdlmb,a5
    179c:	07f00513          	li	a0,127
    17a0:	dacff0ef          	jal	ra,d4c <analog_read_reg8>
    17a4:	00a004b3          	add	s1,zero,a0
    17a8:	03800513          	li	a0,56
    17ac:	da0ff0ef          	jal	ra,d4c <analog_read_reg8>
    17b0:	00a00433          	add	s0,zero,a0
    17b4:	03900513          	li	a0,57
    17b8:	d94ff0ef          	jal	ra,d4c <analog_read_reg8>
    17bc:	0c047e5b          	bbc	s0,0,1898 <sys_init.constprop.0+0x1a8>
    17c0:	892a                	c.mv	s2,a0
    17c2:	0fe47593          	andi	a1,s0,254
    17c6:	81df940b          	addigp	s0,-2020 # 8001c <g_pm_status_info>
    17ca:	03800513          	li	a0,56
    17ce:	14097b5b          	bbc	s2,0,1924 <sys_init.constprop.0+0x234>
    17d2:	4791                	c.li	a5,4
    17d4:	00f40123          	sb	a5,2(s0)
    17d8:	d38ff0ef          	jal	ra,d10 <analog_write_reg8>
    17dc:	0014e593          	ori	a1,s1,1
    17e0:	0ff5f593          	andi	a1,a1,255
    17e4:	07f00513          	li	a0,127
    17e8:	d28ff0ef          	jal	ra,d10 <analog_write_reg8>
    17ec:	08800513          	li	a0,136
    17f0:	d5cff0ef          	jal	ra,d4c <analog_read_reg8>
    17f4:	be757c5b          	bbc	a0,7,17ec <sys_init.constprop.0+0xfc>
    17f8:	ed8ff0ef          	jal	ra,ed0 <pm_wait_bbpll_done>
    17fc:	00244783          	lbu	a5,2(s0)
    1800:	0a87d85b          	beqc	a5,8,18b0 <sys_init.constprop.0+0x1c0>
    1804:	80140737          	lui	a4,0x80140
    1808:	20a70783          	lb	a5,522(a4) # 8014020a <_DATA_LMA_START+0x6013aab2>
    180c:	0ff7f793          	andi	a5,a5,255
    1810:	00c7e793          	ori	a5,a5,12
    1814:	20f70523          	sb	a5,522(a4)
    1818:	00100793          	li	a5,1
    181c:	20f72023          	sw	a5,512(a4)
    1820:	20002097          	auipc	ra,0x20002
    1824:	3f4080e7          	jalr	1012(ra) # 20003c14 <cpu_wakeup_no_deepretn_back_init>
    1828:	d65ff0ef          	jal	ra,158c <clock_cal_24m_rc>
    182c:	80140737          	lui	a4,0x80140
    1830:	20870783          	lb	a5,520(a4) # 80140208 <_DATA_LMA_START+0x6013aab0>
    1834:	0ff7f793          	andi	a5,a5,255
    1838:	0017e793          	ori	a5,a5,1
    183c:	20f70423          	sb	a5,520(a4)
    1840:	1fd70783          	lb	a5,509(a4)
    1844:	00244683          	lbu	a3,2(s0)
    1848:	0ff7f793          	andi	a5,a5,255
    184c:	80ffcdab          	swgp	a5,-2024 # 80018 <_BSS_VMA_START>
    1850:	0246e25b          	bnec	a3,4,1874 <sys_init.constprop.0+0x184>
    1854:	000007b7          	lui	a5,0x0
    1858:	20072603          	lw	a2,512(a4)
    185c:	29c7a703          	lw	a4,668(a5) # 29c <cpu_sleep_wakeup>
    1860:	67d1                	c.lui	a5,0x14
    1862:	88078793          	addi	a5,a5,-1920 # 13880 <BIN_SIZE+0xe112>
    1866:	963e                	c.add	a2,a5
    1868:	02000593          	li	a1,32
    186c:	03000513          	li	a0,48
    1870:	000700e7          	jalr	a4
    1874:	04400593          	li	a1,68
    1878:	00c00513          	li	a0,12
    187c:	c94ff0ef          	jal	ra,d10 <analog_write_reg8>
    1880:	801417b7          	lui	a5,0x80141
    1884:	c0000737          	lui	a4,0xc0000
    1888:	b0e7a223          	sw	a4,-1276(a5) # 80140b04 <_DATA_LMA_START+0x6013b3ac>
    188c:	40b2                	c.lwsp	ra,12(sp)
    188e:	4422                	c.lwsp	s0,8(sp)
    1890:	4492                	c.lwsp	s1,4(sp)
    1892:	4902                	c.lwsp	s2,0(sp)
    1894:	0141                	c.addi	sp,16
    1896:	8082                	c.jr	ra
    1898:	81df940b          	addigp	s0,-2020 # 8001c <g_pm_status_info>
    189c:	4004f65b          	bbs	s1,0,18a8 <sys_init.constprop.0+0x1b8>
    18a0:	47a1                	c.li	a5,8
    18a2:	00f40123          	sb	a5,2(s0)
    18a6:	bf1d                	c.j	17dc <sys_init.constprop.0+0xec>
    18a8:	47c1                	c.li	a5,16
    18aa:	00f40123          	sb	a5,2(s0)
    18ae:	b73d                	c.j	17dc <sys_init.constprop.0+0xec>
    18b0:	06400513          	li	a0,100
    18b4:	c98ff0ef          	jal	ra,d4c <analog_read_reg8>
    18b8:	00a400a3          	sb	a0,1(s0)
    18bc:	06400513          	li	a0,100
    18c0:	c8cff0ef          	jal	ra,d4c <analog_read_reg8>
    18c4:	8929                	c.andi	a0,10
    18c6:	0085655b          	bnec	a0,8,18d0 <sys_init.constprop.0+0x1e0>
    18ca:	4785                	c.li	a5,1
    18cc:	00f40023          	sb	a5,0(s0)
    18d0:	801404b7          	lui	s1,0x80140
    18d4:	20848783          	lb	a5,520(s1) # 80140208 <_DATA_LMA_START+0x6013aab0>
    18d8:	0fe7f793          	andi	a5,a5,254
    18dc:	20f48423          	sb	a5,520(s1)
    18e0:	00200793          	li	a5,2
    18e4:	20f48c23          	sb	a5,536(s1)
    18e8:	20a48783          	lb	a5,522(s1)
    18ec:	0ff7f793          	andi	a5,a5,255
    18f0:	00c7e793          	ori	a5,a5,12
    18f4:	20f48523          	sb	a5,522(s1)
    18f8:	be8ff0ef          	jal	ra,ce0 <clock_get_32k_tick>
    18fc:	000007b7          	lui	a5,0x0
    1900:	2987a783          	lw	a5,664(a5) # 298 <pm_tim_recover>
    1904:	0505                	c.addi	a0,1
    1906:	9782                	c.jalr	a5
    1908:	80140737          	lui	a4,0x80140
    190c:	00150513          	addi	a0,a0,1
    1910:	20a4a023          	sw	a0,512(s1)
    1914:	20b70783          	lb	a5,523(a4) # 8014020b <_DATA_LMA_START+0x6013aab3>
    1918:	be77fe5b          	bbc	a5,7,1914 <sys_init.constprop.0+0x224>
    191c:	20070c23          	sb	zero,536(a4)
    1920:	f0dff06f          	j	182c <sys_init.constprop.0+0x13c>
    1924:	00100793          	li	a5,1
    1928:	00f40123          	sb	a5,2(s0)
    192c:	be4ff0ef          	jal	ra,d10 <analog_write_reg8>
    1930:	00196593          	ori	a1,s2,1
    1934:	0ff5f593          	andi	a1,a1,255
    1938:	03900513          	li	a0,57
    193c:	bd4ff0ef          	jal	ra,d10 <analog_write_reg8>
    1940:	e9dff06f          	j	17dc <sys_init.constprop.0+0xec>

00001944 <gpio_irq_handler>:
    1944:	801f97ab          	lhgp	a5,-2048 # 80000 <_DATA_VMA_START>
    1948:	4027fe5b          	bbs	a5,2,1964 <gpio_irq_handler+0x20>
    194c:	801407b7          	lui	a5,0x80140
    1950:	35278703          	lb	a4,850(a5) # 80140352 <_DATA_LMA_START+0x6013abfa>
    1954:	0fe77713          	andi	a4,a4,254
    1958:	34e78923          	sb	a4,850(a5)
    195c:	4705                	c.li	a4,1
    195e:	34e78c23          	sb	a4,856(a5)
    1962:	8082                	c.jr	ra
    1964:	20005537          	lui	a0,0x20005
    1968:	1141                	c.addi	sp,-16
    196a:	51850513          	addi	a0,a0,1304 # 20005518 <__FUNCTION__.13158+0x88>
    196e:	c606                	c.swsp	ra,12(sp)
    1970:	00812423          	sw	s0,8(sp)
    1974:	20003097          	auipc	ra,0x20003
    1978:	f24080e7          	jalr	-220(ra) # 20004898 <printf>
    197c:	20005437          	lui	s0,0x20005
    1980:	02f00593          	li	a1,47
    1984:	4fc40513          	addi	a0,s0,1276 # 200054fc <__FUNCTION__.13158+0x6c>
    1988:	20003097          	auipc	ra,0x20003
    198c:	f2e080e7          	jalr	-210(ra) # 200048b6 <strrchr>
    1990:	4fc40593          	addi	a1,s0,1276
    1994:	00050c63          	beqz	a0,19ac <gpio_irq_handler+0x68>
    1998:	02f00593          	li	a1,47
    199c:	4fc40513          	addi	a0,s0,1276
    19a0:	20003097          	auipc	ra,0x20003
    19a4:	f16080e7          	jalr	-234(ra) # 200048b6 <strrchr>
    19a8:	00150593          	addi	a1,a0,1
    19ac:	20005637          	lui	a2,0x20005
    19b0:	20005537          	lui	a0,0x20005
    19b4:	05000693          	li	a3,80
    19b8:	49060613          	addi	a2,a2,1168 # 20005490 <__FUNCTION__.13158>
    19bc:	52050513          	addi	a0,a0,1312 # 20005520 <__FUNCTION__.13158+0x90>
    19c0:	20003097          	auipc	ra,0x20003
    19c4:	ed8080e7          	jalr	-296(ra) # 20004898 <printf>
    19c8:	20005537          	lui	a0,0x20005
    19cc:	54050513          	addi	a0,a0,1344 # 20005540 <__FUNCTION__.13158+0xb0>
    19d0:	20003097          	auipc	ra,0x20003
    19d4:	ec8080e7          	jalr	-312(ra) # 20004898 <printf>
    19d8:	801407b7          	lui	a5,0x80140
    19dc:	35278703          	lb	a4,850(a5) # 80140352 <_DATA_LMA_START+0x6013abfa>
    19e0:	0fe77713          	andi	a4,a4,254
    19e4:	34e78923          	sb	a4,850(a5)
    19e8:	4705                	c.li	a4,1
    19ea:	34e78c23          	sb	a4,856(a5)
    19ee:	40b2                	c.lwsp	ra,12(sp)
    19f0:	4422                	c.lwsp	s0,8(sp)
    19f2:	0141                	c.addi	sp,16
    19f4:	00008067          	ret

000019f8 <main>:
    19f8:	b4010113          	addi	sp,sp,-1216
    19fc:	4a912a23          	sw	s1,1204(sp)
    1a00:	200037b7          	lui	a5,0x20003
    1a04:	000004b7          	lui	s1,0x0
    1a08:	4a112e23          	sw	ra,1212(sp)
    1a0c:	4a812c23          	sw	s0,1208(sp)
    1a10:	4b212823          	sw	s2,1200(sp)
    1a14:	4b312623          	sw	s3,1196(sp)
    1a18:	4b412423          	sw	s4,1192(sp)
    1a1c:	4b512223          	sw	s5,1188(sp)
    1a20:	4b612023          	sw	s6,1184(sp)
    1a24:	49712e23          	sw	s7,1180(sp)
    1a28:	49812c23          	sw	s8,1176(sp)
    1a2c:	49912a23          	sw	s9,1172(sp)
    1a30:	49a12823          	sw	s10,1168(sp)
    1a34:	49b12623          	sw	s11,1164(sp)
    1a38:	15848493          	addi	s1,s1,344 # 158 <_AES_VMA_END>
    1a3c:	75878793          	addi	a5,a5,1880 # 20003758 <cpu_sleep_wakeup_32k_rc>
    1a40:	14f4a223          	sw	a5,324(s1)
    1a44:	000017b7          	lui	a5,0x1
    1a48:	83478793          	addi	a5,a5,-1996 # 834 <pm_tim_recover_32k_rc>
    1a4c:	14f4a023          	sw	a5,320(s1)
    1a50:	4785                	c.li	a5,1
    1a52:	12f48b23          	sb	a5,310(s1)
    1a56:	3969                	c.jal	16f0 <sys_init.constprop.0>
    1a58:	801406b7          	lui	a3,0x80140
    1a5c:	1e268703          	lb	a4,482(a3) # 801401e2 <_DATA_LMA_START+0x6013aa8a>
    1a60:	801027b7          	lui	a5,0x80102
    1a64:	0ff77713          	andi	a4,a4,255
    1a68:	00476713          	ori	a4,a4,4
    1a6c:	1ee68123          	sb	a4,482(a3)
    1a70:	1e668703          	lb	a4,486(a3)
    1a74:	80102637          	lui	a2,0x80102
    1a78:	0ff77713          	andi	a4,a4,255
    1a7c:	00476713          	ori	a4,a4,4
    1a80:	1ee68323          	sb	a4,486(a3)
    1a84:	80078703          	lb	a4,-2048(a5) # 80101800 <_DATA_LMA_START+0x600fc0a8>
    1a88:	0fe77713          	andi	a4,a4,254
    1a8c:	80e78023          	sb	a4,-2048(a5)
    1a90:	8007a223          	sw	zero,-2044(a5)
    1a94:	80078703          	lb	a4,-2048(a5)
    1a98:	0ff77713          	andi	a4,a4,255
    1a9c:	00176713          	ori	a4,a4,1
    1aa0:	80e78023          	sb	a4,-2048(a5)
    1aa4:	80860783          	lb	a5,-2040(a2) # 80101808 <_DATA_LMA_START+0x600fc0b0>
    1aa8:	be07fe5b          	bbc	a5,0,1aa4 <main+0xac>
    1aac:	80c62703          	lw	a4,-2036(a2)
    1ab0:	801027b7          	lui	a5,0x80102
    1ab4:	0ce4ae23          	sw	a4,220(s1)
    1ab8:	80878703          	lb	a4,-2040(a5) # 80101808 <_DATA_LMA_START+0x600fc0b0>
    1abc:	be077e5b          	bbc	a4,0,1ab8 <main+0xc0>
    1ac0:	80140437          	lui	s0,0x80140
    1ac4:	80c7a683          	lw	a3,-2036(a5)
    1ac8:	1e240703          	lb	a4,482(s0) # 801401e2 <_DATA_LMA_START+0x6013aa8a>
    1acc:	0fb77713          	andi	a4,a4,251
    1ad0:	81ff890b          	lbgp	s2,-2018 # 8001e <g_pm_status_info+0x2>
    1ad4:	1ee40123          	sb	a4,482(s0)
    1ad8:	1e640703          	lb	a4,486(s0)
    1adc:	0ed4a023          	sw	a3,224(s1)
    1ae0:	0fb77713          	andi	a4,a4,251
    1ae4:	1ee40323          	sb	a4,486(s0)
    1ae8:	80078703          	lb	a4,-2048(a5)
    1aec:	00ff0ab7          	lui	s5,0xff0
    1af0:	0e077713          	andi	a4,a4,224
    1af4:	80e78023          	sb	a4,-2048(a5)
    1af8:	a98ff0ef          	jal	ra,d90 <clock_init.constprop.6>
    1afc:	807f87b7          	lui	a5,0x807f8
    1b00:	30f42023          	sw	a5,768(s0)
    1b04:	008007b7          	lui	a5,0x800
    1b08:	f0078793          	addi	a5,a5,-256 # 7fff00 <FLASH_SIZE+0x6fff00>
    1b0c:	30f42223          	sw	a5,772(s0)
    1b10:	010009b7          	lui	s3,0x1000
    1b14:	f0098993          	addi	s3,s3,-256 # ffff00 <FLASH_SIZE+0xefff00>
    1b18:	31542423          	sw	s5,776(s0)
    1b1c:	4581                	c.li	a1,0
    1b1e:	0bd00513          	li	a0,189
    1b22:	5a7d                	c.li	s4,-1
    1b24:	31342623          	sw	s3,780(s0)
    1b28:	9e8ff0ef          	jal	ra,d10 <analog_write_reg8>
    1b2c:	0ff00593          	li	a1,255
    1b30:	31440923          	sb	s4,786(s0)
    1b34:	0bf00513          	li	a0,191
    1b38:	300409a3          	sb	zero,787(s0)
    1b3c:	9d4ff0ef          	jal	ra,d10 <analog_write_reg8>
    1b40:	00000593          	li	a1,0
    1b44:	0c000513          	li	a0,192
    1b48:	31440b23          	sb	s4,790(s0)
    1b4c:	9c4ff0ef          	jal	ra,d10 <analog_write_reg8>
    1b50:	0ff00593          	li	a1,255
    1b54:	31440d23          	sb	s4,794(s0)
    1b58:	0c200513          	li	a0,194
    1b5c:	30040da3          	sb	zero,795(s0)
    1b60:	9b0ff0ef          	jal	ra,d10 <analog_write_reg8>
    1b64:	31440f23          	sb	s4,798(s0)
    1b68:	33542023          	sw	s5,800(s0)
    1b6c:	00897913          	andi	s2,s2,8
    1b70:	33342223          	sw	s3,804(s0)
    1b74:	0e090863          	beqz	s2,1c64 <main+0x26c>
    1b78:	80140437          	lui	s0,0x80140
    1b7c:	30640783          	lb	a5,774(s0) # 80140306 <_DATA_LMA_START+0x6013abae>
    1b80:	00100593          	li	a1,1
    1b84:	f807e793          	ori	a5,a5,-128
    1b88:	0ff7f793          	andi	a5,a5,255
    1b8c:	30f40323          	sb	a5,774(s0)
    1b90:	30240783          	lb	a5,770(s0)
    1b94:	08000513          	li	a0,128
    1b98:	07f7f793          	andi	a5,a5,127
    1b9c:	30f40123          	sb	a5,770(s0)
    1ba0:	20002097          	auipc	ra,0x20002
    1ba4:	21c080e7          	jalr	540(ra) # 20003dbc <gpio_set_up_down_res>
    1ba8:	30340683          	lb	a3,771(s0)
    1bac:	200057b7          	lui	a5,0x20005
    1bb0:	56c78793          	addi	a5,a5,1388 # 2000556c <__FUNCTION__.13158+0xdc>
    1bb4:	f806e693          	ori	a3,a3,-128
    1bb8:	0ff6f693          	andi	a3,a3,255
    1bbc:	08010713          	addi	a4,sp,128
    1bc0:	0cc78613          	addi	a2,a5,204
    1bc4:	30d401a3          	sb	a3,771(s0)
    1bc8:	4388                	c.lw	a0,0(a5)
    1bca:	43cc                	c.lw	a1,4(a5)
    1bcc:	4794                	c.lw	a3,8(a5)
    1bce:	c308                	c.sw	a0,0(a4)
    1bd0:	c34c                	c.sw	a1,4(a4)
    1bd2:	c714                	c.sw	a3,8(a4)
    1bd4:	07b1                	c.addi	a5,12
    1bd6:	0731                	c.addi	a4,12
    1bd8:	fec798e3          	bne	a5,a2,1bc8 <main+0x1d0>
    1bdc:	439c                	c.lw	a5,0(a5)
    1bde:	20005537          	lui	a0,0x20005
    1be2:	54850513          	addi	a0,a0,1352 # 20005548 <__FUNCTION__.13158+0xb8>
    1be6:	c31c                	c.sw	a5,0(a4)
    1be8:	20003097          	auipc	ra,0x20003
    1bec:	cb0080e7          	jalr	-848(ra) # 20004898 <printf>
    1bf0:	4881                	c.li	a7,0
    1bf2:	4801                	c.li	a6,0
    1bf4:	4781                	c.li	a5,0
    1bf6:	4701                	c.li	a4,0
    1bf8:	4685                	c.li	a3,1
    1bfa:	4601                	c.li	a2,0
    1bfc:	4585                	c.li	a1,1
    1bfe:	0108                	c.addi4spn	a0,sp,128
    1c00:	c202                	c.swsp	zero,4(sp)
    1c02:	c002                	c.swsp	zero,0(sp)
    1c04:	20005437          	lui	s0,0x20005
    1c08:	20003097          	auipc	ra,0x20003
    1c0c:	c90080e7          	jalr	-880(ra) # 20004898 <printf>
    1c10:	54040513          	addi	a0,s0,1344 # 20005540 <__FUNCTION__.13158+0xb0>
    1c14:	20003097          	auipc	ra,0x20003
    1c18:	c84080e7          	jalr	-892(ra) # 20004898 <printf>
    1c1c:	0a090063          	beqz	s2,1cbc <main+0x2c4>
    1c20:	1184a503          	lw	a0,280(s1)
    1c24:	0a051463          	bnez	a0,1ccc <main+0x2d4>
    1c28:	4bc12083          	lw	ra,1212(sp)
    1c2c:	4b812403          	lw	s0,1208(sp)
    1c30:	4b412483          	lw	s1,1204(sp)
    1c34:	4b012903          	lw	s2,1200(sp)
    1c38:	4ac12983          	lw	s3,1196(sp)
    1c3c:	4a812a03          	lw	s4,1192(sp)
    1c40:	4a412a83          	lw	s5,1188(sp)
    1c44:	4a012b03          	lw	s6,1184(sp)
    1c48:	49c12b83          	lw	s7,1180(sp)
    1c4c:	49812c03          	lw	s8,1176(sp)
    1c50:	49412c83          	lw	s9,1172(sp)
    1c54:	49012d03          	lw	s10,1168(sp)
    1c58:	48c12d83          	lw	s11,1164(sp)
    1c5c:	4501                	c.li	a0,0
    1c5e:	4c010113          	addi	sp,sp,1216
    1c62:	8082                	c.jr	ra
    1c64:	4581                	c.li	a1,0
    1c66:	4539                	c.li	a0,14
    1c68:	8a8ff0ef          	jal	ra,d10 <analog_write_reg8>
    1c6c:	0c000593          	li	a1,192
    1c70:	00f00513          	li	a0,15
    1c74:	89cff0ef          	jal	ra,d10 <analog_write_reg8>
    1c78:	4581                	c.li	a1,0
    1c7a:	4541                	c.li	a0,16
    1c7c:	894ff0ef          	jal	ra,d10 <analog_write_reg8>
    1c80:	4581                	c.li	a1,0
    1c82:	4545                	c.li	a0,17
    1c84:	88cff0ef          	jal	ra,d10 <analog_write_reg8>
    1c88:	4581                	c.li	a1,0
    1c8a:	4549                	c.li	a0,18
    1c8c:	884ff0ef          	jal	ra,d10 <analog_write_reg8>
    1c90:	4581                	c.li	a1,0
    1c92:	454d                	c.li	a0,19
    1c94:	87cff0ef          	jal	ra,d10 <analog_write_reg8>
    1c98:	4581                	c.li	a1,0
    1c9a:	4551                	c.li	a0,20
    1c9c:	874ff0ef          	jal	ra,d10 <analog_write_reg8>
    1ca0:	4581                	c.li	a1,0
    1ca2:	4555                	c.li	a0,21
    1ca4:	86cff0ef          	jal	ra,d10 <analog_write_reg8>
    1ca8:	4581                	c.li	a1,0
    1caa:	4559                	c.li	a0,22
    1cac:	864ff0ef          	jal	ra,d10 <analog_write_reg8>
    1cb0:	4581                	c.li	a1,0
    1cb2:	455d                	c.li	a0,23
    1cb4:	85cff0ef          	jal	ra,d10 <analog_write_reg8>
    1cb8:	ec1ff06f          	j	1b78 <main+0x180>
    1cbc:	20002097          	auipc	ra,0x20002
    1cc0:	b20080e7          	jalr	-1248(ra) # 200037dc <blc_readFlashSize_autoConfigCustomFlashSector>
    1cc4:	1184a503          	lw	a0,280(s1)
    1cc8:	08050863          	beqz	a0,1d58 <main+0x360>
    1ccc:	1344c783          	lbu	a5,308(s1)
    1cd0:	ef85                	c.bnez	a5,1d08 <main+0x310>
    1cd2:	2404a783          	lw	a5,576(s1)
    1cd6:	0110                	c.addi4spn	a2,sp,128
    1cd8:	4585                	c.li	a1,1
    1cda:	9782                	c.jalr	a5
    1cdc:	08014703          	lbu	a4,128(sp)
    1ce0:	0ff00793          	li	a5,255
    1ce4:	02f70263          	beq	a4,a5,1d08 <main+0x310>
    1ce8:	08a00513          	li	a0,138
    1cec:	860ff0ef          	jal	ra,d4c <analog_read_reg8>
    1cf0:	08010783          	lb	a5,128(sp)
    1cf4:	0c057593          	andi	a1,a0,192
    1cf8:	03f7f793          	andi	a5,a5,63
    1cfc:	08a00513          	li	a0,138
    1d00:	00f5e5b3          	or	a1,a1,a5
    1d04:	80cff0ef          	jal	ra,d10 <analog_write_reg8>
    1d08:	13c4d783          	lhu	a5,316(s1)
    1d0c:	c102                	c.swsp	zero,128(sp)
    1d0e:	08011223          	sh	zero,132(sp)
    1d12:	08010323          	sb	zero,134(sp)
    1d16:	cf9d                	c.beqz	a5,1d54 <main+0x35c>
    1d18:	1184a503          	lw	a0,280(s1)
    1d1c:	2404a783          	lw	a5,576(s1)
    1d20:	0110                	c.addi4spn	a2,sp,128
    1d22:	459d                	c.li	a1,7
    1d24:	0c050513          	addi	a0,a0,192
    1d28:	9782                	c.jalr	a5
    1d2a:	08414703          	lbu	a4,132(sp)
    1d2e:	0ff00793          	li	a5,255
    1d32:	2af70b63          	beq	a4,a5,1fe8 <main+0x5f0>
    1d36:	08614783          	lbu	a5,134(sp)
    1d3a:	66c1                	c.lui	a3,0x10
    1d3c:	08515583          	lhu	a1,133(sp)
    1d40:	16fd                	c.addi	a3,-1
    1d42:	07a2                	c.slli	a5,0x8
    1d44:	08514603          	lbu	a2,133(sp)
    1d48:	2ad58063          	beq	a1,a3,1fe8 <main+0x5f0>
    1d4c:	1c0736db          	bfos	a3,a4,7,0
    1d50:	2c06de63          	bgez	a3,202c <main+0x634>
    1d54:	ec091ae3          	bnez	s2,1c28 <main+0x230>
    1d58:	801f97ab          	lhgp	a5,-2048 # 80000 <_DATA_VMA_START>
    1d5c:	0027f45b          	bbc	a5,2,1d64 <main+0x36c>
    1d60:	5180006f          	j	2278 <main+0x880>
    1d64:	820007b7          	lui	a5,0x82000
    1d68:	4711                	c.li	a4,4
    1d6a:	fce780a3          	sb	a4,-63(a5) # 81ffffc1 <_DATA_LMA_START+0x61ffa869>
    1d6e:	fc078703          	lb	a4,-64(a5)
    1d72:	4501                	c.li	a0,0
    1d74:	f8076713          	ori	a4,a4,-128
    1d78:	0ff77713          	andi	a4,a4,255
    1d7c:	fce78023          	sb	a4,-64(a5)
    1d80:	fc078703          	lb	a4,-64(a5)
    1d84:	80140437          	lui	s0,0x80140
    1d88:	09f77713          	andi	a4,a4,159
    1d8c:	06076713          	ori	a4,a4,96
    1d90:	fce78023          	sb	a4,-64(a5)
    1d94:	20002097          	auipc	ra,0x20002
    1d98:	0c0080e7          	jalr	192(ra) # 20003e54 <hspi_set_pin_mux.part.0>
    1d9c:	11000513          	li	a0,272
    1da0:	20002097          	auipc	ra,0x20002
    1da4:	0b4080e7          	jalr	180(ra) # 20003e54 <hspi_set_pin_mux.part.0>
    1da8:	10800513          	li	a0,264
    1dac:	20002097          	auipc	ra,0x20002
    1db0:	0a8080e7          	jalr	168(ra) # 20003e54 <hspi_set_pin_mux.part.0>
    1db4:	10400513          	li	a0,260
    1db8:	20002097          	auipc	ra,0x20002
    1dbc:	09c080e7          	jalr	156(ra) # 20003e54 <hspi_set_pin_mux.part.0>
    1dc0:	00000513          	li	a0,0
    1dc4:	20002097          	auipc	ra,0x20002
    1dc8:	090080e7          	jalr	144(ra) # 20003e54 <hspi_set_pin_mux.part.0>
    1dcc:	00000513          	li	a0,0
    1dd0:	20002097          	auipc	ra,0x20002
    1dd4:	084080e7          	jalr	132(ra) # 20003e54 <hspi_set_pin_mux.part.0>
    1dd8:	30e40783          	lb	a5,782(s0) # 8014030e <_DATA_LMA_START+0x6013abb6>
    1ddc:	00300593          	li	a1,3
    1de0:	0ff7f793          	andi	a5,a5,255
    1de4:	0017e793          	ori	a5,a5,1
    1de8:	30f40723          	sb	a5,782(s0)
    1dec:	30a40783          	lb	a5,778(s0)
    1df0:	10100513          	li	a0,257
    1df4:	0fe7f793          	andi	a5,a5,254
    1df8:	30f40523          	sb	a5,778(s0)
    1dfc:	20002097          	auipc	ra,0x20002
    1e00:	fc0080e7          	jalr	-64(ra) # 20003dbc <gpio_set_up_down_res>
    1e04:	30b40783          	lb	a5,779(s0)
    1e08:	00300593          	li	a1,3
    1e0c:	0ff7f793          	andi	a5,a5,255
    1e10:	0017e793          	ori	a5,a5,1
    1e14:	30f405a3          	sb	a5,779(s0)
    1e18:	30e40783          	lb	a5,782(s0)
    1e1c:	10200513          	li	a0,258
    1e20:	0ff7f793          	andi	a5,a5,255
    1e24:	0027e793          	ori	a5,a5,2
    1e28:	30f40723          	sb	a5,782(s0)
    1e2c:	30a40783          	lb	a5,778(s0)
    1e30:	02010a93          	addi	s5,sp,32
    1e34:	0fd7f793          	andi	a5,a5,253
    1e38:	30f40523          	sb	a5,778(s0)
    1e3c:	20002097          	auipc	ra,0x20002
    1e40:	f80080e7          	jalr	-128(ra) # 20003dbc <gpio_set_up_down_res>
    1e44:	30b40783          	lb	a5,779(s0)
    1e48:	465d                	c.li	a2,23
    1e4a:	0ff7f793          	andi	a5,a5,255
    1e4e:	0027e793          	ori	a5,a5,2
    1e52:	000805b7          	lui	a1,0x80
    1e56:	1828                	c.addi4spn	a0,sp,56
    1e58:	30f405a3          	sb	a5,779(s0)
    1e5c:	20002097          	auipc	ra,0x20002
    1e60:	a80080e7          	jalr	-1408(ra) # 200038dc <W25XXX_Read>
    1e64:	465d                	c.li	a2,23
    1e66:	4581                	c.li	a1,0
    1e68:	05010513          	addi	a0,sp,80
    1e6c:	20002097          	auipc	ra,0x20002
    1e70:	a70080e7          	jalr	-1424(ra) # 200038dc <W25XXX_Read>
    1e74:	2404a783          	lw	a5,576(s1)
    1e78:	8656                	c.mv	a2,s5
    1e7a:	45dd                	c.li	a1,23
    1e7c:	2000f537          	lui	a0,0x2000f
    1e80:	9782                	c.jalr	a5
    1e82:	05014783          	lbu	a5,80(sp)
    1e86:	05114703          	lbu	a4,81(sp)
    1e8a:	07c2                	c.slli	a5,0x10
    1e8c:	0722                	c.slli	a4,0x8
    1e8e:	05214683          	lbu	a3,82(sp)
    1e92:	97ba                	c.add	a5,a4
    1e94:	01000737          	lui	a4,0x1000
    1e98:	97b6                	c.add	a5,a3
    1e9a:	177d                	c.addi	a4,-1
    1e9c:	02e79063          	bne	a5,a4,1ebc <main+0x4c4>
    1ea0:	2404a783          	lw	a5,576(s1)
    1ea4:	20010537          	lui	a0,0x20010
    1ea8:	0110                	c.addi4spn	a2,sp,128
    1eaa:	4585                	c.li	a1,1
    1eac:	02050513          	addi	a0,a0,32 # 20010020 <_DATA_LMA_START+0xa8c8>
    1eb0:	000780e7          	jalr	a5
    1eb4:	08014783          	lbu	a5,128(sp)
    1eb8:	58b7d65b          	beqc	a5,75,2044 <main+0x64c>
    1ebc:	03814703          	lbu	a4,56(sp)
    1ec0:	03914783          	lbu	a5,57(sp)
    1ec4:	03a14683          	lbu	a3,58(sp)
    1ec8:	0742                	c.slli	a4,0x10
    1eca:	07a2                	c.slli	a5,0x8
    1ecc:	973e                	c.add	a4,a5
    1ece:	9736                	c.add	a4,a3
    1ed0:	010006b7          	lui	a3,0x1000
    1ed4:	16fd                	c.addi	a3,-1
    1ed6:	08d70963          	beq	a4,a3,1f68 <main+0x570>
    1eda:	02014783          	lbu	a5,32(sp)
    1ede:	02114603          	lbu	a2,33(sp)
    1ee2:	07c2                	c.slli	a5,0x10
    1ee4:	0622                	c.slli	a2,0x8
    1ee6:	02214583          	lbu	a1,34(sp)
    1eea:	97b2                	c.add	a5,a2
    1eec:	00b787b3          	add	a5,a5,a1
    1ef0:	08d78c63          	beq	a5,a3,1f88 <main+0x590>
    1ef4:	06e7e263          	bltu	a5,a4,1f58 <main+0x560>
    1ef8:	300027f3          	csrr	a5,mstatus
    1efc:	0037f45b          	bbc	a5,3,1f04 <main+0x50c>
    1f00:	300477f3          	csrrci	a5,mstatus,8
    1f04:	200107b7          	lui	a5,0x20010
    1f08:	000780e7          	jalr	a5 # 20010000 <_DATA_LMA_START+0xa8a8>
    1f0c:	300467f3          	csrrsi	a5,mstatus,8
    1f10:	6785                	c.lui	a5,0x1
    1f12:	88878793          	addi	a5,a5,-1912 # 888 <pm_get_32k_rc_calib+0xc>
    1f16:	3047a7f3          	csrrs	a5,mie,a5
    1f1a:	815fa78b          	lbugp	a5,-2028 # 80014 <sys_clk+0x4>
    1f1e:	004c5737          	lui	a4,0x4c5
    1f22:	b4070713          	addi	a4,a4,-1216 # 4c4b40 <FLASH_SIZE+0x3c4b40>
    1f26:	02e787b3          	mul	a5,a5,a4
    1f2a:	80140737          	lui	a4,0x80140
    1f2e:	801404b7          	lui	s1,0x80140
    1f32:	4431                	c.li	s0,12
    1f34:	14f72623          	sw	a5,332(a4) # 8014014c <_DATA_LMA_START+0x6013a9f4>
    1f38:	14270783          	lb	a5,322(a4)
    1f3c:	f807e793          	ori	a5,a5,-128
    1f40:	0ff7f793          	andi	a5,a5,255
    1f44:	14f70123          	sb	a5,322(a4)
    1f48:	20002097          	auipc	ra,0x20002
    1f4c:	100080e7          	jalr	256(ra) # 20004048 <main_loop>
    1f50:	148481a3          	sb	s0,323(s1) # 80140143 <_DATA_LMA_START+0x6013a9eb>
    1f54:	ff5ff06f          	j	1f48 <main+0x550>
    1f58:	000815b7          	lui	a1,0x81
    1f5c:	03810513          	addi	a0,sp,56
    1f60:	20002097          	auipc	ra,0x20002
    1f64:	35c080e7          	jalr	860(ra) # 200042bc <fw_copy>
    1f68:	02014783          	lbu	a5,32(sp)
    1f6c:	02114703          	lbu	a4,33(sp)
    1f70:	07c2                	c.slli	a5,0x10
    1f72:	0722                	c.slli	a4,0x8
    1f74:	02214683          	lbu	a3,34(sp)
    1f78:	97ba                	c.add	a5,a4
    1f7a:	01000737          	lui	a4,0x1000
    1f7e:	97b6                	c.add	a5,a3
    1f80:	fff70713          	addi	a4,a4,-1 # ffffff <FLASH_SIZE+0xefffff>
    1f84:	f6e79ae3          	bne	a5,a4,1ef8 <main+0x500>
    1f88:	2404a783          	lw	a5,576(s1)
    1f8c:	20010537          	lui	a0,0x20010
    1f90:	0110                	c.addi4spn	a2,sp,128
    1f92:	4585                	c.li	a1,1
    1f94:	02050513          	addi	a0,a0,32 # 20010020 <_DATA_LMA_START+0xa8c8>
    1f98:	9782                	c.jalr	a5
    1f9a:	08014783          	lbu	a5,128(sp)
    1f9e:	68b7d55b          	beqc	a5,75,2228 <main+0x830>
    1fa2:	03814783          	lbu	a5,56(sp)
    1fa6:	03914703          	lbu	a4,57(sp)
    1faa:	07c2                	c.slli	a5,0x10
    1fac:	0722                	c.slli	a4,0x8
    1fae:	03a14683          	lbu	a3,58(sp)
    1fb2:	97ba                	c.add	a5,a4
    1fb4:	01000737          	lui	a4,0x1000
    1fb8:	97b6                	c.add	a5,a3
    1fba:	177d                	c.addi	a4,-1
    1fbc:	24e79c63          	bne	a5,a4,2214 <main+0x81c>
    1fc0:	05014703          	lbu	a4,80(sp)
    1fc4:	05114683          	lbu	a3,81(sp)
    1fc8:	0742                	c.slli	a4,0x10
    1fca:	06a2                	c.slli	a3,0x8
    1fcc:	05214603          	lbu	a2,82(sp)
    1fd0:	9736                	c.add	a4,a3
    1fd2:	9732                	c.add	a4,a2
    1fd4:	f2f70ce3          	beq	a4,a5,1f0c <main+0x514>
    1fd8:	6585                	c.lui	a1,0x1
    1fda:	0888                	c.addi4spn	a0,sp,80
    1fdc:	20002097          	auipc	ra,0x20002
    1fe0:	2e0080e7          	jalr	736(ra) # 200042bc <fw_copy>
    1fe4:	f29ff06f          	j	1f0c <main+0x514>
    1fe8:	1374c783          	lbu	a5,311(s1)
    1fec:	d60794e3          	bnez	a5,1d54 <main+0x35c>
    1ff0:	6741                	c.lui	a4,0x10
    1ff2:	08015603          	lhu	a2,128(sp)
    1ff6:	177d                	c.addi	a4,-1
    1ff8:	08114683          	lbu	a3,129(sp)
    1ffc:	08014783          	lbu	a5,128(sp)
    2000:	d4e60ae3          	beq	a2,a4,1d54 <main+0x35c>
    2004:	97b6                	c.add	a5,a3
    2006:	39878713          	addi	a4,a5,920
    200a:	f8078793          	addi	a5,a5,-128
    200e:	12e49c23          	sh	a4,312(s1)
    2012:	3c07a7db          	bfoz	a5,a5,15,0
    2016:	0fd00713          	li	a4,253
    201a:	d2f77de3          	bgeu	a4,a5,1d54 <main+0x35c>
    201e:	49700793          	li	a5,1175
    2022:	12f49c23          	sh	a5,312(s1)
    2026:	d20909e3          	beqz	s2,1d58 <main+0x360>
    202a:	befd                	c.j	1c28 <main+0x230>
    202c:	8fd1                	c.or	a5,a2
    202e:	3e878793          	addi	a5,a5,1000
    2032:	1731                	c.addi	a4,-20
    2034:	12f49c23          	sh	a5,312(s1)
    2038:	12e49d23          	sh	a4,314(s1)
    203c:	d0090ee3          	beqz	s2,1d58 <main+0x360>
    2040:	be9ff06f          	j	1c28 <main+0x230>
    2044:	465d                	c.li	a2,23
    2046:	4581                	c.li	a1,0
    2048:	10a8                	c.addi4spn	a0,sp,104
    204a:	4901                	c.li	s2,0
    204c:	80140437          	lui	s0,0x80140
    2050:	00001a37          	lui	s4,0x1
    2054:	000809b7          	lui	s3,0x80
    2058:	20002097          	auipc	ra,0x20002
    205c:	796080e7          	jalr	1942(ra) # 200047ee <memset>
    2060:	30b40783          	lb	a5,779(s0) # 8014030b <_DATA_LMA_START+0x6013abb3>
    2064:	00600513          	li	a0,6
    2068:	0fe7f793          	andi	a5,a5,254
    206c:	30f405a3          	sb	a5,779(s0)
    2070:	20001097          	auipc	ra,0x20001
    2074:	7d4080e7          	jalr	2004(ra) # 20003844 <writeSPIByte>
    2078:	30b40783          	lb	a5,779(s0)
    207c:	02000513          	li	a0,32
    2080:	0ff7f793          	andi	a5,a5,255
    2084:	0017e793          	ori	a5,a5,1
    2088:	30f405a3          	sb	a5,779(s0)
    208c:	30b40783          	lb	a5,779(s0)
    2090:	0fe7f793          	andi	a5,a5,254
    2094:	30f405a3          	sb	a5,779(s0)
    2098:	20001097          	auipc	ra,0x20001
    209c:	7ac080e7          	jalr	1964(ra) # 20003844 <writeSPIByte>
    20a0:	5d09255b          	bfoz	a0,s2,23,16
    20a4:	20001097          	auipc	ra,0x20001
    20a8:	7a0080e7          	jalr	1952(ra) # 20003844 <writeSPIByte>
    20ac:	3c89255b          	bfoz	a0,s2,15,8
    20b0:	20001097          	auipc	ra,0x20001
    20b4:	794080e7          	jalr	1940(ra) # 20003844 <writeSPIByte>
    20b8:	00000513          	li	a0,0
    20bc:	20001097          	auipc	ra,0x20001
    20c0:	788080e7          	jalr	1928(ra) # 20003844 <writeSPIByte>
    20c4:	30b40783          	lb	a5,779(s0)
    20c8:	0ff7f793          	andi	a5,a5,255
    20cc:	0017e793          	ori	a5,a5,1
    20d0:	30f405a3          	sb	a5,779(s0)
    20d4:	20002097          	auipc	ra,0x20002
    20d8:	874080e7          	jalr	-1932(ra) # 20003948 <FLASH_ReadStatusReg>
    20dc:	fe057c5b          	bbs	a0,0,20d4 <main+0x6dc>
    20e0:	01490933          	add	s2,s2,s4
    20e4:	f7391ee3          	bne	s2,s3,2060 <main+0x668>
    20e8:	20001097          	auipc	ra,0x20001
    20ec:	588080e7          	jalr	1416(ra) # 20003670 <flash_read_mid>
    20f0:	20002097          	auipc	ra,0x20002
    20f4:	170080e7          	jalr	368(ra) # 20004260 <flash_unlock_mid146085>
    20f8:	20005bb7          	lui	s7,0x20005
    20fc:	01000613          	li	a2,16
    2100:	0ff00593          	li	a1,255
    2104:	835f950b          	addigp	a0,-1996 # 80034 <crc128>
    2108:	20010db7          	lui	s11,0x20010
    210c:	835f9c0b          	addigp	s8,-1996 # 80034 <crc128>
    2110:	845f9b0b          	addigp	s6,-1980 # 80044 <crc128+0x10>
    2114:	468b8b93          	addi	s7,s7,1128 # 20005468 <__riscv_restore_0+0xc>
    2118:	48010d13          	addi	s10,sp,1152
    211c:	dfff1a37          	lui	s4,0xdfff1
    2120:	200509b7          	lui	s3,0x20050
    2124:	20002097          	auipc	ra,0x20002
    2128:	6ca080e7          	jalr	1738(ra) # 200047ee <memset>
    212c:	2404a783          	lw	a5,576(s1)
    2130:	40000593          	li	a1,1024
    2134:	0110                	c.addi4spn	a2,sp,128
    2136:	856e                	c.mv	a0,s11
    2138:	9782                	c.jalr	a5
    213a:	010c                	c.addi4spn	a1,sp,128
    213c:	8ce2                	c.mv	s9,s8
    213e:	872e                	c.mv	a4,a1
    2140:	01800433          	add	s0,zero,s8
    2144:	00040783          	lb	a5,0(s0)
    2148:	00070683          	lb	a3,0(a4) # 10000 <BIN_SIZE+0xa892>
    214c:	0405                	c.addi	s0,1
    214e:	8fb5                	c.xor	a5,a3
    2150:	fef40fa3          	sb	a5,-1(s0)
    2154:	0705                	c.addi	a4,1
    2156:	fe8b17e3          	bne	s6,s0,2144 <main+0x74c>
    215a:	000ba803          	lw	a6,0(s7)
    215e:	004ba503          	lw	a0,4(s7)
    2162:	008ba603          	lw	a2,8(s7)
    2166:	00cba683          	lw	a3,12(s7)
    216a:	0818                	c.addi4spn	a4,sp,16
    216c:	87ae                	c.mv	a5,a1
    216e:	c842                	c.swsp	a6,16(sp)
    2170:	ca2a                	c.swsp	a0,20(sp)
    2172:	cc32                	c.swsp	a2,24(sp)
    2174:	00d12e23          	sw	a3,28(sp)
    2178:	00078683          	lb	a3,0(a5)
    217c:	00070603          	lb	a2,0(a4)
    2180:	0785                	c.addi	a5,1
    2182:	8eb1                	c.xor	a3,a2
    2184:	0705                	c.addi	a4,1
    2186:	fed78fa3          	sb	a3,-1(a5)
    218a:	feea97e3          	bne	s5,a4,2178 <main+0x780>
    218e:	05c1                	c.addi	a1,16
    2190:	fabd16e3          	bne	s10,a1,213c <main+0x744>
    2194:	014d85b3          	add	a1,s11,s4
    2198:	40000613          	li	a2,1024
    219c:	400d8d93          	addi	s11,s11,1024 # 20010400 <_DATA_LMA_START+0xaca8>
    21a0:	08010513          	addi	a0,sp,128
    21a4:	20002097          	auipc	ra,0x20002
    21a8:	890080e7          	jalr	-1904(ra) # 20003a34 <W25XXX_WR_Block>
    21ac:	f93d90e3          	bne	s11,s3,212c <main+0x734>
    21b0:	200059b7          	lui	s3,0x20005
    21b4:	000cc583          	lbu	a1,0(s9)
    21b8:	56898513          	addi	a0,s3,1384 # 20005568 <__FUNCTION__.13158+0xd8>
    21bc:	001c8c93          	addi	s9,s9,1
    21c0:	20002097          	auipc	ra,0x20002
    21c4:	6d8080e7          	jalr	1752(ra) # 20004898 <printf>
    21c8:	ff9416e3          	bne	s0,s9,21b4 <main+0x7bc>
    21cc:	20005537          	lui	a0,0x20005
    21d0:	56450513          	addi	a0,a0,1380 # 20005564 <__FUNCTION__.13158+0xd4>
    21d4:	20002097          	auipc	ra,0x20002
    21d8:	6c4080e7          	jalr	1732(ra) # 20004898 <printf>
    21dc:	67c1                	c.lui	a5,0x10
    21de:	835f958b          	addigp	a1,-1996 # 80034 <crc128>
    21e2:	d4be                	c.swsp	a5,104(sp)
    21e4:	01000613          	li	a2,16
    21e8:	40000793          	li	a5,1024
    21ec:	06f10513          	addi	a0,sp,111
    21f0:	06f11623          	sh	a5,108(sp)
    21f4:	06010723          	sb	zero,110(sp)
    21f8:	20002097          	auipc	ra,0x20002
    21fc:	4fc080e7          	jalr	1276(ra) # 200046f4 <memcpy>
    2200:	465d                	c.li	a2,23
    2202:	4581                	c.li	a1,0
    2204:	06810513          	addi	a0,sp,104
    2208:	20002097          	auipc	ra,0x20002
    220c:	82c080e7          	jalr	-2004(ra) # 20003a34 <W25XXX_WR_Block>
    2210:	cadff06f          	j	1ebc <main+0x4c4>
    2214:	000815b7          	lui	a1,0x81
    2218:	03810513          	addi	a0,sp,56
    221c:	20002097          	auipc	ra,0x20002
    2220:	0a0080e7          	jalr	160(ra) # 200042bc <fw_copy>
    2224:	ce9ff06f          	j	1f0c <main+0x514>
    2228:	20001097          	auipc	ra,0x20001
    222c:	448080e7          	jalr	1096(ra) # 20003670 <flash_read_mid>
    2230:	20002097          	auipc	ra,0x20002
    2234:	030080e7          	jalr	48(ra) # 20004260 <flash_unlock_mid146085>
    2238:	2000f537          	lui	a0,0x2000f
    223c:	20001097          	auipc	ra,0x20001
    2240:	4e8080e7          	jalr	1256(ra) # 20003724 <flash_erase_sector>
    2244:	67c1                	c.lui	a5,0x10
    2246:	835f958b          	addigp	a1,-1996 # 80034 <crc128>
    224a:	d03e                	c.swsp	a5,32(sp)
    224c:	01000613          	li	a2,16
    2250:	40000793          	li	a5,1024
    2254:	02710513          	addi	a0,sp,39
    2258:	02f11223          	sh	a5,36(sp)
    225c:	02010323          	sb	zero,38(sp)
    2260:	20002097          	auipc	ra,0x20002
    2264:	494080e7          	jalr	1172(ra) # 200046f4 <memcpy>
    2268:	23c4a783          	lw	a5,572(s1)
    226c:	8656                	c.mv	a2,s5
    226e:	45dd                	c.li	a1,23
    2270:	2000f537          	lui	a0,0x2000f
    2274:	9782                	c.jalr	a5
    2276:	b149                	c.j	1ef8 <main+0x500>
    2278:	20005537          	lui	a0,0x20005
    227c:	51850513          	addi	a0,a0,1304 # 20005518 <__FUNCTION__.13158+0x88>
    2280:	20002097          	auipc	ra,0x20002
    2284:	618080e7          	jalr	1560(ra) # 20004898 <printf>
    2288:	20005937          	lui	s2,0x20005
    228c:	02f00593          	li	a1,47
    2290:	4fc90513          	addi	a0,s2,1276 # 200054fc <__FUNCTION__.13158+0x6c>
    2294:	20002097          	auipc	ra,0x20002
    2298:	622080e7          	jalr	1570(ra) # 200048b6 <strrchr>
    229c:	4fc90593          	addi	a1,s2,1276
    22a0:	00050c63          	beqz	a0,22b8 <main+0x8c0>
    22a4:	02f00593          	li	a1,47
    22a8:	4fc90513          	addi	a0,s2,1276
    22ac:	20002097          	auipc	ra,0x20002
    22b0:	60a080e7          	jalr	1546(ra) # 200048b6 <strrchr>
    22b4:	00150593          	addi	a1,a0,1
    22b8:	20005637          	lui	a2,0x20005
    22bc:	20005537          	lui	a0,0x20005
    22c0:	0af00693          	li	a3,175
    22c4:	65460613          	addi	a2,a2,1620 # 20005654 <__FUNCTION__.13195>
    22c8:	55050513          	addi	a0,a0,1360 # 20005550 <__FUNCTION__.13158+0xc0>
    22cc:	20002097          	auipc	ra,0x20002
    22d0:	5cc080e7          	jalr	1484(ra) # 20004898 <printf>
    22d4:	54040513          	addi	a0,s0,1344
    22d8:	20002097          	auipc	ra,0x20002
    22dc:	5c0080e7          	jalr	1472(ra) # 20004898 <printf>
    22e0:	a85ff06f          	j	1d64 <main+0x36c>

000022e4 <entry_irq63>:
    22e4:	1141                	c.addi	sp,-16
    22e6:	c632                	c.swsp	a2,12(sp)
    22e8:	c436                	c.swsp	a3,8(sp)
    22ea:	c23a                	c.swsp	a4,4(sp)
    22ec:	c03e                	c.swsp	a5,0(sp)
    22ee:	34102773          	csrr	a4,mepc
    22f2:	300026f3          	csrr	a3,mstatus
    22f6:	7c4027f3          	csrr	a5,mxstatus
    22fa:	30046673          	csrrsi	a2,mstatus,8
    22fe:	30047673          	csrrci	a2,mstatus,8
    2302:	30069073          	csrw	mstatus,a3
    2306:	34171073          	csrw	mepc,a4
    230a:	7c479073          	csrw	mxstatus,a5
    230e:	e42007b7          	lui	a5,0xe4200
    2312:	03f00713          	li	a4,63
    2316:	c3d8                	c.sw	a4,4(a5)
    2318:	0ff0000f          	fence
    231c:	4632                	c.lwsp	a2,12(sp)
    231e:	46a2                	c.lwsp	a3,8(sp)
    2320:	4712                	c.lwsp	a4,4(sp)
    2322:	4782                	c.lwsp	a5,0(sp)
    2324:	01010113          	addi	sp,sp,16
    2328:	30200073          	mret

0000232c <entry_irq62>:
    232c:	1141                	c.addi	sp,-16
    232e:	c632                	c.swsp	a2,12(sp)
    2330:	c436                	c.swsp	a3,8(sp)
    2332:	c23a                	c.swsp	a4,4(sp)
    2334:	c03e                	c.swsp	a5,0(sp)
    2336:	34102773          	csrr	a4,mepc
    233a:	300026f3          	csrr	a3,mstatus
    233e:	7c4027f3          	csrr	a5,mxstatus
    2342:	30046673          	csrrsi	a2,mstatus,8
    2346:	30047673          	csrrci	a2,mstatus,8
    234a:	30069073          	csrw	mstatus,a3
    234e:	34171073          	csrw	mepc,a4
    2352:	7c479073          	csrw	mxstatus,a5
    2356:	e42007b7          	lui	a5,0xe4200
    235a:	03e00713          	li	a4,62
    235e:	c3d8                	c.sw	a4,4(a5)
    2360:	0ff0000f          	fence
    2364:	4632                	c.lwsp	a2,12(sp)
    2366:	46a2                	c.lwsp	a3,8(sp)
    2368:	4712                	c.lwsp	a4,4(sp)
    236a:	4782                	c.lwsp	a5,0(sp)
    236c:	01010113          	addi	sp,sp,16
    2370:	30200073          	mret

00002374 <entry_irq61>:
    2374:	1141                	c.addi	sp,-16
    2376:	c632                	c.swsp	a2,12(sp)
    2378:	c436                	c.swsp	a3,8(sp)
    237a:	c23a                	c.swsp	a4,4(sp)
    237c:	c03e                	c.swsp	a5,0(sp)
    237e:	34102773          	csrr	a4,mepc
    2382:	300026f3          	csrr	a3,mstatus
    2386:	7c4027f3          	csrr	a5,mxstatus
    238a:	30046673          	csrrsi	a2,mstatus,8
    238e:	30047673          	csrrci	a2,mstatus,8
    2392:	30069073          	csrw	mstatus,a3
    2396:	34171073          	csrw	mepc,a4
    239a:	7c479073          	csrw	mxstatus,a5
    239e:	e42007b7          	lui	a5,0xe4200
    23a2:	03d00713          	li	a4,61
    23a6:	c3d8                	c.sw	a4,4(a5)
    23a8:	0ff0000f          	fence
    23ac:	4632                	c.lwsp	a2,12(sp)
    23ae:	46a2                	c.lwsp	a3,8(sp)
    23b0:	4712                	c.lwsp	a4,4(sp)
    23b2:	4782                	c.lwsp	a5,0(sp)
    23b4:	01010113          	addi	sp,sp,16
    23b8:	30200073          	mret

000023bc <entry_irq60>:
    23bc:	1141                	c.addi	sp,-16
    23be:	c632                	c.swsp	a2,12(sp)
    23c0:	c436                	c.swsp	a3,8(sp)
    23c2:	c23a                	c.swsp	a4,4(sp)
    23c4:	c03e                	c.swsp	a5,0(sp)
    23c6:	34102773          	csrr	a4,mepc
    23ca:	300026f3          	csrr	a3,mstatus
    23ce:	7c4027f3          	csrr	a5,mxstatus
    23d2:	30046673          	csrrsi	a2,mstatus,8
    23d6:	30047673          	csrrci	a2,mstatus,8
    23da:	30069073          	csrw	mstatus,a3
    23de:	34171073          	csrw	mepc,a4
    23e2:	7c479073          	csrw	mxstatus,a5
    23e6:	e42007b7          	lui	a5,0xe4200
    23ea:	03c00713          	li	a4,60
    23ee:	c3d8                	c.sw	a4,4(a5)
    23f0:	0ff0000f          	fence
    23f4:	4632                	c.lwsp	a2,12(sp)
    23f6:	46a2                	c.lwsp	a3,8(sp)
    23f8:	4712                	c.lwsp	a4,4(sp)
    23fa:	4782                	c.lwsp	a5,0(sp)
    23fc:	01010113          	addi	sp,sp,16
    2400:	30200073          	mret

00002404 <entry_irq59>:
    2404:	1141                	c.addi	sp,-16
    2406:	c632                	c.swsp	a2,12(sp)
    2408:	c436                	c.swsp	a3,8(sp)
    240a:	c23a                	c.swsp	a4,4(sp)
    240c:	c03e                	c.swsp	a5,0(sp)
    240e:	34102773          	csrr	a4,mepc
    2412:	300026f3          	csrr	a3,mstatus
    2416:	7c4027f3          	csrr	a5,mxstatus
    241a:	30046673          	csrrsi	a2,mstatus,8
    241e:	30047673          	csrrci	a2,mstatus,8
    2422:	30069073          	csrw	mstatus,a3
    2426:	34171073          	csrw	mepc,a4
    242a:	7c479073          	csrw	mxstatus,a5
    242e:	e42007b7          	lui	a5,0xe4200
    2432:	03b00713          	li	a4,59
    2436:	c3d8                	c.sw	a4,4(a5)
    2438:	0ff0000f          	fence
    243c:	4632                	c.lwsp	a2,12(sp)
    243e:	46a2                	c.lwsp	a3,8(sp)
    2440:	4712                	c.lwsp	a4,4(sp)
    2442:	4782                	c.lwsp	a5,0(sp)
    2444:	01010113          	addi	sp,sp,16
    2448:	30200073          	mret

0000244c <entry_irq58>:
    244c:	1141                	c.addi	sp,-16
    244e:	c632                	c.swsp	a2,12(sp)
    2450:	c436                	c.swsp	a3,8(sp)
    2452:	c23a                	c.swsp	a4,4(sp)
    2454:	c03e                	c.swsp	a5,0(sp)
    2456:	34102773          	csrr	a4,mepc
    245a:	300026f3          	csrr	a3,mstatus
    245e:	7c4027f3          	csrr	a5,mxstatus
    2462:	30046673          	csrrsi	a2,mstatus,8
    2466:	30047673          	csrrci	a2,mstatus,8
    246a:	30069073          	csrw	mstatus,a3
    246e:	34171073          	csrw	mepc,a4
    2472:	7c479073          	csrw	mxstatus,a5
    2476:	e42007b7          	lui	a5,0xe4200
    247a:	03a00713          	li	a4,58
    247e:	c3d8                	c.sw	a4,4(a5)
    2480:	0ff0000f          	fence
    2484:	4632                	c.lwsp	a2,12(sp)
    2486:	46a2                	c.lwsp	a3,8(sp)
    2488:	4712                	c.lwsp	a4,4(sp)
    248a:	4782                	c.lwsp	a5,0(sp)
    248c:	01010113          	addi	sp,sp,16
    2490:	30200073          	mret

00002494 <entry_irq57>:
    2494:	1141                	c.addi	sp,-16
    2496:	c632                	c.swsp	a2,12(sp)
    2498:	c436                	c.swsp	a3,8(sp)
    249a:	c23a                	c.swsp	a4,4(sp)
    249c:	c03e                	c.swsp	a5,0(sp)
    249e:	34102773          	csrr	a4,mepc
    24a2:	300026f3          	csrr	a3,mstatus
    24a6:	7c4027f3          	csrr	a5,mxstatus
    24aa:	30046673          	csrrsi	a2,mstatus,8
    24ae:	30047673          	csrrci	a2,mstatus,8
    24b2:	30069073          	csrw	mstatus,a3
    24b6:	34171073          	csrw	mepc,a4
    24ba:	7c479073          	csrw	mxstatus,a5
    24be:	e42007b7          	lui	a5,0xe4200
    24c2:	03900713          	li	a4,57
    24c6:	c3d8                	c.sw	a4,4(a5)
    24c8:	0ff0000f          	fence
    24cc:	4632                	c.lwsp	a2,12(sp)
    24ce:	46a2                	c.lwsp	a3,8(sp)
    24d0:	4712                	c.lwsp	a4,4(sp)
    24d2:	4782                	c.lwsp	a5,0(sp)
    24d4:	01010113          	addi	sp,sp,16
    24d8:	30200073          	mret

000024dc <entry_irq56>:
    24dc:	1141                	c.addi	sp,-16
    24de:	c632                	c.swsp	a2,12(sp)
    24e0:	c436                	c.swsp	a3,8(sp)
    24e2:	c23a                	c.swsp	a4,4(sp)
    24e4:	c03e                	c.swsp	a5,0(sp)
    24e6:	34102773          	csrr	a4,mepc
    24ea:	300026f3          	csrr	a3,mstatus
    24ee:	7c4027f3          	csrr	a5,mxstatus
    24f2:	30046673          	csrrsi	a2,mstatus,8
    24f6:	30047673          	csrrci	a2,mstatus,8
    24fa:	30069073          	csrw	mstatus,a3
    24fe:	34171073          	csrw	mepc,a4
    2502:	7c479073          	csrw	mxstatus,a5
    2506:	e42007b7          	lui	a5,0xe4200
    250a:	03800713          	li	a4,56
    250e:	c3d8                	c.sw	a4,4(a5)
    2510:	0ff0000f          	fence
    2514:	4632                	c.lwsp	a2,12(sp)
    2516:	46a2                	c.lwsp	a3,8(sp)
    2518:	4712                	c.lwsp	a4,4(sp)
    251a:	4782                	c.lwsp	a5,0(sp)
    251c:	01010113          	addi	sp,sp,16
    2520:	30200073          	mret

00002524 <entry_irq55>:
    2524:	1141                	c.addi	sp,-16
    2526:	c632                	c.swsp	a2,12(sp)
    2528:	c436                	c.swsp	a3,8(sp)
    252a:	c23a                	c.swsp	a4,4(sp)
    252c:	c03e                	c.swsp	a5,0(sp)
    252e:	34102773          	csrr	a4,mepc
    2532:	300026f3          	csrr	a3,mstatus
    2536:	7c4027f3          	csrr	a5,mxstatus
    253a:	30046673          	csrrsi	a2,mstatus,8
    253e:	30047673          	csrrci	a2,mstatus,8
    2542:	30069073          	csrw	mstatus,a3
    2546:	34171073          	csrw	mepc,a4
    254a:	7c479073          	csrw	mxstatus,a5
    254e:	e42007b7          	lui	a5,0xe4200
    2552:	03700713          	li	a4,55
    2556:	c3d8                	c.sw	a4,4(a5)
    2558:	0ff0000f          	fence
    255c:	4632                	c.lwsp	a2,12(sp)
    255e:	46a2                	c.lwsp	a3,8(sp)
    2560:	4712                	c.lwsp	a4,4(sp)
    2562:	4782                	c.lwsp	a5,0(sp)
    2564:	01010113          	addi	sp,sp,16
    2568:	30200073          	mret

0000256c <entry_irq54>:
    256c:	1141                	c.addi	sp,-16
    256e:	c632                	c.swsp	a2,12(sp)
    2570:	c436                	c.swsp	a3,8(sp)
    2572:	c23a                	c.swsp	a4,4(sp)
    2574:	c03e                	c.swsp	a5,0(sp)
    2576:	34102773          	csrr	a4,mepc
    257a:	300026f3          	csrr	a3,mstatus
    257e:	7c4027f3          	csrr	a5,mxstatus
    2582:	30046673          	csrrsi	a2,mstatus,8
    2586:	30047673          	csrrci	a2,mstatus,8
    258a:	30069073          	csrw	mstatus,a3
    258e:	34171073          	csrw	mepc,a4
    2592:	7c479073          	csrw	mxstatus,a5
    2596:	e42007b7          	lui	a5,0xe4200
    259a:	03600713          	li	a4,54
    259e:	c3d8                	c.sw	a4,4(a5)
    25a0:	0ff0000f          	fence
    25a4:	4632                	c.lwsp	a2,12(sp)
    25a6:	46a2                	c.lwsp	a3,8(sp)
    25a8:	4712                	c.lwsp	a4,4(sp)
    25aa:	4782                	c.lwsp	a5,0(sp)
    25ac:	01010113          	addi	sp,sp,16
    25b0:	30200073          	mret

000025b4 <entry_irq53>:
    25b4:	1141                	c.addi	sp,-16
    25b6:	c632                	c.swsp	a2,12(sp)
    25b8:	c436                	c.swsp	a3,8(sp)
    25ba:	c23a                	c.swsp	a4,4(sp)
    25bc:	c03e                	c.swsp	a5,0(sp)
    25be:	34102773          	csrr	a4,mepc
    25c2:	300026f3          	csrr	a3,mstatus
    25c6:	7c4027f3          	csrr	a5,mxstatus
    25ca:	30046673          	csrrsi	a2,mstatus,8
    25ce:	30047673          	csrrci	a2,mstatus,8
    25d2:	30069073          	csrw	mstatus,a3
    25d6:	34171073          	csrw	mepc,a4
    25da:	7c479073          	csrw	mxstatus,a5
    25de:	e42007b7          	lui	a5,0xe4200
    25e2:	03500713          	li	a4,53
    25e6:	c3d8                	c.sw	a4,4(a5)
    25e8:	0ff0000f          	fence
    25ec:	4632                	c.lwsp	a2,12(sp)
    25ee:	46a2                	c.lwsp	a3,8(sp)
    25f0:	4712                	c.lwsp	a4,4(sp)
    25f2:	4782                	c.lwsp	a5,0(sp)
    25f4:	01010113          	addi	sp,sp,16
    25f8:	30200073          	mret

000025fc <entry_irq52>:
    25fc:	1141                	c.addi	sp,-16
    25fe:	c632                	c.swsp	a2,12(sp)
    2600:	c436                	c.swsp	a3,8(sp)
    2602:	c23a                	c.swsp	a4,4(sp)
    2604:	c03e                	c.swsp	a5,0(sp)
    2606:	34102773          	csrr	a4,mepc
    260a:	300026f3          	csrr	a3,mstatus
    260e:	7c4027f3          	csrr	a5,mxstatus
    2612:	30046673          	csrrsi	a2,mstatus,8
    2616:	30047673          	csrrci	a2,mstatus,8
    261a:	30069073          	csrw	mstatus,a3
    261e:	34171073          	csrw	mepc,a4
    2622:	7c479073          	csrw	mxstatus,a5
    2626:	e42007b7          	lui	a5,0xe4200
    262a:	03400713          	li	a4,52
    262e:	c3d8                	c.sw	a4,4(a5)
    2630:	0ff0000f          	fence
    2634:	4632                	c.lwsp	a2,12(sp)
    2636:	46a2                	c.lwsp	a3,8(sp)
    2638:	4712                	c.lwsp	a4,4(sp)
    263a:	4782                	c.lwsp	a5,0(sp)
    263c:	01010113          	addi	sp,sp,16
    2640:	30200073          	mret

00002644 <entry_irq51>:
    2644:	1141                	c.addi	sp,-16
    2646:	c632                	c.swsp	a2,12(sp)
    2648:	c436                	c.swsp	a3,8(sp)
    264a:	c23a                	c.swsp	a4,4(sp)
    264c:	c03e                	c.swsp	a5,0(sp)
    264e:	34102773          	csrr	a4,mepc
    2652:	300026f3          	csrr	a3,mstatus
    2656:	7c4027f3          	csrr	a5,mxstatus
    265a:	30046673          	csrrsi	a2,mstatus,8
    265e:	30047673          	csrrci	a2,mstatus,8
    2662:	30069073          	csrw	mstatus,a3
    2666:	34171073          	csrw	mepc,a4
    266a:	7c479073          	csrw	mxstatus,a5
    266e:	e42007b7          	lui	a5,0xe4200
    2672:	03300713          	li	a4,51
    2676:	c3d8                	c.sw	a4,4(a5)
    2678:	0ff0000f          	fence
    267c:	4632                	c.lwsp	a2,12(sp)
    267e:	46a2                	c.lwsp	a3,8(sp)
    2680:	4712                	c.lwsp	a4,4(sp)
    2682:	4782                	c.lwsp	a5,0(sp)
    2684:	01010113          	addi	sp,sp,16
    2688:	30200073          	mret

0000268c <entry_irq50>:
    268c:	1141                	c.addi	sp,-16
    268e:	c632                	c.swsp	a2,12(sp)
    2690:	c436                	c.swsp	a3,8(sp)
    2692:	c23a                	c.swsp	a4,4(sp)
    2694:	c03e                	c.swsp	a5,0(sp)
    2696:	34102773          	csrr	a4,mepc
    269a:	300026f3          	csrr	a3,mstatus
    269e:	7c4027f3          	csrr	a5,mxstatus
    26a2:	30046673          	csrrsi	a2,mstatus,8
    26a6:	30047673          	csrrci	a2,mstatus,8
    26aa:	30069073          	csrw	mstatus,a3
    26ae:	34171073          	csrw	mepc,a4
    26b2:	7c479073          	csrw	mxstatus,a5
    26b6:	e42007b7          	lui	a5,0xe4200
    26ba:	03200713          	li	a4,50
    26be:	c3d8                	c.sw	a4,4(a5)
    26c0:	0ff0000f          	fence
    26c4:	4632                	c.lwsp	a2,12(sp)
    26c6:	46a2                	c.lwsp	a3,8(sp)
    26c8:	4712                	c.lwsp	a4,4(sp)
    26ca:	4782                	c.lwsp	a5,0(sp)
    26cc:	01010113          	addi	sp,sp,16
    26d0:	30200073          	mret

000026d4 <entry_irq49>:
    26d4:	30200073          	mret

000026d8 <entry_irq48>:
    26d8:	30200073          	mret

000026dc <entry_irq47>:
    26dc:	30200073          	mret

000026e0 <entry_irq46>:
    26e0:	1141                	c.addi	sp,-16
    26e2:	c632                	c.swsp	a2,12(sp)
    26e4:	c436                	c.swsp	a3,8(sp)
    26e6:	c23a                	c.swsp	a4,4(sp)
    26e8:	c03e                	c.swsp	a5,0(sp)
    26ea:	34102773          	csrr	a4,mepc
    26ee:	300026f3          	csrr	a3,mstatus
    26f2:	7c4027f3          	csrr	a5,mxstatus
    26f6:	30046673          	csrrsi	a2,mstatus,8
    26fa:	30047673          	csrrci	a2,mstatus,8
    26fe:	30069073          	csrw	mstatus,a3
    2702:	34171073          	csrw	mepc,a4
    2706:	7c479073          	csrw	mxstatus,a5
    270a:	e42007b7          	lui	a5,0xe4200
    270e:	02e00713          	li	a4,46
    2712:	c3d8                	c.sw	a4,4(a5)
    2714:	0ff0000f          	fence
    2718:	4632                	c.lwsp	a2,12(sp)
    271a:	46a2                	c.lwsp	a3,8(sp)
    271c:	4712                	c.lwsp	a4,4(sp)
    271e:	4782                	c.lwsp	a5,0(sp)
    2720:	01010113          	addi	sp,sp,16
    2724:	30200073          	mret

00002728 <entry_irq45>:
    2728:	30200073          	mret

0000272c <entry_irq44>:
    272c:	1141                	c.addi	sp,-16
    272e:	c632                	c.swsp	a2,12(sp)
    2730:	c436                	c.swsp	a3,8(sp)
    2732:	c23a                	c.swsp	a4,4(sp)
    2734:	c03e                	c.swsp	a5,0(sp)
    2736:	34102773          	csrr	a4,mepc
    273a:	300026f3          	csrr	a3,mstatus
    273e:	7c4027f3          	csrr	a5,mxstatus
    2742:	30046673          	csrrsi	a2,mstatus,8
    2746:	30047673          	csrrci	a2,mstatus,8
    274a:	30069073          	csrw	mstatus,a3
    274e:	34171073          	csrw	mepc,a4
    2752:	7c479073          	csrw	mxstatus,a5
    2756:	e42007b7          	lui	a5,0xe4200
    275a:	02c00713          	li	a4,44
    275e:	c3d8                	c.sw	a4,4(a5)
    2760:	0ff0000f          	fence
    2764:	4632                	c.lwsp	a2,12(sp)
    2766:	46a2                	c.lwsp	a3,8(sp)
    2768:	4712                	c.lwsp	a4,4(sp)
    276a:	4782                	c.lwsp	a5,0(sp)
    276c:	01010113          	addi	sp,sp,16
    2770:	30200073          	mret

00002774 <entry_irq43>:
    2774:	1141                	c.addi	sp,-16
    2776:	c632                	c.swsp	a2,12(sp)
    2778:	c436                	c.swsp	a3,8(sp)
    277a:	c23a                	c.swsp	a4,4(sp)
    277c:	c03e                	c.swsp	a5,0(sp)
    277e:	34102773          	csrr	a4,mepc
    2782:	300026f3          	csrr	a3,mstatus
    2786:	7c4027f3          	csrr	a5,mxstatus
    278a:	30046673          	csrrsi	a2,mstatus,8
    278e:	30047673          	csrrci	a2,mstatus,8
    2792:	30069073          	csrw	mstatus,a3
    2796:	34171073          	csrw	mepc,a4
    279a:	7c479073          	csrw	mxstatus,a5
    279e:	e42007b7          	lui	a5,0xe4200
    27a2:	02b00713          	li	a4,43
    27a6:	c3d8                	c.sw	a4,4(a5)
    27a8:	0ff0000f          	fence
    27ac:	4632                	c.lwsp	a2,12(sp)
    27ae:	46a2                	c.lwsp	a3,8(sp)
    27b0:	4712                	c.lwsp	a4,4(sp)
    27b2:	4782                	c.lwsp	a5,0(sp)
    27b4:	01010113          	addi	sp,sp,16
    27b8:	30200073          	mret

000027bc <entry_irq42>:
    27bc:	1141                	c.addi	sp,-16
    27be:	c632                	c.swsp	a2,12(sp)
    27c0:	c436                	c.swsp	a3,8(sp)
    27c2:	c23a                	c.swsp	a4,4(sp)
    27c4:	c03e                	c.swsp	a5,0(sp)
    27c6:	34102773          	csrr	a4,mepc
    27ca:	300026f3          	csrr	a3,mstatus
    27ce:	7c4027f3          	csrr	a5,mxstatus
    27d2:	30046673          	csrrsi	a2,mstatus,8
    27d6:	30047673          	csrrci	a2,mstatus,8
    27da:	30069073          	csrw	mstatus,a3
    27de:	34171073          	csrw	mepc,a4
    27e2:	7c479073          	csrw	mxstatus,a5
    27e6:	e42007b7          	lui	a5,0xe4200
    27ea:	02a00713          	li	a4,42
    27ee:	c3d8                	c.sw	a4,4(a5)
    27f0:	0ff0000f          	fence
    27f4:	4632                	c.lwsp	a2,12(sp)
    27f6:	46a2                	c.lwsp	a3,8(sp)
    27f8:	4712                	c.lwsp	a4,4(sp)
    27fa:	4782                	c.lwsp	a5,0(sp)
    27fc:	01010113          	addi	sp,sp,16
    2800:	30200073          	mret

00002804 <entry_irq41>:
    2804:	30200073          	mret

00002808 <entry_irq40>:
    2808:	30200073          	mret

0000280c <entry_irq39>:
    280c:	30200073          	mret

00002810 <entry_irq38>:
    2810:	30200073          	mret

00002814 <entry_irq37>:
    2814:	1141                	c.addi	sp,-16
    2816:	c632                	c.swsp	a2,12(sp)
    2818:	c436                	c.swsp	a3,8(sp)
    281a:	c23a                	c.swsp	a4,4(sp)
    281c:	c03e                	c.swsp	a5,0(sp)
    281e:	34102773          	csrr	a4,mepc
    2822:	300026f3          	csrr	a3,mstatus
    2826:	7c4027f3          	csrr	a5,mxstatus
    282a:	30046673          	csrrsi	a2,mstatus,8
    282e:	30047673          	csrrci	a2,mstatus,8
    2832:	30069073          	csrw	mstatus,a3
    2836:	34171073          	csrw	mepc,a4
    283a:	7c479073          	csrw	mxstatus,a5
    283e:	e42007b7          	lui	a5,0xe4200
    2842:	02500713          	li	a4,37
    2846:	c3d8                	c.sw	a4,4(a5)
    2848:	0ff0000f          	fence
    284c:	4632                	c.lwsp	a2,12(sp)
    284e:	46a2                	c.lwsp	a3,8(sp)
    2850:	4712                	c.lwsp	a4,4(sp)
    2852:	4782                	c.lwsp	a5,0(sp)
    2854:	01010113          	addi	sp,sp,16
    2858:	30200073          	mret

0000285c <entry_irq36>:
    285c:	1141                	c.addi	sp,-16
    285e:	c632                	c.swsp	a2,12(sp)
    2860:	c436                	c.swsp	a3,8(sp)
    2862:	c23a                	c.swsp	a4,4(sp)
    2864:	c03e                	c.swsp	a5,0(sp)
    2866:	34102773          	csrr	a4,mepc
    286a:	300026f3          	csrr	a3,mstatus
    286e:	7c4027f3          	csrr	a5,mxstatus
    2872:	30046673          	csrrsi	a2,mstatus,8
    2876:	30047673          	csrrci	a2,mstatus,8
    287a:	30069073          	csrw	mstatus,a3
    287e:	34171073          	csrw	mepc,a4
    2882:	7c479073          	csrw	mxstatus,a5
    2886:	e42007b7          	lui	a5,0xe4200
    288a:	02400713          	li	a4,36
    288e:	c3d8                	c.sw	a4,4(a5)
    2890:	0ff0000f          	fence
    2894:	4632                	c.lwsp	a2,12(sp)
    2896:	46a2                	c.lwsp	a3,8(sp)
    2898:	4712                	c.lwsp	a4,4(sp)
    289a:	4782                	c.lwsp	a5,0(sp)
    289c:	01010113          	addi	sp,sp,16
    28a0:	30200073          	mret

000028a4 <entry_irq35>:
    28a4:	1141                	c.addi	sp,-16
    28a6:	c632                	c.swsp	a2,12(sp)
    28a8:	c436                	c.swsp	a3,8(sp)
    28aa:	c23a                	c.swsp	a4,4(sp)
    28ac:	c03e                	c.swsp	a5,0(sp)
    28ae:	34102773          	csrr	a4,mepc
    28b2:	300026f3          	csrr	a3,mstatus
    28b6:	7c4027f3          	csrr	a5,mxstatus
    28ba:	30046673          	csrrsi	a2,mstatus,8
    28be:	30047673          	csrrci	a2,mstatus,8
    28c2:	30069073          	csrw	mstatus,a3
    28c6:	34171073          	csrw	mepc,a4
    28ca:	7c479073          	csrw	mxstatus,a5
    28ce:	e42007b7          	lui	a5,0xe4200
    28d2:	02300713          	li	a4,35
    28d6:	c3d8                	c.sw	a4,4(a5)
    28d8:	0ff0000f          	fence
    28dc:	4632                	c.lwsp	a2,12(sp)
    28de:	46a2                	c.lwsp	a3,8(sp)
    28e0:	4712                	c.lwsp	a4,4(sp)
    28e2:	4782                	c.lwsp	a5,0(sp)
    28e4:	01010113          	addi	sp,sp,16
    28e8:	30200073          	mret

000028ec <entry_irq34>:
    28ec:	1141                	c.addi	sp,-16
    28ee:	c632                	c.swsp	a2,12(sp)
    28f0:	c436                	c.swsp	a3,8(sp)
    28f2:	c23a                	c.swsp	a4,4(sp)
    28f4:	c03e                	c.swsp	a5,0(sp)
    28f6:	34102773          	csrr	a4,mepc
    28fa:	300026f3          	csrr	a3,mstatus
    28fe:	7c4027f3          	csrr	a5,mxstatus
    2902:	30046673          	csrrsi	a2,mstatus,8
    2906:	30047673          	csrrci	a2,mstatus,8
    290a:	30069073          	csrw	mstatus,a3
    290e:	34171073          	csrw	mepc,a4
    2912:	7c479073          	csrw	mxstatus,a5
    2916:	e42007b7          	lui	a5,0xe4200
    291a:	02200713          	li	a4,34
    291e:	c3d8                	c.sw	a4,4(a5)
    2920:	0ff0000f          	fence
    2924:	4632                	c.lwsp	a2,12(sp)
    2926:	46a2                	c.lwsp	a3,8(sp)
    2928:	4712                	c.lwsp	a4,4(sp)
    292a:	4782                	c.lwsp	a5,0(sp)
    292c:	01010113          	addi	sp,sp,16
    2930:	30200073          	mret

00002934 <entry_irq33>:
    2934:	1141                	c.addi	sp,-16
    2936:	c632                	c.swsp	a2,12(sp)
    2938:	c436                	c.swsp	a3,8(sp)
    293a:	c23a                	c.swsp	a4,4(sp)
    293c:	c03e                	c.swsp	a5,0(sp)
    293e:	34102773          	csrr	a4,mepc
    2942:	300026f3          	csrr	a3,mstatus
    2946:	7c4027f3          	csrr	a5,mxstatus
    294a:	30046673          	csrrsi	a2,mstatus,8
    294e:	30047673          	csrrci	a2,mstatus,8
    2952:	30069073          	csrw	mstatus,a3
    2956:	34171073          	csrw	mepc,a4
    295a:	7c479073          	csrw	mxstatus,a5
    295e:	e42007b7          	lui	a5,0xe4200
    2962:	02100713          	li	a4,33
    2966:	c3d8                	c.sw	a4,4(a5)
    2968:	0ff0000f          	fence
    296c:	4632                	c.lwsp	a2,12(sp)
    296e:	46a2                	c.lwsp	a3,8(sp)
    2970:	4712                	c.lwsp	a4,4(sp)
    2972:	4782                	c.lwsp	a5,0(sp)
    2974:	01010113          	addi	sp,sp,16
    2978:	30200073          	mret

0000297c <entry_irq32>:
    297c:	1141                	c.addi	sp,-16
    297e:	c632                	c.swsp	a2,12(sp)
    2980:	c436                	c.swsp	a3,8(sp)
    2982:	c23a                	c.swsp	a4,4(sp)
    2984:	c03e                	c.swsp	a5,0(sp)
    2986:	34102773          	csrr	a4,mepc
    298a:	300026f3          	csrr	a3,mstatus
    298e:	7c4027f3          	csrr	a5,mxstatus
    2992:	30046673          	csrrsi	a2,mstatus,8
    2996:	30047673          	csrrci	a2,mstatus,8
    299a:	30069073          	csrw	mstatus,a3
    299e:	34171073          	csrw	mepc,a4
    29a2:	7c479073          	csrw	mxstatus,a5
    29a6:	e42007b7          	lui	a5,0xe4200
    29aa:	02000713          	li	a4,32
    29ae:	c3d8                	c.sw	a4,4(a5)
    29b0:	0ff0000f          	fence
    29b4:	4632                	c.lwsp	a2,12(sp)
    29b6:	46a2                	c.lwsp	a3,8(sp)
    29b8:	4712                	c.lwsp	a4,4(sp)
    29ba:	4782                	c.lwsp	a5,0(sp)
    29bc:	01010113          	addi	sp,sp,16
    29c0:	30200073          	mret

000029c4 <entry_irq31>:
    29c4:	1141                	c.addi	sp,-16
    29c6:	c632                	c.swsp	a2,12(sp)
    29c8:	c436                	c.swsp	a3,8(sp)
    29ca:	c23a                	c.swsp	a4,4(sp)
    29cc:	c03e                	c.swsp	a5,0(sp)
    29ce:	34102773          	csrr	a4,mepc
    29d2:	300026f3          	csrr	a3,mstatus
    29d6:	7c4027f3          	csrr	a5,mxstatus
    29da:	30046673          	csrrsi	a2,mstatus,8
    29de:	30047673          	csrrci	a2,mstatus,8
    29e2:	30069073          	csrw	mstatus,a3
    29e6:	34171073          	csrw	mepc,a4
    29ea:	7c479073          	csrw	mxstatus,a5
    29ee:	e42007b7          	lui	a5,0xe4200
    29f2:	477d                	c.li	a4,31
    29f4:	c3d8                	c.sw	a4,4(a5)
    29f6:	0ff0000f          	fence
    29fa:	4632                	c.lwsp	a2,12(sp)
    29fc:	46a2                	c.lwsp	a3,8(sp)
    29fe:	4712                	c.lwsp	a4,4(sp)
    2a00:	4782                	c.lwsp	a5,0(sp)
    2a02:	0141                	c.addi	sp,16
    2a04:	30200073          	mret

00002a08 <entry_irq30>:
    2a08:	1141                	c.addi	sp,-16
    2a0a:	c632                	c.swsp	a2,12(sp)
    2a0c:	c436                	c.swsp	a3,8(sp)
    2a0e:	c23a                	c.swsp	a4,4(sp)
    2a10:	c03e                	c.swsp	a5,0(sp)
    2a12:	34102773          	csrr	a4,mepc
    2a16:	300026f3          	csrr	a3,mstatus
    2a1a:	7c4027f3          	csrr	a5,mxstatus
    2a1e:	30046673          	csrrsi	a2,mstatus,8
    2a22:	30047673          	csrrci	a2,mstatus,8
    2a26:	30069073          	csrw	mstatus,a3
    2a2a:	34171073          	csrw	mepc,a4
    2a2e:	7c479073          	csrw	mxstatus,a5
    2a32:	e42007b7          	lui	a5,0xe4200
    2a36:	4779                	c.li	a4,30
    2a38:	c3d8                	c.sw	a4,4(a5)
    2a3a:	0ff0000f          	fence
    2a3e:	4632                	c.lwsp	a2,12(sp)
    2a40:	46a2                	c.lwsp	a3,8(sp)
    2a42:	4712                	c.lwsp	a4,4(sp)
    2a44:	4782                	c.lwsp	a5,0(sp)
    2a46:	0141                	c.addi	sp,16
    2a48:	30200073          	mret

00002a4c <entry_irq29>:
    2a4c:	1141                	c.addi	sp,-16
    2a4e:	c632                	c.swsp	a2,12(sp)
    2a50:	c436                	c.swsp	a3,8(sp)
    2a52:	c23a                	c.swsp	a4,4(sp)
    2a54:	c03e                	c.swsp	a5,0(sp)
    2a56:	34102773          	csrr	a4,mepc
    2a5a:	300026f3          	csrr	a3,mstatus
    2a5e:	7c4027f3          	csrr	a5,mxstatus
    2a62:	30046673          	csrrsi	a2,mstatus,8
    2a66:	30047673          	csrrci	a2,mstatus,8
    2a6a:	30069073          	csrw	mstatus,a3
    2a6e:	34171073          	csrw	mepc,a4
    2a72:	7c479073          	csrw	mxstatus,a5
    2a76:	e42007b7          	lui	a5,0xe4200
    2a7a:	4775                	c.li	a4,29
    2a7c:	c3d8                	c.sw	a4,4(a5)
    2a7e:	0ff0000f          	fence
    2a82:	4632                	c.lwsp	a2,12(sp)
    2a84:	46a2                	c.lwsp	a3,8(sp)
    2a86:	4712                	c.lwsp	a4,4(sp)
    2a88:	4782                	c.lwsp	a5,0(sp)
    2a8a:	0141                	c.addi	sp,16
    2a8c:	30200073          	mret

00002a90 <entry_irq28>:
    2a90:	1141                	c.addi	sp,-16
    2a92:	c632                	c.swsp	a2,12(sp)
    2a94:	c436                	c.swsp	a3,8(sp)
    2a96:	c23a                	c.swsp	a4,4(sp)
    2a98:	c03e                	c.swsp	a5,0(sp)
    2a9a:	34102773          	csrr	a4,mepc
    2a9e:	300026f3          	csrr	a3,mstatus
    2aa2:	7c4027f3          	csrr	a5,mxstatus
    2aa6:	30046673          	csrrsi	a2,mstatus,8
    2aaa:	30047673          	csrrci	a2,mstatus,8
    2aae:	30069073          	csrw	mstatus,a3
    2ab2:	34171073          	csrw	mepc,a4
    2ab6:	7c479073          	csrw	mxstatus,a5
    2aba:	e42007b7          	lui	a5,0xe4200
    2abe:	4771                	c.li	a4,28
    2ac0:	c3d8                	c.sw	a4,4(a5)
    2ac2:	0ff0000f          	fence
    2ac6:	4632                	c.lwsp	a2,12(sp)
    2ac8:	46a2                	c.lwsp	a3,8(sp)
    2aca:	4712                	c.lwsp	a4,4(sp)
    2acc:	4782                	c.lwsp	a5,0(sp)
    2ace:	0141                	c.addi	sp,16
    2ad0:	30200073          	mret

00002ad4 <entry_irq27>:
    2ad4:	1141                	c.addi	sp,-16
    2ad6:	c632                	c.swsp	a2,12(sp)
    2ad8:	c436                	c.swsp	a3,8(sp)
    2ada:	c23a                	c.swsp	a4,4(sp)
    2adc:	c03e                	c.swsp	a5,0(sp)
    2ade:	34102773          	csrr	a4,mepc
    2ae2:	300026f3          	csrr	a3,mstatus
    2ae6:	7c4027f3          	csrr	a5,mxstatus
    2aea:	30046673          	csrrsi	a2,mstatus,8
    2aee:	30047673          	csrrci	a2,mstatus,8
    2af2:	30069073          	csrw	mstatus,a3
    2af6:	34171073          	csrw	mepc,a4
    2afa:	7c479073          	csrw	mxstatus,a5
    2afe:	e42007b7          	lui	a5,0xe4200
    2b02:	476d                	c.li	a4,27
    2b04:	c3d8                	c.sw	a4,4(a5)
    2b06:	0ff0000f          	fence
    2b0a:	4632                	c.lwsp	a2,12(sp)
    2b0c:	46a2                	c.lwsp	a3,8(sp)
    2b0e:	4712                	c.lwsp	a4,4(sp)
    2b10:	4782                	c.lwsp	a5,0(sp)
    2b12:	0141                	c.addi	sp,16
    2b14:	30200073          	mret

00002b18 <entry_irq26>:
    2b18:	1141                	c.addi	sp,-16
    2b1a:	c632                	c.swsp	a2,12(sp)
    2b1c:	c436                	c.swsp	a3,8(sp)
    2b1e:	c23a                	c.swsp	a4,4(sp)
    2b20:	c03e                	c.swsp	a5,0(sp)
    2b22:	34102773          	csrr	a4,mepc
    2b26:	300026f3          	csrr	a3,mstatus
    2b2a:	7c4027f3          	csrr	a5,mxstatus
    2b2e:	30046673          	csrrsi	a2,mstatus,8
    2b32:	30047673          	csrrci	a2,mstatus,8
    2b36:	30069073          	csrw	mstatus,a3
    2b3a:	34171073          	csrw	mepc,a4
    2b3e:	7c479073          	csrw	mxstatus,a5
    2b42:	e42007b7          	lui	a5,0xe4200
    2b46:	4769                	c.li	a4,26
    2b48:	c3d8                	c.sw	a4,4(a5)
    2b4a:	0ff0000f          	fence
    2b4e:	4632                	c.lwsp	a2,12(sp)
    2b50:	46a2                	c.lwsp	a3,8(sp)
    2b52:	4712                	c.lwsp	a4,4(sp)
    2b54:	4782                	c.lwsp	a5,0(sp)
    2b56:	0141                	c.addi	sp,16
    2b58:	30200073          	mret

00002b5c <entry_irq25>:
    2b5c:	7135                	c.addi16sp	sp,-160
    2b5e:	cf06                	c.swsp	ra,156(sp)
    2b60:	cd16                	c.swsp	t0,152(sp)
    2b62:	cb1a                	c.swsp	t1,148(sp)
    2b64:	c91e                	c.swsp	t2,144(sp)
    2b66:	c722                	c.swsp	s0,140(sp)
    2b68:	c526                	c.swsp	s1,136(sp)
    2b6a:	c32a                	c.swsp	a0,132(sp)
    2b6c:	c12e                	c.swsp	a1,128(sp)
    2b6e:	deb2                	c.swsp	a2,124(sp)
    2b70:	dcb6                	c.swsp	a3,120(sp)
    2b72:	daba                	c.swsp	a4,116(sp)
    2b74:	d8be                	c.swsp	a5,112(sp)
    2b76:	d6c2                	c.swsp	a6,108(sp)
    2b78:	d4c6                	c.swsp	a7,104(sp)
    2b7a:	d2ca                	c.swsp	s2,100(sp)
    2b7c:	d0f2                	c.swsp	t3,96(sp)
    2b7e:	cef6                	c.swsp	t4,92(sp)
    2b80:	ccfa                	c.swsp	t5,88(sp)
    2b82:	cafe                	c.swsp	t6,84(sp)
    2b84:	e682                	c.fswsp	ft0,76(sp)
    2b86:	e486                	c.fswsp	ft1,72(sp)
    2b88:	e28a                	c.fswsp	ft2,68(sp)
    2b8a:	e08e                	c.fswsp	ft3,64(sp)
    2b8c:	fe12                	c.fswsp	ft4,60(sp)
    2b8e:	fc16                	c.fswsp	ft5,56(sp)
    2b90:	fa1a                	c.fswsp	ft6,52(sp)
    2b92:	f81e                	c.fswsp	ft7,48(sp)
    2b94:	f62a                	c.fswsp	fa0,44(sp)
    2b96:	f42e                	c.fswsp	fa1,40(sp)
    2b98:	f232                	c.fswsp	fa2,36(sp)
    2b9a:	f036                	c.fswsp	fa3,32(sp)
    2b9c:	ee3a                	c.fswsp	fa4,28(sp)
    2b9e:	ec3e                	c.fswsp	fa5,24(sp)
    2ba0:	ea42                	c.fswsp	fa6,20(sp)
    2ba2:	e846                	c.fswsp	fa7,16(sp)
    2ba4:	e672                	c.fswsp	ft8,12(sp)
    2ba6:	e476                	c.fswsp	ft9,8(sp)
    2ba8:	e27a                	c.fswsp	ft10,4(sp)
    2baa:	e07e                	c.fswsp	ft11,0(sp)
    2bac:	341024f3          	csrr	s1,mepc
    2bb0:	30002973          	csrr	s2,mstatus
    2bb4:	7c402473          	csrr	s0,mxstatus
    2bb8:	300467f3          	csrrsi	a5,mstatus,8
    2bbc:	d89fe0ef          	jal	ra,1944 <gpio_irq_handler>
    2bc0:	300477f3          	csrrci	a5,mstatus,8
    2bc4:	30091073          	csrw	mstatus,s2
    2bc8:	34149073          	csrw	mepc,s1
    2bcc:	7c441073          	csrw	mxstatus,s0
    2bd0:	e42007b7          	lui	a5,0xe4200
    2bd4:	4765                	c.li	a4,25
    2bd6:	c3d8                	c.sw	a4,4(a5)
    2bd8:	0ff0000f          	fence
    2bdc:	443a                	c.lwsp	s0,140(sp)
    2bde:	40fa                	c.lwsp	ra,156(sp)
    2be0:	42ea                	c.lwsp	t0,152(sp)
    2be2:	435a                	c.lwsp	t1,148(sp)
    2be4:	43ca                	c.lwsp	t2,144(sp)
    2be6:	44aa                	c.lwsp	s1,136(sp)
    2be8:	451a                	c.lwsp	a0,132(sp)
    2bea:	458a                	c.lwsp	a1,128(sp)
    2bec:	5676                	c.lwsp	a2,124(sp)
    2bee:	56e6                	c.lwsp	a3,120(sp)
    2bf0:	5756                	c.lwsp	a4,116(sp)
    2bf2:	57c6                	c.lwsp	a5,112(sp)
    2bf4:	5836                	c.lwsp	a6,108(sp)
    2bf6:	58a6                	c.lwsp	a7,104(sp)
    2bf8:	5916                	c.lwsp	s2,100(sp)
    2bfa:	5e06                	c.lwsp	t3,96(sp)
    2bfc:	4ef6                	c.lwsp	t4,92(sp)
    2bfe:	4f66                	c.lwsp	t5,88(sp)
    2c00:	4fd6                	c.lwsp	t6,84(sp)
    2c02:	6036                	c.flwsp	ft0,76(sp)
    2c04:	60a6                	c.flwsp	ft1,72(sp)
    2c06:	6116                	c.flwsp	ft2,68(sp)
    2c08:	6186                	c.flwsp	ft3,64(sp)
    2c0a:	7272                	c.flwsp	ft4,60(sp)
    2c0c:	72e2                	c.flwsp	ft5,56(sp)
    2c0e:	7352                	c.flwsp	ft6,52(sp)
    2c10:	73c2                	c.flwsp	ft7,48(sp)
    2c12:	7532                	c.flwsp	fa0,44(sp)
    2c14:	75a2                	c.flwsp	fa1,40(sp)
    2c16:	7612                	c.flwsp	fa2,36(sp)
    2c18:	7682                	c.flwsp	fa3,32(sp)
    2c1a:	6772                	c.flwsp	fa4,28(sp)
    2c1c:	67e2                	c.flwsp	fa5,24(sp)
    2c1e:	6852                	c.flwsp	fa6,20(sp)
    2c20:	68c2                	c.flwsp	fa7,16(sp)
    2c22:	6e32                	c.flwsp	ft8,12(sp)
    2c24:	6ea2                	c.flwsp	ft9,8(sp)
    2c26:	6f12                	c.flwsp	ft10,4(sp)
    2c28:	6f82                	c.flwsp	ft11,0(sp)
    2c2a:	610d                	c.addi16sp	sp,160
    2c2c:	30200073          	mret

00002c30 <entry_irq24>:
    2c30:	1141                	c.addi	sp,-16
    2c32:	c632                	c.swsp	a2,12(sp)
    2c34:	c436                	c.swsp	a3,8(sp)
    2c36:	c23a                	c.swsp	a4,4(sp)
    2c38:	c03e                	c.swsp	a5,0(sp)
    2c3a:	34102773          	csrr	a4,mepc
    2c3e:	300026f3          	csrr	a3,mstatus
    2c42:	7c4027f3          	csrr	a5,mxstatus
    2c46:	30046673          	csrrsi	a2,mstatus,8
    2c4a:	30047673          	csrrci	a2,mstatus,8
    2c4e:	30069073          	csrw	mstatus,a3
    2c52:	34171073          	csrw	mepc,a4
    2c56:	7c479073          	csrw	mxstatus,a5
    2c5a:	e42007b7          	lui	a5,0xe4200
    2c5e:	4761                	c.li	a4,24
    2c60:	c3d8                	c.sw	a4,4(a5)
    2c62:	0ff0000f          	fence
    2c66:	4632                	c.lwsp	a2,12(sp)
    2c68:	46a2                	c.lwsp	a3,8(sp)
    2c6a:	4712                	c.lwsp	a4,4(sp)
    2c6c:	4782                	c.lwsp	a5,0(sp)
    2c6e:	0141                	c.addi	sp,16
    2c70:	30200073          	mret

00002c74 <entry_irq23>:
    2c74:	1141                	c.addi	sp,-16
    2c76:	c632                	c.swsp	a2,12(sp)
    2c78:	c436                	c.swsp	a3,8(sp)
    2c7a:	c23a                	c.swsp	a4,4(sp)
    2c7c:	c03e                	c.swsp	a5,0(sp)
    2c7e:	34102773          	csrr	a4,mepc
    2c82:	300026f3          	csrr	a3,mstatus
    2c86:	7c4027f3          	csrr	a5,mxstatus
    2c8a:	30046673          	csrrsi	a2,mstatus,8
    2c8e:	30047673          	csrrci	a2,mstatus,8
    2c92:	30069073          	csrw	mstatus,a3
    2c96:	34171073          	csrw	mepc,a4
    2c9a:	7c479073          	csrw	mxstatus,a5
    2c9e:	e42007b7          	lui	a5,0xe4200
    2ca2:	475d                	c.li	a4,23
    2ca4:	c3d8                	c.sw	a4,4(a5)
    2ca6:	0ff0000f          	fence
    2caa:	4632                	c.lwsp	a2,12(sp)
    2cac:	46a2                	c.lwsp	a3,8(sp)
    2cae:	4712                	c.lwsp	a4,4(sp)
    2cb0:	4782                	c.lwsp	a5,0(sp)
    2cb2:	0141                	c.addi	sp,16
    2cb4:	30200073          	mret

00002cb8 <entry_irq22>:
    2cb8:	1141                	c.addi	sp,-16
    2cba:	c632                	c.swsp	a2,12(sp)
    2cbc:	c436                	c.swsp	a3,8(sp)
    2cbe:	c23a                	c.swsp	a4,4(sp)
    2cc0:	c03e                	c.swsp	a5,0(sp)
    2cc2:	34102773          	csrr	a4,mepc
    2cc6:	300026f3          	csrr	a3,mstatus
    2cca:	7c4027f3          	csrr	a5,mxstatus
    2cce:	30046673          	csrrsi	a2,mstatus,8
    2cd2:	30047673          	csrrci	a2,mstatus,8
    2cd6:	30069073          	csrw	mstatus,a3
    2cda:	34171073          	csrw	mepc,a4
    2cde:	7c479073          	csrw	mxstatus,a5
    2ce2:	e42007b7          	lui	a5,0xe4200
    2ce6:	4759                	c.li	a4,22
    2ce8:	c3d8                	c.sw	a4,4(a5)
    2cea:	0ff0000f          	fence
    2cee:	4632                	c.lwsp	a2,12(sp)
    2cf0:	46a2                	c.lwsp	a3,8(sp)
    2cf2:	4712                	c.lwsp	a4,4(sp)
    2cf4:	4782                	c.lwsp	a5,0(sp)
    2cf6:	0141                	c.addi	sp,16
    2cf8:	30200073          	mret

00002cfc <entry_irq21>:
    2cfc:	1141                	c.addi	sp,-16
    2cfe:	c632                	c.swsp	a2,12(sp)
    2d00:	c436                	c.swsp	a3,8(sp)
    2d02:	c23a                	c.swsp	a4,4(sp)
    2d04:	c03e                	c.swsp	a5,0(sp)
    2d06:	34102773          	csrr	a4,mepc
    2d0a:	300026f3          	csrr	a3,mstatus
    2d0e:	7c4027f3          	csrr	a5,mxstatus
    2d12:	30046673          	csrrsi	a2,mstatus,8
    2d16:	30047673          	csrrci	a2,mstatus,8
    2d1a:	30069073          	csrw	mstatus,a3
    2d1e:	34171073          	csrw	mepc,a4
    2d22:	7c479073          	csrw	mxstatus,a5
    2d26:	e42007b7          	lui	a5,0xe4200
    2d2a:	4755                	c.li	a4,21
    2d2c:	c3d8                	c.sw	a4,4(a5)
    2d2e:	0ff0000f          	fence
    2d32:	4632                	c.lwsp	a2,12(sp)
    2d34:	46a2                	c.lwsp	a3,8(sp)
    2d36:	4712                	c.lwsp	a4,4(sp)
    2d38:	4782                	c.lwsp	a5,0(sp)
    2d3a:	0141                	c.addi	sp,16
    2d3c:	30200073          	mret

00002d40 <entry_irq20>:
    2d40:	1141                	c.addi	sp,-16
    2d42:	c632                	c.swsp	a2,12(sp)
    2d44:	c436                	c.swsp	a3,8(sp)
    2d46:	c23a                	c.swsp	a4,4(sp)
    2d48:	c03e                	c.swsp	a5,0(sp)
    2d4a:	34102773          	csrr	a4,mepc
    2d4e:	300026f3          	csrr	a3,mstatus
    2d52:	7c4027f3          	csrr	a5,mxstatus
    2d56:	30046673          	csrrsi	a2,mstatus,8
    2d5a:	30047673          	csrrci	a2,mstatus,8
    2d5e:	30069073          	csrw	mstatus,a3
    2d62:	34171073          	csrw	mepc,a4
    2d66:	7c479073          	csrw	mxstatus,a5
    2d6a:	e42007b7          	lui	a5,0xe4200
    2d6e:	4751                	c.li	a4,20
    2d70:	c3d8                	c.sw	a4,4(a5)
    2d72:	0ff0000f          	fence
    2d76:	4632                	c.lwsp	a2,12(sp)
    2d78:	46a2                	c.lwsp	a3,8(sp)
    2d7a:	4712                	c.lwsp	a4,4(sp)
    2d7c:	4782                	c.lwsp	a5,0(sp)
    2d7e:	0141                	c.addi	sp,16
    2d80:	30200073          	mret

00002d84 <entry_irq19>:
    2d84:	1141                	c.addi	sp,-16
    2d86:	c632                	c.swsp	a2,12(sp)
    2d88:	c436                	c.swsp	a3,8(sp)
    2d8a:	c23a                	c.swsp	a4,4(sp)
    2d8c:	c03e                	c.swsp	a5,0(sp)
    2d8e:	34102773          	csrr	a4,mepc
    2d92:	300026f3          	csrr	a3,mstatus
    2d96:	7c4027f3          	csrr	a5,mxstatus
    2d9a:	30046673          	csrrsi	a2,mstatus,8
    2d9e:	30047673          	csrrci	a2,mstatus,8
    2da2:	30069073          	csrw	mstatus,a3
    2da6:	34171073          	csrw	mepc,a4
    2daa:	7c479073          	csrw	mxstatus,a5
    2dae:	e42007b7          	lui	a5,0xe4200
    2db2:	474d                	c.li	a4,19
    2db4:	c3d8                	c.sw	a4,4(a5)
    2db6:	0ff0000f          	fence
    2dba:	4632                	c.lwsp	a2,12(sp)
    2dbc:	46a2                	c.lwsp	a3,8(sp)
    2dbe:	4712                	c.lwsp	a4,4(sp)
    2dc0:	4782                	c.lwsp	a5,0(sp)
    2dc2:	0141                	c.addi	sp,16
    2dc4:	30200073          	mret

00002dc8 <entry_irq18>:
    2dc8:	1141                	c.addi	sp,-16
    2dca:	c632                	c.swsp	a2,12(sp)
    2dcc:	c436                	c.swsp	a3,8(sp)
    2dce:	c23a                	c.swsp	a4,4(sp)
    2dd0:	c03e                	c.swsp	a5,0(sp)
    2dd2:	34102773          	csrr	a4,mepc
    2dd6:	300026f3          	csrr	a3,mstatus
    2dda:	7c4027f3          	csrr	a5,mxstatus
    2dde:	30046673          	csrrsi	a2,mstatus,8
    2de2:	30047673          	csrrci	a2,mstatus,8
    2de6:	30069073          	csrw	mstatus,a3
    2dea:	34171073          	csrw	mepc,a4
    2dee:	7c479073          	csrw	mxstatus,a5
    2df2:	e42007b7          	lui	a5,0xe4200
    2df6:	4749                	c.li	a4,18
    2df8:	c3d8                	c.sw	a4,4(a5)
    2dfa:	0ff0000f          	fence
    2dfe:	4632                	c.lwsp	a2,12(sp)
    2e00:	46a2                	c.lwsp	a3,8(sp)
    2e02:	4712                	c.lwsp	a4,4(sp)
    2e04:	4782                	c.lwsp	a5,0(sp)
    2e06:	0141                	c.addi	sp,16
    2e08:	30200073          	mret

00002e0c <entry_irq17>:
    2e0c:	1141                	c.addi	sp,-16
    2e0e:	c632                	c.swsp	a2,12(sp)
    2e10:	c436                	c.swsp	a3,8(sp)
    2e12:	c23a                	c.swsp	a4,4(sp)
    2e14:	c03e                	c.swsp	a5,0(sp)
    2e16:	34102773          	csrr	a4,mepc
    2e1a:	300026f3          	csrr	a3,mstatus
    2e1e:	7c4027f3          	csrr	a5,mxstatus
    2e22:	30046673          	csrrsi	a2,mstatus,8
    2e26:	30047673          	csrrci	a2,mstatus,8
    2e2a:	30069073          	csrw	mstatus,a3
    2e2e:	34171073          	csrw	mepc,a4
    2e32:	7c479073          	csrw	mxstatus,a5
    2e36:	e42007b7          	lui	a5,0xe4200
    2e3a:	4745                	c.li	a4,17
    2e3c:	c3d8                	c.sw	a4,4(a5)
    2e3e:	0ff0000f          	fence
    2e42:	4632                	c.lwsp	a2,12(sp)
    2e44:	46a2                	c.lwsp	a3,8(sp)
    2e46:	4712                	c.lwsp	a4,4(sp)
    2e48:	4782                	c.lwsp	a5,0(sp)
    2e4a:	0141                	c.addi	sp,16
    2e4c:	30200073          	mret

00002e50 <entry_irq16>:
    2e50:	1141                	c.addi	sp,-16
    2e52:	c632                	c.swsp	a2,12(sp)
    2e54:	c436                	c.swsp	a3,8(sp)
    2e56:	c23a                	c.swsp	a4,4(sp)
    2e58:	c03e                	c.swsp	a5,0(sp)
    2e5a:	34102773          	csrr	a4,mepc
    2e5e:	300026f3          	csrr	a3,mstatus
    2e62:	7c4027f3          	csrr	a5,mxstatus
    2e66:	30046673          	csrrsi	a2,mstatus,8
    2e6a:	30047673          	csrrci	a2,mstatus,8
    2e6e:	30069073          	csrw	mstatus,a3
    2e72:	34171073          	csrw	mepc,a4
    2e76:	7c479073          	csrw	mxstatus,a5
    2e7a:	e42007b7          	lui	a5,0xe4200
    2e7e:	4741                	c.li	a4,16
    2e80:	c3d8                	c.sw	a4,4(a5)
    2e82:	0ff0000f          	fence
    2e86:	4632                	c.lwsp	a2,12(sp)
    2e88:	46a2                	c.lwsp	a3,8(sp)
    2e8a:	4712                	c.lwsp	a4,4(sp)
    2e8c:	4782                	c.lwsp	a5,0(sp)
    2e8e:	0141                	c.addi	sp,16
    2e90:	30200073          	mret

00002e94 <entry_irq15>:
    2e94:	7135                	c.addi16sp	sp,-160
    2e96:	cf06                	c.swsp	ra,156(sp)
    2e98:	cd16                	c.swsp	t0,152(sp)
    2e9a:	cb1a                	c.swsp	t1,148(sp)
    2e9c:	c91e                	c.swsp	t2,144(sp)
    2e9e:	c722                	c.swsp	s0,140(sp)
    2ea0:	c526                	c.swsp	s1,136(sp)
    2ea2:	c32a                	c.swsp	a0,132(sp)
    2ea4:	c12e                	c.swsp	a1,128(sp)
    2ea6:	deb2                	c.swsp	a2,124(sp)
    2ea8:	dcb6                	c.swsp	a3,120(sp)
    2eaa:	daba                	c.swsp	a4,116(sp)
    2eac:	d8be                	c.swsp	a5,112(sp)
    2eae:	d6c2                	c.swsp	a6,108(sp)
    2eb0:	d4c6                	c.swsp	a7,104(sp)
    2eb2:	d2ca                	c.swsp	s2,100(sp)
    2eb4:	d0f2                	c.swsp	t3,96(sp)
    2eb6:	cef6                	c.swsp	t4,92(sp)
    2eb8:	ccfa                	c.swsp	t5,88(sp)
    2eba:	cafe                	c.swsp	t6,84(sp)
    2ebc:	e682                	c.fswsp	ft0,76(sp)
    2ebe:	e486                	c.fswsp	ft1,72(sp)
    2ec0:	e28a                	c.fswsp	ft2,68(sp)
    2ec2:	e08e                	c.fswsp	ft3,64(sp)
    2ec4:	fe12                	c.fswsp	ft4,60(sp)
    2ec6:	fc16                	c.fswsp	ft5,56(sp)
    2ec8:	fa1a                	c.fswsp	ft6,52(sp)
    2eca:	f81e                	c.fswsp	ft7,48(sp)
    2ecc:	f62a                	c.fswsp	fa0,44(sp)
    2ece:	f42e                	c.fswsp	fa1,40(sp)
    2ed0:	f232                	c.fswsp	fa2,36(sp)
    2ed2:	f036                	c.fswsp	fa3,32(sp)
    2ed4:	ee3a                	c.fswsp	fa4,28(sp)
    2ed6:	ec3e                	c.fswsp	fa5,24(sp)
    2ed8:	ea42                	c.fswsp	fa6,20(sp)
    2eda:	e846                	c.fswsp	fa7,16(sp)
    2edc:	e672                	c.fswsp	ft8,12(sp)
    2ede:	e476                	c.fswsp	ft9,8(sp)
    2ee0:	e27a                	c.fswsp	ft10,4(sp)
    2ee2:	e07e                	c.fswsp	ft11,0(sp)
    2ee4:	341024f3          	csrr	s1,mepc
    2ee8:	30002973          	csrr	s2,mstatus
    2eec:	7c402473          	csrr	s0,mxstatus
    2ef0:	300467f3          	csrrsi	a5,mstatus,8
    2ef4:	a31fd0ef          	jal	ra,924 <rf_irq_handler>
    2ef8:	300477f3          	csrrci	a5,mstatus,8
    2efc:	30091073          	csrw	mstatus,s2
    2f00:	34149073          	csrw	mepc,s1
    2f04:	7c441073          	csrw	mxstatus,s0
    2f08:	e42007b7          	lui	a5,0xe4200
    2f0c:	473d                	c.li	a4,15
    2f0e:	c3d8                	c.sw	a4,4(a5)
    2f10:	0ff0000f          	fence
    2f14:	443a                	c.lwsp	s0,140(sp)
    2f16:	40fa                	c.lwsp	ra,156(sp)
    2f18:	42ea                	c.lwsp	t0,152(sp)
    2f1a:	435a                	c.lwsp	t1,148(sp)
    2f1c:	43ca                	c.lwsp	t2,144(sp)
    2f1e:	44aa                	c.lwsp	s1,136(sp)
    2f20:	451a                	c.lwsp	a0,132(sp)
    2f22:	458a                	c.lwsp	a1,128(sp)
    2f24:	5676                	c.lwsp	a2,124(sp)
    2f26:	56e6                	c.lwsp	a3,120(sp)
    2f28:	5756                	c.lwsp	a4,116(sp)
    2f2a:	57c6                	c.lwsp	a5,112(sp)
    2f2c:	5836                	c.lwsp	a6,108(sp)
    2f2e:	58a6                	c.lwsp	a7,104(sp)
    2f30:	5916                	c.lwsp	s2,100(sp)
    2f32:	5e06                	c.lwsp	t3,96(sp)
    2f34:	4ef6                	c.lwsp	t4,92(sp)
    2f36:	4f66                	c.lwsp	t5,88(sp)
    2f38:	4fd6                	c.lwsp	t6,84(sp)
    2f3a:	6036                	c.flwsp	ft0,76(sp)
    2f3c:	60a6                	c.flwsp	ft1,72(sp)
    2f3e:	6116                	c.flwsp	ft2,68(sp)
    2f40:	6186                	c.flwsp	ft3,64(sp)
    2f42:	7272                	c.flwsp	ft4,60(sp)
    2f44:	72e2                	c.flwsp	ft5,56(sp)
    2f46:	7352                	c.flwsp	ft6,52(sp)
    2f48:	73c2                	c.flwsp	ft7,48(sp)
    2f4a:	7532                	c.flwsp	fa0,44(sp)
    2f4c:	75a2                	c.flwsp	fa1,40(sp)
    2f4e:	7612                	c.flwsp	fa2,36(sp)
    2f50:	7682                	c.flwsp	fa3,32(sp)
    2f52:	6772                	c.flwsp	fa4,28(sp)
    2f54:	67e2                	c.flwsp	fa5,24(sp)
    2f56:	6852                	c.flwsp	fa6,20(sp)
    2f58:	68c2                	c.flwsp	fa7,16(sp)
    2f5a:	6e32                	c.flwsp	ft8,12(sp)
    2f5c:	6ea2                	c.flwsp	ft9,8(sp)
    2f5e:	6f12                	c.flwsp	ft10,4(sp)
    2f60:	6f82                	c.flwsp	ft11,0(sp)
    2f62:	610d                	c.addi16sp	sp,160
    2f64:	30200073          	mret

00002f68 <entry_irq14>:
    2f68:	1141                	c.addi	sp,-16
    2f6a:	c632                	c.swsp	a2,12(sp)
    2f6c:	c436                	c.swsp	a3,8(sp)
    2f6e:	c23a                	c.swsp	a4,4(sp)
    2f70:	c03e                	c.swsp	a5,0(sp)
    2f72:	34102773          	csrr	a4,mepc
    2f76:	300026f3          	csrr	a3,mstatus
    2f7a:	7c4027f3          	csrr	a5,mxstatus
    2f7e:	30046673          	csrrsi	a2,mstatus,8
    2f82:	30047673          	csrrci	a2,mstatus,8
    2f86:	30069073          	csrw	mstatus,a3
    2f8a:	34171073          	csrw	mepc,a4
    2f8e:	7c479073          	csrw	mxstatus,a5
    2f92:	e42007b7          	lui	a5,0xe4200
    2f96:	4739                	c.li	a4,14
    2f98:	c3d8                	c.sw	a4,4(a5)
    2f9a:	0ff0000f          	fence
    2f9e:	4632                	c.lwsp	a2,12(sp)
    2fa0:	46a2                	c.lwsp	a3,8(sp)
    2fa2:	4712                	c.lwsp	a4,4(sp)
    2fa4:	4782                	c.lwsp	a5,0(sp)
    2fa6:	0141                	c.addi	sp,16
    2fa8:	30200073          	mret

00002fac <entry_irq13>:
    2fac:	1141                	c.addi	sp,-16
    2fae:	c632                	c.swsp	a2,12(sp)
    2fb0:	c436                	c.swsp	a3,8(sp)
    2fb2:	c23a                	c.swsp	a4,4(sp)
    2fb4:	c03e                	c.swsp	a5,0(sp)
    2fb6:	34102773          	csrr	a4,mepc
    2fba:	300026f3          	csrr	a3,mstatus
    2fbe:	7c4027f3          	csrr	a5,mxstatus
    2fc2:	30046673          	csrrsi	a2,mstatus,8
    2fc6:	30047673          	csrrci	a2,mstatus,8
    2fca:	30069073          	csrw	mstatus,a3
    2fce:	34171073          	csrw	mepc,a4
    2fd2:	7c479073          	csrw	mxstatus,a5
    2fd6:	e42007b7          	lui	a5,0xe4200
    2fda:	4735                	c.li	a4,13
    2fdc:	c3d8                	c.sw	a4,4(a5)
    2fde:	0ff0000f          	fence
    2fe2:	4632                	c.lwsp	a2,12(sp)
    2fe4:	46a2                	c.lwsp	a3,8(sp)
    2fe6:	4712                	c.lwsp	a4,4(sp)
    2fe8:	4782                	c.lwsp	a5,0(sp)
    2fea:	0141                	c.addi	sp,16
    2fec:	30200073          	mret

00002ff0 <entry_irq12>:
    2ff0:	1141                	c.addi	sp,-16
    2ff2:	c632                	c.swsp	a2,12(sp)
    2ff4:	c436                	c.swsp	a3,8(sp)
    2ff6:	c23a                	c.swsp	a4,4(sp)
    2ff8:	c03e                	c.swsp	a5,0(sp)
    2ffa:	34102773          	csrr	a4,mepc
    2ffe:	300026f3          	csrr	a3,mstatus
    3002:	7c4027f3          	csrr	a5,mxstatus
    3006:	30046673          	csrrsi	a2,mstatus,8
    300a:	30047673          	csrrci	a2,mstatus,8
    300e:	30069073          	csrw	mstatus,a3
    3012:	34171073          	csrw	mepc,a4
    3016:	7c479073          	csrw	mxstatus,a5
    301a:	e42007b7          	lui	a5,0xe4200
    301e:	4731                	c.li	a4,12
    3020:	c3d8                	c.sw	a4,4(a5)
    3022:	0ff0000f          	fence
    3026:	4632                	c.lwsp	a2,12(sp)
    3028:	46a2                	c.lwsp	a3,8(sp)
    302a:	4712                	c.lwsp	a4,4(sp)
    302c:	4782                	c.lwsp	a5,0(sp)
    302e:	0141                	c.addi	sp,16
    3030:	30200073          	mret

00003034 <entry_irq11>:
    3034:	1141                	c.addi	sp,-16
    3036:	c632                	c.swsp	a2,12(sp)
    3038:	c436                	c.swsp	a3,8(sp)
    303a:	c23a                	c.swsp	a4,4(sp)
    303c:	c03e                	c.swsp	a5,0(sp)
    303e:	34102773          	csrr	a4,mepc
    3042:	300026f3          	csrr	a3,mstatus
    3046:	7c4027f3          	csrr	a5,mxstatus
    304a:	30046673          	csrrsi	a2,mstatus,8
    304e:	30047673          	csrrci	a2,mstatus,8
    3052:	30069073          	csrw	mstatus,a3
    3056:	34171073          	csrw	mepc,a4
    305a:	7c479073          	csrw	mxstatus,a5
    305e:	e42007b7          	lui	a5,0xe4200
    3062:	472d                	c.li	a4,11
    3064:	c3d8                	c.sw	a4,4(a5)
    3066:	0ff0000f          	fence
    306a:	4632                	c.lwsp	a2,12(sp)
    306c:	46a2                	c.lwsp	a3,8(sp)
    306e:	4712                	c.lwsp	a4,4(sp)
    3070:	4782                	c.lwsp	a5,0(sp)
    3072:	0141                	c.addi	sp,16
    3074:	30200073          	mret

00003078 <entry_irq10>:
    3078:	1141                	c.addi	sp,-16
    307a:	c632                	c.swsp	a2,12(sp)
    307c:	c436                	c.swsp	a3,8(sp)
    307e:	c23a                	c.swsp	a4,4(sp)
    3080:	c03e                	c.swsp	a5,0(sp)
    3082:	34102773          	csrr	a4,mepc
    3086:	300026f3          	csrr	a3,mstatus
    308a:	7c4027f3          	csrr	a5,mxstatus
    308e:	30046673          	csrrsi	a2,mstatus,8
    3092:	30047673          	csrrci	a2,mstatus,8
    3096:	30069073          	csrw	mstatus,a3
    309a:	34171073          	csrw	mepc,a4
    309e:	7c479073          	csrw	mxstatus,a5
    30a2:	e42007b7          	lui	a5,0xe4200
    30a6:	4729                	c.li	a4,10
    30a8:	c3d8                	c.sw	a4,4(a5)
    30aa:	0ff0000f          	fence
    30ae:	4632                	c.lwsp	a2,12(sp)
    30b0:	46a2                	c.lwsp	a3,8(sp)
    30b2:	4712                	c.lwsp	a4,4(sp)
    30b4:	4782                	c.lwsp	a5,0(sp)
    30b6:	0141                	c.addi	sp,16
    30b8:	30200073          	mret

000030bc <entry_irq9>:
    30bc:	1141                	c.addi	sp,-16
    30be:	c632                	c.swsp	a2,12(sp)
    30c0:	c436                	c.swsp	a3,8(sp)
    30c2:	c23a                	c.swsp	a4,4(sp)
    30c4:	c03e                	c.swsp	a5,0(sp)
    30c6:	34102773          	csrr	a4,mepc
    30ca:	300026f3          	csrr	a3,mstatus
    30ce:	7c4027f3          	csrr	a5,mxstatus
    30d2:	30046673          	csrrsi	a2,mstatus,8
    30d6:	30047673          	csrrci	a2,mstatus,8
    30da:	30069073          	csrw	mstatus,a3
    30de:	34171073          	csrw	mepc,a4
    30e2:	7c479073          	csrw	mxstatus,a5
    30e6:	e42007b7          	lui	a5,0xe4200
    30ea:	4725                	c.li	a4,9
    30ec:	c3d8                	c.sw	a4,4(a5)
    30ee:	0ff0000f          	fence
    30f2:	4632                	c.lwsp	a2,12(sp)
    30f4:	46a2                	c.lwsp	a3,8(sp)
    30f6:	4712                	c.lwsp	a4,4(sp)
    30f8:	4782                	c.lwsp	a5,0(sp)
    30fa:	0141                	c.addi	sp,16
    30fc:	30200073          	mret

00003100 <entry_irq8>:
    3100:	1141                	c.addi	sp,-16
    3102:	c632                	c.swsp	a2,12(sp)
    3104:	c436                	c.swsp	a3,8(sp)
    3106:	c23a                	c.swsp	a4,4(sp)
    3108:	c03e                	c.swsp	a5,0(sp)
    310a:	34102773          	csrr	a4,mepc
    310e:	300026f3          	csrr	a3,mstatus
    3112:	7c4027f3          	csrr	a5,mxstatus
    3116:	30046673          	csrrsi	a2,mstatus,8
    311a:	30047673          	csrrci	a2,mstatus,8
    311e:	30069073          	csrw	mstatus,a3
    3122:	34171073          	csrw	mepc,a4
    3126:	7c479073          	csrw	mxstatus,a5
    312a:	e42007b7          	lui	a5,0xe4200
    312e:	4721                	c.li	a4,8
    3130:	c3d8                	c.sw	a4,4(a5)
    3132:	0ff0000f          	fence
    3136:	4632                	c.lwsp	a2,12(sp)
    3138:	46a2                	c.lwsp	a3,8(sp)
    313a:	4712                	c.lwsp	a4,4(sp)
    313c:	4782                	c.lwsp	a5,0(sp)
    313e:	0141                	c.addi	sp,16
    3140:	30200073          	mret

00003144 <entry_irq7>:
    3144:	1141                	c.addi	sp,-16
    3146:	c632                	c.swsp	a2,12(sp)
    3148:	c436                	c.swsp	a3,8(sp)
    314a:	c23a                	c.swsp	a4,4(sp)
    314c:	c03e                	c.swsp	a5,0(sp)
    314e:	34102773          	csrr	a4,mepc
    3152:	300026f3          	csrr	a3,mstatus
    3156:	7c4027f3          	csrr	a5,mxstatus
    315a:	30046673          	csrrsi	a2,mstatus,8
    315e:	30047673          	csrrci	a2,mstatus,8
    3162:	30069073          	csrw	mstatus,a3
    3166:	34171073          	csrw	mepc,a4
    316a:	7c479073          	csrw	mxstatus,a5
    316e:	e42007b7          	lui	a5,0xe4200
    3172:	471d                	c.li	a4,7
    3174:	c3d8                	c.sw	a4,4(a5)
    3176:	0ff0000f          	fence
    317a:	4632                	c.lwsp	a2,12(sp)
    317c:	46a2                	c.lwsp	a3,8(sp)
    317e:	4712                	c.lwsp	a4,4(sp)
    3180:	4782                	c.lwsp	a5,0(sp)
    3182:	0141                	c.addi	sp,16
    3184:	30200073          	mret

00003188 <entry_irq6>:
    3188:	1141                	c.addi	sp,-16
    318a:	c632                	c.swsp	a2,12(sp)
    318c:	c436                	c.swsp	a3,8(sp)
    318e:	c23a                	c.swsp	a4,4(sp)
    3190:	c03e                	c.swsp	a5,0(sp)
    3192:	34102773          	csrr	a4,mepc
    3196:	300026f3          	csrr	a3,mstatus
    319a:	7c4027f3          	csrr	a5,mxstatus
    319e:	30046673          	csrrsi	a2,mstatus,8
    31a2:	30047673          	csrrci	a2,mstatus,8
    31a6:	30069073          	csrw	mstatus,a3
    31aa:	34171073          	csrw	mepc,a4
    31ae:	7c479073          	csrw	mxstatus,a5
    31b2:	e42007b7          	lui	a5,0xe4200
    31b6:	4719                	c.li	a4,6
    31b8:	c3d8                	c.sw	a4,4(a5)
    31ba:	0ff0000f          	fence
    31be:	4632                	c.lwsp	a2,12(sp)
    31c0:	46a2                	c.lwsp	a3,8(sp)
    31c2:	4712                	c.lwsp	a4,4(sp)
    31c4:	4782                	c.lwsp	a5,0(sp)
    31c6:	0141                	c.addi	sp,16
    31c8:	30200073          	mret

000031cc <entry_irq5>:
    31cc:	1141                	c.addi	sp,-16
    31ce:	c632                	c.swsp	a2,12(sp)
    31d0:	c436                	c.swsp	a3,8(sp)
    31d2:	c23a                	c.swsp	a4,4(sp)
    31d4:	c03e                	c.swsp	a5,0(sp)
    31d6:	34102773          	csrr	a4,mepc
    31da:	300026f3          	csrr	a3,mstatus
    31de:	7c4027f3          	csrr	a5,mxstatus
    31e2:	30046673          	csrrsi	a2,mstatus,8
    31e6:	30047673          	csrrci	a2,mstatus,8
    31ea:	30069073          	csrw	mstatus,a3
    31ee:	34171073          	csrw	mepc,a4
    31f2:	7c479073          	csrw	mxstatus,a5
    31f6:	e42007b7          	lui	a5,0xe4200
    31fa:	4715                	c.li	a4,5
    31fc:	c3d8                	c.sw	a4,4(a5)
    31fe:	0ff0000f          	fence
    3202:	4632                	c.lwsp	a2,12(sp)
    3204:	46a2                	c.lwsp	a3,8(sp)
    3206:	4712                	c.lwsp	a4,4(sp)
    3208:	4782                	c.lwsp	a5,0(sp)
    320a:	0141                	c.addi	sp,16
    320c:	30200073          	mret

00003210 <entry_irq4>:
    3210:	1141                	c.addi	sp,-16
    3212:	c632                	c.swsp	a2,12(sp)
    3214:	c436                	c.swsp	a3,8(sp)
    3216:	c23a                	c.swsp	a4,4(sp)
    3218:	c03e                	c.swsp	a5,0(sp)
    321a:	34102773          	csrr	a4,mepc
    321e:	300026f3          	csrr	a3,mstatus
    3222:	7c4027f3          	csrr	a5,mxstatus
    3226:	30046673          	csrrsi	a2,mstatus,8
    322a:	30047673          	csrrci	a2,mstatus,8
    322e:	30069073          	csrw	mstatus,a3
    3232:	34171073          	csrw	mepc,a4
    3236:	7c479073          	csrw	mxstatus,a5
    323a:	e42007b7          	lui	a5,0xe4200
    323e:	4711                	c.li	a4,4
    3240:	c3d8                	c.sw	a4,4(a5)
    3242:	0ff0000f          	fence
    3246:	4632                	c.lwsp	a2,12(sp)
    3248:	46a2                	c.lwsp	a3,8(sp)
    324a:	4712                	c.lwsp	a4,4(sp)
    324c:	4782                	c.lwsp	a5,0(sp)
    324e:	0141                	c.addi	sp,16
    3250:	30200073          	mret

00003254 <entry_irq3>:
    3254:	1141                	c.addi	sp,-16
    3256:	c632                	c.swsp	a2,12(sp)
    3258:	c436                	c.swsp	a3,8(sp)
    325a:	c23a                	c.swsp	a4,4(sp)
    325c:	c03e                	c.swsp	a5,0(sp)
    325e:	34102773          	csrr	a4,mepc
    3262:	300026f3          	csrr	a3,mstatus
    3266:	7c4027f3          	csrr	a5,mxstatus
    326a:	30046673          	csrrsi	a2,mstatus,8
    326e:	30047673          	csrrci	a2,mstatus,8
    3272:	30069073          	csrw	mstatus,a3
    3276:	34171073          	csrw	mepc,a4
    327a:	7c479073          	csrw	mxstatus,a5
    327e:	e42007b7          	lui	a5,0xe4200
    3282:	470d                	c.li	a4,3
    3284:	c3d8                	c.sw	a4,4(a5)
    3286:	0ff0000f          	fence
    328a:	4632                	c.lwsp	a2,12(sp)
    328c:	46a2                	c.lwsp	a3,8(sp)
    328e:	4712                	c.lwsp	a4,4(sp)
    3290:	4782                	c.lwsp	a5,0(sp)
    3292:	0141                	c.addi	sp,16
    3294:	30200073          	mret

00003298 <entry_irq2>:
    3298:	1141                	c.addi	sp,-16
    329a:	c632                	c.swsp	a2,12(sp)
    329c:	c436                	c.swsp	a3,8(sp)
    329e:	c23a                	c.swsp	a4,4(sp)
    32a0:	c03e                	c.swsp	a5,0(sp)
    32a2:	34102773          	csrr	a4,mepc
    32a6:	300026f3          	csrr	a3,mstatus
    32aa:	7c4027f3          	csrr	a5,mxstatus
    32ae:	30046673          	csrrsi	a2,mstatus,8
    32b2:	30047673          	csrrci	a2,mstatus,8
    32b6:	30069073          	csrw	mstatus,a3
    32ba:	34171073          	csrw	mepc,a4
    32be:	7c479073          	csrw	mxstatus,a5
    32c2:	e42007b7          	lui	a5,0xe4200
    32c6:	4709                	c.li	a4,2
    32c8:	c3d8                	c.sw	a4,4(a5)
    32ca:	0ff0000f          	fence
    32ce:	4632                	c.lwsp	a2,12(sp)
    32d0:	46a2                	c.lwsp	a3,8(sp)
    32d2:	4712                	c.lwsp	a4,4(sp)
    32d4:	4782                	c.lwsp	a5,0(sp)
    32d6:	0141                	c.addi	sp,16
    32d8:	30200073          	mret

000032dc <entry_irq1>:
    32dc:	7135                	c.addi16sp	sp,-160
    32de:	cf06                	c.swsp	ra,156(sp)
    32e0:	cd16                	c.swsp	t0,152(sp)
    32e2:	cb1a                	c.swsp	t1,148(sp)
    32e4:	c91e                	c.swsp	t2,144(sp)
    32e6:	c722                	c.swsp	s0,140(sp)
    32e8:	c526                	c.swsp	s1,136(sp)
    32ea:	c32a                	c.swsp	a0,132(sp)
    32ec:	c12e                	c.swsp	a1,128(sp)
    32ee:	deb2                	c.swsp	a2,124(sp)
    32f0:	dcb6                	c.swsp	a3,120(sp)
    32f2:	daba                	c.swsp	a4,116(sp)
    32f4:	d8be                	c.swsp	a5,112(sp)
    32f6:	d6c2                	c.swsp	a6,108(sp)
    32f8:	d4c6                	c.swsp	a7,104(sp)
    32fa:	d2ca                	c.swsp	s2,100(sp)
    32fc:	d0f2                	c.swsp	t3,96(sp)
    32fe:	cef6                	c.swsp	t4,92(sp)
    3300:	ccfa                	c.swsp	t5,88(sp)
    3302:	cafe                	c.swsp	t6,84(sp)
    3304:	e682                	c.fswsp	ft0,76(sp)
    3306:	e486                	c.fswsp	ft1,72(sp)
    3308:	e28a                	c.fswsp	ft2,68(sp)
    330a:	e08e                	c.fswsp	ft3,64(sp)
    330c:	fe12                	c.fswsp	ft4,60(sp)
    330e:	fc16                	c.fswsp	ft5,56(sp)
    3310:	fa1a                	c.fswsp	ft6,52(sp)
    3312:	f81e                	c.fswsp	ft7,48(sp)
    3314:	f62a                	c.fswsp	fa0,44(sp)
    3316:	f42e                	c.fswsp	fa1,40(sp)
    3318:	f232                	c.fswsp	fa2,36(sp)
    331a:	f036                	c.fswsp	fa3,32(sp)
    331c:	ee3a                	c.fswsp	fa4,28(sp)
    331e:	ec3e                	c.fswsp	fa5,24(sp)
    3320:	ea42                	c.fswsp	fa6,20(sp)
    3322:	e846                	c.fswsp	fa7,16(sp)
    3324:	e672                	c.fswsp	ft8,12(sp)
    3326:	e476                	c.fswsp	ft9,8(sp)
    3328:	e27a                	c.fswsp	ft10,4(sp)
    332a:	e07e                	c.fswsp	ft11,0(sp)
    332c:	341024f3          	csrr	s1,mepc
    3330:	30002973          	csrr	s2,mstatus
    3334:	7c402473          	csrr	s0,mxstatus
    3338:	300467f3          	csrrsi	a5,mstatus,8
    333c:	de4fd0ef          	jal	ra,920 <stimer_irq_handler>
    3340:	300477f3          	csrrci	a5,mstatus,8
    3344:	30091073          	csrw	mstatus,s2
    3348:	34149073          	csrw	mepc,s1
    334c:	7c441073          	csrw	mxstatus,s0
    3350:	e42007b7          	lui	a5,0xe4200
    3354:	4705                	c.li	a4,1
    3356:	c3d8                	c.sw	a4,4(a5)
    3358:	0ff0000f          	fence
    335c:	443a                	c.lwsp	s0,140(sp)
    335e:	40fa                	c.lwsp	ra,156(sp)
    3360:	42ea                	c.lwsp	t0,152(sp)
    3362:	435a                	c.lwsp	t1,148(sp)
    3364:	43ca                	c.lwsp	t2,144(sp)
    3366:	44aa                	c.lwsp	s1,136(sp)
    3368:	451a                	c.lwsp	a0,132(sp)
    336a:	458a                	c.lwsp	a1,128(sp)
    336c:	5676                	c.lwsp	a2,124(sp)
    336e:	56e6                	c.lwsp	a3,120(sp)
    3370:	5756                	c.lwsp	a4,116(sp)
    3372:	57c6                	c.lwsp	a5,112(sp)
    3374:	5836                	c.lwsp	a6,108(sp)
    3376:	58a6                	c.lwsp	a7,104(sp)
    3378:	5916                	c.lwsp	s2,100(sp)
    337a:	5e06                	c.lwsp	t3,96(sp)
    337c:	4ef6                	c.lwsp	t4,92(sp)
    337e:	4f66                	c.lwsp	t5,88(sp)
    3380:	4fd6                	c.lwsp	t6,84(sp)
    3382:	6036                	c.flwsp	ft0,76(sp)
    3384:	60a6                	c.flwsp	ft1,72(sp)
    3386:	6116                	c.flwsp	ft2,68(sp)
    3388:	6186                	c.flwsp	ft3,64(sp)
    338a:	7272                	c.flwsp	ft4,60(sp)
    338c:	72e2                	c.flwsp	ft5,56(sp)
    338e:	7352                	c.flwsp	ft6,52(sp)
    3390:	73c2                	c.flwsp	ft7,48(sp)
    3392:	7532                	c.flwsp	fa0,44(sp)
    3394:	75a2                	c.flwsp	fa1,40(sp)
    3396:	7612                	c.flwsp	fa2,36(sp)
    3398:	7682                	c.flwsp	fa3,32(sp)
    339a:	6772                	c.flwsp	fa4,28(sp)
    339c:	67e2                	c.flwsp	fa5,24(sp)
    339e:	6852                	c.flwsp	fa6,20(sp)
    33a0:	68c2                	c.flwsp	fa7,16(sp)
    33a2:	6e32                	c.flwsp	ft8,12(sp)
    33a4:	6ea2                	c.flwsp	ft9,8(sp)
    33a6:	6f12                	c.flwsp	ft10,4(sp)
    33a8:	6f82                	c.flwsp	ft11,0(sp)
    33aa:	610d                	c.addi16sp	sp,160
    33ac:	30200073          	mret

000033b0 <trap_entry>:
    33b0:	1101                	c.addi	sp,-32
    33b2:	ce36                	c.swsp	a3,28(sp)
    33b4:	cc3a                	c.swsp	a4,24(sp)
    33b6:	ca3e                	c.swsp	a5,20(sp)
    33b8:	34202773          	csrr	a4,mcause
    33bc:	82efc1ab          	swgp	a4,-2016 # 80020 <mcause>
    33c0:	341026f3          	csrr	a3,mepc
    33c4:	6741                	c.lui	a4,0x10
    33c6:	1779                	c.addi	a4,-2
    33c8:	82dfc3ab          	swgp	a3,-2012 # 80024 <mepc>
    33cc:	c602                	c.swsp	zero,12(sp)
    33ce:	47b2                	c.lwsp	a5,12(sp)
    33d0:	fef76ee3          	bltu	a4,a5,33cc <trap_entry+0x1c>
    33d4:	0001                	c.nop
    33d6:	47b2                	c.lwsp	a5,12(sp)
    33d8:	0785                	c.addi	a5,1
    33da:	c63e                	c.swsp	a5,12(sp)
    33dc:	47b2                	c.lwsp	a5,12(sp)
    33de:	fef77be3          	bgeu	a4,a5,33d4 <trap_entry+0x24>
    33e2:	b7ed                	c.j	33cc <trap_entry+0x1c>
	...

00003400 <__vectors>:
    3400:	33b0                	c.fld	fa2,96(a5)
    3402:	0000                	unimp
    3404:	32dc                	c.fld	fa5,160(a3)
    3406:	0000                	unimp
    3408:	3298                	c.fld	fa4,32(a3)
    340a:	0000                	unimp
    340c:	3254                	c.fld	fa3,160(a2)
    340e:	0000                	unimp
    3410:	3210                	c.fld	fa2,32(a2)
    3412:	0000                	unimp
    3414:	31cc                	c.fld	fa1,160(a1)
    3416:	0000                	unimp
    3418:	3188                	c.fld	fa0,32(a1)
    341a:	0000                	unimp
    341c:	3144                	c.fld	fs1,160(a0)
    341e:	0000                	unimp
    3420:	3100                	c.fld	fs0,32(a0)
    3422:	0000                	unimp
    3424:	30bc                	c.fld	fa5,96(s1)
    3426:	0000                	unimp
    3428:	3078                	c.fld	fa4,224(s0)
    342a:	0000                	unimp
    342c:	3034                	c.fld	fa3,96(s0)
    342e:	0000                	unimp
    3430:	2ff0                	c.fld	fa2,216(a5)
    3432:	0000                	unimp
    3434:	2fac                	c.fld	fa1,88(a5)
    3436:	0000                	unimp
    3438:	2f68                	c.fld	fa0,216(a4)
    343a:	0000                	unimp
    343c:	2e94                	c.fld	fa3,24(a3)
    343e:	0000                	unimp
    3440:	2e50                	c.fld	fa2,152(a2)
    3442:	0000                	unimp
    3444:	2e0c                	c.fld	fa1,24(a2)
    3446:	0000                	unimp
    3448:	2dc8                	c.fld	fa0,152(a1)
    344a:	0000                	unimp
    344c:	2d84                	c.fld	fs1,24(a1)
    344e:	0000                	unimp
    3450:	2d40                	c.fld	fs0,152(a0)
    3452:	0000                	unimp
    3454:	2cfc                	c.fld	fa5,216(s1)
    3456:	0000                	unimp
    3458:	2cb8                	c.fld	fa4,88(s1)
    345a:	0000                	unimp
    345c:	2c74                	c.fld	fa3,216(s0)
    345e:	0000                	unimp
    3460:	2c30                	c.fld	fa2,88(s0)
    3462:	0000                	unimp
    3464:	2b5c                	c.fld	fa5,144(a4)
    3466:	0000                	unimp
    3468:	2b18                	c.fld	fa4,16(a4)
    346a:	0000                	unimp
    346c:	2ad4                	c.fld	fa3,144(a3)
    346e:	0000                	unimp
    3470:	2a90                	c.fld	fa2,16(a3)
    3472:	0000                	unimp
    3474:	2a4c                	c.fld	fa1,144(a2)
    3476:	0000                	unimp
    3478:	2a08                	c.fld	fa0,16(a2)
    347a:	0000                	unimp
    347c:	29c4                	c.fld	fs1,144(a1)
    347e:	0000                	unimp
    3480:	297c                	c.fld	fa5,208(a0)
    3482:	0000                	unimp
    3484:	2934                	c.fld	fa3,80(a0)
    3486:	0000                	unimp
    3488:	28ec                	c.fld	fa1,208(s1)
    348a:	0000                	unimp
    348c:	28a4                	c.fld	fs1,80(s1)
    348e:	0000                	unimp
    3490:	285c                	c.fld	fa5,144(s0)
    3492:	0000                	unimp
    3494:	2814                	c.fld	fa3,16(s0)
    3496:	0000                	unimp
    3498:	2810                	c.fld	fa2,16(s0)
    349a:	0000                	unimp
    349c:	280c                	c.fld	fa1,16(s0)
    349e:	0000                	unimp
    34a0:	2808                	c.fld	fa0,16(s0)
    34a2:	0000                	unimp
    34a4:	2804                	c.fld	fs1,16(s0)
    34a6:	0000                	unimp
    34a8:	27bc                	c.fld	fa5,72(a5)
    34aa:	0000                	unimp
    34ac:	2774                	c.fld	fa3,200(a4)
    34ae:	0000                	unimp
    34b0:	272c                	c.fld	fa1,72(a4)
    34b2:	0000                	unimp
    34b4:	2728                	c.fld	fa0,72(a4)
    34b6:	0000                	unimp
    34b8:	26e0                	c.fld	fs0,200(a3)
    34ba:	0000                	unimp
    34bc:	26dc                	c.fld	fa5,136(a3)
    34be:	0000                	unimp
    34c0:	26d8                	c.fld	fa4,136(a3)
    34c2:	0000                	unimp
    34c4:	26d4                	c.fld	fa3,136(a3)
    34c6:	0000                	unimp
    34c8:	268c                	c.fld	fa1,8(a3)
    34ca:	0000                	unimp
    34cc:	2644                	c.fld	fs1,136(a2)
    34ce:	0000                	unimp
    34d0:	25fc                	c.fld	fa5,200(a1)
    34d2:	0000                	unimp
    34d4:	25b4                	c.fld	fa3,72(a1)
    34d6:	0000                	unimp
    34d8:	256c                	c.fld	fa1,200(a0)
    34da:	0000                	unimp
    34dc:	2524                	c.fld	fs1,72(a0)
    34de:	0000                	unimp
    34e0:	24dc                	c.fld	fa5,136(s1)
    34e2:	0000                	unimp
    34e4:	2494                	c.fld	fa3,8(s1)
    34e6:	0000                	unimp
    34e8:	244c                	c.fld	fa1,136(s0)
    34ea:	0000                	unimp
    34ec:	2404                	c.fld	fs1,8(s0)
    34ee:	0000                	unimp
    34f0:	23bc                	c.fld	fa5,64(a5)
    34f2:	0000                	unimp
    34f4:	2374                	c.fld	fa3,192(a4)
    34f6:	0000                	unimp
    34f8:	232c                	c.fld	fa1,64(a4)
    34fa:	0000                	unimp
    34fc:	22e4                	c.fld	fs1,192(a3)
    34fe:	0000                	unimp
    3500:	0001                	c.nop

Disassembly of section .text:

20003640 <flash_read_status>:
20003640:	1101                	c.addi	sp,-32
20003642:	ce06                	c.swsp	ra,28(sp)
20003644:	000107a3          	sb	zero,15(sp)
20003648:	7d047073          	csrci	mmisc_ctl,8
2000364c:	4785                	c.li	a5,1
2000364e:	00f10713          	addi	a4,sp,15
20003652:	4681                	c.li	a3,0
20003654:	4601                	c.li	a2,0
20003656:	4581                	c.li	a1,0
20003658:	dfffd097          	auipc	ra,0xdfffd
2000365c:	3a0080e7          	jalr	928(ra) # 9f8 <flash_mspi_read_ram>
20003660:	7d046073          	csrsi	mmisc_ctl,8
20003664:	40f2                	c.lwsp	ra,28(sp)
20003666:	00f14503          	lbu	a0,15(sp)
2000366a:	6105                	c.addi16sp	sp,32
2000366c:	00008067          	ret

20003670 <flash_read_mid>:
20003670:	1101                	c.addi	sp,-32
20003672:	ce06                	c.swsp	ra,28(sp)
20003674:	c602                	c.swsp	zero,12(sp)
20003676:	7d047073          	csrci	mmisc_ctl,8
2000367a:	478d                	c.li	a5,3
2000367c:	0078                	c.addi4spn	a4,sp,12
2000367e:	4681                	c.li	a3,0
20003680:	4601                	c.li	a2,0
20003682:	4581                	c.li	a1,0
20003684:	09f00513          	li	a0,159
20003688:	dfffd097          	auipc	ra,0xdfffd
2000368c:	370080e7          	jalr	880(ra) # 9f8 <flash_mspi_read_ram>
20003690:	7d046073          	csrsi	mmisc_ctl,8
20003694:	40f2                	c.lwsp	ra,28(sp)
20003696:	4532                	c.lwsp	a0,12(sp)
20003698:	6105                	c.addi16sp	sp,32
2000369a:	8082                	c.jr	ra

2000369c <flash_page_program>:
2000369c:	1101                	c.addi	sp,-32
2000369e:	0ff57713          	andi	a4,a0,255
200036a2:	10000793          	li	a5,256
200036a6:	ca26                	c.swsp	s1,20(sp)
200036a8:	c84a                	c.swsp	s2,16(sp)
200036aa:	c64e                	c.swsp	s3,12(sp)
200036ac:	892a                	c.mv	s2,a0
200036ae:	84ae                	c.mv	s1,a1
200036b0:	89b2                	c.mv	s3,a2
200036b2:	8f99                	c.sub	a5,a4
200036b4:	ce06                	c.swsp	ra,28(sp)
200036b6:	cc22                	c.swsp	s0,24(sp)
200036b8:	8426                	c.mv	s0,s1
200036ba:	0097f363          	bgeu	a5,s1,200036c0 <flash_page_program+0x24>
200036be:	843e                	c.mv	s0,a5
200036c0:	7d047073          	csrci	mmisc_ctl,8
200036c4:	4605                	c.li	a2,1
200036c6:	8722                	c.mv	a4,s0
200036c8:	86ce                	c.mv	a3,s3
200036ca:	85ca                	c.mv	a1,s2
200036cc:	00200513          	li	a0,2
200036d0:	dfffd097          	auipc	ra,0xdfffd
200036d4:	4d8080e7          	jalr	1240(ra) # ba8 <flash_mspi_write_ram>
200036d8:	7d046073          	csrsi	mmisc_ctl,8
200036dc:	8c81                	c.sub	s1,s0
200036de:	9922                	c.add	s2,s0
200036e0:	99a2                	c.add	s3,s0
200036e2:	10000793          	li	a5,256
200036e6:	f8e9                	c.bnez	s1,200036b8 <flash_page_program+0x1c>
200036e8:	40f2                	c.lwsp	ra,28(sp)
200036ea:	4462                	c.lwsp	s0,24(sp)
200036ec:	44d2                	c.lwsp	s1,20(sp)
200036ee:	4942                	c.lwsp	s2,16(sp)
200036f0:	49b2                	c.lwsp	s3,12(sp)
200036f2:	6105                	c.addi16sp	sp,32
200036f4:	00008067          	ret

200036f8 <flash_dread>:
200036f8:	1141                	c.addi	sp,-16
200036fa:	c606                	c.swsp	ra,12(sp)
200036fc:	87ae                	c.mv	a5,a1
200036fe:	8732                	c.mv	a4,a2
20003700:	7d047073          	csrci	mmisc_ctl,8
20003704:	4685                	c.li	a3,1
20003706:	85aa                	c.mv	a1,a0
20003708:	00100613          	li	a2,1
2000370c:	03b00513          	li	a0,59
20003710:	dfffd097          	auipc	ra,0xdfffd
20003714:	2e8080e7          	jalr	744(ra) # 9f8 <flash_mspi_read_ram>
20003718:	7d046073          	csrsi	mmisc_ctl,8
2000371c:	40b2                	c.lwsp	ra,12(sp)
2000371e:	0141                	c.addi	sp,16
20003720:	00008067          	ret

20003724 <flash_erase_sector>:
20003724:	1141                	c.addi	sp,-16
20003726:	c606                	c.swsp	ra,12(sp)
20003728:	801407b7          	lui	a5,0x80140
2000372c:	4731                	c.li	a4,12
2000372e:	14e781a3          	sb	a4,323(a5) # 80140143 <_DATA_LMA_START+0x6013a9eb>
20003732:	85aa                	c.mv	a1,a0
20003734:	7d047073          	csrci	mmisc_ctl,8
20003738:	4701                	c.li	a4,0
2000373a:	4681                	c.li	a3,0
2000373c:	00100613          	li	a2,1
20003740:	02000513          	li	a0,32
20003744:	dfffd097          	auipc	ra,0xdfffd
20003748:	464080e7          	jalr	1124(ra) # ba8 <flash_mspi_write_ram>
2000374c:	7d046073          	csrsi	mmisc_ctl,8
20003750:	40b2                	c.lwsp	ra,12(sp)
20003752:	0141                	c.addi	sp,16
20003754:	00008067          	ret

20003758 <cpu_sleep_wakeup_32k_rc>:
20003758:	1141                	c.addi	sp,-16
2000375a:	c606                	c.swsp	ra,12(sp)
2000375c:	7d047073          	csrci	mmisc_ctl,8
20003760:	dfffe097          	auipc	ra,0xdfffe
20003764:	9c8080e7          	jalr	-1592(ra) # 1128 <cpu_sleep_wakeup_32k_rc_ram>
20003768:	7d046073          	csrsi	mmisc_ctl,8
2000376c:	40b2                	c.lwsp	ra,12(sp)
2000376e:	0141                	c.addi	sp,16
20003770:	8082                	c.jr	ra
	...

20003774 <pwm_kick_32k_pad.constprop.2>:
20003774:	1141                	c.addi	sp,-16
20003776:	c422                	c.swsp	s0,8(sp)
20003778:	c606                	c.swsp	ra,12(sp)
2000377a:	80140437          	lui	s0,0x80140
2000377e:	57f9                	c.li	a5,-2
20003780:	30f40f23          	sb	a5,798(s0) # 8014031e <_DATA_LMA_START+0x6013abc6>
20003784:	4789                	c.li	a5,2
20003786:	32f40b23          	sb	a5,822(s0)
2000378a:	4785                	c.li	a5,1
2000378c:	34f40aa3          	sb	a5,853(s0)
20003790:	4785                	c.li	a5,1
20003792:	40f41a23          	sh	a5,1044(s0)
20003796:	4709                	c.li	a4,2
20003798:	40e41b23          	sh	a4,1046(s0)
2000379c:	fb600713          	li	a4,-74
200037a0:	40e40123          	sb	a4,1026(s0)
200037a4:	00a00513          	li	a0,10
200037a8:	40f400a3          	sb	a5,1025(s0)
200037ac:	dfffd097          	auipc	ra,0xdfffd
200037b0:	17c080e7          	jalr	380(ra) # 928 <delay_ms>
200037b4:	57fd                	c.li	a5,-1
200037b6:	30f40f23          	sb	a5,798(s0)
200037ba:	57c1                	c.li	a5,-16
200037bc:	32f40b23          	sb	a5,822(s0)
200037c0:	34040aa3          	sb	zero,853(s0)
200037c4:	40041c23          	sh	zero,1048(s0)
200037c8:	40041d23          	sh	zero,1050(s0)
200037cc:	40040023          	sb	zero,1024(s0)
200037d0:	40040123          	sb	zero,1026(s0)
200037d4:	40b2                	c.lwsp	ra,12(sp)
200037d6:	4422                	c.lwsp	s0,8(sp)
200037d8:	0141                	c.addi	sp,16
200037da:	8082                	c.jr	ra

200037dc <blc_readFlashSize_autoConfigCustomFlashSector>:
200037dc:	1141                	c.addi	sp,-16
200037de:	c606                	c.swsp	ra,12(sp)
200037e0:	e91ff0ef          	jal	ra,20003670 <flash_read_mid>
200037e4:	5d05255b          	bfoz	a0,a0,23,16
200037e8:	01356a5b          	bnec	a0,19,200037fc <blc_readFlashSize_autoConfigCustomFlashSector+0x20>
200037ec:	000007b7          	lui	a5,0x0
200037f0:	0007e737          	lui	a4,0x7e
200037f4:	26e7a823          	sw	a4,624(a5) # 270 <flash_sector_calibration>
200037f8:	0440006f          	j	2000383c <blc_readFlashSize_autoConfigCustomFlashSector+0x60>
200037fc:	01456a5b          	bnec	a0,20,20003810 <blc_readFlashSize_autoConfigCustomFlashSector+0x34>
20003800:	000007b7          	lui	a5,0x0
20003804:	000fe737          	lui	a4,0xfe
20003808:	26e7a823          	sw	a4,624(a5) # 270 <flash_sector_calibration>
2000380c:	0300006f          	j	2000383c <blc_readFlashSize_autoConfigCustomFlashSector+0x60>
20003810:	01556a5b          	bnec	a0,21,20003824 <blc_readFlashSize_autoConfigCustomFlashSector+0x48>
20003814:	000007b7          	lui	a5,0x0
20003818:	001fe737          	lui	a4,0x1fe
2000381c:	26e7a823          	sw	a4,624(a5) # 270 <flash_sector_calibration>
20003820:	01c0006f          	j	2000383c <blc_readFlashSize_autoConfigCustomFlashSector+0x60>
20003824:	01656a5b          	bnec	a0,22,20003838 <blc_readFlashSize_autoConfigCustomFlashSector+0x5c>
20003828:	000007b7          	lui	a5,0x0
2000382c:	003fe737          	lui	a4,0x3fe
20003830:	26e7a823          	sw	a4,624(a5) # 270 <flash_sector_calibration>
20003834:	0080006f          	j	2000383c <blc_readFlashSize_autoConfigCustomFlashSector+0x60>
20003838:	0000006f          	j	20003838 <blc_readFlashSize_autoConfigCustomFlashSector+0x5c>
2000383c:	40b2                	c.lwsp	ra,12(sp)
2000383e:	0141                	c.addi	sp,16
20003840:	8082                	c.jr	ra
	...

20003844 <writeSPIByte>:
20003844:	820007b7          	lui	a5,0x82000
20003848:	fc778703          	lb	a4,-57(a5) # 81ffffc7 <_DATA_LMA_START+0x61ffa86f>
2000384c:	820006b7          	lui	a3,0x82000
20003850:	07f77713          	andi	a4,a4,127
20003854:	fce783a3          	sb	a4,-57(a5)
20003858:	fc778703          	lb	a4,-57(a5)
2000385c:	0bf77713          	andi	a4,a4,191
20003860:	fce783a3          	sb	a4,-57(a5)
20003864:	fcd78703          	lb	a4,-51(a5)
20003868:	0ff77713          	andi	a4,a4,255
2000386c:	00876713          	ori	a4,a4,8
20003870:	fce786a3          	sb	a4,-51(a5)
20003874:	fcd78703          	lb	a4,-51(a5)
20003878:	0ff77713          	andi	a4,a4,255
2000387c:	00476713          	ori	a4,a4,4
20003880:	fce786a3          	sb	a4,-51(a5)
20003884:	fe0780a3          	sb	zero,-31(a5)
20003888:	fe078023          	sb	zero,-32(a5)
2000388c:	fc0781a3          	sb	zero,-61(a5)
20003890:	fc078fa3          	sb	zero,-33(a5)
20003894:	fc078f23          	sb	zero,-34(a5)
20003898:	fc078223          	sb	zero,-60(a5)
2000389c:	fc578703          	lb	a4,-59(a5)
200038a0:	00f77713          	andi	a4,a4,15
200038a4:	fce782a3          	sb	a4,-59(a5)
200038a8:	fc078323          	sb	zero,-58(a5)
200038ac:	fcd68783          	lb	a5,-51(a3) # 81ffffcd <_DATA_LMA_START+0x61ffa875>
200038b0:	fe67fe5b          	bbs	a5,6,200038ac <writeSPIByte+0x68>
200038b4:	82000737          	lui	a4,0x82000
200038b8:	fca68423          	sb	a0,-56(a3)
200038bc:	fcd70783          	lb	a5,-51(a4) # 81ffffcd <_DATA_LMA_START+0x61ffa875>
200038c0:	fe57fe5b          	bbs	a5,5,200038bc <writeSPIByte+0x78>
200038c4:	fc870503          	lb	a0,-56(a4)
200038c8:	82000737          	lui	a4,0x82000
200038cc:	0ff57513          	andi	a0,a0,255
200038d0:	fcf70783          	lb	a5,-49(a4) # 81ffffcf <_DATA_LMA_START+0x61ffa877>
200038d4:	fe77fe5b          	bbs	a5,7,200038d0 <writeSPIByte+0x8c>
200038d8:	8082                	c.jr	ra
	...

200038dc <W25XXX_Read>:
200038dc:	1141                	c.addi	sp,-16
200038de:	80140737          	lui	a4,0x80140
200038e2:	c606                	c.swsp	ra,12(sp)
200038e4:	c422                	c.swsp	s0,8(sp)
200038e6:	c226                	c.swsp	s1,4(sp)
200038e8:	c04a                	c.swsp	s2,0(sp)
200038ea:	30b70783          	lb	a5,779(a4) # 8014030b <_DATA_LMA_START+0x6013abb3>
200038ee:	842a                	c.mv	s0,a0
200038f0:	0fe7f793          	andi	a5,a5,254
200038f4:	450d                	c.li	a0,3
200038f6:	892e                	c.mv	s2,a1
200038f8:	84b2                	c.mv	s1,a2
200038fa:	30f705a3          	sb	a5,779(a4)
200038fe:	3799                	c.jal	20003844 <writeSPIByte>
20003900:	5d09255b          	bfoz	a0,s2,23,16
20003904:	f41ff0ef          	jal	ra,20003844 <writeSPIByte>
20003908:	3c89255b          	bfoz	a0,s2,15,8
2000390c:	f39ff0ef          	jal	ra,20003844 <writeSPIByte>
20003910:	0ff97513          	andi	a0,s2,255
20003914:	94a2                	c.add	s1,s0
20003916:	373d                	c.jal	20003844 <writeSPIByte>
20003918:	0405                	c.addi	s0,1
2000391a:	4501                	c.li	a0,0
2000391c:	f29ff0ef          	jal	ra,20003844 <writeSPIByte>
20003920:	fea40fa3          	sb	a0,-1(s0)
20003924:	fe941ae3          	bne	s0,s1,20003918 <W25XXX_Read+0x3c>
20003928:	80140737          	lui	a4,0x80140
2000392c:	30b70783          	lb	a5,779(a4) # 8014030b <_DATA_LMA_START+0x6013abb3>
20003930:	0ff7f793          	andi	a5,a5,255
20003934:	0017e793          	ori	a5,a5,1
20003938:	30f705a3          	sb	a5,779(a4)
2000393c:	40b2                	c.lwsp	ra,12(sp)
2000393e:	4422                	c.lwsp	s0,8(sp)
20003940:	4492                	c.lwsp	s1,4(sp)
20003942:	4902                	c.lwsp	s2,0(sp)
20003944:	0141                	c.addi	sp,16
20003946:	8082                	c.jr	ra

20003948 <FLASH_ReadStatusReg>:
20003948:	1141                	c.addi	sp,-16
2000394a:	c422                	c.swsp	s0,8(sp)
2000394c:	80140437          	lui	s0,0x80140
20003950:	c606                	c.swsp	ra,12(sp)
20003952:	30b40783          	lb	a5,779(s0) # 8014030b <_DATA_LMA_START+0x6013abb3>
20003956:	4515                	c.li	a0,5
20003958:	0fe7f793          	andi	a5,a5,254
2000395c:	30f405a3          	sb	a5,779(s0)
20003960:	ee5ff0ef          	jal	ra,20003844 <writeSPIByte>
20003964:	00000513          	li	a0,0
20003968:	eddff0ef          	jal	ra,20003844 <writeSPIByte>
2000396c:	30b40783          	lb	a5,779(s0)
20003970:	0ff7f793          	andi	a5,a5,255
20003974:	0017e793          	ori	a5,a5,1
20003978:	30f405a3          	sb	a5,779(s0)
2000397c:	40b2                	c.lwsp	ra,12(sp)
2000397e:	4422                	c.lwsp	s0,8(sp)
20003980:	0141                	c.addi	sp,16
20003982:	8082                	c.jr	ra

20003984 <W25XXX_WR_Page>:
20003984:	1101                	c.addi	sp,-32
20003986:	ca26                	c.swsp	s1,20(sp)
20003988:	801404b7          	lui	s1,0x80140
2000398c:	ce06                	c.swsp	ra,28(sp)
2000398e:	cc22                	c.swsp	s0,24(sp)
20003990:	c84a                	c.swsp	s2,16(sp)
20003992:	c64e                	c.swsp	s3,12(sp)
20003994:	30b48783          	lb	a5,779(s1) # 8014030b <_DATA_LMA_START+0x6013abb3>
20003998:	842a                	c.mv	s0,a0
2000399a:	0fe7f793          	andi	a5,a5,254
2000399e:	4519                	c.li	a0,6
200039a0:	89ae                	c.mv	s3,a1
200039a2:	8932                	c.mv	s2,a2
200039a4:	30f485a3          	sb	a5,779(s1)
200039a8:	e9dff0ef          	jal	ra,20003844 <writeSPIByte>
200039ac:	30b48783          	lb	a5,779(s1)
200039b0:	4509                	c.li	a0,2
200039b2:	0ff7f793          	andi	a5,a5,255
200039b6:	0017e793          	ori	a5,a5,1
200039ba:	30f485a3          	sb	a5,779(s1)
200039be:	30b48783          	lb	a5,779(s1)
200039c2:	0fe7f793          	andi	a5,a5,254
200039c6:	30f485a3          	sb	a5,779(s1)
200039ca:	3dad                	c.jal	20003844 <writeSPIByte>
200039cc:	5d09a55b          	bfoz	a0,s3,23,16
200039d0:	e75ff0ef          	jal	ra,20003844 <writeSPIByte>
200039d4:	3c89a55b          	bfoz	a0,s3,15,8
200039d8:	e6dff0ef          	jal	ra,20003844 <writeSPIByte>
200039dc:	0ff9f513          	andi	a0,s3,255
200039e0:	e65ff0ef          	jal	ra,20003844 <writeSPIByte>
200039e4:	10000793          	li	a5,256
200039e8:	10000493          	li	s1,256
200039ec:	0127e463          	bltu	a5,s2,200039f4 <W25XXX_WR_Page+0x70>
200039f0:	012004b3          	add	s1,zero,s2
200039f4:	00090a63          	beqz	s2,20003a08 <W25XXX_WR_Page+0x84>
200039f8:	008484b3          	add	s1,s1,s0
200039fc:	0405                	c.addi	s0,1
200039fe:	fff44503          	lbu	a0,-1(s0)
20003a02:	3589                	c.jal	20003844 <writeSPIByte>
20003a04:	fe941ce3          	bne	s0,s1,200039fc <W25XXX_WR_Page+0x78>
20003a08:	80140737          	lui	a4,0x80140
20003a0c:	30b70783          	lb	a5,779(a4) # 8014030b <_DATA_LMA_START+0x6013abb3>
20003a10:	0ff7f793          	andi	a5,a5,255
20003a14:	0017e793          	ori	a5,a5,1
20003a18:	30f705a3          	sb	a5,779(a4)
20003a1c:	f2dff0ef          	jal	ra,20003948 <FLASH_ReadStatusReg>
20003a20:	fe057e5b          	bbs	a0,0,20003a1c <W25XXX_WR_Page+0x98>
20003a24:	40f2                	c.lwsp	ra,28(sp)
20003a26:	4462                	c.lwsp	s0,24(sp)
20003a28:	44d2                	c.lwsp	s1,20(sp)
20003a2a:	4942                	c.lwsp	s2,16(sp)
20003a2c:	49b2                	c.lwsp	s3,12(sp)
20003a2e:	6105                	c.addi16sp	sp,32
20003a30:	8082                	c.jr	ra
	...

20003a34 <W25XXX_WR_Block>:
20003a34:	1101                	c.addi	sp,-32
20003a36:	ca26                	c.swsp	s1,20(sp)
20003a38:	c84a                	c.swsp	s2,16(sp)
20003a3a:	c452                	c.swsp	s4,8(sp)
20003a3c:	ce06                	c.swsp	ra,28(sp)
20003a3e:	cc22                	c.swsp	s0,24(sp)
20003a40:	c64e                	c.swsp	s3,12(sp)
20003a42:	c256                	c.swsp	s5,4(sp)
20003a44:	c05a                	c.swsp	s6,0(sp)
20003a46:	0ff5f713          	andi	a4,a1,255
20003a4a:	892e                	c.mv	s2,a1
20003a4c:	8a32                	c.mv	s4,a2
20003a4e:	84aa                	c.mv	s1,a0
20003a50:	00865793          	srli	a5,a2,0x8
20003a54:	eb31                	c.bnez	a4,20003aa8 <W25XXX_WR_Block+0x74>
20003a56:	cfad                	c.beqz	a5,20003ad0 <W25XXX_WR_Block+0x9c>
20003a58:	17fd                	c.addi	a5,-1
20003a5a:	0ff7f993          	andi	s3,a5,255
20003a5e:	00198793          	addi	a5,s3,1
20003a62:	07a2                	c.slli	a5,0x8
20003a64:	00a00433          	add	s0,zero,a0
20003a68:	00f504b3          	add	s1,a0,a5
20003a6c:	40a58ab3          	sub	s5,a1,a0
20003a70:	015405b3          	add	a1,s0,s5
20003a74:	8522                	c.mv	a0,s0
20003a76:	10000613          	li	a2,256
20003a7a:	10040413          	addi	s0,s0,256
20003a7e:	3719                	c.jal	20003984 <W25XXX_WR_Page>
20003a80:	fe9418e3          	bne	s0,s1,20003a70 <W25XXX_WR_Block+0x3c>
20003a84:	10090593          	addi	a1,s2,256
20003a88:	09a2                	c.slli	s3,0x8
20003a8a:	0ffa7613          	andi	a2,s4,255
20003a8e:	95ce                	c.add	a1,s3
20003a90:	00800533          	add	a0,zero,s0
20003a94:	4462                	c.lwsp	s0,24(sp)
20003a96:	40f2                	c.lwsp	ra,28(sp)
20003a98:	44d2                	c.lwsp	s1,20(sp)
20003a9a:	4942                	c.lwsp	s2,16(sp)
20003a9c:	49b2                	c.lwsp	s3,12(sp)
20003a9e:	4a22                	c.lwsp	s4,8(sp)
20003aa0:	4a92                	c.lwsp	s5,4(sp)
20003aa2:	4b02                	c.lwsp	s6,0(sp)
20003aa4:	6105                	c.addi16sp	sp,32
20003aa6:	bdf9                	c.j	20003984 <W25XXX_WR_Page>
20003aa8:	40e009b3          	neg	s3,a4
20003aac:	0ff9f993          	andi	s3,s3,255
20003ab0:	e785                	c.bnez	a5,20003ad8 <W25XXX_WR_Block+0xa4>
20003ab2:	0ff67413          	andi	s0,a2,255
20003ab6:	0089fd63          	bgeu	s3,s0,20003ad0 <W25XXX_WR_Block+0x9c>
20003aba:	9722                	c.add	a4,s0
20003abc:	864e                	c.mv	a2,s3
20003abe:	0ff77413          	andi	s0,a4,255
20003ac2:	35c9                	c.jal	20003984 <W25XXX_WR_Page>
20003ac4:	8622                	c.mv	a2,s0
20003ac6:	012985b3          	add	a1,s3,s2
20003aca:	01348533          	add	a0,s1,s3
20003ace:	b7d9                	c.j	20003a94 <W25XXX_WR_Block+0x60>
20003ad0:	8652                	c.mv	a2,s4
20003ad2:	85ca                	c.mv	a1,s2
20003ad4:	8526                	c.mv	a0,s1
20003ad6:	bf7d                	c.j	20003a94 <W25XXX_WR_Block+0x60>
20003ad8:	41360a33          	sub	s4,a2,s3
20003adc:	008a5a93          	srli	s5,s4,0x8
20003ae0:	0ffaf413          	andi	s0,s5,255
20003ae4:	864e                	c.mv	a2,s3
20003ae6:	147d                	c.addi	s0,-1
20003ae8:	994e                	c.add	s2,s3
20003aea:	94ce                	c.add	s1,s3
20003aec:	e99ff0ef          	jal	ra,20003984 <W25XXX_WR_Page>
20003af0:	0ffa7b13          	andi	s6,s4,255
20003af4:	0ff47993          	andi	s3,s0,255
20003af8:	040a8863          	beqz	s5,20003b48 <W25XXX_WR_Block+0x114>
20003afc:	00198793          	addi	a5,s3,1
20003b00:	8426                	c.mv	s0,s1
20003b02:	07a2                	c.slli	a5,0x8
20003b04:	00f484b3          	add	s1,s1,a5
20003b08:	40890ab3          	sub	s5,s2,s0
20003b0c:	015405b3          	add	a1,s0,s5
20003b10:	8522                	c.mv	a0,s0
20003b12:	10000613          	li	a2,256
20003b16:	10040413          	addi	s0,s0,256
20003b1a:	35ad                	c.jal	20003984 <W25XXX_WR_Page>
20003b1c:	fe9418e3          	bne	s0,s1,20003b0c <W25XXX_WR_Block+0xd8>
20003b20:	10090913          	addi	s2,s2,256
20003b24:	09a2                	c.slli	s3,0x8
20003b26:	994e                	c.add	s2,s3
20003b28:	000b1c63          	bnez	s6,20003b40 <W25XXX_WR_Block+0x10c>
20003b2c:	40f2                	c.lwsp	ra,28(sp)
20003b2e:	4462                	c.lwsp	s0,24(sp)
20003b30:	44d2                	c.lwsp	s1,20(sp)
20003b32:	4942                	c.lwsp	s2,16(sp)
20003b34:	49b2                	c.lwsp	s3,12(sp)
20003b36:	4a22                	c.lwsp	s4,8(sp)
20003b38:	4a92                	c.lwsp	s5,4(sp)
20003b3a:	4b02                	c.lwsp	s6,0(sp)
20003b3c:	6105                	c.addi16sp	sp,32
20003b3e:	8082                	c.jr	ra
20003b40:	0ffa7613          	andi	a2,s4,255
20003b44:	85ca                	c.mv	a1,s2
20003b46:	b7a9                	c.j	20003a90 <W25XXX_WR_Block+0x5c>
20003b48:	8426                	c.mv	s0,s1
20003b4a:	bff9                	c.j	20003b28 <W25XXX_WR_Block+0xf4>

20003b4c <analog_read_reg32.constprop.7>:
20003b4c:	300026f3          	csrr	a3,mstatus
20003b50:	8aa1                	c.andi	a3,8
20003b52:	c299                	c.beqz	a3,20003b58 <analog_read_reg32.constprop.7+0xc>
20003b54:	300477f3          	csrrci	a5,mstatus,8
20003b58:	801407b7          	lui	a5,0x80140
20003b5c:	00400713          	li	a4,4
20003b60:	18e781a3          	sb	a4,387(a5) # 80140183 <_DATA_LMA_START+0x6013aa2b>
20003b64:	06000713          	li	a4,96
20003b68:	18e78023          	sb	a4,384(a5)
20003b6c:	04000613          	li	a2,64
20003b70:	80140737          	lui	a4,0x80140
20003b74:	18c78123          	sb	a2,386(a5)
20003b78:	18270783          	lb	a5,386(a4) # 80140182 <_DATA_LMA_START+0x6013aa2a>
20003b7c:	fe77fe5b          	bbs	a5,7,20003b78 <analog_read_reg32.constprop.7+0x2c>
20003b80:	18472503          	lw	a0,388(a4)
20003b84:	00068463          	beqz	a3,20003b8c <analog_read_reg32.constprop.7+0x40>
20003b88:	3006a6f3          	csrrs	a3,mstatus,a3
20003b8c:	8082                	c.jr	ra
20003b8e:	0001                	c.nop

20003b90 <pwm_kick_32k_pad_times.constprop.1>:
20003b90:	1141                	c.addi	sp,-16
20003b92:	09500593          	li	a1,149
20003b96:	04e00513          	li	a0,78
20003b9a:	c606                	c.swsp	ra,12(sp)
20003b9c:	c422                	c.swsp	s0,8(sp)
20003b9e:	c226                	c.swsp	s1,4(sp)
20003ba0:	01212023          	sw	s2,0(sp)
20003ba4:	dfffd097          	auipc	ra,0xdfffd
20003ba8:	16c080e7          	jalr	364(ra) # d10 <analog_write_reg8>
20003bac:	4581                	c.li	a1,0
20003bae:	4515                	c.li	a0,5
20003bb0:	dfffd097          	auipc	ra,0xdfffd
20003bb4:	160080e7          	jalr	352(ra) # d10 <analog_write_reg8>
20003bb8:	801407b7          	lui	a5,0x80140
20003bbc:	4705                	c.li	a4,1
20003bbe:	00000437          	lui	s0,0x0
20003bc2:	1ce78c23          	sb	a4,472(a5) # 801401d8 <_DATA_LMA_START+0x6013aa80>
20003bc6:	4505                	c.li	a0,1
20003bc8:	4749                	c.li	a4,18
20003bca:	44ad                	c.li	s1,11
20003bcc:	15840413          	addi	s0,s0,344 # 158 <_AES_VMA_END>
20003bd0:	1ee78423          	sb	a4,488(a5)
20003bd4:	dfffd097          	auipc	ra,0xdfffd
20003bd8:	d54080e7          	jalr	-684(ra) # 928 <delay_ms>
20003bdc:	14fd                	c.addi	s1,-1
20003bde:	c09d                	c.beqz	s1,20003c04 <pwm_kick_32k_pad_times.constprop.1+0x74>
20003be0:	b95ff0ef          	jal	ra,20003774 <pwm_kick_32k_pad.constprop.2>
20003be4:	11c42783          	lw	a5,284(s0)
20003be8:	9782                	c.jalr	a5
20003bea:	892a                	c.mv	s2,a0
20003bec:	13100513          	li	a0,305
20003bf0:	dfffd097          	auipc	ra,0xdfffd
20003bf4:	d5c080e7          	jalr	-676(ra) # 94c <delay_us>
20003bf8:	11c42783          	lw	a5,284(s0)
20003bfc:	000780e7          	jalr	a5
20003c00:	fca90ee3          	beq	s2,a0,20003bdc <pwm_kick_32k_pad_times.constprop.1+0x4c>
20003c04:	40b2                	c.lwsp	ra,12(sp)
20003c06:	4422                	c.lwsp	s0,8(sp)
20003c08:	4492                	c.lwsp	s1,4(sp)
20003c0a:	4902                	c.lwsp	s2,0(sp)
20003c0c:	0141                	c.addi	sp,16
20003c0e:	8082                	c.jr	ra
20003c10:	0001                	c.nop
	...

20003c14 <cpu_wakeup_no_deepretn_back_init>:
20003c14:	1141                	c.addi	sp,-16
20003c16:	c422                	c.swsp	s0,8(sp)
20003c18:	00000437          	lui	s0,0x0
20003c1c:	15840413          	addi	s0,s0,344 # 158 <_AES_VMA_END>
20003c20:	c606                	c.swsp	ra,12(sp)
20003c22:	c226                	c.swsp	s1,4(sp)
20003c24:	13544783          	lbu	a5,309(s0)
20003c28:	08078463          	beqz	a5,20003cb0 <cpu_wakeup_no_deepretn_back_init+0x9c>
20003c2c:	03900513          	li	a0,57
20003c30:	dfffd097          	auipc	ra,0xdfffd
20003c34:	11c080e7          	jalr	284(ra) # d4c <analog_read_reg8>
20003c38:	5615725b          	bbs	a0,1,20003d9c <cpu_wakeup_no_deepretn_back_init+0x188>
20003c3c:	03900513          	li	a0,57
20003c40:	dfffd097          	auipc	ra,0xdfffd
20003c44:	10c080e7          	jalr	268(ra) # d4c <analog_read_reg8>
20003c48:	00256593          	ori	a1,a0,2
20003c4c:	0ff5f593          	andi	a1,a1,255
20003c50:	03900513          	li	a0,57
20003c54:	dfffd097          	auipc	ra,0xdfffd
20003c58:	0bc080e7          	jalr	188(ra) # d10 <analog_write_reg8>
20003c5c:	f35ff0ef          	jal	ra,20003b90 <pwm_kick_32k_pad_times.constprop.1>
20003c60:	80140737          	lui	a4,0x80140
20003c64:	06500793          	li	a5,101
20003c68:	1ef70a23          	sb	a5,500(a4) # 801401f4 <_DATA_LMA_START+0x6013aa9c>
20003c6c:	1c872783          	lw	a5,456(a4)
20003c70:	1e070a23          	sb	zero,500(a4)
20003c74:	4c47a7db          	bfoz	a5,a5,19,4
20003c78:	3807a75b          	bfoz	a4,a5,14,0
20003c7c:	00070663          	beqz	a4,20003c88 <cpu_wakeup_no_deepretn_back_init+0x74>
20003c80:	13c45683          	lhu	a3,316(s0)
20003c84:	0e069e63          	bnez	a3,20003d80 <cpu_wakeup_no_deepretn_back_init+0x16c>
20003c88:	80140737          	lui	a4,0x80140
20003c8c:	10471783          	lh	a5,260(a4) # 80140104 <_DATA_LMA_START+0x6013a9ac>
20003c90:	06500793          	li	a5,101
20003c94:	1ef70a23          	sb	a5,500(a4)
20003c98:	1c872783          	lw	a5,456(a4)
20003c9c:	1e070a23          	sb	zero,500(a4)
20003ca0:	8bbd                	c.andi	a5,15
20003ca2:	0037d55b          	beqc	a5,3,20003cac <cpu_wakeup_no_deepretn_back_init+0x98>
20003ca6:	4725                	c.li	a4,9
20003ca8:	10f77463          	bgeu	a4,a5,20003db0 <cpu_wakeup_no_deepretn_back_init+0x19c>
20003cac:	0000006f          	j	20003cac <cpu_wakeup_no_deepretn_back_init+0x98>
20003cb0:	04f00513          	li	a0,79
20003cb4:	dfffd097          	auipc	ra,0xdfffd
20003cb8:	098080e7          	jalr	152(ra) # d4c <analog_read_reg8>
20003cbc:	03f57593          	andi	a1,a0,63
20003cc0:	0405e593          	ori	a1,a1,64
20003cc4:	04f00513          	li	a0,79
20003cc8:	dfffd097          	auipc	ra,0xdfffd
20003ccc:	048080e7          	jalr	72(ra) # d10 <analog_write_reg8>
20003cd0:	0f600593          	li	a1,246
20003cd4:	0c600513          	li	a0,198
20003cd8:	dfffd097          	auipc	ra,0xdfffd
20003cdc:	038080e7          	jalr	56(ra) # d10 <analog_write_reg8>
20003ce0:	0f700593          	li	a1,247
20003ce4:	0c600513          	li	a0,198
20003ce8:	dfffd097          	auipc	ra,0xdfffd
20003cec:	028080e7          	jalr	40(ra) # d10 <analog_write_reg8>
20003cf0:	0cf00513          	li	a0,207
20003cf4:	dfffd097          	auipc	ra,0xdfffd
20003cf8:	058080e7          	jalr	88(ra) # d4c <analog_read_reg8>
20003cfc:	be657a5b          	bbc	a0,6,20003cf0 <cpu_wakeup_no_deepretn_back_init+0xdc>
20003d00:	0c900513          	li	a0,201
20003d04:	dfffd097          	auipc	ra,0xdfffd
20003d08:	048080e7          	jalr	72(ra) # d4c <analog_read_reg8>
20003d0c:	00a005b3          	add	a1,zero,a0
20003d10:	05100513          	li	a0,81
20003d14:	dfffd097          	auipc	ra,0xdfffd
20003d18:	ffc080e7          	jalr	-4(ra) # d10 <analog_write_reg8>
20003d1c:	0ca00513          	li	a0,202
20003d20:	dfffd097          	auipc	ra,0xdfffd
20003d24:	02c080e7          	jalr	44(ra) # d4c <analog_read_reg8>
20003d28:	00a004b3          	add	s1,zero,a0
20003d2c:	04f00513          	li	a0,79
20003d30:	dfffd097          	auipc	ra,0xdfffd
20003d34:	01c080e7          	jalr	28(ra) # d4c <analog_read_reg8>
20003d38:	fc057593          	andi	a1,a0,-64
20003d3c:	0095e5b3          	or	a1,a1,s1
20003d40:	0ff5f593          	andi	a1,a1,255
20003d44:	04f00513          	li	a0,79
20003d48:	dfffd097          	auipc	ra,0xdfffd
20003d4c:	fc8080e7          	jalr	-56(ra) # d10 <analog_write_reg8>
20003d50:	0f600593          	li	a1,246
20003d54:	0c600513          	li	a0,198
20003d58:	dfffd097          	auipc	ra,0xdfffd
20003d5c:	fb8080e7          	jalr	-72(ra) # d10 <analog_write_reg8>
20003d60:	04f00513          	li	a0,79
20003d64:	dfffd097          	auipc	ra,0xdfffd
20003d68:	fe8080e7          	jalr	-24(ra) # d4c <analog_read_reg8>
20003d6c:	03f57593          	andi	a1,a0,63
20003d70:	04f00513          	li	a0,79
20003d74:	dfffd097          	auipc	ra,0xdfffd
20003d78:	f9c080e7          	jalr	-100(ra) # d10 <analog_write_reg8>
20003d7c:	ee5ff06f          	j	20003c60 <cpu_wakeup_no_deepretn_back_init+0x4c>
20003d80:	1ff7f793          	andi	a5,a5,511
20003d84:	3e878793          	addi	a5,a5,1000
20003d88:	8325                	c.srli	a4,0x9
20003d8a:	1731                	c.addi	a4,-20
20003d8c:	12f41c23          	sh	a5,312(s0)
20003d90:	4785                	c.li	a5,1
20003d92:	12e41d23          	sh	a4,314(s0)
20003d96:	12f40ba3          	sb	a5,311(s0)
20003d9a:	b5fd                	c.j	20003c88 <cpu_wakeup_no_deepretn_back_init+0x74>
20003d9c:	00001537          	lui	a0,0x1
20003da0:	77050513          	addi	a0,a0,1904 # 1770 <sys_init.constprop.0+0x80>
20003da4:	dfffd097          	auipc	ra,0xdfffd
20003da8:	ba8080e7          	jalr	-1112(ra) # 94c <delay_us>
20003dac:	eb5ff06f          	j	20003c60 <cpu_wakeup_no_deepretn_back_init+0x4c>
20003db0:	40b2                	c.lwsp	ra,12(sp)
20003db2:	4422                	c.lwsp	s0,8(sp)
20003db4:	4492                	c.lwsp	s1,4(sp)
20003db6:	0141                	c.addi	sp,16
20003db8:	8082                	c.jr	ra
	...

20003dbc <gpio_set_up_down_res>:
20003dbc:	1101                	c.addi	sp,-32
20003dbe:	0f057793          	andi	a5,a0,240
20003dc2:	00f037b3          	snez	a5,a5
20003dc6:	cc22                	c.swsp	s0,24(sp)
20003dc8:	00855413          	srli	s0,a0,0x8
20003dcc:	0a87845b          	lea.h	s0,a5,s0
20003dd0:	0439                	c.addi	s0,14
20003dd2:	ce06                	c.swsp	ra,28(sp)
20003dd4:	ca26                	c.swsp	s1,20(sp)
20003dd6:	c84a                	c.swsp	s2,16(sp)
20003dd8:	c64e                	c.swsp	s3,12(sp)
20003dda:	01157793          	andi	a5,a0,17
20003dde:	0ff47413          	andi	s0,s0,255
20003de2:	eba9                	c.bnez	a5,20003e34 <gpio_set_up_down_res+0x78>
20003de4:	02257793          	andi	a5,a0,34
20003de8:	cf85                	c.beqz	a5,20003e20 <gpio_set_up_down_res+0x64>
20003dea:	0f300913          	li	s2,243
20003dee:	4989                	c.li	s3,2
20003df0:	8522                	c.mv	a0,s0
20003df2:	84ae                	c.mv	s1,a1
20003df4:	dfffd097          	auipc	ra,0xdfffd
20003df8:	f58080e7          	jalr	-168(ra) # d4c <analog_read_reg8>
20003dfc:	013495b3          	sll	a1,s1,s3
20003e00:	01257533          	and	a0,a0,s2
20003e04:	8dc9                	c.or	a1,a0
20003e06:	8522                	c.mv	a0,s0
20003e08:	4462                	c.lwsp	s0,24(sp)
20003e0a:	40f2                	c.lwsp	ra,28(sp)
20003e0c:	44d2                	c.lwsp	s1,20(sp)
20003e0e:	4942                	c.lwsp	s2,16(sp)
20003e10:	49b2                	c.lwsp	s3,12(sp)
20003e12:	0ff5f593          	andi	a1,a1,255
20003e16:	6105                	c.addi16sp	sp,32
20003e18:	dfffd317          	auipc	t1,0xdfffd
20003e1c:	ef830067          	jr	-264(t1) # d10 <analog_write_reg8>
20003e20:	04457793          	andi	a5,a0,68
20003e24:	ef81                	c.bnez	a5,20003e3c <gpio_set_up_down_res+0x80>
20003e26:	08857513          	andi	a0,a0,136
20003e2a:	cd09                	c.beqz	a0,20003e44 <gpio_set_up_down_res+0x88>
20003e2c:	03f00913          	li	s2,63
20003e30:	4999                	c.li	s3,6
20003e32:	bf7d                	c.j	20003df0 <gpio_set_up_down_res+0x34>
20003e34:	0fc00913          	li	s2,252
20003e38:	4981                	c.li	s3,0
20003e3a:	bf5d                	c.j	20003df0 <gpio_set_up_down_res+0x34>
20003e3c:	0cf00913          	li	s2,207
20003e40:	4991                	c.li	s3,4
20003e42:	b77d                	c.j	20003df0 <gpio_set_up_down_res+0x34>
20003e44:	40f2                	c.lwsp	ra,28(sp)
20003e46:	4462                	c.lwsp	s0,24(sp)
20003e48:	44d2                	c.lwsp	s1,20(sp)
20003e4a:	4942                	c.lwsp	s2,16(sp)
20003e4c:	49b2                	c.lwsp	s3,12(sp)
20003e4e:	6105                	c.addi16sp	sp,32
20003e50:	8082                	c.jr	ra
20003e52:	0001                	c.nop

20003e54 <hspi_set_pin_mux.part.0>:
20003e54:	1101                	c.addi	sp,-32
20003e56:	cc22                	c.swsp	s0,24(sp)
20003e58:	ce06                	c.swsp	ra,28(sp)
20003e5a:	ca26                	c.swsp	s1,20(sp)
20003e5c:	c84a                	c.swsp	s2,16(sp)
20003e5e:	c64e                	c.swsp	s3,12(sp)
20003e60:	c452                	c.swsp	s4,8(sp)
20003e62:	c256                	c.swsp	s5,4(sp)
20003e64:	842a                	c.mv	s0,a0
20003e66:	4781                	c.li	a5,0
20003e68:	4004765b          	bbs	s0,0,20003e74 <hspi_set_pin_mux.part.0+0x20>
20003e6c:	00200793          	li	a5,2
20003e70:	04147a5b          	bbc	s0,1,20003ec4 <hspi_set_pin_mux.part.0+0x70>
20003e74:	448d                	c.li	s1,3
20003e76:	00f494b3          	sll	s1,s1,a5
20003e7a:	fff4c493          	not	s1,s1
20003e7e:	11000713          	li	a4,272
20003e82:	0ff4f493          	andi	s1,s1,255
20003e86:	10e40763          	beq	s0,a4,20003f94 <hspi_set_pin_mux.part.0+0x140>
20003e8a:	14000713          	li	a4,320
20003e8e:	04e40f63          	beq	s0,a4,20003eec <hspi_set_pin_mux.part.0+0x98>
20003e92:	efc40713          	addi	a4,s0,-260
20003e96:	9b6d                	c.andi	a4,-5
20003e98:	12070c63          	beqz	a4,20003fd0 <hspi_set_pin_mux.part.0+0x17c>
20003e9c:	eff40713          	addi	a4,s0,-257
20003ea0:	4685                	c.li	a3,1
20003ea2:	1ae6f163          	bgeu	a3,a4,20004044 <hspi_set_pin_mux.part.0+0x1f0>
20003ea6:	ffe40713          	addi	a4,s0,-2
20003eaa:	9b75                	c.andi	a4,-3
20003eac:	12070663          	beqz	a4,20003fd8 <hspi_set_pin_mux.part.0+0x184>
20003eb0:	ff840713          	addi	a4,s0,-8
20003eb4:	9b5d                	c.andi	a4,-9
20003eb6:	4a01                	c.li	s4,0
20003eb8:	12070063          	beqz	a4,20003fd8 <hspi_set_pin_mux.part.0+0x184>
20003ebc:	02245a5b          	beqc	s0,2,20003ef0 <hspi_set_pin_mux.part.0+0x9c>
20003ec0:	0380006f          	j	20003ef8 <hspi_set_pin_mux.part.0+0xa4>
20003ec4:	4791                	c.li	a5,4
20003ec6:	fa24775b          	bbs	s0,2,20003e74 <hspi_set_pin_mux.part.0+0x20>
20003eca:	4799                	c.li	a5,6
20003ecc:	fa34745b          	bbs	s0,3,20003e74 <hspi_set_pin_mux.part.0+0x20>
20003ed0:	4781                	c.li	a5,0
20003ed2:	fa44715b          	bbs	s0,4,20003e74 <hspi_set_pin_mux.part.0+0x20>
20003ed6:	4789                	c.li	a5,2
20003ed8:	f8547e5b          	bbs	s0,5,20003e74 <hspi_set_pin_mux.part.0+0x20>
20003edc:	4791                	c.li	a5,4
20003ede:	f8647b5b          	bbs	s0,6,20003e74 <hspi_set_pin_mux.part.0+0x20>
20003ee2:	4799                	c.li	a5,6
20003ee4:	f874785b          	bbs	s0,7,20003e74 <hspi_set_pin_mux.part.0+0x20>
20003ee8:	4781                	c.li	a5,0
20003eea:	b769                	c.j	20003e74 <hspi_set_pin_mux.part.0+0x20>
20003eec:	00000a13          	li	s4,0
20003ef0:	458d                	c.li	a1,3
20003ef2:	8522                	c.mv	a0,s0
20003ef4:	ec9ff0ef          	jal	ra,20003dbc <gpio_set_up_down_res>
20003ef8:	6685                	c.lui	a3,0x1
20003efa:	3c0427db          	bfoz	a5,s0,15,0
20003efe:	e0068713          	addi	a4,a3,-512 # e00 <clock_init.constprop.6+0x70>
20003f02:	00845913          	srli	s2,s0,0x8
20003f06:	8f7d                	c.and	a4,a5
20003f08:	0ff47a93          	andi	s5,s0,255
20003f0c:	00391993          	slli	s3,s2,0x3
20003f10:	c751                	c.beqz	a4,20003f9c <hspi_set_pin_mux.part.0+0x148>
20003f12:	f0068693          	addi	a3,a3,-256
20003f16:	8ff5                	c.and	a5,a3
20003f18:	40000713          	li	a4,1024
20003f1c:	08e78063          	beq	a5,a4,20003f9c <hspi_set_pin_mux.part.0+0x148>
20003f20:	20000713          	li	a4,512
20003f24:	0ee78e63          	beq	a5,a4,20004020 <hspi_set_pin_mux.part.0+0x1cc>
20003f28:	30000713          	li	a4,768
20003f2c:	0ce78863          	beq	a5,a4,20003ffc <hspi_set_pin_mux.part.0+0x1a8>
20003f30:	00300793          	li	a5,3
20003f34:	0927e863          	bltu	a5,s2,20003fc4 <hspi_set_pin_mux.part.0+0x170>
20003f38:	001407b7          	lui	a5,0x140
20003f3c:	33078793          	addi	a5,a5,816 # 140330 <FLASH_SIZE+0x40330>
20003f40:	0b27895b          	lea.h	s2,a5,s2
20003f44:	0f047793          	andi	a5,s0,240
20003f48:	00f037b3          	snez	a5,a5
20003f4c:	80000637          	lui	a2,0x80000
20003f50:	97ca                	c.add	a5,s2
20003f52:	8fd1                	c.or	a5,a2
20003f54:	00078683          	lb	a3,0(a5)
20003f58:	00140737          	lui	a4,0x140
20003f5c:	30670713          	addi	a4,a4,774 # 140306 <FLASH_SIZE+0x40306>
20003f60:	974e                	c.add	a4,s3
20003f62:	8cf5                	c.and	s1,a3
20003f64:	009a64b3          	or	s1,s4,s1
20003f68:	8f51                	c.or	a4,a2
20003f6a:	00978023          	sb	s1,0(a5)
20003f6e:	00070783          	lb	a5,0(a4)
20003f72:	fff44413          	not	s0,s0
20003f76:	8c7d                	c.and	s0,a5
20003f78:	0ff47413          	andi	s0,s0,255
20003f7c:	00870023          	sb	s0,0(a4)
20003f80:	40f2                	c.lwsp	ra,28(sp)
20003f82:	4462                	c.lwsp	s0,24(sp)
20003f84:	44d2                	c.lwsp	s1,20(sp)
20003f86:	4942                	c.lwsp	s2,16(sp)
20003f88:	49b2                	c.lwsp	s3,12(sp)
20003f8a:	4a22                	c.lwsp	s4,8(sp)
20003f8c:	4a92                	c.lwsp	s5,4(sp)
20003f8e:	6105                	c.addi16sp	sp,32
20003f90:	00008067          	ret
20003f94:	4a01                	c.li	s4,0
20003f96:	49a1                	c.li	s3,8
20003f98:	4905                	c.li	s2,1
20003f9a:	4ac1                	c.li	s5,16
20003f9c:	001406b7          	lui	a3,0x140
20003fa0:	30168693          	addi	a3,a3,769 # 140301 <FLASH_SIZE+0x40301>
20003fa4:	800007b7          	lui	a5,0x80000
20003fa8:	96ce                	c.add	a3,s3
20003faa:	8edd                	c.or	a3,a5
20003fac:	00068583          	lb	a1,0(a3)
20003fb0:	00300793          	li	a5,3
20003fb4:	0ff5f593          	andi	a1,a1,255
20003fb8:	0155e5b3          	or	a1,a1,s5
20003fbc:	00b68023          	sb	a1,0(a3)
20003fc0:	f727fce3          	bgeu	a5,s2,20003f38 <hspi_set_pin_mux.part.0+0xe4>
20003fc4:	00140937          	lui	s2,0x140
20003fc8:	35090913          	addi	s2,s2,848 # 140350 <FLASH_SIZE+0x40350>
20003fcc:	f79ff06f          	j	20003f44 <hspi_set_pin_mux.part.0+0xf0>
20003fd0:	4a01                	c.li	s4,0
20003fd2:	b0245f5b          	beqc	s0,2,20003ef0 <hspi_set_pin_mux.part.0+0x9c>
20003fd6:	b70d                	c.j	20003ef8 <hspi_set_pin_mux.part.0+0xa4>
20003fd8:	801406b7          	lui	a3,0x80140
20003fdc:	35568703          	lb	a4,853(a3) # 80140355 <_DATA_LMA_START+0x6013abfd>
20003fe0:	4a09                	c.li	s4,2
20003fe2:	0ff77713          	andi	a4,a4,255
20003fe6:	00276713          	ori	a4,a4,2
20003fea:	00fa17b3          	sll	a5,s4,a5
20003fee:	34e68aa3          	sb	a4,853(a3)
20003ff2:	0ff7fa13          	andi	s4,a5,255
20003ff6:	ae245d5b          	beqc	s0,2,20003ef0 <hspi_set_pin_mux.part.0+0x9c>
20003ffa:	bdfd                	c.j	20003ef8 <hspi_set_pin_mux.part.0+0xa4>
20003ffc:	0c000513          	li	a0,192
20004000:	dfffd097          	auipc	ra,0xdfffd
20004004:	d4c080e7          	jalr	-692(ra) # d4c <analog_read_reg8>
20004008:	00aae5b3          	or	a1,s5,a0
2000400c:	0ff5f593          	andi	a1,a1,255
20004010:	0c000513          	li	a0,192
20004014:	dfffd097          	auipc	ra,0xdfffd
20004018:	cfc080e7          	jalr	-772(ra) # d10 <analog_write_reg8>
2000401c:	f15ff06f          	j	20003f30 <hspi_set_pin_mux.part.0+0xdc>
20004020:	0bd00513          	li	a0,189
20004024:	dfffd097          	auipc	ra,0xdfffd
20004028:	d28080e7          	jalr	-728(ra) # d4c <analog_read_reg8>
2000402c:	00aae5b3          	or	a1,s5,a0
20004030:	0ff5f593          	andi	a1,a1,255
20004034:	0bd00513          	li	a0,189
20004038:	dfffd097          	auipc	ra,0xdfffd
2000403c:	cd8080e7          	jalr	-808(ra) # d10 <analog_write_reg8>
20004040:	ef1ff06f          	j	20003f30 <hspi_set_pin_mux.part.0+0xdc>
20004044:	4a01                	c.li	s4,0
20004046:	bd4d                	c.j	20003ef8 <hspi_set_pin_mux.part.0+0xa4>

20004048 <main_loop>:
20004048:	711d                	c.addi16sp	sp,-96
2000404a:	da66                	c.swsp	s9,52(sp)
2000404c:	00000cb7          	lui	s9,0x0
20004050:	801407b7          	lui	a5,0x80140
20004054:	158c8c93          	addi	s9,s9,344 # 158 <_AES_VMA_END>
20004058:	ce86                	c.swsp	ra,92(sp)
2000405a:	cca2                	c.swsp	s0,88(sp)
2000405c:	caa6                	c.swsp	s1,84(sp)
2000405e:	c8ca                	c.swsp	s2,80(sp)
20004060:	c6ce                	c.swsp	s3,76(sp)
20004062:	c4d2                	c.swsp	s4,72(sp)
20004064:	c2d6                	c.swsp	s5,68(sp)
20004066:	c0da                	c.swsp	s6,64(sp)
20004068:	de5e                	c.swsp	s7,60(sp)
2000406a:	dc62                	c.swsp	s8,56(sp)
2000406c:	d86a                	c.swsp	s10,48(sp)
2000406e:	d66e                	c.swsp	s11,44(sp)
20004070:	2007a483          	lw	s1,512(a5) # 80140200 <_DATA_LMA_START+0x6013aaa8>
20004074:	238cc783          	lbu	a5,568(s9)
20004078:	10078063          	beqz	a5,20004178 <main_loop+0x130>
2000407c:	6405                	c.lui	s0,0x1
2000407e:	14cca783          	lw	a5,332(s9)
20004082:	80040413          	addi	s0,s0,-2048 # 800 <trng_rand+0x18>
20004086:	9426                	c.add	s0,s1
20004088:	40f407b3          	sub	a5,s0,a5
2000408c:	03d09737          	lui	a4,0x3d09
20004090:	0ee7f463          	bgeu	a5,a4,20004178 <main_loop+0x130>
20004094:	00a48693          	addi	a3,s1,10
20004098:	148c8a93          	addi	s5,s9,328
2000409c:	106259b7          	lui	s3,0x10625
200040a0:	03d09937          	lui	s2,0x3d09
200040a4:	c636                	c.swsp	a3,12(sp)
200040a6:	8d56                	c.mv	s10,s5
200040a8:	4a01                	c.li	s4,0
200040aa:	4d81                	c.li	s11,0
200040ac:	dd398993          	addi	s3,s3,-557 # 10624dd3 <FLASH_SIZE+0x10524dd3>
200040b0:	3e800b13          	li	s6,1000
200040b4:	0527fa63          	bgeu	a5,s2,20004108 <main_loop+0xc0>
200040b8:	000d2783          	lw	a5,0(s10)
200040bc:	c7b1                	c.beqz	a5,20004108 <main_loop+0xc0>
200040be:	9782                	c.jalr	a5
200040c0:	00a00c33          	add	s8,zero,a0
200040c4:	0c054a63          	bltz	a0,20004198 <main_loop+0x150>
200040c8:	10051863          	bnez	a0,200041d8 <main_loop+0x190>
200040cc:	008d2a03          	lw	s4,8(s10)
200040d0:	dfffc097          	auipc	ra,0xdfffc
200040d4:	718080e7          	jalr	1816(ra) # 7e8 <trng_rand>
200040d8:	03353733          	mulhu	a4,a0,s3
200040dc:	46b2                	c.lwsp	a3,12(sp)
200040de:	014687b3          	add	a5,a3,s4
200040e2:	4a05                	c.li	s4,1
200040e4:	8319                	c.srli	a4,0x6
200040e6:	c767157f          	msubr32	a0,a4,s6
200040ea:	953e                	c.add	a0,a5
200040ec:	00ad2223          	sw	a0,4(s10)
200040f0:	238cc783          	lbu	a5,568(s9)
200040f4:	0d85                	c.addi	s11,1
200040f6:	0d31                	c.addi	s10,12
200040f8:	00fdde63          	bge	s11,a5,20004114 <main_loop+0xcc>
200040fc:	004d2783          	lw	a5,4(s10)
20004100:	40f407b3          	sub	a5,s0,a5
20004104:	fb27eae3          	bltu	a5,s2,200040b8 <main_loop+0x70>
20004108:	238cc783          	lbu	a5,568(s9)
2000410c:	0d85                	c.addi	s11,1
2000410e:	0d31                	c.addi	s10,12
20004110:	fefdc6e3          	blt	s11,a5,200040fc <main_loop+0xb4>
20004114:	0e078a63          	beqz	a5,20004208 <main_loop+0x1c0>
20004118:	060a0063          	beqz	s4,20004178 <main_loop+0x130>
2000411c:	17fd                	c.addi	a5,-1
2000411e:	0ff7f693          	andi	a3,a5,255
20004122:	474d                	c.li	a4,19
20004124:	04d76a63          	bltu	a4,a3,20004178 <main_loop+0x130>
20004128:	04f05863          	blez	a5,20004178 <main_loop+0x130>
2000412c:	00f00433          	add	s0,zero,a5
20004130:	40000a37          	lui	s4,0x40000
20004134:	84d6                	c.mv	s1,s5
20004136:	4901                	c.li	s2,0
20004138:	00c0006f          	j	20004144 <main_loop+0xfc>
2000413c:	013004b3          	add	s1,zero,s3
20004140:	02895a63          	bge	s2,s0,20004174 <main_loop+0x12c>
20004144:	40dc                	c.lw	a5,4(s1)
20004146:	4898                	c.lw	a4,16(s1)
20004148:	00c48993          	addi	s3,s1,12
2000414c:	8f99                	c.sub	a5,a4
2000414e:	0905                	c.addi	s2,1
20004150:	ff47f6e3          	bgeu	a5,s4,2000413c <main_loop+0xf4>
20004154:	85a6                	c.mv	a1,s1
20004156:	4631                	c.li	a2,12
20004158:	0848                	c.addi4spn	a0,sp,20
2000415a:	2b69                	c.jal	200046f4 <memcpy>
2000415c:	4631                	c.li	a2,12
2000415e:	85ce                	c.mv	a1,s3
20004160:	8526                	c.mv	a0,s1
20004162:	2b49                	c.jal	200046f4 <memcpy>
20004164:	4631                	c.li	a2,12
20004166:	084c                	c.addi4spn	a1,sp,20
20004168:	854e                	c.mv	a0,s3
2000416a:	2369                	c.jal	200046f4 <memcpy>
2000416c:	013004b3          	add	s1,zero,s3
20004170:	fc894ae3          	blt	s2,s0,20004144 <main_loop+0xfc>
20004174:	147d                	c.addi	s0,-1
20004176:	fc5d                	c.bnez	s0,20004134 <main_loop+0xec>
20004178:	40f6                	c.lwsp	ra,92(sp)
2000417a:	4466                	c.lwsp	s0,88(sp)
2000417c:	44d6                	c.lwsp	s1,84(sp)
2000417e:	4946                	c.lwsp	s2,80(sp)
20004180:	49b6                	c.lwsp	s3,76(sp)
20004182:	4a26                	c.lwsp	s4,72(sp)
20004184:	4a96                	c.lwsp	s5,68(sp)
20004186:	4b06                	c.lwsp	s6,64(sp)
20004188:	5bf2                	c.lwsp	s7,60(sp)
2000418a:	5c62                	c.lwsp	s8,56(sp)
2000418c:	5cd2                	c.lwsp	s9,52(sp)
2000418e:	5d42                	c.lwsp	s10,48(sp)
20004190:	5db2                	c.lwsp	s11,44(sp)
20004192:	6125                	c.addi16sp	sp,96
20004194:	00008067          	ret
20004198:	238cc783          	lbu	a5,568(s9)
2000419c:	0ffdf713          	andi	a4,s11,255
200041a0:	f4f77ae3          	bgeu	a4,a5,200040f4 <main_loop+0xac>
200041a4:	17fd                	c.addi	a5,-1
200041a6:	02fdd363          	bge	s11,a5,200041cc <main_loop+0x184>
200041aa:	8bd6                	c.mv	s7,s5
200041ac:	46b1                	c.li	a3,12
200041ae:	c4dd9bff          	maddr32	s7,s11,a3
200041b2:	8c6e                	c.mv	s8,s11
200041b4:	855e                	c.mv	a0,s7
200041b6:	0bb1                	c.addi	s7,12
200041b8:	4631                	c.li	a2,12
200041ba:	85de                	c.mv	a1,s7
200041bc:	538000ef          	jal	ra,200046f4 <memcpy>
200041c0:	238cc783          	lbu	a5,568(s9)
200041c4:	0c05                	c.addi	s8,1
200041c6:	17fd                	c.addi	a5,-1
200041c8:	fefc46e3          	blt	s8,a5,200041b4 <main_loop+0x16c>
200041cc:	0ff7f793          	andi	a5,a5,255
200041d0:	22fc8c23          	sb	a5,568(s9)
200041d4:	f21ff06f          	j	200040f4 <main_loop+0xac>
200041d8:	dfffc097          	auipc	ra,0xdfffc
200041dc:	610080e7          	jalr	1552(ra) # 7e8 <trng_rand>
200041e0:	03353733          	mulhu	a4,a0,s3
200041e4:	00ac0793          	addi	a5,s8,10
200041e8:	4a05                	c.li	s4,1
200041ea:	8319                	c.srli	a4,0x6
200041ec:	c767157f          	msubr32	a0,a4,s6
200041f0:	97aa                	c.add	a5,a0
200041f2:	0792                	c.slli	a5,0x4
200041f4:	00f48733          	add	a4,s1,a5
200041f8:	00fd2423          	sw	a5,8(s10)
200041fc:	00ed2223          	sw	a4,4(s10)
20004200:	238cc783          	lbu	a5,568(s9)
20004204:	f09ff06f          	j	2000410c <main_loop+0xc4>
20004208:	20005537          	lui	a0,0x20005
2000420c:	4c850513          	addi	a0,a0,1224 # 200054c8 <__FUNCTION__.13158+0x38>
20004210:	688000ef          	jal	ra,20004898 <printf>
20004214:	20005437          	lui	s0,0x20005
20004218:	02f00593          	li	a1,47
2000421c:	4a440513          	addi	a0,s0,1188 # 200054a4 <__FUNCTION__.13158+0x14>
20004220:	696000ef          	jal	ra,200048b6 <strrchr>
20004224:	4a440593          	addi	a1,s0,1188
20004228:	c901                	c.beqz	a0,20004238 <main_loop+0x1f0>
2000422a:	02f00593          	li	a1,47
2000422e:	4a440513          	addi	a0,s0,1188
20004232:	2551                	c.jal	200048b6 <strrchr>
20004234:	00150593          	addi	a1,a0,1
20004238:	20005637          	lui	a2,0x20005
2000423c:	20005537          	lui	a0,0x20005
20004240:	0e000693          	li	a3,224
20004244:	47860613          	addi	a2,a2,1144 # 20005478 <__FUNCTION__.13001>
20004248:	4d050513          	addi	a0,a0,1232 # 200054d0 <__FUNCTION__.13158+0x40>
2000424c:	64c000ef          	jal	ra,20004898 <printf>
20004250:	20005537          	lui	a0,0x20005
20004254:	54050513          	addi	a0,a0,1344 # 20005540 <__FUNCTION__.13158+0xb0>
20004258:	640000ef          	jal	ra,20004898 <printf>
2000425c:	bf31                	c.j	20004178 <main_loop+0x130>
2000425e:	0001                	c.nop

20004260 <flash_unlock_mid146085>:
20004260:	1101                	c.addi	sp,-32
20004262:	4515                	c.li	a0,5
20004264:	ce06                	c.swsp	ra,28(sp)
20004266:	cc22                	c.swsp	s0,24(sp)
20004268:	bd8ff0ef          	jal	ra,20003640 <flash_read_status>
2000426c:	00a00433          	add	s0,zero,a0
20004270:	03500513          	li	a0,53
20004274:	bccff0ef          	jal	ra,20003640 <flash_read_status>
20004278:	77f1                	c.lui	a5,0xffffc
2000427a:	0522                	c.slli	a0,0x8
2000427c:	8d41                	c.or	a0,s0
2000427e:	f8378793          	addi	a5,a5,-125 # ffffbf83 <_DATA_LMA_START+0xdfff682b>
20004282:	8d7d                	c.and	a0,a5
20004284:	3c05255b          	bfoz	a0,a0,15,0
20004288:	00855793          	srli	a5,a0,0x8
2000428c:	00a10623          	sb	a0,12(sp)
20004290:	00f106a3          	sb	a5,13(sp)
20004294:	7d047073          	csrci	mmisc_ctl,8
20004298:	4709                	c.li	a4,2
2000429a:	0074                	c.addi4spn	a3,sp,12
2000429c:	4601                	c.li	a2,0
2000429e:	4581                	c.li	a1,0
200042a0:	00100513          	li	a0,1
200042a4:	dfffd097          	auipc	ra,0xdfffd
200042a8:	904080e7          	jalr	-1788(ra) # ba8 <flash_mspi_write_ram>
200042ac:	7d046073          	csrsi	mmisc_ctl,8
200042b0:	40f2                	c.lwsp	ra,28(sp)
200042b2:	4462                	c.lwsp	s0,24(sp)
200042b4:	6105                	c.addi16sp	sp,32
200042b6:	8082                	c.jr	ra
200042b8:	0001                	c.nop
	...

200042bc <fw_copy>:
200042bc:	b8010113          	addi	sp,sp,-1152
200042c0:	46912a23          	sw	s1,1140(sp)
200042c4:	46812c23          	sw	s0,1144(sp)
200042c8:	47212823          	sw	s2,1136(sp)
200042cc:	842a                	c.mv	s0,a0
200042ce:	892e                	c.mv	s2,a1
200042d0:	4641                	c.li	a2,16
200042d2:	0ff00593          	li	a1,255
200042d6:	835f950b          	addigp	a0,-1996 # 80034 <crc128>
200042da:	46112e23          	sw	ra,1148(sp)
200042de:	47312623          	sw	s3,1132(sp)
200042e2:	47412423          	sw	s4,1128(sp)
200042e6:	47512223          	sw	s5,1124(sp)
200042ea:	47612023          	sw	s6,1120(sp)
200042ee:	45712e23          	sw	s7,1116(sp)
200042f2:	45812c23          	sw	s8,1112(sp)
200042f6:	45912a23          	sw	s9,1108(sp)
200042fa:	45a12823          	sw	s10,1104(sp)
200042fe:	45b12623          	sw	s11,1100(sp)
20004302:	d402                	c.swsp	zero,40(sp)
20004304:	d602                	c.swsp	zero,44(sp)
20004306:	d802                	c.swsp	zero,48(sp)
20004308:	da02                	c.swsp	zero,52(sp)
2000430a:	dc02                	c.swsp	zero,56(sp)
2000430c:	02011e23          	sh	zero,60(sp)
20004310:	02010f23          	sb	zero,62(sp)
20004314:	4da000ef          	jal	ra,200047ee <memset>
20004318:	00342783          	lw	a5,3(s0)
2000431c:	c3d1                	c.beqz	a5,200043a0 <fw_copy+0xe4>
2000431e:	20005d37          	lui	s10,0x20005
20004322:	4b01                	c.li	s6,0
20004324:	04010c93          	addi	s9,sp,64
20004328:	468d0d13          	addi	s10,s10,1128 # 20005468 <__riscv_restore_0+0xc>
2000432c:	01810c13          	addi	s8,sp,24
20004330:	05010a93          	addi	s5,sp,80
20004334:	835f998b          	addigp	s3,-1996 # 80034 <crc128>
20004338:	845f9a0b          	addigp	s4,-1980 # 80044 <crc128+0x10>
2000433c:	4641                	c.li	a2,16
2000433e:	016905b3          	add	a1,s2,s6
20004342:	8566                	c.mv	a0,s9
20004344:	d98ff0ef          	jal	ra,200038dc <W25XXX_Read>
20004348:	000d2803          	lw	a6,0(s10)
2000434c:	004d2503          	lw	a0,4(s10)
20004350:	008d2583          	lw	a1,8(s10)
20004354:	00cd2703          	lw	a4,12(s10)
20004358:	86e6                	c.mv	a3,s9
2000435a:	8662                	c.mv	a2,s8
2000435c:	87e6                	c.mv	a5,s9
2000435e:	cc42                	c.swsp	a6,24(sp)
20004360:	ce2a                	c.swsp	a0,28(sp)
20004362:	d02e                	c.swsp	a1,32(sp)
20004364:	02e12223          	sw	a4,36(sp)
20004368:	00078703          	lb	a4,0(a5)
2000436c:	00060583          	lb	a1,0(a2)
20004370:	0785                	c.addi	a5,1
20004372:	8f2d                	c.xor	a4,a1
20004374:	fee78fa3          	sb	a4,-1(a5)
20004378:	0605                	c.addi	a2,1
2000437a:	ff5797e3          	bne	a5,s5,20004368 <fw_copy+0xac>
2000437e:	87ce                	c.mv	a5,s3
20004380:	00078703          	lb	a4,0(a5)
20004384:	00068603          	lb	a2,0(a3)
20004388:	0785                	c.addi	a5,1
2000438a:	8f31                	c.xor	a4,a2
2000438c:	fee78fa3          	sb	a4,-1(a5)
20004390:	0685                	c.addi	a3,1
20004392:	ff4797e3          	bne	a5,s4,20004380 <fw_copy+0xc4>
20004396:	00342783          	lw	a5,3(s0)
2000439a:	0b41                	c.addi	s6,16
2000439c:	fafb60e3          	bltu	s6,a5,2000433c <fw_copy+0x80>
200043a0:	00740513          	addi	a0,s0,7
200043a4:	c22a                	c.swsp	a0,4(sp)
200043a6:	85aa                	c.mv	a1,a0
200043a8:	4641                	c.li	a2,16
200043aa:	835f950b          	addigp	a0,-1996 # 80034 <crc128>
200043ae:	2cdd                	c.jal	200046a4 <memcmp>
200043b0:	04050063          	beqz	a0,200043f0 <fw_copy+0x134>
200043b4:	47c12083          	lw	ra,1148(sp)
200043b8:	47812403          	lw	s0,1144(sp)
200043bc:	47412483          	lw	s1,1140(sp)
200043c0:	47012903          	lw	s2,1136(sp)
200043c4:	46c12983          	lw	s3,1132(sp)
200043c8:	46812a03          	lw	s4,1128(sp)
200043cc:	46412a83          	lw	s5,1124(sp)
200043d0:	46012b03          	lw	s6,1120(sp)
200043d4:	45c12b83          	lw	s7,1116(sp)
200043d8:	45812c03          	lw	s8,1112(sp)
200043dc:	45412c83          	lw	s9,1108(sp)
200043e0:	45012d03          	lw	s10,1104(sp)
200043e4:	44c12d83          	lw	s11,1100(sp)
200043e8:	48010113          	addi	sp,sp,1152
200043ec:	00008067          	ret
200043f0:	a80ff0ef          	jal	ra,20003670 <flash_read_mid>
200043f4:	200109b7          	lui	s3,0x20010
200043f8:	6a85                	c.lui	s5,0x1
200043fa:	20060a37          	lui	s4,0x20060
200043fe:	358d                	c.jal	20004260 <flash_unlock_mid146085>
20004400:	854e                	c.mv	a0,s3
20004402:	99d6                	c.add	s3,s5
20004404:	b20ff0ef          	jal	ra,20003724 <flash_erase_sector>
20004408:	ff499ce3          	bne	s3,s4,20004400 <fw_copy+0x144>
2000440c:	00342e03          	lw	t3,3(s0)
20004410:	00ae5993          	srli	s3,t3,0xa
20004414:	87f2                	c.mv	a5,t3
20004416:	0a098563          	beqz	s3,200044c0 <fw_copy+0x204>
2000441a:	00a99a13          	slli	s4,s3,0xa
2000441e:	20005d37          	lui	s10,0x20005
20004422:	00000837          	lui	a6,0x0
20004426:	20010ab7          	lui	s5,0x20010
2000442a:	012a0533          	add	a0,s4,s2
2000442e:	04010c93          	addi	s9,sp,64
20004432:	8a4a                	c.mv	s4,s2
20004434:	468d0d13          	addi	s10,s10,1128 # 20005468 <__riscv_restore_0+0xc>
20004438:	01810c13          	addi	s8,sp,24
2000443c:	02810b93          	addi	s7,sp,40
20004440:	15880b13          	addi	s6,a6,344 # 158 <_AES_VMA_END>
20004444:	44010d93          	addi	s11,sp,1088
20004448:	412a8ab3          	sub	s5,s5,s2
2000444c:	00a12423          	sw	a0,8(sp)
20004450:	85d2                	c.mv	a1,s4
20004452:	8566                	c.mv	a0,s9
20004454:	40000613          	li	a2,1024
20004458:	01c12623          	sw	t3,12(sp)
2000445c:	c80ff0ef          	jal	ra,200038dc <W25XXX_Read>
20004460:	000d2f03          	lw	t5,0(s10)
20004464:	004d2303          	lw	t1,4(s10)
20004468:	008d2883          	lw	a7,8(s10)
2000446c:	00cd2503          	lw	a0,12(s10)
20004470:	4e32                	c.lwsp	t3,12(sp)
20004472:	85e6                	c.mv	a1,s9
20004474:	8762                	c.mv	a4,s8
20004476:	87ae                	c.mv	a5,a1
20004478:	cc7a                	c.swsp	t5,24(sp)
2000447a:	ce1a                	c.swsp	t1,28(sp)
2000447c:	d046                	c.swsp	a7,32(sp)
2000447e:	d22a                	c.swsp	a0,36(sp)
20004480:	00078683          	lb	a3,0(a5)
20004484:	00070603          	lb	a2,0(a4) # 3d09000 <FLASH_SIZE+0x3c09000>
20004488:	0785                	c.addi	a5,1
2000448a:	8eb1                	c.xor	a3,a2
2000448c:	0705                	c.addi	a4,1
2000448e:	fed78fa3          	sb	a3,-1(a5)
20004492:	feeb97e3          	bne	s7,a4,20004480 <fw_copy+0x1c4>
20004496:	05c1                	c.addi	a1,16
20004498:	fcbd9ee3          	bne	s11,a1,20004474 <fw_copy+0x1b8>
2000449c:	23cb2783          	lw	a5,572(s6)
200044a0:	014a8533          	add	a0,s5,s4
200044a4:	8666                	c.mv	a2,s9
200044a6:	40000593          	li	a1,1024
200044aa:	c672                	c.swsp	t3,12(sp)
200044ac:	9782                	c.jalr	a5
200044ae:	4522                	c.lwsp	a0,8(sp)
200044b0:	400a0a13          	addi	s4,s4,1024 # 20060400 <_DATA_LMA_START+0x5aca8>
200044b4:	00c12e03          	lw	t3,12(sp)
200044b8:	f9451ce3          	bne	a0,s4,20004450 <fw_copy+0x194>
200044bc:	00342783          	lw	a5,3(s0)
200044c0:	3ff7f793          	andi	a5,a5,1023
200044c4:	10079863          	bnez	a5,200045d4 <fw_copy+0x318>
200044c8:	4641                	c.li	a2,16
200044ca:	0ff00593          	li	a1,255
200044ce:	835f950b          	addigp	a0,-1996 # 80034 <crc128>
200044d2:	2e31                	c.jal	200047ee <memset>
200044d4:	00342783          	lw	a5,3(s0)
200044d8:	cbc1                	c.beqz	a5,20004568 <fw_copy+0x2ac>
200044da:	20005d37          	lui	s10,0x20005
200044de:	00000837          	lui	a6,0x0
200044e2:	4901                	c.li	s2,0
200044e4:	04010c93          	addi	s9,sp,64
200044e8:	468d0d13          	addi	s10,s10,1128 # 20005468 <__riscv_restore_0+0xc>
200044ec:	01810c13          	addi	s8,sp,24
200044f0:	05010a93          	addi	s5,sp,80
200044f4:	835f998b          	addigp	s3,-1996 # 80034 <crc128>
200044f8:	845f9a0b          	addigp	s4,-1980 # 80044 <crc128+0x10>
200044fc:	15880b13          	addi	s6,a6,344 # 158 <_AES_VMA_END>
20004500:	20010bb7          	lui	s7,0x20010
20004504:	240b2783          	lw	a5,576(s6)
20004508:	8666                	c.mv	a2,s9
2000450a:	45c1                	c.li	a1,16
2000450c:	01790533          	add	a0,s2,s7
20004510:	9782                	c.jalr	a5
20004512:	000d2883          	lw	a7,0(s10)
20004516:	004d2503          	lw	a0,4(s10)
2000451a:	008d2583          	lw	a1,8(s10)
2000451e:	00cd2703          	lw	a4,12(s10)
20004522:	86e6                	c.mv	a3,s9
20004524:	8662                	c.mv	a2,s8
20004526:	87e6                	c.mv	a5,s9
20004528:	cc46                	c.swsp	a7,24(sp)
2000452a:	ce2a                	c.swsp	a0,28(sp)
2000452c:	d02e                	c.swsp	a1,32(sp)
2000452e:	d23a                	c.swsp	a4,36(sp)
20004530:	00078703          	lb	a4,0(a5)
20004534:	00060583          	lb	a1,0(a2)
20004538:	0785                	c.addi	a5,1
2000453a:	8f2d                	c.xor	a4,a1
2000453c:	fee78fa3          	sb	a4,-1(a5)
20004540:	0605                	c.addi	a2,1
20004542:	fefa97e3          	bne	s5,a5,20004530 <fw_copy+0x274>
20004546:	87ce                	c.mv	a5,s3
20004548:	00078703          	lb	a4,0(a5)
2000454c:	00068603          	lb	a2,0(a3)
20004550:	0785                	c.addi	a5,1
20004552:	8f31                	c.xor	a4,a2
20004554:	fee78fa3          	sb	a4,-1(a5)
20004558:	0685                	c.addi	a3,1
2000455a:	fefa17e3          	bne	s4,a5,20004548 <fw_copy+0x28c>
2000455e:	00342783          	lw	a5,3(s0)
20004562:	0941                	c.addi	s2,16
20004564:	faf960e3          	bltu	s2,a5,20004504 <fw_copy+0x248>
20004568:	4592                	c.lwsp	a1,4(sp)
2000456a:	4641                	c.li	a2,16
2000456c:	835f950b          	addigp	a0,-1996 # 80034 <crc128>
20004570:	134000ef          	jal	ra,200046a4 <memcmp>
20004574:	e40510e3          	bnez	a0,200043b4 <fw_copy+0xf8>
20004578:	00040803          	lb	a6,0(s0)
2000457c:	00140683          	lb	a3,1(s0)
20004580:	00240703          	lb	a4,2(s0)
20004584:	00342783          	lw	a5,3(s0)
20004588:	835f958b          	addigp	a1,-1996 # 80034 <crc128>
2000458c:	4641                	c.li	a2,16
2000458e:	02f10513          	addi	a0,sp,47
20004592:	03010423          	sb	a6,40(sp)
20004596:	02d104a3          	sb	a3,41(sp)
2000459a:	02e10523          	sb	a4,42(sp)
2000459e:	02f125a3          	sw	a5,43(sp)
200045a2:	2a89                	c.jal	200046f4 <memcpy>
200045a4:	2000f537          	lui	a0,0x2000f
200045a8:	97cff0ef          	jal	ra,20003724 <flash_erase_sector>
200045ac:	000007b7          	lui	a5,0x0
200045b0:	3947a783          	lw	a5,916(a5) # 394 <flash_write_page>
200045b4:	1030                	c.addi4spn	a2,sp,40
200045b6:	45dd                	c.li	a1,23
200045b8:	2000f537          	lui	a0,0x2000f
200045bc:	000780e7          	jalr	a5
200045c0:	300027f3          	csrr	a5,mstatus
200045c4:	0037f45b          	bbc	a5,3,200045cc <fw_copy+0x310>
200045c8:	300477f3          	csrrci	a5,mstatus,8
200045cc:	200107b7          	lui	a5,0x20010
200045d0:	9782                	c.jalr	a5
200045d2:	b3cd                	c.j	200043b4 <fw_copy+0xf8>
200045d4:	c00e7593          	andi	a1,t3,-1024
200045d8:	04010c93          	addi	s9,sp,64
200045dc:	95ca                	c.add	a1,s2
200045de:	8566                	c.mv	a0,s9
200045e0:	40000613          	li	a2,1024
200045e4:	20005d37          	lui	s10,0x20005
200045e8:	af4ff0ef          	jal	ra,200038dc <W25XXX_Read>
200045ec:	468d0d13          	addi	s10,s10,1128 # 20005468 <__riscv_restore_0+0xc>
200045f0:	000d2e03          	lw	t3,0(s10)
200045f4:	004d2303          	lw	t1,4(s10)
200045f8:	008d2883          	lw	a7,8(s10)
200045fc:	00cd2803          	lw	a6,12(s10)
20004600:	019005b3          	add	a1,zero,s9
20004604:	44010513          	addi	a0,sp,1088
20004608:	01810c13          	addi	s8,sp,24
2000460c:	02810b93          	addi	s7,sp,40
20004610:	8762                	c.mv	a4,s8
20004612:	87ae                	c.mv	a5,a1
20004614:	cc72                	c.swsp	t3,24(sp)
20004616:	ce1a                	c.swsp	t1,28(sp)
20004618:	d046                	c.swsp	a7,32(sp)
2000461a:	d242                	c.swsp	a6,36(sp)
2000461c:	00078683          	lb	a3,0(a5) # 20010000 <_DATA_LMA_START+0xa8a8>
20004620:	00070603          	lb	a2,0(a4)
20004624:	0785                	c.addi	a5,1
20004626:	8eb1                	c.xor	a3,a2
20004628:	0705                	c.addi	a4,1
2000462a:	fed78fa3          	sb	a3,-1(a5)
2000462e:	feeb97e3          	bne	s7,a4,2000461c <fw_copy+0x360>
20004632:	05c1                	c.addi	a1,16
20004634:	fca59ee3          	bne	a1,a0,20004610 <fw_copy+0x354>
20004638:	00080537          	lui	a0,0x80
2000463c:	00000b37          	lui	s6,0x0
20004640:	04050513          	addi	a0,a0,64 # 80040 <crc128+0xc>
20004644:	954e                	c.add	a0,s3
20004646:	394b2783          	lw	a5,916(s6) # 394 <flash_write_page>
2000464a:	8666                	c.mv	a2,s9
2000464c:	40000593          	li	a1,1024
20004650:	052a                	c.slli	a0,0xa
20004652:	9782                	c.jalr	a5
20004654:	bd95                	c.j	200044c8 <fw_copy+0x20c>
	...

20004658 <_write>:
20004658:	1141                	c.addi	sp,-16
2000465a:	c606                	c.swsp	ra,12(sp)
2000465c:	c422                	c.swsp	s0,8(sp)
2000465e:	c226                	c.swsp	s1,4(sp)
20004660:	c04a                	c.swsp	s2,0(sp)
20004662:	02c05963          	blez	a2,20004694 <_write+0x3c>
20004666:	8932                	c.mv	s2,a2
20004668:	00b00433          	add	s0,zero,a1
2000466c:	00c584b3          	add	s1,a1,a2
20004670:	00044503          	lbu	a0,0(s0)
20004674:	00140413          	addi	s0,s0,1
20004678:	dfffd097          	auipc	ra,0xdfffd
2000467c:	fa0080e7          	jalr	-96(ra) # 1618 <dr_putchar>
20004680:	fe9418e3          	bne	s0,s1,20004670 <_write+0x18>
20004684:	40b2                	c.lwsp	ra,12(sp)
20004686:	4422                	c.lwsp	s0,8(sp)
20004688:	854a                	c.mv	a0,s2
2000468a:	4492                	c.lwsp	s1,4(sp)
2000468c:	4902                	c.lwsp	s2,0(sp)
2000468e:	0141                	c.addi	sp,16
20004690:	00008067          	ret
20004694:	40b2                	c.lwsp	ra,12(sp)
20004696:	4422                	c.lwsp	s0,8(sp)
20004698:	4901                	c.li	s2,0
2000469a:	854a                	c.mv	a0,s2
2000469c:	4492                	c.lwsp	s1,4(sp)
2000469e:	4902                	c.lwsp	s2,0(sp)
200046a0:	0141                	c.addi	sp,16
200046a2:	8082                	c.jr	ra

200046a4 <memcmp>:
200046a4:	00b567b3          	or	a5,a0,a1
200046a8:	8b8d                	c.andi	a5,3
200046aa:	e39d                	c.bnez	a5,200046d0 <memcmp+0x2c>
200046ac:	00265793          	srli	a5,a2,0x2
200046b0:	c385                	c.beqz	a5,200046d0 <memcmp+0x2c>
200046b2:	078a                	c.slli	a5,0x2
200046b4:	97aa                	c.add	a5,a0
200046b6:	8a0d                	c.andi	a2,3
200046b8:	4114                	c.lw	a3,0(a0)
200046ba:	0511                	c.addi	a0,4
200046bc:	4198                	c.lw	a4,0(a1)
200046be:	0591                	c.addi	a1,4
200046c0:	00e69563          	bne	a3,a4,200046ca <memcmp+0x26>
200046c4:	fef51ae3          	bne	a0,a5,200046b8 <memcmp+0x14>
200046c8:	a021                	c.j	200046d0 <memcmp+0x2c>
200046ca:	1571                	c.addi	a0,-4
200046cc:	15f1                	c.addi	a1,-4
200046ce:	0611                	c.addi	a2,4
200046d0:	00c507b3          	add	a5,a0,a2
200046d4:	00f50d63          	beq	a0,a5,200046ee <memcmp+0x4a>
200046d8:	00054683          	lbu	a3,0(a0)
200046dc:	0505                	c.addi	a0,1
200046de:	0005c703          	lbu	a4,0(a1) # 81000 <__global_pointer$+0x800>
200046e2:	0585                	c.addi	a1,1
200046e4:	fee688e3          	beq	a3,a4,200046d4 <memcmp+0x30>
200046e8:	40e68533          	sub	a0,a3,a4
200046ec:	8082                	c.jr	ra
200046ee:	4501                	c.li	a0,0
200046f0:	8082                	c.jr	ra
	...

200046f4 <memcpy>:
200046f4:	00a5c7b3          	xor	a5,a1,a0
200046f8:	8b8d                	c.andi	a5,3
200046fa:	00c508b3          	add	a7,a0,a2
200046fe:	ebb9                	c.bnez	a5,20004754 <memcpy+0x60>
20004700:	478d                	c.li	a5,3
20004702:	04c7f963          	bgeu	a5,a2,20004754 <memcpy+0x60>
20004706:	00357713          	andi	a4,a0,3
2000470a:	87aa                	c.mv	a5,a0
2000470c:	06071263          	bnez	a4,20004770 <memcpy+0x7c>
20004710:	ffc8f813          	andi	a6,a7,-4
20004714:	40f806b3          	sub	a3,a6,a5
20004718:	02000713          	li	a4,32
2000471c:	02000393          	li	t2,32
20004720:	06d74c63          	blt	a4,a3,20004798 <memcpy+0xa4>
20004724:	0307f463          	bgeu	a5,a6,2000474c <memcpy+0x58>
20004728:	86ae                	c.mv	a3,a1
2000472a:	873e                	c.mv	a4,a5
2000472c:	4290                	c.lw	a2,0(a3)
2000472e:	0711                	c.addi	a4,4
20004730:	fec72e23          	sw	a2,-4(a4)
20004734:	0691                	c.addi	a3,4
20004736:	ff076be3          	bltu	a4,a6,2000472c <memcpy+0x38>
2000473a:	fff7c713          	not	a4,a5
2000473e:	983a                	c.add	a6,a4
20004740:	ffc87813          	andi	a6,a6,-4
20004744:	0811                	c.addi	a6,4
20004746:	97c2                	c.add	a5,a6
20004748:	010585b3          	add	a1,a1,a6
2000474c:	0117e863          	bltu	a5,a7,2000475c <memcpy+0x68>
20004750:	00008067          	ret
20004754:	ff157ee3          	bgeu	a0,a7,20004750 <memcpy+0x5c>
20004758:	00a007b3          	add	a5,zero,a0
2000475c:	0005c703          	lbu	a4,0(a1)
20004760:	0785                	c.addi	a5,1
20004762:	fee78fa3          	sb	a4,-1(a5)
20004766:	0585                	c.addi	a1,1
20004768:	ff17eae3          	bltu	a5,a7,2000475c <memcpy+0x68>
2000476c:	00008067          	ret
20004770:	0005c703          	lbu	a4,0(a1)
20004774:	0785                	c.addi	a5,1
20004776:	fee78fa3          	sb	a4,-1(a5)
2000477a:	0037f713          	andi	a4,a5,3
2000477e:	0585                	c.addi	a1,1
20004780:	db41                	c.beqz	a4,20004710 <memcpy+0x1c>
20004782:	0005c703          	lbu	a4,0(a1)
20004786:	0785                	c.addi	a5,1
20004788:	fee78fa3          	sb	a4,-1(a5)
2000478c:	0037f713          	andi	a4,a5,3
20004790:	0585                	c.addi	a1,1
20004792:	ff79                	c.bnez	a4,20004770 <memcpy+0x7c>
20004794:	f7dff06f          	j	20004710 <memcpy+0x1c>
20004798:	4dd8                	c.lw	a4,28(a1)
2000479a:	0005a283          	lw	t0,0(a1)
2000479e:	0045af83          	lw	t6,4(a1)
200047a2:	0085af03          	lw	t5,8(a1)
200047a6:	00c5ae83          	lw	t4,12(a1)
200047aa:	0105ae03          	lw	t3,16(a1)
200047ae:	0145a303          	lw	t1,20(a1)
200047b2:	4d90                	c.lw	a2,24(a1)
200047b4:	02458593          	addi	a1,a1,36
200047b8:	ffc5a683          	lw	a3,-4(a1)
200047bc:	02478793          	addi	a5,a5,36
200047c0:	fee7ac23          	sw	a4,-8(a5)
200047c4:	fc57ae23          	sw	t0,-36(a5)
200047c8:	fff7a023          	sw	t6,-32(a5)
200047cc:	ffe7a223          	sw	t5,-28(a5)
200047d0:	ffd7a423          	sw	t4,-24(a5)
200047d4:	ffc7a623          	sw	t3,-20(a5)
200047d8:	fe67a823          	sw	t1,-16(a5)
200047dc:	fec7aa23          	sw	a2,-12(a5)
200047e0:	40f80733          	sub	a4,a6,a5
200047e4:	fed7ae23          	sw	a3,-4(a5)
200047e8:	fae3c8e3          	blt	t2,a4,20004798 <memcpy+0xa4>
200047ec:	bf25                	c.j	20004724 <memcpy+0x30>

200047ee <memset>:
200047ee:	433d                	c.li	t1,15
200047f0:	872a                	c.mv	a4,a0
200047f2:	02c37363          	bgeu	t1,a2,20004818 <memset+0x2a>
200047f6:	00f77793          	andi	a5,a4,15
200047fa:	e3c1                	c.bnez	a5,2000487a <memset+0x8c>
200047fc:	e5b5                	c.bnez	a1,20004868 <memset+0x7a>
200047fe:	ff067693          	andi	a3,a2,-16
20004802:	8a3d                	c.andi	a2,15
20004804:	96ba                	c.add	a3,a4
20004806:	c30c                	c.sw	a1,0(a4)
20004808:	c34c                	c.sw	a1,4(a4)
2000480a:	c70c                	c.sw	a1,8(a4)
2000480c:	c74c                	c.sw	a1,12(a4)
2000480e:	0741                	c.addi	a4,16
20004810:	fed76be3          	bltu	a4,a3,20004806 <memset+0x18>
20004814:	e211                	c.bnez	a2,20004818 <memset+0x2a>
20004816:	8082                	c.jr	ra
20004818:	40c306b3          	sub	a3,t1,a2
2000481c:	068a                	c.slli	a3,0x2
2000481e:	00000297          	auipc	t0,0x0
20004822:	005686b3          	add	a3,a3,t0
20004826:	00c68067          	jr	12(a3)
2000482a:	00b70723          	sb	a1,14(a4)
2000482e:	00b706a3          	sb	a1,13(a4)
20004832:	00b70623          	sb	a1,12(a4)
20004836:	00b705a3          	sb	a1,11(a4)
2000483a:	00b70523          	sb	a1,10(a4)
2000483e:	00b704a3          	sb	a1,9(a4)
20004842:	00b70423          	sb	a1,8(a4)
20004846:	00b703a3          	sb	a1,7(a4)
2000484a:	00b70323          	sb	a1,6(a4)
2000484e:	00b702a3          	sb	a1,5(a4)
20004852:	00b70223          	sb	a1,4(a4)
20004856:	00b701a3          	sb	a1,3(a4)
2000485a:	00b70123          	sb	a1,2(a4)
2000485e:	00b700a3          	sb	a1,1(a4)
20004862:	00b70023          	sb	a1,0(a4)
20004866:	8082                	c.jr	ra
20004868:	0ff5f593          	andi	a1,a1,255
2000486c:	00859693          	slli	a3,a1,0x8
20004870:	8dd5                	c.or	a1,a3
20004872:	01059693          	slli	a3,a1,0x10
20004876:	8dd5                	c.or	a1,a3
20004878:	b759                	c.j	200047fe <memset+0x10>
2000487a:	00279693          	slli	a3,a5,0x2
2000487e:	00000297          	auipc	t0,0x0
20004882:	9696                	c.add	a3,t0
20004884:	8286                	c.mv	t0,ra
20004886:	fa8680e7          	jalr	-88(a3)
2000488a:	8096                	c.mv	ra,t0
2000488c:	17c1                	c.addi	a5,-16
2000488e:	8f1d                	c.sub	a4,a5
20004890:	963e                	c.add	a2,a5
20004892:	f8c373e3          	bgeu	t1,a2,20004818 <memset+0x2a>
20004896:	b79d                	c.j	200047fc <memset+0xe>

20004898 <printf>:
20004898:	7139                	c.addi16sp	sp,-64
2000489a:	d22e                	c.swsp	a1,36(sp)
2000489c:	104c                	c.addi4spn	a1,sp,36
2000489e:	ce06                	c.swsp	ra,28(sp)
200048a0:	d432                	c.swsp	a2,40(sp)
200048a2:	d636                	c.swsp	a3,44(sp)
200048a4:	d83a                	c.swsp	a4,48(sp)
200048a6:	da3e                	c.swsp	a5,52(sp)
200048a8:	dc42                	c.swsp	a6,56(sp)
200048aa:	de46                	c.swsp	a7,60(sp)
200048ac:	c62e                	c.swsp	a1,12(sp)
200048ae:	20b5                	c.jal	2000491a <vprintf>
200048b0:	40f2                	c.lwsp	ra,28(sp)
200048b2:	6121                	c.addi16sp	sp,64
200048b4:	8082                	c.jr	ra

200048b6 <strrchr>:
200048b6:	383002ef          	jal	t0,20005438 <__riscv_save_0>
200048ba:	e185                	c.bnez	a1,200048da <strrchr+0x24>
200048bc:	221000ef          	jal	ra,200052dc <strchr>
200048c0:	842a                	c.mv	s0,a0
200048c2:	a809                	c.j	200048d4 <strrchr+0x1e>
200048c4:	00150793          	addi	a5,a0,1
200048c8:	842a                	c.mv	s0,a0
200048ca:	85a6                	c.mv	a1,s1
200048cc:	853e                	c.mv	a0,a5
200048ce:	20f000ef          	jal	ra,200052dc <strchr>
200048d2:	f96d                	c.bnez	a0,200048c4 <strrchr+0xe>
200048d4:	8522                	c.mv	a0,s0
200048d6:	3870006f          	j	2000545c <__riscv_restore_0>
200048da:	87aa                	c.mv	a5,a0
200048dc:	84ae                	c.mv	s1,a1
200048de:	4401                	c.li	s0,0
200048e0:	b7ed                	c.j	200048ca <strrchr+0x14>

200048e2 <__vprintf_help>:
200048e2:	357002ef          	jal	t0,20005438 <__riscv_save_0>
200048e6:	833fa7ab          	lwgp	a5,-2000 # 80030 <__printf_count>
200048ea:	0785                	c.addi	a5,1
200048ec:	82ffc9ab          	swgp	a5,-2000 # 80030 <__printf_count>
200048f0:	82df940b          	addigp	s0,-2004 # 8002c <__vprintf_buf_len>
200048f4:	82bfa5ab          	lwgp	a1,-2008 # 80028 <__vprintf_buf>
200048f8:	401c                	c.lw	a5,0(s0)
200048fa:	00178713          	addi	a4,a5,1
200048fe:	97ae                	c.add	a5,a1
20004900:	c018                	c.sw	a4,0(s0)
20004902:	00a78023          	sb	a0,0(a5)
20004906:	4007685b          	bnec	a4,64,20004916 <__vprintf_help+0x34>
2000490a:	04000613          	li	a2,64
2000490e:	4505                	c.li	a0,1
20004910:	33a1                	c.jal	20004658 <_write>
20004912:	00042023          	sw	zero,0(s0)
20004916:	3470006f          	j	2000545c <__riscv_restore_0>

2000491a <vprintf>:
2000491a:	1141                	c.addi	sp,-16
2000491c:	c606                	c.swsp	ra,12(sp)
2000491e:	c422                	c.swsp	s0,8(sp)
20004920:	c226                	c.swsp	s1,4(sp)
20004922:	c04a                	c.swsp	s2,0(sp)
20004924:	0800                	c.addi4spn	s0,sp,16
20004926:	715d                	c.addi16sp	sp,-80
20004928:	00f10793          	addi	a5,sp,15
2000492c:	20005637          	lui	a2,0x20005
20004930:	9bc1                	c.andi	a5,-16
20004932:	829f948b          	addigp	s1,-2008 # 80028 <__vprintf_buf>
20004936:	82df990b          	addigp	s2,-2004 # 8002c <__vprintf_buf_len>
2000493a:	8e260613          	addi	a2,a2,-1822 # 200048e2 <__vprintf_help>
2000493e:	c09c                	c.sw	a5,0(s1)
20004940:	00092023          	sw	zero,0(s2) # 3d09000 <FLASH_SIZE+0x3c09000>
20004944:	20b5                	c.jal	200049b0 <__printf_impl>
20004946:	00092603          	lw	a2,0(s2)
2000494a:	408c                	c.lw	a1,0(s1)
2000494c:	4505                	c.li	a0,1
2000494e:	3329                	c.jal	20004658 <_write>
20004950:	833fa52b          	lwgp	a0,-2000 # 80030 <__printf_count>
20004954:	ff040113          	addi	sp,s0,-16
20004958:	40b2                	c.lwsp	ra,12(sp)
2000495a:	4422                	c.lwsp	s0,8(sp)
2000495c:	4492                	c.lwsp	s1,4(sp)
2000495e:	4902                	c.lwsp	s2,0(sp)
20004960:	0141                	c.addi	sp,16
20004962:	8082                	c.jr	ra

20004964 <__print_integral>:
20004964:	2d5002ef          	jal	t0,20005438 <__riscv_save_0>
20004968:	1101                	c.addi	sp,-32
2000496a:	842a                	c.mv	s0,a0
2000496c:	84ae                	c.mv	s1,a1
2000496e:	8932                	c.mv	s2,a2
20004970:	c636                	c.swsp	a3,12(sp)
20004972:	85be                	c.mv	a1,a5
20004974:	ca32                	c.swsp	a2,20(sp)
20004976:	853a                	c.mv	a0,a4
20004978:	0830                	c.addi4spn	a2,sp,24
2000497a:	2945                	c.jal	20004e2a <__int_to_poly>
2000497c:	46b2                	c.lwsp	a3,12(sp)
2000497e:	882a                	c.mv	a6,a0
20004980:	083c                	c.addi4spn	a5,sp,24
20004982:	0858                	c.addi4spn	a4,sp,20
20004984:	864a                	c.mv	a2,s2
20004986:	85a6                	c.mv	a1,s1
20004988:	8522                	c.mv	a0,s0
2000498a:	21c1                	c.jal	20004e4a <__print_integral_poly>
2000498c:	200057b7          	lui	a5,0x20005
20004990:	63c78793          	addi	a5,a5,1596 # 2000563c <__digits>
20004994:	00a46563          	bltu	s0,a0,2000499e <__print_integral+0x3a>
20004998:	6105                	c.addi16sp	sp,32
2000499a:	2c30006f          	j	2000545c <__riscv_restore_0>
2000499e:	00044703          	lbu	a4,0(s0)
200049a2:	0405                	c.addi	s0,1
200049a4:	973e                	c.add	a4,a5
200049a6:	00070703          	lb	a4,0(a4)
200049aa:	fee40fa3          	sb	a4,-1(s0)
200049ae:	b7dd                	c.j	20004994 <__print_integral+0x30>

200049b0 <__printf_impl>:
200049b0:	259002ef          	jal	t0,20005408 <__riscv_save_12>
200049b4:	a6010113          	addi	sp,sp,-1440
200049b8:	6b05                	c.lui	s6,0x1
200049ba:	892a                	c.mv	s2,a0
200049bc:	842e                	c.mv	s0,a1
200049be:	89b2                	c.mv	s3,a2
200049c0:	01c10a13          	addi	s4,sp,28
200049c4:	800b0b13          	addi	s6,s6,-2048 # 800 <trng_rand+0x18>
200049c8:	820fc9ab          	swgp	zero,-2000 # 80030 <__printf_count>
200049cc:	c456                	c.swsp	s5,8(sp)
200049ce:	00094503          	lbu	a0,0(s2)
200049d2:	e509                	c.bnez	a0,200049dc <__printf_impl+0x2c>
200049d4:	5a010113          	addi	sp,sp,1440
200049d8:	26d0006f          	j	20005444 <__riscv_restore_12>
200049dc:	00190493          	addi	s1,s2,1
200049e0:	005555db          	beqc	a0,37,200049ea <__printf_impl+0x3a>
200049e4:	9982                	c.jalr	s3
200049e6:	8926                	c.mv	s2,s1
200049e8:	b7dd                	c.j	200049ce <__printf_impl+0x1e>
200049ea:	00194783          	lbu	a5,1(s2)
200049ee:	0057e8db          	bnec	a5,37,200049fe <__printf_impl+0x4e>
200049f2:	02500513          	li	a0,37
200049f6:	9982                	c.jalr	s3
200049f8:	00290493          	addi	s1,s2,2
200049fc:	b7ed                	c.j	200049e6 <__printf_impl+0x36>
200049fe:	4681                	c.li	a3,0
20004a00:	4701                	c.li	a4,0
20004a02:	d002                	c.swsp	zero,32(sp)
20004a04:	0004c783          	lbu	a5,0(s1)
20004a08:	0007e7db          	bnec	a5,32,20004a16 <__printf_impl+0x66>
20004a0c:	00276713          	ori	a4,a4,2
20004a10:	0485                	c.addi	s1,1
20004a12:	4685                	c.li	a3,1
20004a14:	bfc5                	c.j	20004a04 <__printf_impl+0x54>
20004a16:	00d7e5db          	bnec	a5,45,20004a20 <__printf_impl+0x70>
20004a1a:	00476713          	ori	a4,a4,4
20004a1e:	bfcd                	c.j	20004a10 <__printf_impl+0x60>
20004a20:	00b7e5db          	bnec	a5,43,20004a2a <__printf_impl+0x7a>
20004a24:	00876713          	ori	a4,a4,8
20004a28:	b7e5                	c.j	20004a10 <__printf_impl+0x60>
20004a2a:	0037e5db          	bnec	a5,35,20004a34 <__printf_impl+0x84>
20004a2e:	01076713          	ori	a4,a4,16
20004a32:	bff9                	c.j	20004a10 <__printf_impl+0x60>
20004a34:	0107e5db          	bnec	a5,48,20004a3e <__printf_impl+0x8e>
20004a38:	02076713          	ori	a4,a4,32
20004a3c:	bfd1                	c.j	20004a10 <__printf_impl+0x60>
20004a3e:	c291                	c.beqz	a3,20004a42 <__printf_impl+0x92>
20004a40:	d03a                	c.swsp	a4,32(sp)
20004a42:	04a7eadb          	bnec	a5,42,20004a96 <__printf_impl+0xe6>
20004a46:	00042b83          	lw	s7,0(s0)
20004a4a:	00440713          	addi	a4,s0,4
20004a4e:	000bd863          	bgez	s7,20004a5e <__printf_impl+0xae>
20004a52:	5782                	c.lwsp	a5,32(sp)
20004a54:	41700bb3          	neg	s7,s7
20004a58:	0047e793          	ori	a5,a5,4
20004a5c:	d03e                	c.swsp	a5,32(sp)
20004a5e:	0485                	c.addi	s1,1
20004a60:	843a                	c.mv	s0,a4
20004a62:	0004c783          	lbu	a5,0(s1)
20004a66:	5cfd                	c.li	s9,-1
20004a68:	06e7e8db          	bnec	a5,46,20004ad8 <__printf_impl+0x128>
20004a6c:	0014c783          	lbu	a5,1(s1)
20004a70:	04a7dbdb          	beqc	a5,42,20004ac6 <__printf_impl+0x116>
20004a74:	0485                	c.addi	s1,1
20004a76:	4c81                	c.li	s9,0
20004a78:	4725                	c.li	a4,9
20004a7a:	4629                	c.li	a2,10
20004a7c:	0004c783          	lbu	a5,0(s1)
20004a80:	fd078793          	addi	a5,a5,-48
20004a84:	0ff7f693          	andi	a3,a5,255
20004a88:	04d76863          	bltu	a4,a3,20004ad8 <__printf_impl+0x128>
20004a8c:	02cc8cb3          	mul	s9,s9,a2
20004a90:	0485                	c.addi	s1,1
20004a92:	9cbe                	c.add	s9,a5
20004a94:	b7e5                	c.j	20004a7c <__printf_impl+0xcc>
20004a96:	fd078793          	addi	a5,a5,-48
20004a9a:	0ff7f793          	andi	a5,a5,255
20004a9e:	4725                	c.li	a4,9
20004aa0:	4b81                	c.li	s7,0
20004aa2:	fcf760e3          	bltu	a4,a5,20004a62 <__printf_impl+0xb2>
20004aa6:	4725                	c.li	a4,9
20004aa8:	4629                	c.li	a2,10
20004aaa:	a029                	c.j	20004ab4 <__printf_impl+0x104>
20004aac:	02cb8bb3          	mul	s7,s7,a2
20004ab0:	0485                	c.addi	s1,1
20004ab2:	9bbe                	c.add	s7,a5
20004ab4:	0004c783          	lbu	a5,0(s1)
20004ab8:	fd078793          	addi	a5,a5,-48
20004abc:	0ff7f693          	andi	a3,a5,255
20004ac0:	fed776e3          	bgeu	a4,a3,20004aac <__printf_impl+0xfc>
20004ac4:	bf79                	c.j	20004a62 <__printf_impl+0xb2>
20004ac6:	00042c83          	lw	s9,0(s0)
20004aca:	00440793          	addi	a5,s0,4
20004ace:	000cd363          	bgez	s9,20004ad4 <__printf_impl+0x124>
20004ad2:	5cfd                	c.li	s9,-1
20004ad4:	0489                	c.addi	s1,2
20004ad6:	843e                	c.mv	s0,a5
20004ad8:	43200793          	li	a5,1074
20004adc:	8666                	c.mv	a2,s9
20004ade:	0197d463          	bge	a5,s9,20004ae6 <__printf_impl+0x136>
20004ae2:	43200613          	li	a2,1074
20004ae6:	0004c783          	lbu	a5,0(s1)
20004aea:	4487efdb          	bnec	a5,104,20004b48 <__printf_impl+0x198>
20004aee:	5782                	c.lwsp	a5,32(sp)
20004af0:	0014c703          	lbu	a4,1(s1)
20004af4:	448764db          	bnec	a4,104,20004b3c <__printf_impl+0x18c>
20004af8:	0407e793          	ori	a5,a5,64
20004afc:	00248913          	addi	s2,s1,2
20004b00:	d03e                	c.swsp	a5,32(sp)
20004b02:	00094683          	lbu	a3,0(s2)
20004b06:	06700793          	li	a5,103
20004b0a:	08d7ee63          	bltu	a5,a3,20004ba6 <__printf_impl+0x1f6>
20004b0e:	06500793          	li	a5,101
20004b12:	06f6fd63          	bgeu	a3,a5,20004b8c <__printf_impl+0x1dc>
20004b16:	05800793          	li	a5,88
20004b1a:	5786d35b          	beqc	a3,88,20004c80 <__printf_impl+0x2d0>
20004b1e:	04d7ef63          	bltu	a5,a3,20004b7c <__printf_impl+0x1cc>
20004b22:	04100793          	li	a5,65
20004b26:	4616d35b          	beqc	a3,65,20004b8c <__printf_impl+0x1dc>
20004b2a:	00f6e763          	bltu	a3,a5,20004b38 <__printf_impl+0x188>
20004b2e:	fbb68793          	addi	a5,a3,-69
20004b32:	4709                	c.li	a4,2
20004b34:	04f77c63          	bgeu	a4,a5,20004b8c <__printf_impl+0x1dc>
20004b38:	84a2                	c.mv	s1,s0
20004b3a:	ac35                	c.j	20004d76 <__printf_impl+0x3c6>
20004b3c:	0807e793          	ori	a5,a5,128
20004b40:	d03e                	c.swsp	a5,32(sp)
20004b42:	00148913          	addi	s2,s1,1
20004b46:	bf75                	c.j	20004b02 <__printf_impl+0x152>
20004b48:	40c7eddb          	bnec	a5,108,20004b62 <__printf_impl+0x1b2>
20004b4c:	5782                	c.lwsp	a5,32(sp)
20004b4e:	0014c703          	lbu	a4,1(s1)
20004b52:	40c765db          	bnec	a4,108,20004b5c <__printf_impl+0x1ac>
20004b56:	2007e793          	ori	a5,a5,512
20004b5a:	b74d                	c.j	20004afc <__printf_impl+0x14c>
20004b5c:	1007e793          	ori	a5,a5,256
20004b60:	b7c5                	c.j	20004b40 <__printf_impl+0x190>
20004b62:	00148913          	addi	s2,s1,1
20004b66:	41a7e7db          	bnec	a5,122,20004b74 <__printf_impl+0x1c4>
20004b6a:	5782                	c.lwsp	a5,32(sp)
20004b6c:	1007e793          	ori	a5,a5,256
20004b70:	d03e                	c.swsp	a5,32(sp)
20004b72:	bf41                	c.j	20004b02 <__printf_impl+0x152>
20004b74:	ff47dbdb          	beqc	a5,116,20004b6a <__printf_impl+0x1ba>
20004b78:	8926                	c.mv	s2,s1
20004b7a:	b761                	c.j	20004b02 <__printf_impl+0x152>
20004b7c:	06300793          	li	a5,99
20004b80:	5036dadb          	beqc	a3,99,20004c94 <__printf_impl+0x2e4>
20004b84:	04d7e063          	bltu	a5,a3,20004bc4 <__printf_impl+0x214>
20004b88:	fa16e8db          	bnec	a3,97,20004b38 <__printf_impl+0x188>
20004b8c:	041d                	c.addi	s0,7
20004b8e:	9861                	c.andi	s0,-8
20004b90:	0206fc13          	andi	s8,a3,32
20004b94:	87b6                	c.mv	a5,a3
20004b96:	4058                	c.lw	a4,4(s0)
20004b98:	4014                	c.lw	a3,0(s0)
20004b9a:	100c                	c.addi4spn	a1,sp,32
20004b9c:	1048                	c.addi4spn	a0,sp,36
20004b9e:	00840493          	addi	s1,s0,8
20004ba2:	2e25                	c.jal	20004eda <__printf_float_impl>
20004ba4:	aa55                	c.j	20004d58 <__printf_impl+0x3a8>
20004ba6:	07000793          	li	a5,112
20004baa:	4d06dbdb          	beqc	a3,112,20004c80 <__printf_impl+0x2d0>
20004bae:	04d7e163          	bltu	a5,a3,20004bf0 <__printf_impl+0x240>
20004bb2:	06e00793          	li	a5,110
20004bb6:	5ae6d5db          	beqc	a3,110,20004d60 <__printf_impl+0x3b0>
20004bba:	45a1                	c.li	a1,8
20004bbc:	0cd7e363          	bltu	a5,a3,20004c82 <__printf_impl+0x2d2>
20004bc0:	f696ecdb          	bnec	a3,105,20004b38 <__printf_impl+0x188>
20004bc4:	5682                	c.lwsp	a3,32(sp)
20004bc6:	0e66f25b          	bbc	a3,6,20004caa <__printf_impl+0x2fa>
20004bca:	00040703          	lb	a4,0(s0)
20004bce:	00440493          	addi	s1,s0,4
20004bd2:	41f75793          	srai	a5,a4,0x1f
20004bd6:	1007d163          	bgez	a5,20004cd8 <__printf_impl+0x328>
20004bda:	40e00733          	neg	a4,a4
20004bde:	00e035b3          	snez	a1,a4
20004be2:	40f007b3          	neg	a5,a5
20004be6:	8f8d                	c.sub	a5,a1
20004be8:	4006e693          	ori	a3,a3,1024
20004bec:	d036                	c.swsp	a3,32(sp)
20004bee:	a0ed                	c.j	20004cd8 <__printf_impl+0x328>
20004bf0:	5156d5db          	beqc	a3,117,20004cfa <__printf_impl+0x34a>
20004bf4:	4986d6db          	beqc	a3,120,20004c80 <__printf_impl+0x2d0>
20004bf8:	f536e0db          	bnec	a3,115,20004b38 <__printf_impl+0x188>
20004bfc:	00042a83          	lw	s5,0(s0)
20004c00:	85b2                	c.mv	a1,a2
20004c02:	8556                	c.mv	a0,s5
20004c04:	c632                	c.swsp	a2,12(sp)
20004c06:	788000ef          	jal	ra,2000538e <strnlen>
20004c0a:	57fd                	c.li	a5,-1
20004c0c:	00440493          	addi	s1,s0,4
20004c10:	00fc8663          	beq	s9,a5,20004c1c <__printf_impl+0x26c>
20004c14:	4632                	c.lwsp	a2,12(sp)
20004c16:	00a65363          	bge	a2,a0,20004c1c <__printf_impl+0x26c>
20004c1a:	8532                	c.mv	a0,a2
20004c1c:	00aa8433          	add	s0,s5,a0
20004c20:	4c01                	c.li	s8,0
20004c22:	5782                	c.lwsp	a5,32(sp)
20004c24:	02d00693          	li	a3,45
20004c28:	40a7fb5b          	bbs	a5,10,20004c3e <__printf_impl+0x28e>
20004c2c:	02b00693          	li	a3,43
20004c30:	4037f75b          	bbs	a5,3,20004c3e <__printf_impl+0x28e>
20004c34:	8cd2                	c.mv	s9,s4
20004c36:	0017f85b          	bbc	a5,1,20004c46 <__printf_impl+0x296>
20004c3a:	02000693          	li	a3,32
20004c3e:	01d10c93          	addi	s9,sp,29
20004c42:	00d10e23          	sb	a3,28(sp)
20004c46:	0167f6b3          	and	a3,a5,s6
20004c4a:	ca91                	c.beqz	a3,20004c5e <__printf_impl+0x2ae>
20004c4c:	03000693          	li	a3,48
20004c50:	00dc8023          	sb	a3,0(s9)
20004c54:	05800693          	li	a3,88
20004c58:	00dc80a3          	sb	a3,1(s9)
20004c5c:	0c89                	c.addi	s9,2
20004c5e:	5627f35b          	bbs	a5,2,20004dc4 <__printf_impl+0x414>
20004c62:	41540db3          	sub	s11,s0,s5
20004c66:	4057fa5b          	bbs	a5,5,20004c7a <__printf_impl+0x2ca>
20004c6a:	41bb8d33          	sub	s10,s7,s11
20004c6e:	414c87b3          	sub	a5,s9,s4
20004c72:	40fd0d33          	sub	s10,s10,a5
20004c76:	17a04663          	bgtz	s10,20004de2 <__printf_impl+0x432>
20004c7a:	8d52                	c.mv	s10,s4
20004c7c:	9bd2                	c.add	s7,s4
20004c7e:	aaad                	c.j	20004df8 <__printf_impl+0x448>
20004c80:	45c1                	c.li	a1,16
20004c82:	5782                	c.lwsp	a5,32(sp)
20004c84:	0667fd5b          	bbc	a5,6,20004cfe <__printf_impl+0x34e>
20004c88:	00044703          	lbu	a4,0(s0)
20004c8c:	00440493          	addi	s1,s0,4
20004c90:	4781                	c.li	a5,0
20004c92:	a859                	c.j	20004d28 <__printf_impl+0x378>
20004c94:	401c                	c.lw	a5,0(s0)
20004c96:	00440493          	addi	s1,s0,4
20004c9a:	4c01                	c.li	s8,0
20004c9c:	02510413          	addi	s0,sp,37
20004ca0:	02f10223          	sb	a5,36(sp)
20004ca4:	02410a93          	addi	s5,sp,36
20004ca8:	bfad                	c.j	20004c22 <__printf_impl+0x272>
20004caa:	0076f75b          	bbc	a3,7,20004cb8 <__printf_impl+0x308>
20004cae:	00440493          	addi	s1,s0,4
20004cb2:	00041703          	lh	a4,0(s0)
20004cb6:	bf31                	c.j	20004bd2 <__printf_impl+0x222>
20004cb8:	0086f65b          	bbc	a3,8,20004cc4 <__printf_impl+0x314>
20004cbc:	00440493          	addi	s1,s0,4
20004cc0:	4018                	c.lw	a4,0(s0)
20004cc2:	bf01                	c.j	20004bd2 <__printf_impl+0x222>
20004cc4:	be96fc5b          	bbc	a3,9,20004cbc <__printf_impl+0x30c>
20004cc8:	041d                	c.addi	s0,7
20004cca:	9861                	c.andi	s0,-8
20004ccc:	405c                	c.lw	a5,4(s0)
20004cce:	00840493          	addi	s1,s0,8
20004cd2:	4018                	c.lw	a4,0(s0)
20004cd4:	0007c963          	bltz	a5,20004ce6 <__printf_impl+0x336>
20004cd8:	56fd                	c.li	a3,-1
20004cda:	45a9                	c.li	a1,10
20004cdc:	4c01                	c.li	s8,0
20004cde:	04dc9a63          	bne	s9,a3,20004d32 <__printf_impl+0x382>
20004ce2:	4605                	c.li	a2,1
20004ce4:	a0b5                	c.j	20004d50 <__printf_impl+0x3a0>
20004ce6:	ee071ae3          	bnez	a4,20004bda <__printf_impl+0x22a>
20004cea:	800005b7          	lui	a1,0x80000
20004cee:	eeb796e3          	bne	a5,a1,20004bda <__printf_impl+0x22a>
20004cf2:	4701                	c.li	a4,0
20004cf4:	800007b7          	lui	a5,0x80000
20004cf8:	bdc5                	c.j	20004be8 <__printf_impl+0x238>
20004cfa:	45a9                	c.li	a1,10
20004cfc:	b759                	c.j	20004c82 <__printf_impl+0x2d2>
20004cfe:	0077f75b          	bbc	a5,7,20004d0c <__printf_impl+0x35c>
20004d02:	00440493          	addi	s1,s0,4
20004d06:	00045703          	lhu	a4,0(s0)
20004d0a:	b759                	c.j	20004c90 <__printf_impl+0x2e0>
20004d0c:	0087f65b          	bbc	a5,8,20004d18 <__printf_impl+0x368>
20004d10:	00440493          	addi	s1,s0,4
20004d14:	4018                	c.lw	a4,0(s0)
20004d16:	bfad                	c.j	20004c90 <__printf_impl+0x2e0>
20004d18:	be97fc5b          	bbc	a5,9,20004d10 <__printf_impl+0x360>
20004d1c:	041d                	c.addi	s0,7
20004d1e:	9861                	c.andi	s0,-8
20004d20:	4018                	c.lw	a4,0(s0)
20004d22:	405c                	c.lw	a5,4(s0)
20004d24:	00840493          	addi	s1,s0,8
20004d28:	0206fc13          	andi	s8,a3,32
20004d2c:	56fd                	c.li	a3,-1
20004d2e:	02dc8763          	beq	s9,a3,20004d5c <__printf_impl+0x3ac>
20004d32:	5682                	c.lwsp	a3,32(sp)
20004d34:	fdf6f693          	andi	a3,a3,-33
20004d38:	d036                	c.swsp	a3,32(sp)
20004d3a:	0105eb5b          	bnec	a1,16,20004d50 <__printf_impl+0x3a0>
20004d3e:	5682                	c.lwsp	a3,32(sp)
20004d40:	0046f85b          	bbc	a3,4,20004d50 <__printf_impl+0x3a0>
20004d44:	00f76533          	or	a0,a4,a5
20004d48:	c501                	c.beqz	a0,20004d50 <__printf_impl+0x3a0>
20004d4a:	0166e6b3          	or	a3,a3,s6
20004d4e:	d036                	c.swsp	a3,32(sp)
20004d50:	86b2                	c.mv	a3,a2
20004d52:	5602                	c.lwsp	a2,32(sp)
20004d54:	1048                	c.addi4spn	a0,sp,36
20004d56:	3139                	c.jal	20004964 <__print_integral>
20004d58:	842a                	c.mv	s0,a0
20004d5a:	b7a9                	c.j	20004ca4 <__printf_impl+0x2f4>
20004d5c:	4605                	c.li	a2,1
20004d5e:	bff1                	c.j	20004d3a <__printf_impl+0x38a>
20004d60:	45a2                	c.lwsp	a1,8(sp)
20004d62:	5682                	c.lwsp	a3,32(sp)
20004d64:	00440493          	addi	s1,s0,4
20004d68:	833fa7ab          	lwgp	a5,-2000 # 80030 <__printf_count>
20004d6c:	4018                	c.lw	a4,0(s0)
20004d6e:	0066f85b          	bbc	a3,6,20004d7e <__printf_impl+0x3ce>
20004d72:	00f70023          	sb	a5,0(a4)
20004d76:	1040                	c.addi4spn	s0,sp,36
20004d78:	4c01                	c.li	s8,0
20004d7a:	8aa2                	c.mv	s5,s0
20004d7c:	b55d                	c.j	20004c22 <__printf_impl+0x272>
20004d7e:	0076f55b          	bbc	a3,7,20004d88 <__printf_impl+0x3d8>
20004d82:	00f71023          	sh	a5,0(a4)
20004d86:	bfc5                	c.j	20004d76 <__printf_impl+0x3c6>
20004d88:	c31c                	c.sw	a5,0(a4)
20004d8a:	fe86f65b          	bbs	a3,8,20004d76 <__printf_impl+0x3c6>
20004d8e:	be96f45b          	bbc	a3,9,20004d76 <__printf_impl+0x3c6>
20004d92:	87fd                	c.srai	a5,0x1f
20004d94:	c35c                	c.sw	a5,4(a4)
20004d96:	b7c5                	c.j	20004d76 <__printf_impl+0x3c6>
20004d98:	000dc503          	lbu	a0,0(s11)
20004d9c:	0d85                	c.addi	s11,1
20004d9e:	01856533          	or	a0,a0,s8
20004da2:	9982                	c.jalr	s3
20004da4:	41bb8d33          	sub	s10,s7,s11
20004da8:	ff9de8e3          	bltu	s11,s9,20004d98 <__printf_impl+0x3e8>
20004dac:	8bd6                	c.mv	s7,s5
20004dae:	01741e63          	bne	s0,s7,20004dca <__printf_impl+0x41a>
20004db2:	41540433          	sub	s0,s0,s5
20004db6:	408d0433          	sub	s0,s10,s0
20004dba:	00804f63          	bgtz	s0,20004dd8 <__printf_impl+0x428>
20004dbe:	0905                	c.addi	s2,1
20004dc0:	8426                	c.mv	s0,s1
20004dc2:	b131                	c.j	200049ce <__printf_impl+0x1e>
20004dc4:	8dd2                	c.mv	s11,s4
20004dc6:	9bd2                	c.add	s7,s4
20004dc8:	bff1                	c.j	20004da4 <__printf_impl+0x3f4>
20004dca:	000bc503          	lbu	a0,0(s7) # 20010000 <_DATA_LMA_START+0xa8a8>
20004dce:	0b85                	c.addi	s7,1
20004dd0:	01856533          	or	a0,a0,s8
20004dd4:	9982                	c.jalr	s3
20004dd6:	bfe1                	c.j	20004dae <__printf_impl+0x3fe>
20004dd8:	02000513          	li	a0,32
20004ddc:	9982                	c.jalr	s3
20004dde:	147d                	c.addi	s0,-1
20004de0:	bfe9                	c.j	20004dba <__printf_impl+0x40a>
20004de2:	02000513          	li	a0,32
20004de6:	9982                	c.jalr	s3
20004de8:	1d7d                	c.addi	s10,-1
20004dea:	b571                	c.j	20004c76 <__printf_impl+0x2c6>
20004dec:	000d4503          	lbu	a0,0(s10)
20004df0:	0d05                	c.addi	s10,1
20004df2:	01856533          	or	a0,a0,s8
20004df6:	9982                	c.jalr	s3
20004df8:	41ab87b3          	sub	a5,s7,s10
20004dfc:	ff9d68e3          	bltu	s10,s9,20004dec <__printf_impl+0x43c>
20004e00:	5682                	c.lwsp	a3,32(sp)
20004e02:	0056f65b          	bbc	a3,5,20004e0e <__printf_impl+0x45e>
20004e06:	41b78db3          	sub	s11,a5,s11
20004e0a:	01b04b63          	bgtz	s11,20004e20 <__printf_impl+0x470>
20004e0e:	fb5408e3          	beq	s0,s5,20004dbe <__printf_impl+0x40e>
20004e12:	000ac503          	lbu	a0,0(s5) # 20010000 <_DATA_LMA_START+0xa8a8>
20004e16:	0a85                	c.addi	s5,1
20004e18:	01856533          	or	a0,a0,s8
20004e1c:	9982                	c.jalr	s3
20004e1e:	bfc5                	c.j	20004e0e <__printf_impl+0x45e>
20004e20:	03000513          	li	a0,48
20004e24:	9982                	c.jalr	s3
20004e26:	1dfd                	c.addi	s11,-1
20004e28:	b7cd                	c.j	20004e0a <__printf_impl+0x45a>

20004e2a <__int_to_poly>:
20004e2a:	87aa                	c.mv	a5,a0
20004e2c:	4501                	c.li	a0,0
20004e2e:	00b7e733          	or	a4,a5,a1
20004e32:	e311                	c.bnez	a4,20004e36 <__int_to_poly+0xc>
20004e34:	8082                	c.jr	ra
20004e36:	00f61023          	sh	a5,0(a2)
20004e3a:	01059713          	slli	a4,a1,0x10
20004e3e:	83c1                	c.srli	a5,0x10
20004e40:	0505                	c.addi	a0,1
20004e42:	8fd9                	c.or	a5,a4
20004e44:	81c1                	c.srli	a1,0x10
20004e46:	0609                	c.addi	a2,2
20004e48:	b7dd                	c.j	20004e2e <__int_to_poly+0x4>

20004e4a <__print_integral_poly>:
20004e4a:	5ee002ef          	jal	t0,20005438 <__riscv_save_0>
20004e4e:	88c2                	c.mv	a7,a6
20004e50:	84ba                	c.mv	s1,a4
20004e52:	187d                	c.addi	a6,-1
20004e54:	0b17875b          	lea.h	a4,a5,a7
20004e58:	8342                	c.mv	t1,a6
20004e5a:	4401                	c.li	s0,0
20004e5c:	8e3a                	c.mv	t3,a4
20004e5e:	1779                	c.addi	a4,-2
20004e60:	02035463          	bgez	t1,20004e88 <__print_integral_poly+0x3e>
20004e64:	05105063          	blez	a7,20004ea4 <__print_integral_poly+0x5a>
20004e68:	ffee5703          	lhu	a4,-2(t3)
20004e6c:	eb15                	c.bnez	a4,20004ea0 <__print_integral_poly+0x56>
20004e6e:	03005b63          	blez	a6,20004ea4 <__print_integral_poly+0x5a>
20004e72:	8726                	c.mv	a4,s1
20004e74:	16fd                	c.addi	a3,-1
20004e76:	3fd1                	c.jal	20004e4a <__print_integral_poly>
20004e78:	87aa                	c.mv	a5,a0
20004e7a:	0505                	c.addi	a0,1
20004e7c:	00878023          	sb	s0,0(a5) # 80000000 <_DATA_LMA_START+0x5fffa8a8>
20004e80:	409c                	c.lw	a5,0(s1)
20004e82:	0785                	c.addi	a5,1
20004e84:	c09c                	c.sw	a5,0(s1)
20004e86:	abd9                	c.j	2000545c <__riscv_restore_0>
20004e88:	00075e83          	lhu	t4,0(a4)
20004e8c:	0442                	c.slli	s0,0x10
20004e8e:	9476                	c.add	s0,t4
20004e90:	02b45eb3          	divu	t4,s0,a1
20004e94:	137d                	c.addi	t1,-1
20004e96:	02b47433          	remu	s0,s0,a1
20004e9a:	01d71023          	sh	t4,0(a4)
20004e9e:	b7c1                	c.j	20004e5e <__print_integral_poly+0x14>
20004ea0:	8846                	c.mv	a6,a7
20004ea2:	bfc1                	c.j	20004e72 <__print_integral_poly+0x28>
20004ea4:	c011                	c.beqz	s0,20004ea8 <__print_integral_poly+0x5e>
20004ea6:	16fd                	c.addi	a3,-1
20004ea8:	00d04763          	bgtz	a3,20004eb6 <__print_integral_poly+0x6c>
20004eac:	0085ee5b          	bnec	a1,8,20004ec8 <__print_integral_poly+0x7e>
20004eb0:	00467c5b          	bbc	a2,4,20004ec8 <__print_integral_poly+0x7e>
20004eb4:	4685                	c.li	a3,1
20004eb6:	87aa                	c.mv	a5,a0
20004eb8:	40a78733          	sub	a4,a5,a0
20004ebc:	00d74b63          	blt	a4,a3,20004ed2 <__print_integral_poly+0x88>
20004ec0:	0006d363          	bgez	a3,20004ec6 <__print_integral_poly+0x7c>
20004ec4:	4681                	c.li	a3,0
20004ec6:	9536                	c.add	a0,a3
20004ec8:	dc45                	c.beqz	s0,20004e80 <__print_integral_poly+0x36>
20004eca:	00850023          	sb	s0,0(a0)
20004ece:	0505                	c.addi	a0,1
20004ed0:	bf45                	c.j	20004e80 <__print_integral_poly+0x36>
20004ed2:	0785                	c.addi	a5,1
20004ed4:	fe078fa3          	sb	zero,-1(a5)
20004ed8:	b7c5                	c.j	20004eb8 <__print_integral_poly+0x6e>

20004eda <__printf_float_impl>:
20004eda:	52e002ef          	jal	t0,20005408 <__riscv_save_12>
20004ede:	0df7fc13          	andi	s8,a5,223
20004ee2:	7169                	c.addi16sp	sp,-304
20004ee4:	8b2a                	c.mv	s6,a0
20004ee6:	89ae                	c.mv	s3,a1
20004ee8:	84b2                	c.mv	s1,a2
20004eea:	8abe                	c.mv	s5,a5
20004eec:	467c6c5b          	bnec	s8,71,20004f64 <__printf_float_impl+0x8a>
20004ef0:	0005aa03          	lw	s4,0(a1) # 80000000 <_DATA_LMA_START+0x5fffa8a8>
20004ef4:	010a4a13          	xori	s4,s4,16
20004ef8:	104a2a5b          	bfoz	s4,s4,4,4
20004efc:	0604da63          	bgez	s1,20004f70 <__printf_float_impl+0x96>
20004f00:	4499                	c.li	s1,6
20004f02:	401c635b          	bnec	s8,65,20004f08 <__printf_float_impl+0x2e>
20004f06:	44b5                	c.li	s1,13
20004f08:	8936                	c.mv	s2,a3
20004f0a:	7947245b          	bfoz	s0,a4,30,20
20004f0e:	4c072d5b          	bfoz	s10,a4,19,0
20004f12:	00075863          	bgez	a4,20004f22 <__printf_float_impl+0x48>
20004f16:	0009a783          	lw	a5,0(s3) # 20010000 <_DATA_LMA_START+0xa8a8>
20004f1a:	4007e793          	ori	a5,a5,1024
20004f1e:	00f9a023          	sw	a5,0(s3)
20004f22:	401c6a5b          	bnec	s8,65,20004f36 <__printf_float_impl+0x5c>
20004f26:	0009a783          	lw	a5,0(s3)
20004f2a:	6705                	c.lui	a4,0x1
20004f2c:	80070713          	addi	a4,a4,-2048 # 800 <trng_rand+0x18>
20004f30:	8fd9                	c.or	a5,a4
20004f32:	00f9a023          	sw	a5,0(s3)
20004f36:	7ff00793          	li	a5,2047
20004f3a:	04f41663          	bne	s0,a5,20004f86 <__printf_float_impl+0xac>
20004f3e:	0009a783          	lw	a5,0(s3)
20004f42:	01a96933          	or	s2,s2,s10
20004f46:	fdf7f793          	andi	a5,a5,-33
20004f4a:	00f9a023          	sw	a5,0(s3)
20004f4e:	02090763          	beqz	s2,20004f7c <__printf_float_impl+0xa2>
20004f52:	200055b7          	lui	a1,0x20005
20004f56:	64c58593          	addi	a1,a1,1612 # 2000564c <__digits+0x10>
20004f5a:	855a                	c.mv	a0,s6
20004f5c:	2e55                	c.jal	20005310 <strcpy>
20004f5e:	050d                	c.addi	a0,3
20004f60:	6155                	c.addi16sp	sp,304
20004f62:	a1cd                	c.j	20005444 <__riscv_restore_12>
20004f64:	4a01                	c.li	s4,0
20004f66:	f81c6b5b          	bnec	s8,65,20004efc <__printf_float_impl+0x22>
20004f6a:	01f65a13          	srli	s4,a2,0x1f
20004f6e:	b779                	c.j	20004efc <__printf_float_impl+0x22>
20004f70:	fcc1                	c.bnez	s1,20004f08 <__printf_float_impl+0x2e>
20004f72:	fb9c0493          	addi	s1,s8,-71
20004f76:	0014b493          	seqz	s1,s1
20004f7a:	b779                	c.j	20004f08 <__printf_float_impl+0x2e>
20004f7c:	200055b7          	lui	a1,0x20005
20004f80:	65058593          	addi	a1,a1,1616 # 20005650 <__digits+0x14>
20004f84:	bfd9                	c.j	20004f5a <__printf_float_impl+0x80>
20004f86:	e811                	c.bnez	s0,20004f9a <__printf_float_impl+0xc0>
20004f88:	01a967b3          	or	a5,s2,s10
20004f8c:	c0300413          	li	s0,-1021
20004f90:	18079463          	bnez	a5,20005118 <__printf_float_impl+0x23e>
20004f94:	03500413          	li	s0,53
20004f98:	a819                	c.j	20004fae <__printf_float_impl+0xd4>
20004f9a:	001007b7          	lui	a5,0x100
20004f9e:	01a7ed33          	or	s10,a5,s10
20004fa2:	c0240413          	addi	s0,s0,-1022
20004fa6:	03400793          	li	a5,52
20004faa:	1687d563          	bge	a5,s0,20005114 <__printf_float_impl+0x23a>
20004fae:	fcb40413          	addi	s0,s0,-53
20004fb2:	00445b93          	srli	s7,s0,0x4
20004fb6:	001b9c93          	slli	s9,s7,0x1
20004fba:	8666                	c.mv	a2,s9
20004fbc:	4581                	c.li	a1,0
20004fbe:	1008                	c.addi4spn	a0,sp,32
20004fc0:	82fff0ef          	jal	ra,200047ee <memset>
20004fc4:	883d                	c.andi	s0,15
20004fc6:	1a0c                	c.addi4spn	a1,sp,304
20004fc8:	9cae                	c.add	s9,a1
20004fca:	8622                	c.mv	a2,s0
20004fcc:	854a                	c.mv	a0,s2
20004fce:	85ea                	c.mv	a1,s10
20004fd0:	2121                	c.jal	200053d8 <__ashldi3>
20004fd2:	4641                	c.li	a2,16
20004fd4:	eeac9823          	sh	a0,-272(s9)
20004fd8:	1014                	c.addi4spn	a3,sp,32
20004fda:	0b85                	c.addi	s7,1
20004fdc:	8e01                	c.sub	a2,s0
20004fde:	854a                	c.mv	a0,s2
20004fe0:	85ea                	c.mv	a1,s10
20004fe2:	0b768cdb          	lea.h	s9,a3,s7
20004fe6:	26c9                	c.jal	200053a8 <__lshrdi3>
20004fe8:	8666                	c.mv	a2,s9
20004fea:	3581                	c.jal	20004e2a <__int_to_poly>
20004fec:	4c81                	c.li	s9,0
20004fee:	9baa                	c.add	s7,a0
20004ff0:	57fd                	c.li	a5,-1
20004ff2:	ce3e                	c.swsp	a5,28(sp)
20004ff4:	4429                	c.li	s0,10
20004ff6:	401c635b          	bnec	s8,65,20004ffc <__printf_float_impl+0x122>
20004ffa:	4441                	c.li	s0,16
20004ffc:	885e                	c.mv	a6,s7
20004ffe:	101c                	c.addi4spn	a5,sp,32
20005000:	4685                	c.li	a3,1
20005002:	0878                	c.addi4spn	a4,sp,28
20005004:	4601                	c.li	a2,0
20005006:	85a2                	c.mv	a1,s0
20005008:	855a                	c.mv	a0,s6
2000500a:	3581                	c.jal	20004e4a <__print_integral_poly>
2000500c:	02e00793          	li	a5,46
20005010:	00f50023          	sb	a5,0(a0)
20005014:	001bbb93          	seqz	s7,s7
20005018:	0dbafa93          	andi	s5,s5,219
2000501c:	00150693          	addi	a3,a0,1
20005020:	87de                	c.mv	a5,s7
20005022:	401ad35b          	beqc	s5,65,20005028 <__printf_float_impl+0x14e>
20005026:	4781                	c.li	a5,0
20005028:	00148713          	addi	a4,s1,1
2000502c:	973e                	c.add	a4,a5
2000502e:	fffc8313          	addi	t1,s9,-1
20005032:	001c9613          	slli	a2,s9,0x1
20005036:	112c                	c.addi4spn	a1,sp,168
20005038:	95b2                	c.add	a1,a2
2000503a:	881a                	c.mv	a6,t1
2000503c:	4781                	c.li	a5,0
2000503e:	15f9                	c.addi	a1,-2
20005040:	18085163          	bgez	a6,200051c2 <__printf_float_impl+0x2e8>
20005044:	01905863          	blez	s9,20005054 <__printf_float_impl+0x17a>
20005048:	1a0c                	c.addi4spn	a1,sp,304
2000504a:	962e                	c.add	a2,a1
2000504c:	f7665603          	lhu	a2,-138(a2)
20005050:	e211                	c.bnez	a2,20005054 <__printf_float_impl+0x17a>
20005052:	8c9a                	c.mv	s9,t1
20005054:	180b8163          	beqz	s7,200051d6 <__printf_float_impl+0x2fc>
20005058:	4672                	c.lwsp	a2,28(sp)
2000505a:	0017bb93          	seqz	s7,a5
2000505e:	167d                	c.addi	a2,-1
20005060:	ce32                	c.swsp	a2,28(sp)
20005062:	0685                	c.addi	a3,1
20005064:	fef68fa3          	sb	a5,-1(a3)
20005068:	f379                	c.bnez	a4,2000502e <__printf_float_impl+0x154>
2000506a:	567c695b          	bnec	s8,71,200051dc <__printf_float_impl+0x302>
2000506e:	47f2                	c.lwsp	a5,28(sp)
20005070:	fff48713          	addi	a4,s1,-1
20005074:	1897d663          	bge	a5,s1,20005200 <__printf_float_impl+0x326>
20005078:	5671                	c.li	a2,-4
2000507a:	18c7c363          	blt	a5,a2,20005200 <__printf_float_impl+0x326>
2000507e:	40f704b3          	sub	s1,a4,a5
20005082:	04600c13          	li	s8,70
20005086:	0489                	c.addi	s1,2
20005088:	9526                	c.add	a0,s1
2000508a:	fff54683          	lbu	a3,-1(a0)
2000508e:	40145713          	srai	a4,s0,0x1
20005092:	fff50793          	addi	a5,a0,-1
20005096:	00e6a6b3          	slt	a3,a3,a4
2000509a:	0016c693          	xori	a3,a3,1
2000509e:	863e                	c.mv	a2,a5
200050a0:	1acb7b63          	bgeu	s6,a2,20005256 <__printf_float_impl+0x37c>
200050a4:	18069763          	bnez	a3,20005232 <__printf_float_impl+0x358>
200050a8:	17fd                	c.addi	a5,-1
200050aa:	00178513          	addi	a0,a5,1 # 100001 <FLASH_SIZE+0x1>
200050ae:	00fb7763          	bgeu	s6,a5,200050bc <__printf_float_impl+0x1e2>
200050b2:	000a0563          	beqz	s4,200050bc <__printf_float_impl+0x1e2>
200050b6:	0007c703          	lbu	a4,0(a5)
200050ba:	d77d                	c.beqz	a4,200050a8 <__printf_float_impl+0x1ce>
200050bc:	fff54783          	lbu	a5,-1(a0)
200050c0:	00e7e7db          	bnec	a5,46,200050ce <__printf_float_impl+0x1f4>
200050c4:	0009a783          	lw	a5,0(s3)
200050c8:	4047f35b          	bbs	a5,4,200050ce <__printf_float_impl+0x1f4>
200050cc:	157d                	c.addi	a0,-1
200050ce:	20005737          	lui	a4,0x20005
200050d2:	46bd                	c.li	a3,15
200050d4:	63c70713          	addi	a4,a4,1596 # 2000563c <__digits>
200050d8:	1aab6d63          	bltu	s6,a0,20005292 <__printf_float_impl+0x3b8>
200050dc:	5c5c665b          	bnec	s8,69,200052a8 <__printf_float_impl+0x3ce>
200050e0:	01850023          	sb	s8,0(a0)
200050e4:	4772                	c.lwsp	a4,28(sp)
200050e6:	02d00793          	li	a5,45
200050ea:	00074463          	bltz	a4,200050f2 <__printf_float_impl+0x218>
200050ee:	02b00793          	li	a5,43
200050f2:	00f500a3          	sb	a5,1(a0)
200050f6:	47f2                	c.lwsp	a5,28(sp)
200050f8:	4689                	c.li	a3,2
200050fa:	41f7d713          	srai	a4,a5,0x1f
200050fe:	8fb9                	c.xor	a5,a4
20005100:	40e78733          	sub	a4,a5,a4
20005104:	41f75793          	srai	a5,a4,0x1f
20005108:	4601                	c.li	a2,0
2000510a:	45a9                	c.li	a1,10
2000510c:	0509                	c.addi	a0,2
2000510e:	857ff0ef          	jal	ra,20004964 <__print_integral>
20005112:	b5b9                	c.j	20004f60 <__printf_float_impl+0x86>
20005114:	06804363          	bgtz	s0,2000517a <__printf_float_impl+0x2a0>
20005118:	40800433          	neg	s0,s0
2000511c:	00445b93          	srli	s7,s0,0x4
20005120:	001b9d93          	slli	s11,s7,0x1
20005124:	866e                	c.mv	a2,s11
20005126:	4581                	c.li	a1,0
20005128:	1128                	c.addi4spn	a0,sp,168
2000512a:	ec4ff0ef          	jal	ra,200047ee <memset>
2000512e:	112c                	c.addi4spn	a1,sp,168
20005130:	883d                	c.andi	s0,15
20005132:	9dae                	c.add	s11,a1
20005134:	02540413          	addi	s0,s0,37
20005138:	876e                	c.mv	a4,s11
2000513a:	4c81                	c.li	s9,0
2000513c:	001c8793          	addi	a5,s9,1
20005140:	8622                	c.mv	a2,s0
20005142:	854a                	c.mv	a0,s2
20005144:	85ea                	c.mv	a1,s10
20005146:	c63a                	c.swsp	a4,12(sp)
20005148:	c43e                	c.swsp	a5,8(sp)
2000514a:	2cb9                	c.jal	200053a8 <__lshrdi3>
2000514c:	4732                	c.lwsp	a4,12(sp)
2000514e:	1441                	c.addi	s0,-16
20005150:	00a71023          	sh	a0,0(a4)
20005154:	47a2                	c.lwsp	a5,8(sp)
20005156:	0709                	c.addi	a4,2
20005158:	00045f63          	bgez	s0,20005176 <__printf_float_impl+0x29c>
2000515c:	0afd8ddb          	lea.h	s11,s11,a5
20005160:	40800633          	neg	a2,s0
20005164:	854a                	c.mv	a0,s2
20005166:	85ea                	c.mv	a1,s10
20005168:	0c89                	c.addi	s9,2
2000516a:	24bd                	c.jal	200053d8 <__ashldi3>
2000516c:	9cde                	c.add	s9,s7
2000516e:	00ad9023          	sh	a0,0(s11)
20005172:	4b81                	c.li	s7,0
20005174:	bdb5                	c.j	20004ff0 <__printf_float_impl+0x116>
20005176:	8cbe                	c.mv	s9,a5
20005178:	b7d1                	c.j	2000513c <__printf_float_impl+0x262>
2000517a:	03500613          	li	a2,53
2000517e:	8e01                	c.sub	a2,s0
20005180:	854a                	c.mv	a0,s2
20005182:	85ea                	c.mv	a1,s10
20005184:	2415                	c.jal	200053a8 <__lshrdi3>
20005186:	1010                	c.addi4spn	a2,sp,32
20005188:	314d                	c.jal	20004e2a <__int_to_poly>
2000518a:	02500793          	li	a5,37
2000518e:	8baa                	c.mv	s7,a0
20005190:	40878433          	sub	s0,a5,s0
20005194:	0a810d93          	addi	s11,sp,168
20005198:	4c81                	c.li	s9,0
2000519a:	0c85                	c.addi	s9,1
2000519c:	00045a63          	bgez	s0,200051b0 <__printf_float_impl+0x2d6>
200051a0:	40800633          	neg	a2,s0
200051a4:	854a                	c.mv	a0,s2
200051a6:	85ea                	c.mv	a1,s10
200051a8:	2c05                	c.jal	200053d8 <__ashldi3>
200051aa:	00ad9023          	sh	a0,0(s11)
200051ae:	b589                	c.j	20004ff0 <__printf_float_impl+0x116>
200051b0:	8622                	c.mv	a2,s0
200051b2:	854a                	c.mv	a0,s2
200051b4:	85ea                	c.mv	a1,s10
200051b6:	2acd                	c.jal	200053a8 <__lshrdi3>
200051b8:	1441                	c.addi	s0,-16
200051ba:	00ad9023          	sh	a0,0(s11)
200051be:	0d89                	c.addi	s11,2
200051c0:	bfe9                	c.j	2000519a <__printf_float_impl+0x2c0>
200051c2:	0005d883          	lhu	a7,0(a1)
200051c6:	187d                	c.addi	a6,-1
200051c8:	028888b3          	mul	a7,a7,s0
200051cc:	97c6                	c.add	a5,a7
200051ce:	00f59023          	sh	a5,0(a1)
200051d2:	83c1                	c.srli	a5,0x10
200051d4:	b5ad                	c.j	2000503e <__printf_float_impl+0x164>
200051d6:	177d                	c.addi	a4,-1
200051d8:	4b81                	c.li	s7,0
200051da:	b561                	c.j	20005062 <__printf_float_impl+0x188>
200051dc:	8726                	c.mv	a4,s1
200051de:	ea6c545b          	beqc	s8,70,20005086 <__printf_float_impl+0x1ac>
200051e2:	47f2                	c.lwsp	a5,28(sp)
200051e4:	001b0613          	addi	a2,s6,1
200051e8:	02f04463          	bgtz	a5,20005210 <__printf_float_impl+0x336>
200051ec:	c785                	c.beqz	a5,20005214 <__printf_float_impl+0x33a>
200051ee:	40f507b3          	sub	a5,a0,a5
200051f2:	02d7e963          	bltu	a5,a3,20005224 <__printf_float_impl+0x34a>
200051f6:	001b0783          	lb	a5,1(s6)
200051fa:	00fb0023          	sb	a5,0(s6)
200051fe:	a819                	c.j	20005214 <__printf_float_impl+0x33a>
20005200:	04500c13          	li	s8,69
20005204:	bff9                	c.j	200051e2 <__printf_float_impl+0x308>
20005206:	fff50783          	lb	a5,-1(a0)
2000520a:	157d                	c.addi	a0,-1
2000520c:	00f500a3          	sb	a5,1(a0)
20005210:	fec51be3          	bne	a0,a2,20005206 <__printf_float_impl+0x32c>
20005214:	02e00793          	li	a5,46
20005218:	001b0513          	addi	a0,s6,1
2000521c:	00fb00a3          	sb	a5,1(s6)
20005220:	84ba                	c.mv	s1,a4
20005222:	b595                	c.j	20005086 <__printf_float_impl+0x1ac>
20005224:	0785                	c.addi	a5,1
20005226:	fff7c603          	lbu	a2,-1(a5)
2000522a:	0505                	c.addi	a0,1
2000522c:	fec50fa3          	sb	a2,-1(a0)
20005230:	b7c9                	c.j	200051f2 <__printf_float_impl+0x318>
20005232:	167d                	c.addi	a2,-1
20005234:	00064703          	lbu	a4,0(a2)
20005238:	a6e754db          	beqc	a4,46,200050a0 <__printf_float_impl+0x1c6>
2000523c:	0705                	c.addi	a4,1
2000523e:	0ff77713          	andi	a4,a4,255
20005242:	00875663          	bge	a4,s0,2000524e <__printf_float_impl+0x374>
20005246:	00e60023          	sb	a4,0(a2)
2000524a:	4681                	c.li	a3,0
2000524c:	bd91                	c.j	200050a0 <__printf_float_impl+0x1c6>
2000524e:	8f01                	c.sub	a4,s0
20005250:	00e60023          	sb	a4,0(a2)
20005254:	b5b1                	c.j	200050a0 <__printf_float_impl+0x1c6>
20005256:	873e                	c.mv	a4,a5
20005258:	e40688e3          	beqz	a3,200050a8 <__printf_float_impl+0x1ce>
2000525c:	02eb6363          	bltu	s6,a4,20005282 <__printf_float_impl+0x3a8>
20005260:	4705                	c.li	a4,1
20005262:	00eb0023          	sb	a4,0(s6)
20005266:	4772                	c.lwsp	a4,28(sp)
20005268:	0705                	c.addi	a4,1
2000526a:	ce3a                	c.swsp	a4,28(sp)
2000526c:	426c515b          	beqc	s8,70,2000528e <__printf_float_impl+0x3b4>
20005270:	001b0703          	lb	a4,1(s6)
20005274:	00eb0123          	sb	a4,2(s6)
20005278:	02e00713          	li	a4,46
2000527c:	00eb00a3          	sb	a4,1(s6)
20005280:	b525                	c.j	200050a8 <__printf_float_impl+0x1ce>
20005282:	fff70683          	lb	a3,-1(a4)
20005286:	177d                	c.addi	a4,-1
20005288:	00d700a3          	sb	a3,1(a4)
2000528c:	bfc1                	c.j	2000525c <__printf_float_impl+0x382>
2000528e:	87aa                	c.mv	a5,a0
20005290:	bd21                	c.j	200050a8 <__printf_float_impl+0x1ce>
20005292:	000b4783          	lbu	a5,0(s6)
20005296:	00f6e763          	bltu	a3,a5,200052a4 <__printf_float_impl+0x3ca>
2000529a:	97ba                	c.add	a5,a4
2000529c:	00078783          	lb	a5,0(a5)
200052a0:	00fb0023          	sb	a5,0(s6)
200052a4:	0b05                	c.addi	s6,1
200052a6:	bd0d                	c.j	200050d8 <__printf_float_impl+0x1fe>
200052a8:	ca1c6c5b          	bnec	s8,65,20004f60 <__printf_float_impl+0x86>
200052ac:	05000793          	li	a5,80
200052b0:	00f50023          	sb	a5,0(a0)
200052b4:	4772                	c.lwsp	a4,28(sp)
200052b6:	02d00793          	li	a5,45
200052ba:	00074463          	bltz	a4,200052c2 <__printf_float_impl+0x3e8>
200052be:	02b00793          	li	a5,43
200052c2:	00f500a3          	sb	a5,1(a0)
200052c6:	47f2                	c.lwsp	a5,28(sp)
200052c8:	41f7d693          	srai	a3,a5,0x1f
200052cc:	00f6c733          	xor	a4,a3,a5
200052d0:	8f15                	c.sub	a4,a3
200052d2:	070a                	c.slli	a4,0x2
200052d4:	41f75793          	srai	a5,a4,0x1f
200052d8:	4685                	c.li	a3,1
200052da:	b53d                	c.j	20005108 <__printf_float_impl+0x22e>

200052dc <strchr>:
200052dc:	00357713          	andi	a4,a0,3
200052e0:	00071c63          	bnez	a4,200052f8 <strchr+0x1c>
200052e4:	4110                	c.lw	a2,0(a0)
200052e6:	20b606db          	ffb	a3,a2,a1
200052ea:	e699                	c.bnez	a3,200052f8 <strchr+0x1c>
200052ec:	200606db          	ffb	a3,a2,zero
200052f0:	ea91                	c.bnez	a3,20005304 <strchr+0x28>
200052f2:	0511                	c.addi	a0,4
200052f4:	ff1ff06f          	j	200052e4 <strchr+0x8>
200052f8:	00054783          	lbu	a5,0(a0)
200052fc:	0505                	c.addi	a0,1
200052fe:	00b78563          	beq	a5,a1,20005308 <strchr+0x2c>
20005302:	fbfd                	c.bnez	a5,200052f8 <strchr+0x1c>
20005304:	4501                	c.li	a0,0
20005306:	8082                	c.jr	ra
20005308:	157d                	c.addi	a0,-1
2000530a:	8082                	c.jr	ra
2000530c:	0001                	c.nop
	...

20005310 <strcpy>:
20005310:	00b567b3          	or	a5,a0,a1
20005314:	8b8d                	c.andi	a5,3
20005316:	e3ad                	c.bnez	a5,20005378 <strcpy+0x68>
20005318:	4198                	c.lw	a4,0(a1)
2000531a:	200707db          	ffb	a5,a4,zero
2000531e:	e3a9                	c.bnez	a5,20005360 <strcpy+0x50>
20005320:	00a007b3          	add	a5,zero,a0
20005324:	0591                	c.addi	a1,4
20005326:	0791                	c.addi	a5,4
20005328:	fee7ae23          	sw	a4,-4(a5)
2000532c:	4198                	c.lw	a4,0(a1)
2000532e:	200706db          	ffb	a3,a4,zero
20005332:	daed                	c.beqz	a3,20005324 <strcpy+0x14>
20005334:	0005c703          	lbu	a4,0(a1)
20005338:	0015c683          	lbu	a3,1(a1)
2000533c:	0025c603          	lbu	a2,2(a1)
20005340:	00e78023          	sb	a4,0(a5)
20005344:	00070863          	beqz	a4,20005354 <strcpy+0x44>
20005348:	00d780a3          	sb	a3,1(a5)
2000534c:	c681                	c.beqz	a3,20005354 <strcpy+0x44>
2000534e:	00c78123          	sb	a2,2(a5)
20005352:	e219                	c.bnez	a2,20005358 <strcpy+0x48>
20005354:	00008067          	ret
20005358:	000781a3          	sb	zero,3(a5)
2000535c:	00008067          	ret
20005360:	0005c703          	lbu	a4,0(a1)
20005364:	87aa                	c.mv	a5,a0
20005366:	0015c683          	lbu	a3,1(a1)
2000536a:	0025c603          	lbu	a2,2(a1)
2000536e:	00e78023          	sb	a4,0(a5)
20005372:	fb79                	c.bnez	a4,20005348 <strcpy+0x38>
20005374:	fe1ff06f          	j	20005354 <strcpy+0x44>
20005378:	00a007b3          	add	a5,zero,a0
2000537c:	0005c703          	lbu	a4,0(a1)
20005380:	0785                	c.addi	a5,1
20005382:	fee78fa3          	sb	a4,-1(a5)
20005386:	0585                	c.addi	a1,1
20005388:	fb75                	c.bnez	a4,2000537c <strcpy+0x6c>
2000538a:	8082                	c.jr	ra
2000538c:	0001                	c.nop

2000538e <strnlen>:
2000538e:	95aa                	c.add	a1,a0
20005390:	87aa                	c.mv	a5,a0
20005392:	00b78563          	beq	a5,a1,2000539c <strnlen+0xe>
20005396:	0007c703          	lbu	a4,0(a5)
2000539a:	e701                	c.bnez	a4,200053a2 <strnlen+0x14>
2000539c:	40a78533          	sub	a0,a5,a0
200053a0:	8082                	c.jr	ra
200053a2:	0785                	c.addi	a5,1
200053a4:	b7fd                	c.j	20005392 <strnlen+0x4>
	...

200053a8 <__lshrdi3>:
200053a8:	ce11                	c.beqz	a2,200053c4 <__lshrdi3+0x1c>
200053aa:	02000793          	li	a5,32
200053ae:	8f91                	c.sub	a5,a2
200053b0:	00f05c63          	blez	a5,200053c8 <__lshrdi3+0x20>
200053b4:	00c55533          	srl	a0,a0,a2
200053b8:	00f597b3          	sll	a5,a1,a5
200053bc:	00c5d633          	srl	a2,a1,a2
200053c0:	8d5d                	c.or	a0,a5
200053c2:	85b2                	c.mv	a1,a2
200053c4:	00008067          	ret
200053c8:	40f00533          	neg	a0,a5
200053cc:	4601                	c.li	a2,0
200053ce:	00a5d533          	srl	a0,a1,a0
200053d2:	85b2                	c.mv	a1,a2
200053d4:	bfc5                	c.j	200053c4 <__lshrdi3+0x1c>
200053d6:	0001                	c.nop

200053d8 <__ashldi3>:
200053d8:	ce11                	c.beqz	a2,200053f4 <__ashldi3+0x1c>
200053da:	02000793          	li	a5,32
200053de:	8f91                	c.sub	a5,a2
200053e0:	00f05c63          	blez	a5,200053f8 <__ashldi3+0x20>
200053e4:	00c595b3          	sll	a1,a1,a2
200053e8:	00f557b3          	srl	a5,a0,a5
200053ec:	00c51633          	sll	a2,a0,a2
200053f0:	8ddd                	c.or	a1,a5
200053f2:	8532                	c.mv	a0,a2
200053f4:	00008067          	ret
200053f8:	40f005b3          	neg	a1,a5
200053fc:	4601                	c.li	a2,0
200053fe:	00b515b3          	sll	a1,a0,a1
20005402:	8532                	c.mv	a0,a2
20005404:	bfc5                	c.j	200053f4 <__ashldi3+0x1c>
20005406:	0001                	c.nop

20005408 <__riscv_save_12>:
20005408:	7139                	c.addi16sp	sp,-64
2000540a:	4301                	c.li	t1,0
2000540c:	c66e                	c.swsp	s11,12(sp)
2000540e:	a019                	c.j	20005414 <__riscv_save_10+0x4>

20005410 <__riscv_save_10>:
20005410:	7139                	c.addi16sp	sp,-64
20005412:	5341                	c.li	t1,-16
20005414:	c86a                	c.swsp	s10,16(sp)
20005416:	ca66                	c.swsp	s9,20(sp)
20005418:	cc62                	c.swsp	s8,24(sp)
2000541a:	ce5e                	c.swsp	s7,28(sp)
2000541c:	a019                	c.j	20005422 <__riscv_save_4+0x4>

2000541e <__riscv_save_4>:
2000541e:	7139                	c.addi16sp	sp,-64
20005420:	5301                	c.li	t1,-32
20005422:	d05a                	c.swsp	s6,32(sp)
20005424:	d256                	c.swsp	s5,36(sp)
20005426:	d452                	c.swsp	s4,40(sp)
20005428:	d64e                	c.swsp	s3,44(sp)
2000542a:	d84a                	c.swsp	s2,48(sp)
2000542c:	da26                	c.swsp	s1,52(sp)
2000542e:	dc22                	c.swsp	s0,56(sp)
20005430:	de06                	c.swsp	ra,60(sp)
20005432:	40610133          	sub	sp,sp,t1
20005436:	8282                	c.jr	t0

20005438 <__riscv_save_0>:
20005438:	1141                	c.addi	sp,-16
2000543a:	c04a                	c.swsp	s2,0(sp)
2000543c:	c226                	c.swsp	s1,4(sp)
2000543e:	c422                	c.swsp	s0,8(sp)
20005440:	c606                	c.swsp	ra,12(sp)
20005442:	8282                	c.jr	t0

20005444 <__riscv_restore_12>:
20005444:	4db2                	c.lwsp	s11,12(sp)
20005446:	0141                	c.addi	sp,16

20005448 <__riscv_restore_10>:
20005448:	4d02                	c.lwsp	s10,0(sp)
2000544a:	4c92                	c.lwsp	s9,4(sp)
2000544c:	4c22                	c.lwsp	s8,8(sp)
2000544e:	4bb2                	c.lwsp	s7,12(sp)
20005450:	0141                	c.addi	sp,16

20005452 <__riscv_restore_4>:
20005452:	4b02                	c.lwsp	s6,0(sp)
20005454:	4a92                	c.lwsp	s5,4(sp)
20005456:	4a22                	c.lwsp	s4,8(sp)
20005458:	49b2                	c.lwsp	s3,12(sp)
2000545a:	0141                	c.addi	sp,16

2000545c <__riscv_restore_0>:
2000545c:	4902                	c.lwsp	s2,0(sp)
2000545e:	4492                	c.lwsp	s1,4(sp)
20005460:	4422                	c.lwsp	s0,8(sp)
20005462:	40b2                	c.lwsp	ra,12(sp)
20005464:	0141                	c.addi	sp,16
20005466:	8082                	c.jr	ra
